; ModuleID = 'C:/Users/Alex/Downloads/RFNoC-HLS-WINLAB-master/hls-projects/correlator/correlator/solution1/.autopilot/db/a.g.bc'
target datalayout = "e-p:32:32:32-i1:8:8-i8:8:8-i16:16:16-i32:32:32-i64:64:64-f32:32:32-f64:64:64-f80:128:128-v64:64:64-v128:128:128-a0:0:64-f80:32:32-n8:16:32-S32"
target triple = "i686-pc-mingw32"

%"class.std::ios_base::Init" = type {}
%struct.ap_int.6 = type { %struct.ap_int_base.7 }
%struct.ap_int_base.7 = type { %struct.ssdm_int.8 }
%struct.ssdm_int.8 = type { i16 }
%struct.ap_int.9 = type { %struct.ap_int_base.10 }
%struct.ap_int_base.10 = type { %struct.ssdm_int.11 }
%struct.ssdm_int.11 = type { i17 }
%struct.ap_int.12 = type { %struct.ap_int_base.13 }
%struct.ap_int_base.13 = type { %struct.ssdm_int.14 }
%struct.ssdm_int.14 = type { i18 }
%struct.ap_int.15 = type { %struct.ap_int_base.16 }
%struct.ap_int_base.16 = type { %struct.ssdm_int.17 }
%struct.ssdm_int.17 = type { i19 }
%struct.ap_int.18 = type { %struct.ap_int_base.19 }
%struct.ap_int_base.19 = type { %struct.ssdm_int.20 }
%struct.ssdm_int.20 = type { i20 }
%struct.ap_int.21 = type { %struct.ap_int_base.22 }
%struct.ap_int_base.22 = type { %struct.ssdm_int.23 }
%struct.ssdm_int.23 = type { i21 }
%struct.ap_int.24 = type { %struct.ap_int_base.25 }
%struct.ap_int_base.25 = type { %struct.ssdm_int.26 }
%struct.ssdm_int.26 = type { i22 }
%struct.ap_int.27 = type { %struct.ap_int_base.28 }
%struct.ap_int_base.28 = type { %struct.ssdm_int.29 }
%struct.ssdm_int.29 = type { i23 }
%struct.ap_uint.3 = type { %struct.ap_int_base.4 }
%struct.ap_int_base.4 = type { %struct.ssdm_int.5 }
%struct.ssdm_int.5 = type { i10 }
%struct.ap_uint = type { %struct.ap_int_base.0 }
%struct.ap_int_base.0 = type { %struct.ssdm_int.1 }
%struct.ssdm_int.1 = type { i1 }
%struct.ap_uint.30 = type { %struct.ap_int_base.31 }
%struct.ap_int_base.31 = type { %struct.ssdm_int.32 }
%struct.ssdm_int.32 = type { i24 }
%struct.ap_int.36 = type { %struct.ap_int_base.37 }
%struct.ap_int_base.37 = type { %struct.ssdm_int.38 }
%struct.ssdm_int.38 = type { i25 }
%struct.ap_int.39 = type { %struct.ap_int_base.40 }
%struct.ap_int_base.40 = type { %struct.ssdm_int.41 }
%struct.ssdm_int.41 = type { i50 }
%struct.ap_int.42 = type { %struct.ap_int_base.43 }
%struct.ap_int_base.43 = type { %struct.ssdm_int.44 }
%struct.ssdm_int.44 = type { i51 }
%struct.threadlocaleinfostruct = type { i32, i32, i32, [6 x i32], [6 x %struct.tagLC_ID], [6 x %struct.anon], i32, i32, i32*, i32*, i32*, %struct.lconv*, i32*, i16*, i16*, i8*, i8*, %"class.std::ios_base::Init"* }
%struct.tagLC_ID = type { i16, i16, i16 }
%struct.anon = type { i8*, i16*, i32*, i32* }
%struct.lconv = type { i8*, i8*, i8*, i8*, i8*, i8*, i8*, i8*, i8*, i8*, i8, i8, i8, i8, i8, i8, i8, i8 }
%struct.localeinfo_struct = type { %struct.threadlocaleinfostruct*, %"class.std::ios_base::Init"* }
%struct.__gthread_once_t = type { i32, i32 }
%"class.std::locale::id" = type { i32 }
%"class.std::basic_istream" = type { i32 (...)**, i32, %"class.std::basic_ios" }
%"class.std::basic_ios" = type { %"class.std::ios_base", %"class.std::basic_ostream"*, i8, i1, %"class.std::basic_streambuf"*, %"class.std::ctype"*, %"class.std::num_put"*, %"class.std::num_get"* }
%"class.std::ios_base" = type { i32 (...)**, i32, i32, i17, i17, i17, %"struct.std::ios_base::_Callback_list"*, %"struct.std::ios_base::_Words", [8 x %"struct.std::ios_base::_Words"], i32, %"struct.std::ios_base::_Words"*, %"class.std::locale" }
%"struct.std::ios_base::_Callback_list" = type { %"struct.std::ios_base::_Callback_list"*, void (i2, %"class.std::ios_base"*, i32)*, i32, i32 }
%"struct.std::ios_base::_Words" = type { i8*, i32 }
%"class.std::locale" = type { %"class.std::locale::_Impl"* }
%"class.std::locale::_Impl" = type { i32, %"class.std::locale::facet"**, i32, %"class.std::locale::facet"**, i8** }
%"class.std::locale::facet" = type { i32 (...)**, i32 }
%"class.std::basic_ostream" = type { i32 (...)**, %"class.std::basic_ios" }
%"class.std::basic_streambuf" = type { i32 (...)**, i8*, i8*, i8*, i8*, i8*, i8*, %"class.std::locale" }
%"class.std::ctype" = type { %"class.std::locale::facet", i32*, i1, i32*, i32*, i16*, i8, [256 x i8], [256 x i8], i8 }
%"class.std::num_put" = type { %"class.std::locale::facet" }
%"class.std::num_get" = type { %"class.std::locale::facet" }
%"class.std::basic_istream.49" = type { i32 (...)**, i32, %"class.std::basic_ios.51" }
%"class.std::basic_ios.51" = type { %"class.std::ios_base", %"class.std::basic_ostream.52"*, i16, i1, %"class.std::basic_streambuf.53"*, %"class.std::ctype.54"*, %"class.std::num_put.55"*, %"class.std::num_get.56"* }
%"class.std::basic_ostream.52" = type { i32 (...)**, %"class.std::basic_ios.51" }
%"class.std::basic_streambuf.53" = type { i32 (...)**, i16*, i16*, i16*, i16*, i16*, i16*, %"class.std::locale" }
%"class.std::ctype.54" = type { %"class.std::__ctype_abstract_base", i32*, i1, [128 x i8], [256 x i16], [16 x i16], [16 x i16] }
%"class.std::__ctype_abstract_base" = type { %"class.std::locale::facet" }
%"class.std::num_put.55" = type { %"class.std::locale::facet" }
%"class.std::num_get.56" = type { %"class.std::locale::facet" }
%"class.hls::stream" = type { %struct.rfnoc_axis }
%struct.rfnoc_axis = type { %struct.ap_int, %struct.ap_uint }
%struct.ap_int = type { %struct.ap_int_base }
%struct.ap_int_base = type { %"class.std::locale::id" }
%"class.hls::stream.2" = type { %struct.ap_uint }
%struct.ap_bit_ref = type { %struct.ap_int_base.31*, i32 }
%struct.ap_int_base.45 = type { %struct.ssdm_int.46 }
%struct.ssdm_int.46 = type { i33 }
%struct.ap_range_ref = type { %struct.ap_int_base.43*, i32, i32 }
%struct.ap_range_ref.47 = type { %struct.ap_int_base.31*, i32, i32 }
%struct.ap_range_ref.48 = type { %struct.ap_int_base*, i32, i32 }

@_ZStL8__ioinit = internal global %"class.std::ios_base::Init" zeroinitializer, align 1 ; [#uses=2 type=%"class.std::ios_base::Init"*]
@.str = private unnamed_addr constant [1 x i8] zeroinitializer, align 1 ; [#uses=1 type=[1 x i8]*]
@.str1 = private unnamed_addr constant [6 x i8] c"ap_hs\00", align 1 ; [#uses=1 type=[6 x i8]*]
@.str2 = private unnamed_addr constant [13 x i8] c"ap_ctrl_none\00", align 1 ; [#uses=1 type=[13 x i8]*]
@.str3 = private unnamed_addr constant [5 x i8] c"axis\00", align 1 ; [#uses=1 type=[5 x i8]*]
@.str4 = private unnamed_addr constant [5 x i8] c"both\00", align 1 ; [#uses=1 type=[5 x i8]*]
@_ZZ10correlatorN3hls6streamI10rfnoc_axisEES2_7ap_uintILi1EENS0_IS4_EES3_ILi10EEE10data_reg_i = internal global [512 x %struct.ap_int.6] zeroinitializer, align 2 ; [#uses=6 type=[512 x %struct.ap_int.6]*]
@_ZGVZ10correlatorN3hls6streamI10rfnoc_axisEES2_7ap_uintILi1EENS0_IS4_EES3_ILi10EEE10data_reg_i = internal global i8 0 ; [#uses=2 type=i8*]
@.str5 = private unnamed_addr constant [9 x i8] c"COMPLETE\00", align 1 ; [#uses=1 type=[9 x i8]*]
@_ZZ10correlatorN3hls6streamI10rfnoc_axisEES2_7ap_uintILi1EENS0_IS4_EES3_ILi10EEE10data_reg_q = internal global [512 x %struct.ap_int.6] zeroinitializer, align 2 ; [#uses=6 type=[512 x %struct.ap_int.6]*]
@_ZGVZ10correlatorN3hls6streamI10rfnoc_axisEES2_7ap_uintILi1EENS0_IS4_EES3_ILi10EEE10data_reg_q = internal global i8 0 ; [#uses=2 type=i8*]
@_ZZ10correlatorN3hls6streamI10rfnoc_axisEES2_7ap_uintILi1EENS0_IS4_EES3_ILi10EEE13product_reg_i = internal global [512 x %struct.ap_int.6] zeroinitializer, align 2 ; [#uses=5 type=[512 x %struct.ap_int.6]*]
@_ZGVZ10correlatorN3hls6streamI10rfnoc_axisEES2_7ap_uintILi1EENS0_IS4_EES3_ILi10EEE13product_reg_i = internal global i8 0 ; [#uses=2 type=i8*]
@_ZZ10correlatorN3hls6streamI10rfnoc_axisEES2_7ap_uintILi1EENS0_IS4_EES3_ILi10EEE13product_reg_q = internal global [512 x %struct.ap_int.6] zeroinitializer, align 2 ; [#uses=5 type=[512 x %struct.ap_int.6]*]
@_ZGVZ10correlatorN3hls6streamI10rfnoc_axisEES2_7ap_uintILi1EENS0_IS4_EES3_ILi10EEE13product_reg_q = internal global i8 0 ; [#uses=2 type=i8*]
@_ZZ10correlatorN3hls6streamI10rfnoc_axisEES2_7ap_uintILi1EENS0_IS4_EES3_ILi10EEE14adder_in_reg_i = internal global [512 x %struct.ap_int.6] zeroinitializer, align 2 ; [#uses=6 type=[512 x %struct.ap_int.6]*]
@_ZGVZ10correlatorN3hls6streamI10rfnoc_axisEES2_7ap_uintILi1EENS0_IS4_EES3_ILi10EEE14adder_in_reg_i = internal global i8 0 ; [#uses=2 type=i8*]
@_ZZ10correlatorN3hls6streamI10rfnoc_axisEES2_7ap_uintILi1EENS0_IS4_EES3_ILi10EEE14adder_in_reg_q = internal global [512 x %struct.ap_int.6] zeroinitializer, align 2 ; [#uses=6 type=[512 x %struct.ap_int.6]*]
@_ZGVZ10correlatorN3hls6streamI10rfnoc_axisEES2_7ap_uintILi1EENS0_IS4_EES3_ILi10EEE14adder_in_reg_q = internal global i8 0 ; [#uses=2 type=i8*]
@_ZZ10correlatorN3hls6streamI10rfnoc_axisEES2_7ap_uintILi1EENS0_IS4_EES3_ILi10EEE10sum1_reg_i = internal global [256 x %struct.ap_int.9] zeroinitializer, align 4 ; [#uses=5 type=[256 x %struct.ap_int.9]*]
@_ZGVZ10correlatorN3hls6streamI10rfnoc_axisEES2_7ap_uintILi1EENS0_IS4_EES3_ILi10EEE10sum1_reg_i = internal global i8 0 ; [#uses=2 type=i8*]
@_ZZ10correlatorN3hls6streamI10rfnoc_axisEES2_7ap_uintILi1EENS0_IS4_EES3_ILi10EEE10sum1_reg_q = internal global [256 x %struct.ap_int.9] zeroinitializer, align 4 ; [#uses=5 type=[256 x %struct.ap_int.9]*]
@_ZGVZ10correlatorN3hls6streamI10rfnoc_axisEES2_7ap_uintILi1EENS0_IS4_EES3_ILi10EEE10sum1_reg_q = internal global i8 0 ; [#uses=2 type=i8*]
@_ZZ10correlatorN3hls6streamI10rfnoc_axisEES2_7ap_uintILi1EENS0_IS4_EES3_ILi10EEE10sum2_reg_i = internal global [128 x %struct.ap_int.12] zeroinitializer, align 4 ; [#uses=5 type=[128 x %struct.ap_int.12]*]
@_ZGVZ10correlatorN3hls6streamI10rfnoc_axisEES2_7ap_uintILi1EENS0_IS4_EES3_ILi10EEE10sum2_reg_i = internal global i8 0 ; [#uses=2 type=i8*]
@_ZZ10correlatorN3hls6streamI10rfnoc_axisEES2_7ap_uintILi1EENS0_IS4_EES3_ILi10EEE10sum2_reg_q = internal global [128 x %struct.ap_int.12] zeroinitializer, align 4 ; [#uses=5 type=[128 x %struct.ap_int.12]*]
@_ZGVZ10correlatorN3hls6streamI10rfnoc_axisEES2_7ap_uintILi1EENS0_IS4_EES3_ILi10EEE10sum2_reg_q = internal global i8 0 ; [#uses=2 type=i8*]
@_ZZ10correlatorN3hls6streamI10rfnoc_axisEES2_7ap_uintILi1EENS0_IS4_EES3_ILi10EEE10sum3_reg_i = internal global [64 x %struct.ap_int.15] zeroinitializer, align 4 ; [#uses=5 type=[64 x %struct.ap_int.15]*]
@_ZGVZ10correlatorN3hls6streamI10rfnoc_axisEES2_7ap_uintILi1EENS0_IS4_EES3_ILi10EEE10sum3_reg_i = internal global i8 0 ; [#uses=2 type=i8*]
@_ZZ10correlatorN3hls6streamI10rfnoc_axisEES2_7ap_uintILi1EENS0_IS4_EES3_ILi10EEE10sum3_reg_q = internal global [64 x %struct.ap_int.15] zeroinitializer, align 4 ; [#uses=5 type=[64 x %struct.ap_int.15]*]
@_ZGVZ10correlatorN3hls6streamI10rfnoc_axisEES2_7ap_uintILi1EENS0_IS4_EES3_ILi10EEE10sum3_reg_q = internal global i8 0 ; [#uses=2 type=i8*]
@_ZZ10correlatorN3hls6streamI10rfnoc_axisEES2_7ap_uintILi1EENS0_IS4_EES3_ILi10EEE10sum4_reg_i = internal global [32 x %struct.ap_int.18] zeroinitializer, align 4 ; [#uses=5 type=[32 x %struct.ap_int.18]*]
@_ZGVZ10correlatorN3hls6streamI10rfnoc_axisEES2_7ap_uintILi1EENS0_IS4_EES3_ILi10EEE10sum4_reg_i = internal global i8 0 ; [#uses=2 type=i8*]
@_ZZ10correlatorN3hls6streamI10rfnoc_axisEES2_7ap_uintILi1EENS0_IS4_EES3_ILi10EEE10sum4_reg_q = internal global [32 x %struct.ap_int.18] zeroinitializer, align 4 ; [#uses=5 type=[32 x %struct.ap_int.18]*]
@_ZGVZ10correlatorN3hls6streamI10rfnoc_axisEES2_7ap_uintILi1EENS0_IS4_EES3_ILi10EEE10sum4_reg_q = internal global i8 0 ; [#uses=2 type=i8*]
@_ZZ10correlatorN3hls6streamI10rfnoc_axisEES2_7ap_uintILi1EENS0_IS4_EES3_ILi10EEE10sum5_reg_i = internal global [16 x %struct.ap_int.21] zeroinitializer, align 4 ; [#uses=5 type=[16 x %struct.ap_int.21]*]
@_ZGVZ10correlatorN3hls6streamI10rfnoc_axisEES2_7ap_uintILi1EENS0_IS4_EES3_ILi10EEE10sum5_reg_i = internal global i8 0 ; [#uses=2 type=i8*]
@_ZZ10correlatorN3hls6streamI10rfnoc_axisEES2_7ap_uintILi1EENS0_IS4_EES3_ILi10EEE10sum5_reg_q = internal global [16 x %struct.ap_int.21] zeroinitializer, align 4 ; [#uses=5 type=[16 x %struct.ap_int.21]*]
@_ZGVZ10correlatorN3hls6streamI10rfnoc_axisEES2_7ap_uintILi1EENS0_IS4_EES3_ILi10EEE10sum5_reg_q = internal global i8 0 ; [#uses=2 type=i8*]
@_ZZ10correlatorN3hls6streamI10rfnoc_axisEES2_7ap_uintILi1EENS0_IS4_EES3_ILi10EEE10sum6_reg_i = internal global [8 x %struct.ap_int.24] zeroinitializer, align 4 ; [#uses=5 type=[8 x %struct.ap_int.24]*]
@_ZGVZ10correlatorN3hls6streamI10rfnoc_axisEES2_7ap_uintILi1EENS0_IS4_EES3_ILi10EEE10sum6_reg_i = internal global i8 0 ; [#uses=2 type=i8*]
@_ZZ10correlatorN3hls6streamI10rfnoc_axisEES2_7ap_uintILi1EENS0_IS4_EES3_ILi10EEE10sum6_reg_q = internal global [8 x %struct.ap_int.24] zeroinitializer, align 4 ; [#uses=5 type=[8 x %struct.ap_int.24]*]
@_ZGVZ10correlatorN3hls6streamI10rfnoc_axisEES2_7ap_uintILi1EENS0_IS4_EES3_ILi10EEE10sum6_reg_q = internal global i8 0 ; [#uses=2 type=i8*]
@_ZZ10correlatorN3hls6streamI10rfnoc_axisEES2_7ap_uintILi1EENS0_IS4_EES3_ILi10EEE10sum7_reg_i = internal global [4 x %struct.ap_int.27] zeroinitializer, align 4 ; [#uses=5 type=[4 x %struct.ap_int.27]*]
@_ZGVZ10correlatorN3hls6streamI10rfnoc_axisEES2_7ap_uintILi1EENS0_IS4_EES3_ILi10EEE10sum7_reg_i = internal global i8 0 ; [#uses=2 type=i8*]
@_ZZ10correlatorN3hls6streamI10rfnoc_axisEES2_7ap_uintILi1EENS0_IS4_EES3_ILi10EEE10sum7_reg_q = internal global [4 x %struct.ap_int.27] zeroinitializer, align 4 ; [#uses=5 type=[4 x %struct.ap_int.27]*]
@_ZGVZ10correlatorN3hls6streamI10rfnoc_axisEES2_7ap_uintILi1EENS0_IS4_EES3_ILi10EEE10sum7_reg_q = internal global i8 0 ; [#uses=2 type=i8*]
@_ZZ10correlatorN3hls6streamI10rfnoc_axisEES2_7ap_uintILi1EENS0_IS4_EES3_ILi10EEE14out_sample_cnt = internal global %struct.ap_uint.3 zeroinitializer, align 2 ; [#uses=5 type=%struct.ap_uint.3*]
@_ZGVZ10correlatorN3hls6streamI10rfnoc_axisEES2_7ap_uintILi1EENS0_IS4_EES3_ILi10EEE14out_sample_cnt = internal global i8 0 ; [#uses=2 type=i8*]
@_ZZ10correlatorN3hls6streamI10rfnoc_axisEES2_7ap_uintILi1EENS0_IS4_EES3_ILi10EEE6pn_seq = internal global [512 x %struct.ap_uint] zeroinitializer, align 1 ; [#uses=4 type=[512 x %struct.ap_uint]*]
@_ZGVZ10correlatorN3hls6streamI10rfnoc_axisEES2_7ap_uintILi1EENS0_IS4_EES3_ILi10EEE6pn_seq = internal global i8 0 ; [#uses=2 type=i8*]
@_ZZ10correlatorN3hls6streamI10rfnoc_axisEES2_7ap_uintILi1EENS0_IS4_EES3_ILi10EEE8load_cnt = internal global %struct.ap_uint.3 zeroinitializer, align 2 ; [#uses=6 type=%struct.ap_uint.3*]
@_ZGVZ10correlatorN3hls6streamI10rfnoc_axisEES2_7ap_uintILi1EENS0_IS4_EES3_ILi10EEE8load_cnt = internal global i8 0 ; [#uses=2 type=i8*]
@_ZZ10correlatorN3hls6streamI10rfnoc_axisEES2_7ap_uintILi1EENS0_IS4_EES3_ILi10EEE14data_valid_reg = internal global %struct.ap_uint.30 zeroinitializer, align 4 ; [#uses=2 type=%struct.ap_uint.30*]
@_ZGVZ10correlatorN3hls6streamI10rfnoc_axisEES2_7ap_uintILi1EENS0_IS4_EES3_ILi10EEE14data_valid_reg = internal global i8 0 ; [#uses=2 type=i8*]
@_ZZ10correlatorN3hls6streamI10rfnoc_axisEES2_7ap_uintILi1EENS0_IS4_EES3_ILi10EEE13pnseq_len_reg = internal global %struct.ap_uint.3 zeroinitializer, align 2 ; [#uses=3 type=%struct.ap_uint.3*]
@_ZGVZ10correlatorN3hls6streamI10rfnoc_axisEES2_7ap_uintILi1EENS0_IS4_EES3_ILi10EEE13pnseq_len_reg = internal global i8 0 ; [#uses=2 type=i8*]
@_ZZ10correlatorN3hls6streamI10rfnoc_axisEES2_7ap_uintILi1EENS0_IS4_EES3_ILi10EEE12currentState = internal global i2 0, align 1 ; [#uses=6 type=i2*]
@_ZZ10correlatorN3hls6streamI10rfnoc_axisEES2_7ap_uintILi1EENS0_IS4_EES3_ILi10EEE14currentwrState = internal global i1 false, align 1 ; [#uses=5 type=i1*]
@_ZZ10correlatorN3hls6streamI10rfnoc_axisEES2_7ap_uintILi1EENS0_IS4_EES3_ILi10EEE10sum8_reg_i = internal global [2 x %struct.ap_uint.30] zeroinitializer, align 4 ; [#uses=5 type=[2 x %struct.ap_uint.30]*]
@_ZGVZ10correlatorN3hls6streamI10rfnoc_axisEES2_7ap_uintILi1EENS0_IS4_EES3_ILi10EEE10sum8_reg_i = internal global i8 0 ; [#uses=2 type=i8*]
@_ZZ10correlatorN3hls6streamI10rfnoc_axisEES2_7ap_uintILi1EENS0_IS4_EES3_ILi10EEE10sum8_reg_q = internal global [2 x %struct.ap_uint.30] zeroinitializer, align 4 ; [#uses=5 type=[2 x %struct.ap_uint.30]*]
@_ZGVZ10correlatorN3hls6streamI10rfnoc_axisEES2_7ap_uintILi1EENS0_IS4_EES3_ILi10EEE10sum8_reg_q = internal global i8 0 ; [#uses=2 type=i8*]
@_ZZ10correlatorN3hls6streamI10rfnoc_axisEES2_7ap_uintILi1EENS0_IS4_EES3_ILi10EEE9sum_reg_i = internal global %struct.ap_int.36 zeroinitializer, align 4 ; [#uses=3 type=%struct.ap_int.36*]
@_ZGVZ10correlatorN3hls6streamI10rfnoc_axisEES2_7ap_uintILi1EENS0_IS4_EES3_ILi10EEE9sum_reg_i = internal global i8 0 ; [#uses=2 type=i8*]
@_ZZ10correlatorN3hls6streamI10rfnoc_axisEES2_7ap_uintILi1EENS0_IS4_EES3_ILi10EEE9sum_reg_q = internal global %struct.ap_int.36 zeroinitializer, align 4 ; [#uses=3 type=%struct.ap_int.36*]
@_ZGVZ10correlatorN3hls6streamI10rfnoc_axisEES2_7ap_uintILi1EENS0_IS4_EES3_ILi10EEE9sum_reg_q = internal global i8 0 ; [#uses=2 type=i8*]
@_ZZ10correlatorN3hls6streamI10rfnoc_axisEES2_7ap_uintILi1EENS0_IS4_EES3_ILi10EEE8sq_reg_i = internal global %struct.ap_int.39 zeroinitializer, align 8 ; [#uses=3 type=%struct.ap_int.39*]
@_ZGVZ10correlatorN3hls6streamI10rfnoc_axisEES2_7ap_uintILi1EENS0_IS4_EES3_ILi10EEE8sq_reg_i = internal global i8 0 ; [#uses=2 type=i8*]
@_ZZ10correlatorN3hls6streamI10rfnoc_axisEES2_7ap_uintILi1EENS0_IS4_EES3_ILi10EEE8sq_reg_q = internal global %struct.ap_int.39 zeroinitializer, align 8 ; [#uses=3 type=%struct.ap_int.39*]
@_ZGVZ10correlatorN3hls6streamI10rfnoc_axisEES2_7ap_uintILi1EENS0_IS4_EES3_ILi10EEE8sq_reg_q = internal global i8 0 ; [#uses=2 type=i8*]
@_ZZ10correlatorN3hls6streamI10rfnoc_axisEES2_7ap_uintILi1EENS0_IS4_EES3_ILi10EEE6sq_sum = internal global %struct.ap_int.42 zeroinitializer, align 8 ; [#uses=3 type=%struct.ap_int.42*]
@_ZGVZ10correlatorN3hls6streamI10rfnoc_axisEES2_7ap_uintILi1EENS0_IS4_EES3_ILi10EEE6sq_sum = internal global i8 0 ; [#uses=2 type=i8*]
@.str6 = private unnamed_addr constant [18 x i8] c"ADDER_STAGE8_LOOP\00", align 1 ; [#uses=1 type=[18 x i8]*]
@.str7 = private unnamed_addr constant [18 x i8] c"ADDER_STAGE7_LOOP\00", align 1 ; [#uses=1 type=[18 x i8]*]
@.str8 = private unnamed_addr constant [18 x i8] c"ADDER_STAGE6_LOOP\00", align 1 ; [#uses=1 type=[18 x i8]*]
@.str9 = private unnamed_addr constant [18 x i8] c"ADDER_STAGE5_LOOP\00", align 1 ; [#uses=1 type=[18 x i8]*]
@.str10 = private unnamed_addr constant [18 x i8] c"ADDER_STAGE4_LOOP\00", align 1 ; [#uses=1 type=[18 x i8]*]
@.str11 = private unnamed_addr constant [18 x i8] c"ADDER_STAGE3_LOOP\00", align 1 ; [#uses=1 type=[18 x i8]*]
@.str12 = private unnamed_addr constant [18 x i8] c"ADDER_STAGE2_LOOP\00", align 1 ; [#uses=1 type=[18 x i8]*]
@.str13 = private unnamed_addr constant [18 x i8] c"ADDER_STAGE1_LOOP\00", align 1 ; [#uses=1 type=[18 x i8]*]
@.str14 = private unnamed_addr constant [17 x i8] c"ADDER_INPUT_LOOP\00", align 1 ; [#uses=1 type=[17 x i8]*]
@.str15 = private unnamed_addr constant [17 x i8] c"PRODUCT_REG_LOOP\00", align 1 ; [#uses=1 type=[17 x i8]*]
@.str16 = private unnamed_addr constant [11 x i8] c"SHIFT_DATA\00", align 1 ; [#uses=1 type=[11 x i8]*]
@_ZN9__gnu_cxx24__numeric_traits_integer11__is_signedE = external constant i1 ; [#uses=0 type=i1*]
@_ZN9__gnu_cxx24__numeric_traits_integer8__digitsE = external constant i32 ; [#uses=0 type=i32*]
@_ZN9__gnu_cxx25__numeric_traits_floating14__max_digits10E = external constant i32 ; [#uses=0 type=i32*]
@_ZN9__gnu_cxx25__numeric_traits_floating11__is_signedE = external constant i1 ; [#uses=0 type=i1*]
@_ZN9__gnu_cxx25__numeric_traits_floating10__digits10E = external constant i32 ; [#uses=0 type=i32*]
@_ZN9__gnu_cxx25__numeric_traits_floating16__max_exponent10E = external constant i32 ; [#uses=0 type=i32*]
@__globallocalestatus = external global i32       ; [#uses=0 type=i32*]
@__locale_changed = external global i32           ; [#uses=0 type=i32*]
@__initiallocinfo = external global %struct.threadlocaleinfostruct ; [#uses=0 type=%struct.threadlocaleinfostruct*]
@__initiallocalestructinfo = external global %struct.localeinfo_struct ; [#uses=0 type=%struct.localeinfo_struct*]
@_imp____mb_cur_max = external global i32*        ; [#uses=0 type=i32**]
@_CRT_MT = external global i32                    ; [#uses=0 type=i32*]
@_ZSt7nothrow = external global %"class.std::ios_base::Init" ; [#uses=0 type=%"class.std::ios_base::Init"*]
@_ZNSt6locale7_S_onceE = external global %struct.__gthread_once_t ; [#uses=0 type=%struct.__gthread_once_t*]
@_ZNSt6locale5facet11_S_c_localeE = external global i32* ; [#uses=0 type=i32**]
@_ZNSt6locale5facet7_S_onceE = external global %struct.__gthread_once_t ; [#uses=0 type=%struct.__gthread_once_t*]
@_ZNSt6locale2id11_S_refcountE = external global i32 ; [#uses=0 type=i32*]
@_ZNSt7collate2idE = external global %"class.std::locale::id" ; [#uses=0 type=%"class.std::locale::id"*]
@_ZNSt8ios_base4Init11_S_refcountE = external global i32 ; [#uses=0 type=i32*]
@_ZNSt8ios_base4Init20_S_synced_with_stdioE = external global i1 ; [#uses=0 type=i1*]
@_ZNSt5ctype2idE = external global %"class.std::locale::id" ; [#uses=0 type=%"class.std::locale::id"*]
@_ZNSt5ctypeIcE2idE = external global %"class.std::locale::id" ; [#uses=0 type=%"class.std::locale::id"*]
@_ZNSt5ctypeIwE2idE = external global %"class.std::locale::id" ; [#uses=0 type=%"class.std::locale::id"*]
@_ZNSt10__num_base12_S_atoms_outE = external global i8* ; [#uses=0 type=i8**]
@_ZNSt10__num_base11_S_atoms_inE = external global i8* ; [#uses=0 type=i8**]
@_ZNSt8numpunct2idE = external global %"class.std::locale::id" ; [#uses=0 type=%"class.std::locale::id"*]
@_ZNSt7num_get2idE = external global %"class.std::locale::id" ; [#uses=0 type=%"class.std::locale::id"*]
@_ZNSt7num_put2idE = external global %"class.std::locale::id" ; [#uses=0 type=%"class.std::locale::id"*]
@_ZSt3cin = external global %"class.std::basic_istream" ; [#uses=0 type=%"class.std::basic_istream"*]
@_ZSt4cout = external global %"class.std::basic_ostream" ; [#uses=0 type=%"class.std::basic_ostream"*]
@_ZSt4cerr = external global %"class.std::basic_ostream" ; [#uses=0 type=%"class.std::basic_ostream"*]
@_ZSt4clog = external global %"class.std::basic_ostream" ; [#uses=0 type=%"class.std::basic_ostream"*]
@_ZSt4wcin = external global %"class.std::basic_istream.49" ; [#uses=0 type=%"class.std::basic_istream.49"*]
@_ZSt5wcout = external global %"class.std::basic_ostream.52" ; [#uses=0 type=%"class.std::basic_ostream.52"*]
@_ZSt5wcerr = external global %"class.std::basic_ostream.52" ; [#uses=0 type=%"class.std::basic_ostream.52"*]
@_ZSt5wclog = external global %"class.std::basic_ostream.52" ; [#uses=0 type=%"class.std::basic_ostream.52"*]
@llvm.global_ctors = appending global [1 x { i32, void ()* }] [{ i32, void ()* } { i32 65535, void ()* @_GLOBAL__I_a }] ; [#uses=0 type=[1 x { i32, void ()* }]*]

; [#uses=1]
define internal void @__cxx_global_var_init() nounwind {
  call void @_ZNSt8ios_base4InitC1Ev(%"class.std::ios_base::Init"* @_ZStL8__ioinit)
  %1 = call i32 @atexit(void ()* @__dtor__ZStL8__ioinit) ; [#uses=0 type=i32]
  ret void
}

; [#uses=1]
declare void @_ZNSt8ios_base4InitC1Ev(%"class.std::ios_base::Init"*)

; [#uses=1]
declare void @_ZNSt8ios_base4InitD1Ev(%"class.std::ios_base::Init"*)

; [#uses=1]
define internal void @__dtor__ZStL8__ioinit() nounwind {
  call void @_ZNSt8ios_base4InitD1Ev(%"class.std::ios_base::Init"* @_ZStL8__ioinit)
  ret void
}

; [#uses=1]
declare i32 @atexit(void ()*) nounwind

; [#uses=0]
define void @_Z10correlatorN3hls6streamI10rfnoc_axisEES2_7ap_uintILi1EENS0_IS4_EES3_ILi10EE(%"class.hls::stream"* %i_data, %"class.hls::stream"* %o_data, %struct.ap_uint* byval align 4 %start, %"class.hls::stream.2"* %pnseq_in, %struct.ap_uint.3* byval align 4 %pnseq_len) nounwind {
  %COR_SIZE = alloca i32, align 4                 ; [#uses=1 type=i32*]
  %out_sample = alloca %struct.rfnoc_axis, align 4 ; [#uses=5 type=%struct.rfnoc_axis*]
  %tmp_data = alloca %struct.rfnoc_axis, align 4  ; [#uses=4 type=%struct.rfnoc_axis*]
  %1 = alloca %struct.ap_bit_ref, align 4         ; [#uses=2 type=%struct.ap_bit_ref*]
  %2 = alloca %struct.ap_int_base.45, align 8     ; [#uses=2 type=%struct.ap_int_base.45*]
  %3 = alloca %struct.ap_uint, align 1            ; [#uses=2 type=%struct.ap_uint*]
  %4 = alloca %struct.ap_uint.3, align 2          ; [#uses=2 type=%struct.ap_uint.3*]
  %5 = alloca %struct.ap_uint, align 1            ; [#uses=2 type=%struct.ap_uint*]
  %6 = alloca %struct.ap_uint.3, align 2          ; [#uses=2 type=%struct.ap_uint.3*]
  %7 = alloca %struct.ap_int_base.45, align 8     ; [#uses=2 type=%struct.ap_int_base.45*]
  %8 = alloca %struct.ap_bit_ref, align 4         ; [#uses=2 type=%struct.ap_bit_ref*]
  %9 = alloca %struct.ap_int, align 4             ; [#uses=2 type=%struct.ap_int*]
  %10 = alloca %struct.ap_range_ref, align 4      ; [#uses=2 type=%struct.ap_range_ref*]
  %11 = alloca %struct.ap_int.42, align 8         ; [#uses=2 type=%struct.ap_int.42*]
  %12 = alloca %struct.ap_int_base.43, align 8    ; [#uses=2 type=%struct.ap_int_base.43*]
  %13 = alloca %struct.ap_int.39, align 8         ; [#uses=2 type=%struct.ap_int.39*]
  %14 = alloca %struct.ap_int_base.40, align 8    ; [#uses=2 type=%struct.ap_int_base.40*]
  %15 = alloca %struct.ap_int.39, align 8         ; [#uses=2 type=%struct.ap_int.39*]
  %16 = alloca %struct.ap_int_base.40, align 8    ; [#uses=2 type=%struct.ap_int_base.40*]
  %17 = alloca %struct.ap_int.36, align 4         ; [#uses=2 type=%struct.ap_int.36*]
  %18 = alloca %struct.ap_int_base.37, align 4    ; [#uses=2 type=%struct.ap_int_base.37*]
  %19 = alloca %struct.ap_int.36, align 4         ; [#uses=2 type=%struct.ap_int.36*]
  %20 = alloca %struct.ap_int_base.37, align 4    ; [#uses=2 type=%struct.ap_int_base.37*]
  %i = alloca i32, align 4                        ; [#uses=10 type=i32*]
  %21 = alloca %struct.ap_uint.30, align 4        ; [#uses=2 type=%struct.ap_uint.30*]
  %22 = alloca %struct.ap_int_base.31, align 4    ; [#uses=2 type=%struct.ap_int_base.31*]
  %23 = alloca %struct.ap_uint.30, align 4        ; [#uses=2 type=%struct.ap_uint.30*]
  %24 = alloca %struct.ap_int_base.31, align 4    ; [#uses=2 type=%struct.ap_int_base.31*]
  %i1 = alloca i32, align 4                       ; [#uses=10 type=i32*]
  %25 = alloca %struct.ap_int.27, align 4         ; [#uses=2 type=%struct.ap_int.27*]
  %26 = alloca %struct.ap_int_base.28, align 4    ; [#uses=2 type=%struct.ap_int_base.28*]
  %27 = alloca %struct.ap_int.27, align 4         ; [#uses=2 type=%struct.ap_int.27*]
  %28 = alloca %struct.ap_int_base.28, align 4    ; [#uses=2 type=%struct.ap_int_base.28*]
  %i2 = alloca i32, align 4                       ; [#uses=10 type=i32*]
  %29 = alloca %struct.ap_int.24, align 4         ; [#uses=2 type=%struct.ap_int.24*]
  %30 = alloca %struct.ap_int_base.25, align 4    ; [#uses=2 type=%struct.ap_int_base.25*]
  %31 = alloca %struct.ap_int.24, align 4         ; [#uses=2 type=%struct.ap_int.24*]
  %32 = alloca %struct.ap_int_base.25, align 4    ; [#uses=2 type=%struct.ap_int_base.25*]
  %i3 = alloca i32, align 4                       ; [#uses=10 type=i32*]
  %33 = alloca %struct.ap_int.21, align 4         ; [#uses=2 type=%struct.ap_int.21*]
  %34 = alloca %struct.ap_int_base.22, align 4    ; [#uses=2 type=%struct.ap_int_base.22*]
  %35 = alloca %struct.ap_int.21, align 4         ; [#uses=2 type=%struct.ap_int.21*]
  %36 = alloca %struct.ap_int_base.22, align 4    ; [#uses=2 type=%struct.ap_int_base.22*]
  %i4 = alloca i32, align 4                       ; [#uses=10 type=i32*]
  %37 = alloca %struct.ap_int.18, align 4         ; [#uses=2 type=%struct.ap_int.18*]
  %38 = alloca %struct.ap_int_base.19, align 4    ; [#uses=2 type=%struct.ap_int_base.19*]
  %39 = alloca %struct.ap_int.18, align 4         ; [#uses=2 type=%struct.ap_int.18*]
  %40 = alloca %struct.ap_int_base.19, align 4    ; [#uses=2 type=%struct.ap_int_base.19*]
  %i5 = alloca i32, align 4                       ; [#uses=10 type=i32*]
  %41 = alloca %struct.ap_int.15, align 4         ; [#uses=2 type=%struct.ap_int.15*]
  %42 = alloca %struct.ap_int_base.16, align 4    ; [#uses=2 type=%struct.ap_int_base.16*]
  %43 = alloca %struct.ap_int.15, align 4         ; [#uses=2 type=%struct.ap_int.15*]
  %44 = alloca %struct.ap_int_base.16, align 4    ; [#uses=2 type=%struct.ap_int_base.16*]
  %i6 = alloca i32, align 4                       ; [#uses=10 type=i32*]
  %45 = alloca %struct.ap_int.12, align 4         ; [#uses=2 type=%struct.ap_int.12*]
  %46 = alloca %struct.ap_int_base.13, align 4    ; [#uses=2 type=%struct.ap_int_base.13*]
  %47 = alloca %struct.ap_int.12, align 4         ; [#uses=2 type=%struct.ap_int.12*]
  %48 = alloca %struct.ap_int_base.13, align 4    ; [#uses=2 type=%struct.ap_int_base.13*]
  %i7 = alloca i32, align 4                       ; [#uses=10 type=i32*]
  %49 = alloca %struct.ap_int.9, align 4          ; [#uses=2 type=%struct.ap_int.9*]
  %50 = alloca %struct.ap_int_base.10, align 4    ; [#uses=2 type=%struct.ap_int_base.10*]
  %51 = alloca %struct.ap_int.9, align 4          ; [#uses=2 type=%struct.ap_int.9*]
  %52 = alloca %struct.ap_int_base.10, align 4    ; [#uses=2 type=%struct.ap_int_base.10*]
  %i8 = alloca i32, align 4                       ; [#uses=11 type=i32*]
  %53 = alloca %struct.ap_int.6, align 2          ; [#uses=2 type=%struct.ap_int.6*]
  %54 = alloca %struct.ap_int.6, align 2          ; [#uses=2 type=%struct.ap_int.6*]
  %i9 = alloca i32, align 4                       ; [#uses=13 type=i32*]
  %55 = alloca %struct.ap_int.6, align 2          ; [#uses=2 type=%struct.ap_int.6*]
  %56 = alloca %struct.ap_int_base.45, align 8    ; [#uses=2 type=%struct.ap_int_base.45*]
  %57 = alloca %struct.ap_int.6, align 2          ; [#uses=2 type=%struct.ap_int.6*]
  %58 = alloca %struct.ap_int_base.45, align 8    ; [#uses=2 type=%struct.ap_int_base.45*]
  %59 = alloca %struct.ap_range_ref.47, align 4   ; [#uses=2 type=%struct.ap_range_ref.47*]
  %60 = alloca %struct.ap_range_ref.47, align 4   ; [#uses=2 type=%struct.ap_range_ref.47*]
  %61 = alloca %struct.ap_uint.3, align 2         ; [#uses=2 type=%struct.ap_uint.3*]
  %62 = alloca %struct.ap_int_base.45, align 8    ; [#uses=2 type=%struct.ap_int_base.45*]
  %63 = alloca %struct.ap_uint, align 1           ; [#uses=2 type=%struct.ap_uint*]
  %64 = alloca %struct.ap_uint.3, align 2         ; [#uses=2 type=%struct.ap_uint.3*]
  %65 = alloca %struct.ap_int_base.45, align 8    ; [#uses=2 type=%struct.ap_int_base.45*]
  %66 = alloca %struct.ap_uint.3, align 2         ; [#uses=2 type=%struct.ap_uint.3*]
  %67 = alloca %struct.ap_int_base.45, align 8    ; [#uses=2 type=%struct.ap_int_base.45*]
  %i10 = alloca i32, align 4                      ; [#uses=8 type=i32*]
  %68 = alloca %struct.ap_int.6, align 2          ; [#uses=2 type=%struct.ap_int.6*]
  %69 = alloca %struct.ap_range_ref.48, align 4   ; [#uses=2 type=%struct.ap_range_ref.48*]
  %70 = alloca %struct.ap_int.6, align 2          ; [#uses=2 type=%struct.ap_int.6*]
  %71 = alloca %struct.ap_range_ref.48, align 4   ; [#uses=2 type=%struct.ap_range_ref.48*]
  %72 = alloca %struct.ap_bit_ref, align 4        ; [#uses=2 type=%struct.ap_bit_ref*]
  %73 = alloca %struct.ap_bit_ref, align 4        ; [#uses=2 type=%struct.ap_bit_ref*]
  call void @llvm.dbg.declare(metadata !{%"class.hls::stream"* %i_data}, metadata !10410), !dbg !10411 ; [debug line = 40:42] [debug variable = i_data]
  call void @llvm.dbg.declare(metadata !{%"class.hls::stream"* %o_data}, metadata !10412), !dbg !10413 ; [debug line = 40:74] [debug variable = o_data]
  call void @llvm.dbg.declare(metadata !{%struct.ap_uint* %start}, metadata !10414), !dbg !10415 ; [debug line = 40:93] [debug variable = start]
  call void @llvm.dbg.declare(metadata !{%"class.hls::stream.2"* %pnseq_in}, metadata !10416), !dbg !10417 ; [debug line = 40:125] [debug variable = pnseq_in]
  call void @llvm.dbg.declare(metadata !{%struct.ap_uint.3* %pnseq_len}, metadata !10418), !dbg !10419 ; [debug line = 40:147] [debug variable = pnseq_len]
  call void @llvm.dbg.declare(metadata !{i32* %COR_SIZE}, metadata !10420), !dbg !10422 ; [debug line = 52:11] [debug variable = COR_SIZE]
  store i32 512, i32* %COR_SIZE, align 4, !dbg !10423 ; [debug line = 52:25]
  call void (...)* @_ssdm_op_SpecResource(%"class.hls::stream"* %o_data, i8* getelementptr inbounds ([1 x i8]* @.str, i32 0, i32 0), i8* getelementptr inbounds ([1 x i8]* @.str, i32 0, i32 0), i8* getelementptr inbounds ([1 x i8]* @.str, i32 0, i32 0), i32 1, i8* getelementptr inbounds ([1 x i8]* @.str, i32 0, i32 0), i8* getelementptr inbounds ([1 x i8]* @.str, i32 0, i32 0), i8* getelementptr inbounds ([1 x i8]* @.str, i32 0, i32 0), i8* getelementptr inbounds ([1 x i8]* @.str, i32 0, i32 0), i8* getelementptr inbounds ([1 x i8]* @.str, i32 0, i32 0)) nounwind, !dbg !10424 ; [debug line = 55:1]
  call void (...)* @_ssdm_op_SpecInterface(%"class.hls::stream.2"* %pnseq_in, i8* getelementptr inbounds ([6 x i8]* @.str1, i32 0, i32 0), i32 0, i32 0, i8* getelementptr inbounds ([1 x i8]* @.str, i32 0, i32 0), i32 0, i32 0, i8* getelementptr inbounds ([1 x i8]* @.str, i32 0, i32 0), i8* getelementptr inbounds ([1 x i8]* @.str, i32 0, i32 0), i8* getelementptr inbounds ([1 x i8]* @.str, i32 0, i32 0), i32 0, i32 0, i32 0, i32 0, i8* getelementptr inbounds ([1 x i8]* @.str, i32 0, i32 0), i8* getelementptr inbounds ([1 x i8]* @.str, i32 0, i32 0)) nounwind, !dbg !10425 ; [debug line = 56:1]
  call void (...)* @_ssdm_op_SpecInterface(i32 0, i8* getelementptr inbounds ([13 x i8]* @.str2, i32 0, i32 0), i32 0, i32 0, i8* getelementptr inbounds ([1 x i8]* @.str, i32 0, i32 0), i32 0, i32 0, i8* getelementptr inbounds ([1 x i8]* @.str, i32 0, i32 0), i8* getelementptr inbounds ([1 x i8]* @.str, i32 0, i32 0), i8* getelementptr inbounds ([1 x i8]* @.str, i32 0, i32 0), i32 0, i32 0, i32 0, i32 0, i8* getelementptr inbounds ([1 x i8]* @.str, i32 0, i32 0), i8* getelementptr inbounds ([1 x i8]* @.str, i32 0, i32 0)) nounwind, !dbg !10426 ; [debug line = 57:1]
  call void (...)* @_ssdm_op_SpecInterface(%"class.hls::stream"* %o_data, i8* getelementptr inbounds ([5 x i8]* @.str3, i32 0, i32 0), i32 1, i32 1, i8* getelementptr inbounds ([5 x i8]* @.str4, i32 0, i32 0), i32 0, i32 0, i8* getelementptr inbounds ([1 x i8]* @.str, i32 0, i32 0), i8* getelementptr inbounds ([1 x i8]* @.str, i32 0, i32 0), i8* getelementptr inbounds ([1 x i8]* @.str, i32 0, i32 0), i32 0, i32 0, i32 0, i32 0, i8* getelementptr inbounds ([1 x i8]* @.str, i32 0, i32 0), i8* getelementptr inbounds ([1 x i8]* @.str, i32 0, i32 0)) nounwind, !dbg !10427 ; [debug line = 58:1]
  call void (...)* @_ssdm_op_SpecInterface(%"class.hls::stream"* %i_data, i8* getelementptr inbounds ([5 x i8]* @.str3, i32 0, i32 0), i32 1, i32 1, i8* getelementptr inbounds ([5 x i8]* @.str4, i32 0, i32 0), i32 0, i32 0, i8* getelementptr inbounds ([1 x i8]* @.str, i32 0, i32 0), i8* getelementptr inbounds ([1 x i8]* @.str, i32 0, i32 0), i8* getelementptr inbounds ([1 x i8]* @.str, i32 0, i32 0), i32 0, i32 0, i32 0, i32 0, i8* getelementptr inbounds ([1 x i8]* @.str, i32 0, i32 0), i8* getelementptr inbounds ([1 x i8]* @.str, i32 0, i32 0)) nounwind, !dbg !10428 ; [debug line = 59:1]
  call void (...)* @_ssdm_op_SpecPipeline(i32 1, i32 1, i32 1, i32 0, i8* getelementptr inbounds ([1 x i8]* @.str, i32 0, i32 0)) nounwind, !dbg !10429 ; [debug line = 60:1]
  %74 = load i8* @_ZGVZ10correlatorN3hls6streamI10rfnoc_axisEES2_7ap_uintILi1EENS0_IS4_EES3_ILi10EEE10data_reg_i, align 1, !dbg !10430 ; [#uses=1 type=i8] [debug line = 61:40]
  %75 = icmp eq i8 %74, 0, !dbg !10430            ; [#uses=1 type=i1] [debug line = 61:40]
  br i1 %75, label %76, label %82, !dbg !10430    ; [debug line = 61:40]

; <label>:76                                      ; preds = %0
  br label %77, !dbg !10430                       ; [debug line = 61:40]

; <label>:77                                      ; preds = %77, %76
  %78 = phi %struct.ap_int.6* [ getelementptr inbounds ([512 x %struct.ap_int.6]* @_ZZ10correlatorN3hls6streamI10rfnoc_axisEES2_7ap_uintILi1EENS0_IS4_EES3_ILi10EEE10data_reg_i, i32 0, i32 0), %76 ], [ %79, %77 ], !dbg !10430 ; [#uses=2 type=%struct.ap_int.6*] [debug line = 61:40]
  call void @_ZN6ap_intILi16EEC1Ev(%struct.ap_int.6* %78), !dbg !10430 ; [debug line = 61:40]
  %79 = getelementptr inbounds %struct.ap_int.6* %78, i32 1, !dbg !10430 ; [#uses=2 type=%struct.ap_int.6*] [debug line = 61:40]
  %80 = icmp eq %struct.ap_int.6* %79, getelementptr inbounds ([512 x %struct.ap_int.6]* @_ZZ10correlatorN3hls6streamI10rfnoc_axisEES2_7ap_uintILi1EENS0_IS4_EES3_ILi10EEE10data_reg_i, i64 1, i32 0), !dbg !10430 ; [#uses=1 type=i1] [debug line = 61:40]
  br i1 %80, label %81, label %77, !dbg !10430    ; [debug line = 61:40]

; <label>:81                                      ; preds = %77
  store i8 1, i8* @_ZGVZ10correlatorN3hls6streamI10rfnoc_axisEES2_7ap_uintILi1EENS0_IS4_EES3_ILi10EEE10data_reg_i, !dbg !10430 ; [debug line = 61:40]
  br label %82, !dbg !10430                       ; [debug line = 61:40]

; <label>:82                                      ; preds = %81, %0
  call void (...)* @_ssdm_op_SpecReset(%struct.ap_int.6* getelementptr inbounds ([512 x %struct.ap_int.6]* @_ZZ10correlatorN3hls6streamI10rfnoc_axisEES2_7ap_uintILi1EENS0_IS4_EES3_ILi10EEE10data_reg_i, i32 0, i32 0), i32 1, i8* getelementptr inbounds ([1 x i8]* @.str, i32 0, i32 0)) nounwind, !dbg !10431 ; [debug line = 62:1]
  call void (...)* @_ssdm_SpecArrayPartition(%struct.ap_int.6* getelementptr inbounds ([512 x %struct.ap_int.6]* @_ZZ10correlatorN3hls6streamI10rfnoc_axisEES2_7ap_uintILi1EENS0_IS4_EES3_ILi10EEE10data_reg_i, i32 0, i32 0), i32 1, i8* getelementptr inbounds ([9 x i8]* @.str5, i32 0, i32 0), i32 0, i8* getelementptr inbounds ([1 x i8]* @.str, i32 0, i32 0)) nounwind, !dbg !10432 ; [debug line = 63:1]
  %83 = load i8* @_ZGVZ10correlatorN3hls6streamI10rfnoc_axisEES2_7ap_uintILi1EENS0_IS4_EES3_ILi10EEE10data_reg_q, align 1, !dbg !10433 ; [#uses=1 type=i8] [debug line = 64:40]
  %84 = icmp eq i8 %83, 0, !dbg !10433            ; [#uses=1 type=i1] [debug line = 64:40]
  br i1 %84, label %85, label %91, !dbg !10433    ; [debug line = 64:40]

; <label>:85                                      ; preds = %82
  br label %86, !dbg !10433                       ; [debug line = 64:40]

; <label>:86                                      ; preds = %86, %85
  %87 = phi %struct.ap_int.6* [ getelementptr inbounds ([512 x %struct.ap_int.6]* @_ZZ10correlatorN3hls6streamI10rfnoc_axisEES2_7ap_uintILi1EENS0_IS4_EES3_ILi10EEE10data_reg_q, i32 0, i32 0), %85 ], [ %88, %86 ], !dbg !10433 ; [#uses=2 type=%struct.ap_int.6*] [debug line = 64:40]
  call void @_ZN6ap_intILi16EEC1Ev(%struct.ap_int.6* %87), !dbg !10433 ; [debug line = 64:40]
  %88 = getelementptr inbounds %struct.ap_int.6* %87, i32 1, !dbg !10433 ; [#uses=2 type=%struct.ap_int.6*] [debug line = 64:40]
  %89 = icmp eq %struct.ap_int.6* %88, getelementptr inbounds ([512 x %struct.ap_int.6]* @_ZZ10correlatorN3hls6streamI10rfnoc_axisEES2_7ap_uintILi1EENS0_IS4_EES3_ILi10EEE10data_reg_q, i64 1, i32 0), !dbg !10433 ; [#uses=1 type=i1] [debug line = 64:40]
  br i1 %89, label %90, label %86, !dbg !10433    ; [debug line = 64:40]

; <label>:90                                      ; preds = %86
  store i8 1, i8* @_ZGVZ10correlatorN3hls6streamI10rfnoc_axisEES2_7ap_uintILi1EENS0_IS4_EES3_ILi10EEE10data_reg_q, !dbg !10433 ; [debug line = 64:40]
  br label %91, !dbg !10433                       ; [debug line = 64:40]

; <label>:91                                      ; preds = %90, %82
  call void (...)* @_ssdm_op_SpecReset(%struct.ap_int.6* getelementptr inbounds ([512 x %struct.ap_int.6]* @_ZZ10correlatorN3hls6streamI10rfnoc_axisEES2_7ap_uintILi1EENS0_IS4_EES3_ILi10EEE10data_reg_q, i32 0, i32 0), i32 1, i8* getelementptr inbounds ([1 x i8]* @.str, i32 0, i32 0)) nounwind, !dbg !10434 ; [debug line = 65:1]
  call void (...)* @_ssdm_SpecArrayPartition(%struct.ap_int.6* getelementptr inbounds ([512 x %struct.ap_int.6]* @_ZZ10correlatorN3hls6streamI10rfnoc_axisEES2_7ap_uintILi1EENS0_IS4_EES3_ILi10EEE10data_reg_q, i32 0, i32 0), i32 1, i8* getelementptr inbounds ([9 x i8]* @.str5, i32 0, i32 0), i32 0, i8* getelementptr inbounds ([1 x i8]* @.str, i32 0, i32 0)) nounwind, !dbg !10435 ; [debug line = 66:1]
  %92 = load i8* @_ZGVZ10correlatorN3hls6streamI10rfnoc_axisEES2_7ap_uintILi1EENS0_IS4_EES3_ILi10EEE13product_reg_i, align 1, !dbg !10436 ; [#uses=1 type=i8] [debug line = 67:43]
  %93 = icmp eq i8 %92, 0, !dbg !10436            ; [#uses=1 type=i1] [debug line = 67:43]
  br i1 %93, label %94, label %100, !dbg !10436   ; [debug line = 67:43]

; <label>:94                                      ; preds = %91
  br label %95, !dbg !10436                       ; [debug line = 67:43]

; <label>:95                                      ; preds = %95, %94
  %96 = phi %struct.ap_int.6* [ getelementptr inbounds ([512 x %struct.ap_int.6]* @_ZZ10correlatorN3hls6streamI10rfnoc_axisEES2_7ap_uintILi1EENS0_IS4_EES3_ILi10EEE13product_reg_i, i32 0, i32 0), %94 ], [ %97, %95 ], !dbg !10436 ; [#uses=2 type=%struct.ap_int.6*] [debug line = 67:43]
  call void @_ZN6ap_intILi16EEC1Ev(%struct.ap_int.6* %96), !dbg !10436 ; [debug line = 67:43]
  %97 = getelementptr inbounds %struct.ap_int.6* %96, i32 1, !dbg !10436 ; [#uses=2 type=%struct.ap_int.6*] [debug line = 67:43]
  %98 = icmp eq %struct.ap_int.6* %97, getelementptr inbounds ([512 x %struct.ap_int.6]* @_ZZ10correlatorN3hls6streamI10rfnoc_axisEES2_7ap_uintILi1EENS0_IS4_EES3_ILi10EEE13product_reg_i, i64 1, i32 0), !dbg !10436 ; [#uses=1 type=i1] [debug line = 67:43]
  br i1 %98, label %99, label %95, !dbg !10436    ; [debug line = 67:43]

; <label>:99                                      ; preds = %95
  store i8 1, i8* @_ZGVZ10correlatorN3hls6streamI10rfnoc_axisEES2_7ap_uintILi1EENS0_IS4_EES3_ILi10EEE13product_reg_i, !dbg !10436 ; [debug line = 67:43]
  br label %100, !dbg !10436                      ; [debug line = 67:43]

; <label>:100                                     ; preds = %99, %91
  call void (...)* @_ssdm_SpecArrayPartition(%struct.ap_int.6* getelementptr inbounds ([512 x %struct.ap_int.6]* @_ZZ10correlatorN3hls6streamI10rfnoc_axisEES2_7ap_uintILi1EENS0_IS4_EES3_ILi10EEE13product_reg_i, i32 0, i32 0), i32 1, i8* getelementptr inbounds ([9 x i8]* @.str5, i32 0, i32 0), i32 0, i8* getelementptr inbounds ([1 x i8]* @.str, i32 0, i32 0)) nounwind, !dbg !10437 ; [debug line = 68:1]
  %101 = load i8* @_ZGVZ10correlatorN3hls6streamI10rfnoc_axisEES2_7ap_uintILi1EENS0_IS4_EES3_ILi10EEE13product_reg_q, align 1, !dbg !10438 ; [#uses=1 type=i8] [debug line = 69:43]
  %102 = icmp eq i8 %101, 0, !dbg !10438          ; [#uses=1 type=i1] [debug line = 69:43]
  br i1 %102, label %103, label %109, !dbg !10438 ; [debug line = 69:43]

; <label>:103                                     ; preds = %100
  br label %104, !dbg !10438                      ; [debug line = 69:43]

; <label>:104                                     ; preds = %104, %103
  %105 = phi %struct.ap_int.6* [ getelementptr inbounds ([512 x %struct.ap_int.6]* @_ZZ10correlatorN3hls6streamI10rfnoc_axisEES2_7ap_uintILi1EENS0_IS4_EES3_ILi10EEE13product_reg_q, i32 0, i32 0), %103 ], [ %106, %104 ], !dbg !10438 ; [#uses=2 type=%struct.ap_int.6*] [debug line = 69:43]
  call void @_ZN6ap_intILi16EEC1Ev(%struct.ap_int.6* %105), !dbg !10438 ; [debug line = 69:43]
  %106 = getelementptr inbounds %struct.ap_int.6* %105, i32 1, !dbg !10438 ; [#uses=2 type=%struct.ap_int.6*] [debug line = 69:43]
  %107 = icmp eq %struct.ap_int.6* %106, getelementptr inbounds ([512 x %struct.ap_int.6]* @_ZZ10correlatorN3hls6streamI10rfnoc_axisEES2_7ap_uintILi1EENS0_IS4_EES3_ILi10EEE13product_reg_q, i64 1, i32 0), !dbg !10438 ; [#uses=1 type=i1] [debug line = 69:43]
  br i1 %107, label %108, label %104, !dbg !10438 ; [debug line = 69:43]

; <label>:108                                     ; preds = %104
  store i8 1, i8* @_ZGVZ10correlatorN3hls6streamI10rfnoc_axisEES2_7ap_uintILi1EENS0_IS4_EES3_ILi10EEE13product_reg_q, !dbg !10438 ; [debug line = 69:43]
  br label %109, !dbg !10438                      ; [debug line = 69:43]

; <label>:109                                     ; preds = %108, %100
  call void (...)* @_ssdm_SpecArrayPartition(%struct.ap_int.6* getelementptr inbounds ([512 x %struct.ap_int.6]* @_ZZ10correlatorN3hls6streamI10rfnoc_axisEES2_7ap_uintILi1EENS0_IS4_EES3_ILi10EEE13product_reg_q, i32 0, i32 0), i32 1, i8* getelementptr inbounds ([9 x i8]* @.str5, i32 0, i32 0), i32 0, i8* getelementptr inbounds ([1 x i8]* @.str, i32 0, i32 0)) nounwind, !dbg !10439 ; [debug line = 70:1]
  %110 = load i8* @_ZGVZ10correlatorN3hls6streamI10rfnoc_axisEES2_7ap_uintILi1EENS0_IS4_EES3_ILi10EEE14adder_in_reg_i, align 1, !dbg !10440 ; [#uses=1 type=i8] [debug line = 71:44]
  %111 = icmp eq i8 %110, 0, !dbg !10440          ; [#uses=1 type=i1] [debug line = 71:44]
  br i1 %111, label %112, label %118, !dbg !10440 ; [debug line = 71:44]

; <label>:112                                     ; preds = %109
  br label %113, !dbg !10440                      ; [debug line = 71:44]

; <label>:113                                     ; preds = %113, %112
  %114 = phi %struct.ap_int.6* [ getelementptr inbounds ([512 x %struct.ap_int.6]* @_ZZ10correlatorN3hls6streamI10rfnoc_axisEES2_7ap_uintILi1EENS0_IS4_EES3_ILi10EEE14adder_in_reg_i, i32 0, i32 0), %112 ], [ %115, %113 ], !dbg !10440 ; [#uses=2 type=%struct.ap_int.6*] [debug line = 71:44]
  call void @_ZN6ap_intILi16EEC1Ev(%struct.ap_int.6* %114), !dbg !10440 ; [debug line = 71:44]
  %115 = getelementptr inbounds %struct.ap_int.6* %114, i32 1, !dbg !10440 ; [#uses=2 type=%struct.ap_int.6*] [debug line = 71:44]
  %116 = icmp eq %struct.ap_int.6* %115, getelementptr inbounds ([512 x %struct.ap_int.6]* @_ZZ10correlatorN3hls6streamI10rfnoc_axisEES2_7ap_uintILi1EENS0_IS4_EES3_ILi10EEE14adder_in_reg_i, i64 1, i32 0), !dbg !10440 ; [#uses=1 type=i1] [debug line = 71:44]
  br i1 %116, label %117, label %113, !dbg !10440 ; [debug line = 71:44]

; <label>:117                                     ; preds = %113
  store i8 1, i8* @_ZGVZ10correlatorN3hls6streamI10rfnoc_axisEES2_7ap_uintILi1EENS0_IS4_EES3_ILi10EEE14adder_in_reg_i, !dbg !10440 ; [debug line = 71:44]
  br label %118, !dbg !10440                      ; [debug line = 71:44]

; <label>:118                                     ; preds = %117, %109
  call void (...)* @_ssdm_SpecArrayPartition(%struct.ap_int.6* getelementptr inbounds ([512 x %struct.ap_int.6]* @_ZZ10correlatorN3hls6streamI10rfnoc_axisEES2_7ap_uintILi1EENS0_IS4_EES3_ILi10EEE14adder_in_reg_i, i32 0, i32 0), i32 1, i8* getelementptr inbounds ([9 x i8]* @.str5, i32 0, i32 0), i32 0, i8* getelementptr inbounds ([1 x i8]* @.str, i32 0, i32 0)) nounwind, !dbg !10441 ; [debug line = 72:1]
  %119 = load i8* @_ZGVZ10correlatorN3hls6streamI10rfnoc_axisEES2_7ap_uintILi1EENS0_IS4_EES3_ILi10EEE14adder_in_reg_q, align 1, !dbg !10442 ; [#uses=1 type=i8] [debug line = 73:44]
  %120 = icmp eq i8 %119, 0, !dbg !10442          ; [#uses=1 type=i1] [debug line = 73:44]
  br i1 %120, label %121, label %127, !dbg !10442 ; [debug line = 73:44]

; <label>:121                                     ; preds = %118
  br label %122, !dbg !10442                      ; [debug line = 73:44]

; <label>:122                                     ; preds = %122, %121
  %123 = phi %struct.ap_int.6* [ getelementptr inbounds ([512 x %struct.ap_int.6]* @_ZZ10correlatorN3hls6streamI10rfnoc_axisEES2_7ap_uintILi1EENS0_IS4_EES3_ILi10EEE14adder_in_reg_q, i32 0, i32 0), %121 ], [ %124, %122 ], !dbg !10442 ; [#uses=2 type=%struct.ap_int.6*] [debug line = 73:44]
  call void @_ZN6ap_intILi16EEC1Ev(%struct.ap_int.6* %123), !dbg !10442 ; [debug line = 73:44]
  %124 = getelementptr inbounds %struct.ap_int.6* %123, i32 1, !dbg !10442 ; [#uses=2 type=%struct.ap_int.6*] [debug line = 73:44]
  %125 = icmp eq %struct.ap_int.6* %124, getelementptr inbounds ([512 x %struct.ap_int.6]* @_ZZ10correlatorN3hls6streamI10rfnoc_axisEES2_7ap_uintILi1EENS0_IS4_EES3_ILi10EEE14adder_in_reg_q, i64 1, i32 0), !dbg !10442 ; [#uses=1 type=i1] [debug line = 73:44]
  br i1 %125, label %126, label %122, !dbg !10442 ; [debug line = 73:44]

; <label>:126                                     ; preds = %122
  store i8 1, i8* @_ZGVZ10correlatorN3hls6streamI10rfnoc_axisEES2_7ap_uintILi1EENS0_IS4_EES3_ILi10EEE14adder_in_reg_q, !dbg !10442 ; [debug line = 73:44]
  br label %127, !dbg !10442                      ; [debug line = 73:44]

; <label>:127                                     ; preds = %126, %118
  call void (...)* @_ssdm_SpecArrayPartition(%struct.ap_int.6* getelementptr inbounds ([512 x %struct.ap_int.6]* @_ZZ10correlatorN3hls6streamI10rfnoc_axisEES2_7ap_uintILi1EENS0_IS4_EES3_ILi10EEE14adder_in_reg_q, i32 0, i32 0), i32 1, i8* getelementptr inbounds ([9 x i8]* @.str5, i32 0, i32 0), i32 0, i8* getelementptr inbounds ([1 x i8]* @.str, i32 0, i32 0)) nounwind, !dbg !10443 ; [debug line = 74:1]
  %128 = load i8* @_ZGVZ10correlatorN3hls6streamI10rfnoc_axisEES2_7ap_uintILi1EENS0_IS4_EES3_ILi10EEE10sum1_reg_i, align 1, !dbg !10444 ; [#uses=1 type=i8] [debug line = 76:42]
  %129 = icmp eq i8 %128, 0, !dbg !10444          ; [#uses=1 type=i1] [debug line = 76:42]
  br i1 %129, label %130, label %136, !dbg !10444 ; [debug line = 76:42]

; <label>:130                                     ; preds = %127
  br label %131, !dbg !10444                      ; [debug line = 76:42]

; <label>:131                                     ; preds = %131, %130
  %132 = phi %struct.ap_int.9* [ getelementptr inbounds ([256 x %struct.ap_int.9]* @_ZZ10correlatorN3hls6streamI10rfnoc_axisEES2_7ap_uintILi1EENS0_IS4_EES3_ILi10EEE10sum1_reg_i, i32 0, i32 0), %130 ], [ %133, %131 ], !dbg !10444 ; [#uses=2 type=%struct.ap_int.9*] [debug line = 76:42]
  call void @_ZN6ap_intILi17EEC1Ev(%struct.ap_int.9* %132), !dbg !10444 ; [debug line = 76:42]
  %133 = getelementptr inbounds %struct.ap_int.9* %132, i32 1, !dbg !10444 ; [#uses=2 type=%struct.ap_int.9*] [debug line = 76:42]
  %134 = icmp eq %struct.ap_int.9* %133, getelementptr inbounds ([256 x %struct.ap_int.9]* @_ZZ10correlatorN3hls6streamI10rfnoc_axisEES2_7ap_uintILi1EENS0_IS4_EES3_ILi10EEE10sum1_reg_i, i64 1, i32 0), !dbg !10444 ; [#uses=1 type=i1] [debug line = 76:42]
  br i1 %134, label %135, label %131, !dbg !10444 ; [debug line = 76:42]

; <label>:135                                     ; preds = %131
  store i8 1, i8* @_ZGVZ10correlatorN3hls6streamI10rfnoc_axisEES2_7ap_uintILi1EENS0_IS4_EES3_ILi10EEE10sum1_reg_i, !dbg !10444 ; [debug line = 76:42]
  br label %136, !dbg !10444                      ; [debug line = 76:42]

; <label>:136                                     ; preds = %135, %127
  call void (...)* @_ssdm_SpecArrayPartition(%struct.ap_int.9* getelementptr inbounds ([256 x %struct.ap_int.9]* @_ZZ10correlatorN3hls6streamI10rfnoc_axisEES2_7ap_uintILi1EENS0_IS4_EES3_ILi10EEE10sum1_reg_i, i32 0, i32 0), i32 1, i8* getelementptr inbounds ([9 x i8]* @.str5, i32 0, i32 0), i32 0, i8* getelementptr inbounds ([1 x i8]* @.str, i32 0, i32 0)) nounwind, !dbg !10445 ; [debug line = 77:1]
  %137 = load i8* @_ZGVZ10correlatorN3hls6streamI10rfnoc_axisEES2_7ap_uintILi1EENS0_IS4_EES3_ILi10EEE10sum1_reg_q, align 1, !dbg !10446 ; [#uses=1 type=i8] [debug line = 78:42]
  %138 = icmp eq i8 %137, 0, !dbg !10446          ; [#uses=1 type=i1] [debug line = 78:42]
  br i1 %138, label %139, label %145, !dbg !10446 ; [debug line = 78:42]

; <label>:139                                     ; preds = %136
  br label %140, !dbg !10446                      ; [debug line = 78:42]

; <label>:140                                     ; preds = %140, %139
  %141 = phi %struct.ap_int.9* [ getelementptr inbounds ([256 x %struct.ap_int.9]* @_ZZ10correlatorN3hls6streamI10rfnoc_axisEES2_7ap_uintILi1EENS0_IS4_EES3_ILi10EEE10sum1_reg_q, i32 0, i32 0), %139 ], [ %142, %140 ], !dbg !10446 ; [#uses=2 type=%struct.ap_int.9*] [debug line = 78:42]
  call void @_ZN6ap_intILi17EEC1Ev(%struct.ap_int.9* %141), !dbg !10446 ; [debug line = 78:42]
  %142 = getelementptr inbounds %struct.ap_int.9* %141, i32 1, !dbg !10446 ; [#uses=2 type=%struct.ap_int.9*] [debug line = 78:42]
  %143 = icmp eq %struct.ap_int.9* %142, getelementptr inbounds ([256 x %struct.ap_int.9]* @_ZZ10correlatorN3hls6streamI10rfnoc_axisEES2_7ap_uintILi1EENS0_IS4_EES3_ILi10EEE10sum1_reg_q, i64 1, i32 0), !dbg !10446 ; [#uses=1 type=i1] [debug line = 78:42]
  br i1 %143, label %144, label %140, !dbg !10446 ; [debug line = 78:42]

; <label>:144                                     ; preds = %140
  store i8 1, i8* @_ZGVZ10correlatorN3hls6streamI10rfnoc_axisEES2_7ap_uintILi1EENS0_IS4_EES3_ILi10EEE10sum1_reg_q, !dbg !10446 ; [debug line = 78:42]
  br label %145, !dbg !10446                      ; [debug line = 78:42]

; <label>:145                                     ; preds = %144, %136
  call void (...)* @_ssdm_SpecArrayPartition(%struct.ap_int.9* getelementptr inbounds ([256 x %struct.ap_int.9]* @_ZZ10correlatorN3hls6streamI10rfnoc_axisEES2_7ap_uintILi1EENS0_IS4_EES3_ILi10EEE10sum1_reg_q, i32 0, i32 0), i32 1, i8* getelementptr inbounds ([9 x i8]* @.str5, i32 0, i32 0), i32 0, i8* getelementptr inbounds ([1 x i8]* @.str, i32 0, i32 0)) nounwind, !dbg !10447 ; [debug line = 79:1]
  %146 = load i8* @_ZGVZ10correlatorN3hls6streamI10rfnoc_axisEES2_7ap_uintILi1EENS0_IS4_EES3_ILi10EEE10sum2_reg_i, align 1, !dbg !10448 ; [#uses=1 type=i8] [debug line = 81:42]
  %147 = icmp eq i8 %146, 0, !dbg !10448          ; [#uses=1 type=i1] [debug line = 81:42]
  br i1 %147, label %148, label %154, !dbg !10448 ; [debug line = 81:42]

; <label>:148                                     ; preds = %145
  br label %149, !dbg !10448                      ; [debug line = 81:42]

; <label>:149                                     ; preds = %149, %148
  %150 = phi %struct.ap_int.12* [ getelementptr inbounds ([128 x %struct.ap_int.12]* @_ZZ10correlatorN3hls6streamI10rfnoc_axisEES2_7ap_uintILi1EENS0_IS4_EES3_ILi10EEE10sum2_reg_i, i32 0, i32 0), %148 ], [ %151, %149 ], !dbg !10448 ; [#uses=2 type=%struct.ap_int.12*] [debug line = 81:42]
  call void @_ZN6ap_intILi18EEC1Ev(%struct.ap_int.12* %150), !dbg !10448 ; [debug line = 81:42]
  %151 = getelementptr inbounds %struct.ap_int.12* %150, i32 1, !dbg !10448 ; [#uses=2 type=%struct.ap_int.12*] [debug line = 81:42]
  %152 = icmp eq %struct.ap_int.12* %151, getelementptr inbounds ([128 x %struct.ap_int.12]* @_ZZ10correlatorN3hls6streamI10rfnoc_axisEES2_7ap_uintILi1EENS0_IS4_EES3_ILi10EEE10sum2_reg_i, i64 1, i32 0), !dbg !10448 ; [#uses=1 type=i1] [debug line = 81:42]
  br i1 %152, label %153, label %149, !dbg !10448 ; [debug line = 81:42]

; <label>:153                                     ; preds = %149
  store i8 1, i8* @_ZGVZ10correlatorN3hls6streamI10rfnoc_axisEES2_7ap_uintILi1EENS0_IS4_EES3_ILi10EEE10sum2_reg_i, !dbg !10448 ; [debug line = 81:42]
  br label %154, !dbg !10448                      ; [debug line = 81:42]

; <label>:154                                     ; preds = %153, %145
  call void (...)* @_ssdm_SpecArrayPartition(%struct.ap_int.12* getelementptr inbounds ([128 x %struct.ap_int.12]* @_ZZ10correlatorN3hls6streamI10rfnoc_axisEES2_7ap_uintILi1EENS0_IS4_EES3_ILi10EEE10sum2_reg_i, i32 0, i32 0), i32 1, i8* getelementptr inbounds ([9 x i8]* @.str5, i32 0, i32 0), i32 0, i8* getelementptr inbounds ([1 x i8]* @.str, i32 0, i32 0)) nounwind, !dbg !10449 ; [debug line = 82:1]
  %155 = load i8* @_ZGVZ10correlatorN3hls6streamI10rfnoc_axisEES2_7ap_uintILi1EENS0_IS4_EES3_ILi10EEE10sum2_reg_q, align 1, !dbg !10450 ; [#uses=1 type=i8] [debug line = 83:42]
  %156 = icmp eq i8 %155, 0, !dbg !10450          ; [#uses=1 type=i1] [debug line = 83:42]
  br i1 %156, label %157, label %163, !dbg !10450 ; [debug line = 83:42]

; <label>:157                                     ; preds = %154
  br label %158, !dbg !10450                      ; [debug line = 83:42]

; <label>:158                                     ; preds = %158, %157
  %159 = phi %struct.ap_int.12* [ getelementptr inbounds ([128 x %struct.ap_int.12]* @_ZZ10correlatorN3hls6streamI10rfnoc_axisEES2_7ap_uintILi1EENS0_IS4_EES3_ILi10EEE10sum2_reg_q, i32 0, i32 0), %157 ], [ %160, %158 ], !dbg !10450 ; [#uses=2 type=%struct.ap_int.12*] [debug line = 83:42]
  call void @_ZN6ap_intILi18EEC1Ev(%struct.ap_int.12* %159), !dbg !10450 ; [debug line = 83:42]
  %160 = getelementptr inbounds %struct.ap_int.12* %159, i32 1, !dbg !10450 ; [#uses=2 type=%struct.ap_int.12*] [debug line = 83:42]
  %161 = icmp eq %struct.ap_int.12* %160, getelementptr inbounds ([128 x %struct.ap_int.12]* @_ZZ10correlatorN3hls6streamI10rfnoc_axisEES2_7ap_uintILi1EENS0_IS4_EES3_ILi10EEE10sum2_reg_q, i64 1, i32 0), !dbg !10450 ; [#uses=1 type=i1] [debug line = 83:42]
  br i1 %161, label %162, label %158, !dbg !10450 ; [debug line = 83:42]

; <label>:162                                     ; preds = %158
  store i8 1, i8* @_ZGVZ10correlatorN3hls6streamI10rfnoc_axisEES2_7ap_uintILi1EENS0_IS4_EES3_ILi10EEE10sum2_reg_q, !dbg !10450 ; [debug line = 83:42]
  br label %163, !dbg !10450                      ; [debug line = 83:42]

; <label>:163                                     ; preds = %162, %154
  call void (...)* @_ssdm_SpecArrayPartition(%struct.ap_int.12* getelementptr inbounds ([128 x %struct.ap_int.12]* @_ZZ10correlatorN3hls6streamI10rfnoc_axisEES2_7ap_uintILi1EENS0_IS4_EES3_ILi10EEE10sum2_reg_q, i32 0, i32 0), i32 1, i8* getelementptr inbounds ([9 x i8]* @.str5, i32 0, i32 0), i32 0, i8* getelementptr inbounds ([1 x i8]* @.str, i32 0, i32 0)) nounwind, !dbg !10451 ; [debug line = 84:1]
  %164 = load i8* @_ZGVZ10correlatorN3hls6streamI10rfnoc_axisEES2_7ap_uintILi1EENS0_IS4_EES3_ILi10EEE10sum3_reg_i, align 1, !dbg !10452 ; [#uses=1 type=i8] [debug line = 86:42]
  %165 = icmp eq i8 %164, 0, !dbg !10452          ; [#uses=1 type=i1] [debug line = 86:42]
  br i1 %165, label %166, label %172, !dbg !10452 ; [debug line = 86:42]

; <label>:166                                     ; preds = %163
  br label %167, !dbg !10452                      ; [debug line = 86:42]

; <label>:167                                     ; preds = %167, %166
  %168 = phi %struct.ap_int.15* [ getelementptr inbounds ([64 x %struct.ap_int.15]* @_ZZ10correlatorN3hls6streamI10rfnoc_axisEES2_7ap_uintILi1EENS0_IS4_EES3_ILi10EEE10sum3_reg_i, i32 0, i32 0), %166 ], [ %169, %167 ], !dbg !10452 ; [#uses=2 type=%struct.ap_int.15*] [debug line = 86:42]
  call void @_ZN6ap_intILi19EEC1Ev(%struct.ap_int.15* %168), !dbg !10452 ; [debug line = 86:42]
  %169 = getelementptr inbounds %struct.ap_int.15* %168, i32 1, !dbg !10452 ; [#uses=2 type=%struct.ap_int.15*] [debug line = 86:42]
  %170 = icmp eq %struct.ap_int.15* %169, getelementptr inbounds ([64 x %struct.ap_int.15]* @_ZZ10correlatorN3hls6streamI10rfnoc_axisEES2_7ap_uintILi1EENS0_IS4_EES3_ILi10EEE10sum3_reg_i, i64 1, i32 0), !dbg !10452 ; [#uses=1 type=i1] [debug line = 86:42]
  br i1 %170, label %171, label %167, !dbg !10452 ; [debug line = 86:42]

; <label>:171                                     ; preds = %167
  store i8 1, i8* @_ZGVZ10correlatorN3hls6streamI10rfnoc_axisEES2_7ap_uintILi1EENS0_IS4_EES3_ILi10EEE10sum3_reg_i, !dbg !10452 ; [debug line = 86:42]
  br label %172, !dbg !10452                      ; [debug line = 86:42]

; <label>:172                                     ; preds = %171, %163
  call void (...)* @_ssdm_SpecArrayPartition(%struct.ap_int.15* getelementptr inbounds ([64 x %struct.ap_int.15]* @_ZZ10correlatorN3hls6streamI10rfnoc_axisEES2_7ap_uintILi1EENS0_IS4_EES3_ILi10EEE10sum3_reg_i, i32 0, i32 0), i32 1, i8* getelementptr inbounds ([9 x i8]* @.str5, i32 0, i32 0), i32 0, i8* getelementptr inbounds ([1 x i8]* @.str, i32 0, i32 0)) nounwind, !dbg !10453 ; [debug line = 87:1]
  %173 = load i8* @_ZGVZ10correlatorN3hls6streamI10rfnoc_axisEES2_7ap_uintILi1EENS0_IS4_EES3_ILi10EEE10sum3_reg_q, align 1, !dbg !10454 ; [#uses=1 type=i8] [debug line = 88:42]
  %174 = icmp eq i8 %173, 0, !dbg !10454          ; [#uses=1 type=i1] [debug line = 88:42]
  br i1 %174, label %175, label %181, !dbg !10454 ; [debug line = 88:42]

; <label>:175                                     ; preds = %172
  br label %176, !dbg !10454                      ; [debug line = 88:42]

; <label>:176                                     ; preds = %176, %175
  %177 = phi %struct.ap_int.15* [ getelementptr inbounds ([64 x %struct.ap_int.15]* @_ZZ10correlatorN3hls6streamI10rfnoc_axisEES2_7ap_uintILi1EENS0_IS4_EES3_ILi10EEE10sum3_reg_q, i32 0, i32 0), %175 ], [ %178, %176 ], !dbg !10454 ; [#uses=2 type=%struct.ap_int.15*] [debug line = 88:42]
  call void @_ZN6ap_intILi19EEC1Ev(%struct.ap_int.15* %177), !dbg !10454 ; [debug line = 88:42]
  %178 = getelementptr inbounds %struct.ap_int.15* %177, i32 1, !dbg !10454 ; [#uses=2 type=%struct.ap_int.15*] [debug line = 88:42]
  %179 = icmp eq %struct.ap_int.15* %178, getelementptr inbounds ([64 x %struct.ap_int.15]* @_ZZ10correlatorN3hls6streamI10rfnoc_axisEES2_7ap_uintILi1EENS0_IS4_EES3_ILi10EEE10sum3_reg_q, i64 1, i32 0), !dbg !10454 ; [#uses=1 type=i1] [debug line = 88:42]
  br i1 %179, label %180, label %176, !dbg !10454 ; [debug line = 88:42]

; <label>:180                                     ; preds = %176
  store i8 1, i8* @_ZGVZ10correlatorN3hls6streamI10rfnoc_axisEES2_7ap_uintILi1EENS0_IS4_EES3_ILi10EEE10sum3_reg_q, !dbg !10454 ; [debug line = 88:42]
  br label %181, !dbg !10454                      ; [debug line = 88:42]

; <label>:181                                     ; preds = %180, %172
  call void (...)* @_ssdm_SpecArrayPartition(%struct.ap_int.15* getelementptr inbounds ([64 x %struct.ap_int.15]* @_ZZ10correlatorN3hls6streamI10rfnoc_axisEES2_7ap_uintILi1EENS0_IS4_EES3_ILi10EEE10sum3_reg_q, i32 0, i32 0), i32 1, i8* getelementptr inbounds ([9 x i8]* @.str5, i32 0, i32 0), i32 0, i8* getelementptr inbounds ([1 x i8]* @.str, i32 0, i32 0)) nounwind, !dbg !10455 ; [debug line = 89:1]
  %182 = load i8* @_ZGVZ10correlatorN3hls6streamI10rfnoc_axisEES2_7ap_uintILi1EENS0_IS4_EES3_ILi10EEE10sum4_reg_i, align 1, !dbg !10456 ; [#uses=1 type=i8] [debug line = 91:43]
  %183 = icmp eq i8 %182, 0, !dbg !10456          ; [#uses=1 type=i1] [debug line = 91:43]
  br i1 %183, label %184, label %190, !dbg !10456 ; [debug line = 91:43]

; <label>:184                                     ; preds = %181
  br label %185, !dbg !10456                      ; [debug line = 91:43]

; <label>:185                                     ; preds = %185, %184
  %186 = phi %struct.ap_int.18* [ getelementptr inbounds ([32 x %struct.ap_int.18]* @_ZZ10correlatorN3hls6streamI10rfnoc_axisEES2_7ap_uintILi1EENS0_IS4_EES3_ILi10EEE10sum4_reg_i, i32 0, i32 0), %184 ], [ %187, %185 ], !dbg !10456 ; [#uses=2 type=%struct.ap_int.18*] [debug line = 91:43]
  call void @_ZN6ap_intILi20EEC1Ev(%struct.ap_int.18* %186), !dbg !10456 ; [debug line = 91:43]
  %187 = getelementptr inbounds %struct.ap_int.18* %186, i32 1, !dbg !10456 ; [#uses=2 type=%struct.ap_int.18*] [debug line = 91:43]
  %188 = icmp eq %struct.ap_int.18* %187, getelementptr inbounds ([32 x %struct.ap_int.18]* @_ZZ10correlatorN3hls6streamI10rfnoc_axisEES2_7ap_uintILi1EENS0_IS4_EES3_ILi10EEE10sum4_reg_i, i64 1, i32 0), !dbg !10456 ; [#uses=1 type=i1] [debug line = 91:43]
  br i1 %188, label %189, label %185, !dbg !10456 ; [debug line = 91:43]

; <label>:189                                     ; preds = %185
  store i8 1, i8* @_ZGVZ10correlatorN3hls6streamI10rfnoc_axisEES2_7ap_uintILi1EENS0_IS4_EES3_ILi10EEE10sum4_reg_i, !dbg !10456 ; [debug line = 91:43]
  br label %190, !dbg !10456                      ; [debug line = 91:43]

; <label>:190                                     ; preds = %189, %181
  call void (...)* @_ssdm_SpecArrayPartition(%struct.ap_int.18* getelementptr inbounds ([32 x %struct.ap_int.18]* @_ZZ10correlatorN3hls6streamI10rfnoc_axisEES2_7ap_uintILi1EENS0_IS4_EES3_ILi10EEE10sum4_reg_i, i32 0, i32 0), i32 1, i8* getelementptr inbounds ([9 x i8]* @.str5, i32 0, i32 0), i32 0, i8* getelementptr inbounds ([1 x i8]* @.str, i32 0, i32 0)) nounwind, !dbg !10457 ; [debug line = 92:1]
  %191 = load i8* @_ZGVZ10correlatorN3hls6streamI10rfnoc_axisEES2_7ap_uintILi1EENS0_IS4_EES3_ILi10EEE10sum4_reg_q, align 1, !dbg !10458 ; [#uses=1 type=i8] [debug line = 93:43]
  %192 = icmp eq i8 %191, 0, !dbg !10458          ; [#uses=1 type=i1] [debug line = 93:43]
  br i1 %192, label %193, label %199, !dbg !10458 ; [debug line = 93:43]

; <label>:193                                     ; preds = %190
  br label %194, !dbg !10458                      ; [debug line = 93:43]

; <label>:194                                     ; preds = %194, %193
  %195 = phi %struct.ap_int.18* [ getelementptr inbounds ([32 x %struct.ap_int.18]* @_ZZ10correlatorN3hls6streamI10rfnoc_axisEES2_7ap_uintILi1EENS0_IS4_EES3_ILi10EEE10sum4_reg_q, i32 0, i32 0), %193 ], [ %196, %194 ], !dbg !10458 ; [#uses=2 type=%struct.ap_int.18*] [debug line = 93:43]
  call void @_ZN6ap_intILi20EEC1Ev(%struct.ap_int.18* %195), !dbg !10458 ; [debug line = 93:43]
  %196 = getelementptr inbounds %struct.ap_int.18* %195, i32 1, !dbg !10458 ; [#uses=2 type=%struct.ap_int.18*] [debug line = 93:43]
  %197 = icmp eq %struct.ap_int.18* %196, getelementptr inbounds ([32 x %struct.ap_int.18]* @_ZZ10correlatorN3hls6streamI10rfnoc_axisEES2_7ap_uintILi1EENS0_IS4_EES3_ILi10EEE10sum4_reg_q, i64 1, i32 0), !dbg !10458 ; [#uses=1 type=i1] [debug line = 93:43]
  br i1 %197, label %198, label %194, !dbg !10458 ; [debug line = 93:43]

; <label>:198                                     ; preds = %194
  store i8 1, i8* @_ZGVZ10correlatorN3hls6streamI10rfnoc_axisEES2_7ap_uintILi1EENS0_IS4_EES3_ILi10EEE10sum4_reg_q, !dbg !10458 ; [debug line = 93:43]
  br label %199, !dbg !10458                      ; [debug line = 93:43]

; <label>:199                                     ; preds = %198, %190
  call void (...)* @_ssdm_SpecArrayPartition(%struct.ap_int.18* getelementptr inbounds ([32 x %struct.ap_int.18]* @_ZZ10correlatorN3hls6streamI10rfnoc_axisEES2_7ap_uintILi1EENS0_IS4_EES3_ILi10EEE10sum4_reg_q, i32 0, i32 0), i32 1, i8* getelementptr inbounds ([9 x i8]* @.str5, i32 0, i32 0), i32 0, i8* getelementptr inbounds ([1 x i8]* @.str, i32 0, i32 0)) nounwind, !dbg !10459 ; [debug line = 94:1]
  %200 = load i8* @_ZGVZ10correlatorN3hls6streamI10rfnoc_axisEES2_7ap_uintILi1EENS0_IS4_EES3_ILi10EEE10sum5_reg_i, align 1, !dbg !10460 ; [#uses=1 type=i8] [debug line = 96:43]
  %201 = icmp eq i8 %200, 0, !dbg !10460          ; [#uses=1 type=i1] [debug line = 96:43]
  br i1 %201, label %202, label %208, !dbg !10460 ; [debug line = 96:43]

; <label>:202                                     ; preds = %199
  br label %203, !dbg !10460                      ; [debug line = 96:43]

; <label>:203                                     ; preds = %203, %202
  %204 = phi %struct.ap_int.21* [ getelementptr inbounds ([16 x %struct.ap_int.21]* @_ZZ10correlatorN3hls6streamI10rfnoc_axisEES2_7ap_uintILi1EENS0_IS4_EES3_ILi10EEE10sum5_reg_i, i32 0, i32 0), %202 ], [ %205, %203 ], !dbg !10460 ; [#uses=2 type=%struct.ap_int.21*] [debug line = 96:43]
  call void @_ZN6ap_intILi21EEC1Ev(%struct.ap_int.21* %204), !dbg !10460 ; [debug line = 96:43]
  %205 = getelementptr inbounds %struct.ap_int.21* %204, i32 1, !dbg !10460 ; [#uses=2 type=%struct.ap_int.21*] [debug line = 96:43]
  %206 = icmp eq %struct.ap_int.21* %205, getelementptr inbounds ([16 x %struct.ap_int.21]* @_ZZ10correlatorN3hls6streamI10rfnoc_axisEES2_7ap_uintILi1EENS0_IS4_EES3_ILi10EEE10sum5_reg_i, i64 1, i32 0), !dbg !10460 ; [#uses=1 type=i1] [debug line = 96:43]
  br i1 %206, label %207, label %203, !dbg !10460 ; [debug line = 96:43]

; <label>:207                                     ; preds = %203
  store i8 1, i8* @_ZGVZ10correlatorN3hls6streamI10rfnoc_axisEES2_7ap_uintILi1EENS0_IS4_EES3_ILi10EEE10sum5_reg_i, !dbg !10460 ; [debug line = 96:43]
  br label %208, !dbg !10460                      ; [debug line = 96:43]

; <label>:208                                     ; preds = %207, %199
  call void (...)* @_ssdm_SpecArrayPartition(%struct.ap_int.21* getelementptr inbounds ([16 x %struct.ap_int.21]* @_ZZ10correlatorN3hls6streamI10rfnoc_axisEES2_7ap_uintILi1EENS0_IS4_EES3_ILi10EEE10sum5_reg_i, i32 0, i32 0), i32 1, i8* getelementptr inbounds ([9 x i8]* @.str5, i32 0, i32 0), i32 0, i8* getelementptr inbounds ([1 x i8]* @.str, i32 0, i32 0)) nounwind, !dbg !10461 ; [debug line = 97:1]
  %209 = load i8* @_ZGVZ10correlatorN3hls6streamI10rfnoc_axisEES2_7ap_uintILi1EENS0_IS4_EES3_ILi10EEE10sum5_reg_q, align 1, !dbg !10462 ; [#uses=1 type=i8] [debug line = 98:43]
  %210 = icmp eq i8 %209, 0, !dbg !10462          ; [#uses=1 type=i1] [debug line = 98:43]
  br i1 %210, label %211, label %217, !dbg !10462 ; [debug line = 98:43]

; <label>:211                                     ; preds = %208
  br label %212, !dbg !10462                      ; [debug line = 98:43]

; <label>:212                                     ; preds = %212, %211
  %213 = phi %struct.ap_int.21* [ getelementptr inbounds ([16 x %struct.ap_int.21]* @_ZZ10correlatorN3hls6streamI10rfnoc_axisEES2_7ap_uintILi1EENS0_IS4_EES3_ILi10EEE10sum5_reg_q, i32 0, i32 0), %211 ], [ %214, %212 ], !dbg !10462 ; [#uses=2 type=%struct.ap_int.21*] [debug line = 98:43]
  call void @_ZN6ap_intILi21EEC1Ev(%struct.ap_int.21* %213), !dbg !10462 ; [debug line = 98:43]
  %214 = getelementptr inbounds %struct.ap_int.21* %213, i32 1, !dbg !10462 ; [#uses=2 type=%struct.ap_int.21*] [debug line = 98:43]
  %215 = icmp eq %struct.ap_int.21* %214, getelementptr inbounds ([16 x %struct.ap_int.21]* @_ZZ10correlatorN3hls6streamI10rfnoc_axisEES2_7ap_uintILi1EENS0_IS4_EES3_ILi10EEE10sum5_reg_q, i64 1, i32 0), !dbg !10462 ; [#uses=1 type=i1] [debug line = 98:43]
  br i1 %215, label %216, label %212, !dbg !10462 ; [debug line = 98:43]

; <label>:216                                     ; preds = %212
  store i8 1, i8* @_ZGVZ10correlatorN3hls6streamI10rfnoc_axisEES2_7ap_uintILi1EENS0_IS4_EES3_ILi10EEE10sum5_reg_q, !dbg !10462 ; [debug line = 98:43]
  br label %217, !dbg !10462                      ; [debug line = 98:43]

; <label>:217                                     ; preds = %216, %208
  call void (...)* @_ssdm_SpecArrayPartition(%struct.ap_int.21* getelementptr inbounds ([16 x %struct.ap_int.21]* @_ZZ10correlatorN3hls6streamI10rfnoc_axisEES2_7ap_uintILi1EENS0_IS4_EES3_ILi10EEE10sum5_reg_q, i32 0, i32 0), i32 1, i8* getelementptr inbounds ([9 x i8]* @.str5, i32 0, i32 0), i32 0, i8* getelementptr inbounds ([1 x i8]* @.str, i32 0, i32 0)) nounwind, !dbg !10463 ; [debug line = 99:1]
  %218 = load i8* @_ZGVZ10correlatorN3hls6streamI10rfnoc_axisEES2_7ap_uintILi1EENS0_IS4_EES3_ILi10EEE10sum6_reg_i, align 1, !dbg !10464 ; [#uses=1 type=i8] [debug line = 101:43]
  %219 = icmp eq i8 %218, 0, !dbg !10464          ; [#uses=1 type=i1] [debug line = 101:43]
  br i1 %219, label %220, label %226, !dbg !10464 ; [debug line = 101:43]

; <label>:220                                     ; preds = %217
  br label %221, !dbg !10464                      ; [debug line = 101:43]

; <label>:221                                     ; preds = %221, %220
  %222 = phi %struct.ap_int.24* [ getelementptr inbounds ([8 x %struct.ap_int.24]* @_ZZ10correlatorN3hls6streamI10rfnoc_axisEES2_7ap_uintILi1EENS0_IS4_EES3_ILi10EEE10sum6_reg_i, i32 0, i32 0), %220 ], [ %223, %221 ], !dbg !10464 ; [#uses=2 type=%struct.ap_int.24*] [debug line = 101:43]
  call void @_ZN6ap_intILi22EEC1Ev(%struct.ap_int.24* %222), !dbg !10464 ; [debug line = 101:43]
  %223 = getelementptr inbounds %struct.ap_int.24* %222, i32 1, !dbg !10464 ; [#uses=2 type=%struct.ap_int.24*] [debug line = 101:43]
  %224 = icmp eq %struct.ap_int.24* %223, getelementptr inbounds ([8 x %struct.ap_int.24]* @_ZZ10correlatorN3hls6streamI10rfnoc_axisEES2_7ap_uintILi1EENS0_IS4_EES3_ILi10EEE10sum6_reg_i, i64 1, i32 0), !dbg !10464 ; [#uses=1 type=i1] [debug line = 101:43]
  br i1 %224, label %225, label %221, !dbg !10464 ; [debug line = 101:43]

; <label>:225                                     ; preds = %221
  store i8 1, i8* @_ZGVZ10correlatorN3hls6streamI10rfnoc_axisEES2_7ap_uintILi1EENS0_IS4_EES3_ILi10EEE10sum6_reg_i, !dbg !10464 ; [debug line = 101:43]
  br label %226, !dbg !10464                      ; [debug line = 101:43]

; <label>:226                                     ; preds = %225, %217
  call void (...)* @_ssdm_SpecArrayPartition(%struct.ap_int.24* getelementptr inbounds ([8 x %struct.ap_int.24]* @_ZZ10correlatorN3hls6streamI10rfnoc_axisEES2_7ap_uintILi1EENS0_IS4_EES3_ILi10EEE10sum6_reg_i, i32 0, i32 0), i32 1, i8* getelementptr inbounds ([9 x i8]* @.str5, i32 0, i32 0), i32 0, i8* getelementptr inbounds ([1 x i8]* @.str, i32 0, i32 0)) nounwind, !dbg !10465 ; [debug line = 102:1]
  %227 = load i8* @_ZGVZ10correlatorN3hls6streamI10rfnoc_axisEES2_7ap_uintILi1EENS0_IS4_EES3_ILi10EEE10sum6_reg_q, align 1, !dbg !10466 ; [#uses=1 type=i8] [debug line = 103:43]
  %228 = icmp eq i8 %227, 0, !dbg !10466          ; [#uses=1 type=i1] [debug line = 103:43]
  br i1 %228, label %229, label %235, !dbg !10466 ; [debug line = 103:43]

; <label>:229                                     ; preds = %226
  br label %230, !dbg !10466                      ; [debug line = 103:43]

; <label>:230                                     ; preds = %230, %229
  %231 = phi %struct.ap_int.24* [ getelementptr inbounds ([8 x %struct.ap_int.24]* @_ZZ10correlatorN3hls6streamI10rfnoc_axisEES2_7ap_uintILi1EENS0_IS4_EES3_ILi10EEE10sum6_reg_q, i32 0, i32 0), %229 ], [ %232, %230 ], !dbg !10466 ; [#uses=2 type=%struct.ap_int.24*] [debug line = 103:43]
  call void @_ZN6ap_intILi22EEC1Ev(%struct.ap_int.24* %231), !dbg !10466 ; [debug line = 103:43]
  %232 = getelementptr inbounds %struct.ap_int.24* %231, i32 1, !dbg !10466 ; [#uses=2 type=%struct.ap_int.24*] [debug line = 103:43]
  %233 = icmp eq %struct.ap_int.24* %232, getelementptr inbounds ([8 x %struct.ap_int.24]* @_ZZ10correlatorN3hls6streamI10rfnoc_axisEES2_7ap_uintILi1EENS0_IS4_EES3_ILi10EEE10sum6_reg_q, i64 1, i32 0), !dbg !10466 ; [#uses=1 type=i1] [debug line = 103:43]
  br i1 %233, label %234, label %230, !dbg !10466 ; [debug line = 103:43]

; <label>:234                                     ; preds = %230
  store i8 1, i8* @_ZGVZ10correlatorN3hls6streamI10rfnoc_axisEES2_7ap_uintILi1EENS0_IS4_EES3_ILi10EEE10sum6_reg_q, !dbg !10466 ; [debug line = 103:43]
  br label %235, !dbg !10466                      ; [debug line = 103:43]

; <label>:235                                     ; preds = %234, %226
  call void (...)* @_ssdm_SpecArrayPartition(%struct.ap_int.24* getelementptr inbounds ([8 x %struct.ap_int.24]* @_ZZ10correlatorN3hls6streamI10rfnoc_axisEES2_7ap_uintILi1EENS0_IS4_EES3_ILi10EEE10sum6_reg_q, i32 0, i32 0), i32 1, i8* getelementptr inbounds ([9 x i8]* @.str5, i32 0, i32 0), i32 0, i8* getelementptr inbounds ([1 x i8]* @.str, i32 0, i32 0)) nounwind, !dbg !10467 ; [debug line = 104:1]
  %236 = load i8* @_ZGVZ10correlatorN3hls6streamI10rfnoc_axisEES2_7ap_uintILi1EENS0_IS4_EES3_ILi10EEE10sum7_reg_i, align 1, !dbg !10468 ; [#uses=1 type=i8] [debug line = 106:44]
  %237 = icmp eq i8 %236, 0, !dbg !10468          ; [#uses=1 type=i1] [debug line = 106:44]
  br i1 %237, label %238, label %244, !dbg !10468 ; [debug line = 106:44]

; <label>:238                                     ; preds = %235
  br label %239, !dbg !10468                      ; [debug line = 106:44]

; <label>:239                                     ; preds = %239, %238
  %240 = phi %struct.ap_int.27* [ getelementptr inbounds ([4 x %struct.ap_int.27]* @_ZZ10correlatorN3hls6streamI10rfnoc_axisEES2_7ap_uintILi1EENS0_IS4_EES3_ILi10EEE10sum7_reg_i, i32 0, i32 0), %238 ], [ %241, %239 ], !dbg !10468 ; [#uses=2 type=%struct.ap_int.27*] [debug line = 106:44]
  call void @_ZN6ap_intILi23EEC1Ev(%struct.ap_int.27* %240), !dbg !10468 ; [debug line = 106:44]
  %241 = getelementptr inbounds %struct.ap_int.27* %240, i32 1, !dbg !10468 ; [#uses=2 type=%struct.ap_int.27*] [debug line = 106:44]
  %242 = icmp eq %struct.ap_int.27* %241, getelementptr inbounds ([4 x %struct.ap_int.27]* @_ZZ10correlatorN3hls6streamI10rfnoc_axisEES2_7ap_uintILi1EENS0_IS4_EES3_ILi10EEE10sum7_reg_i, i64 1, i32 0), !dbg !10468 ; [#uses=1 type=i1] [debug line = 106:44]
  br i1 %242, label %243, label %239, !dbg !10468 ; [debug line = 106:44]

; <label>:243                                     ; preds = %239
  store i8 1, i8* @_ZGVZ10correlatorN3hls6streamI10rfnoc_axisEES2_7ap_uintILi1EENS0_IS4_EES3_ILi10EEE10sum7_reg_i, !dbg !10468 ; [debug line = 106:44]
  br label %244, !dbg !10468                      ; [debug line = 106:44]

; <label>:244                                     ; preds = %243, %235
  call void (...)* @_ssdm_SpecArrayPartition(%struct.ap_int.27* getelementptr inbounds ([4 x %struct.ap_int.27]* @_ZZ10correlatorN3hls6streamI10rfnoc_axisEES2_7ap_uintILi1EENS0_IS4_EES3_ILi10EEE10sum7_reg_i, i32 0, i32 0), i32 1, i8* getelementptr inbounds ([9 x i8]* @.str5, i32 0, i32 0), i32 0, i8* getelementptr inbounds ([1 x i8]* @.str, i32 0, i32 0)) nounwind, !dbg !10469 ; [debug line = 107:1]
  %245 = load i8* @_ZGVZ10correlatorN3hls6streamI10rfnoc_axisEES2_7ap_uintILi1EENS0_IS4_EES3_ILi10EEE10sum7_reg_q, align 1, !dbg !10470 ; [#uses=1 type=i8] [debug line = 108:44]
  %246 = icmp eq i8 %245, 0, !dbg !10470          ; [#uses=1 type=i1] [debug line = 108:44]
  br i1 %246, label %247, label %253, !dbg !10470 ; [debug line = 108:44]

; <label>:247                                     ; preds = %244
  br label %248, !dbg !10470                      ; [debug line = 108:44]

; <label>:248                                     ; preds = %248, %247
  %249 = phi %struct.ap_int.27* [ getelementptr inbounds ([4 x %struct.ap_int.27]* @_ZZ10correlatorN3hls6streamI10rfnoc_axisEES2_7ap_uintILi1EENS0_IS4_EES3_ILi10EEE10sum7_reg_q, i32 0, i32 0), %247 ], [ %250, %248 ], !dbg !10470 ; [#uses=2 type=%struct.ap_int.27*] [debug line = 108:44]
  call void @_ZN6ap_intILi23EEC1Ev(%struct.ap_int.27* %249), !dbg !10470 ; [debug line = 108:44]
  %250 = getelementptr inbounds %struct.ap_int.27* %249, i32 1, !dbg !10470 ; [#uses=2 type=%struct.ap_int.27*] [debug line = 108:44]
  %251 = icmp eq %struct.ap_int.27* %250, getelementptr inbounds ([4 x %struct.ap_int.27]* @_ZZ10correlatorN3hls6streamI10rfnoc_axisEES2_7ap_uintILi1EENS0_IS4_EES3_ILi10EEE10sum7_reg_q, i64 1, i32 0), !dbg !10470 ; [#uses=1 type=i1] [debug line = 108:44]
  br i1 %251, label %252, label %248, !dbg !10470 ; [debug line = 108:44]

; <label>:252                                     ; preds = %248
  store i8 1, i8* @_ZGVZ10correlatorN3hls6streamI10rfnoc_axisEES2_7ap_uintILi1EENS0_IS4_EES3_ILi10EEE10sum7_reg_q, !dbg !10470 ; [debug line = 108:44]
  br label %253, !dbg !10470                      ; [debug line = 108:44]

; <label>:253                                     ; preds = %252, %244
  call void (...)* @_ssdm_SpecArrayPartition(%struct.ap_int.27* getelementptr inbounds ([4 x %struct.ap_int.27]* @_ZZ10correlatorN3hls6streamI10rfnoc_axisEES2_7ap_uintILi1EENS0_IS4_EES3_ILi10EEE10sum7_reg_q, i32 0, i32 0), i32 1, i8* getelementptr inbounds ([9 x i8]* @.str5, i32 0, i32 0), i32 0, i8* getelementptr inbounds ([1 x i8]* @.str, i32 0, i32 0)) nounwind, !dbg !10471 ; [debug line = 109:1]
  call void @llvm.dbg.declare(metadata !{%struct.rfnoc_axis* %out_sample}, metadata !10472), !dbg !10473 ; [debug line = 113:13] [debug variable = out_sample]
  call void @_ZN10rfnoc_axisC1Ev(%struct.rfnoc_axis* %out_sample), !dbg !10474 ; [debug line = 113:23]
  %254 = load i8* @_ZGVZ10correlatorN3hls6streamI10rfnoc_axisEES2_7ap_uintILi1EENS0_IS4_EES3_ILi10EEE14out_sample_cnt, align 1, !dbg !10475 ; [#uses=1 type=i8] [debug line = 115:36]
  %255 = icmp eq i8 %254, 0, !dbg !10475          ; [#uses=1 type=i1] [debug line = 115:36]
  br i1 %255, label %256, label %257, !dbg !10475 ; [debug line = 115:36]

; <label>:256                                     ; preds = %253
  call void @_ZN7ap_uintILi10EEC1Ev(%struct.ap_uint.3* @_ZZ10correlatorN3hls6streamI10rfnoc_axisEES2_7ap_uintILi1EENS0_IS4_EES3_ILi10EEE14out_sample_cnt), !dbg !10475 ; [debug line = 115:36]
  store i8 1, i8* @_ZGVZ10correlatorN3hls6streamI10rfnoc_axisEES2_7ap_uintILi1EENS0_IS4_EES3_ILi10EEE14out_sample_cnt, !dbg !10475 ; [debug line = 115:36]
  br label %257, !dbg !10475                      ; [debug line = 115:36]

; <label>:257                                     ; preds = %256, %253
  call void (...)* @_ssdm_op_SpecReset(%struct.ap_uint.3* @_ZZ10correlatorN3hls6streamI10rfnoc_axisEES2_7ap_uintILi1EENS0_IS4_EES3_ILi10EEE14out_sample_cnt, i32 1, i8* getelementptr inbounds ([1 x i8]* @.str, i32 0, i32 0)) nounwind, !dbg !10476 ; [debug line = 116:1]
  %258 = load i8* @_ZGVZ10correlatorN3hls6streamI10rfnoc_axisEES2_7ap_uintILi1EENS0_IS4_EES3_ILi10EEE6pn_seq, align 1, !dbg !10477 ; [#uses=1 type=i8] [debug line = 118:31]
  %259 = icmp eq i8 %258, 0, !dbg !10477          ; [#uses=1 type=i1] [debug line = 118:31]
  br i1 %259, label %260, label %266, !dbg !10477 ; [debug line = 118:31]

; <label>:260                                     ; preds = %257
  br label %261, !dbg !10477                      ; [debug line = 118:31]

; <label>:261                                     ; preds = %261, %260
  %262 = phi %struct.ap_uint* [ getelementptr inbounds ([512 x %struct.ap_uint]* @_ZZ10correlatorN3hls6streamI10rfnoc_axisEES2_7ap_uintILi1EENS0_IS4_EES3_ILi10EEE6pn_seq, i32 0, i32 0), %260 ], [ %263, %261 ], !dbg !10477 ; [#uses=2 type=%struct.ap_uint*] [debug line = 118:31]
  call void @_ZN7ap_uintILi1EEC1Ev(%struct.ap_uint* %262), !dbg !10477 ; [debug line = 118:31]
  %263 = getelementptr inbounds %struct.ap_uint* %262, i32 1, !dbg !10477 ; [#uses=2 type=%struct.ap_uint*] [debug line = 118:31]
  %264 = icmp eq %struct.ap_uint* %263, getelementptr inbounds ([512 x %struct.ap_uint]* @_ZZ10correlatorN3hls6streamI10rfnoc_axisEES2_7ap_uintILi1EENS0_IS4_EES3_ILi10EEE6pn_seq, i64 1, i32 0), !dbg !10477 ; [#uses=1 type=i1] [debug line = 118:31]
  br i1 %264, label %265, label %261, !dbg !10477 ; [debug line = 118:31]

; <label>:265                                     ; preds = %261
  store i8 1, i8* @_ZGVZ10correlatorN3hls6streamI10rfnoc_axisEES2_7ap_uintILi1EENS0_IS4_EES3_ILi10EEE6pn_seq, !dbg !10477 ; [debug line = 118:31]
  br label %266, !dbg !10477                      ; [debug line = 118:31]

; <label>:266                                     ; preds = %265, %257
  call void (...)* @_ssdm_SpecArrayPartition(%struct.ap_uint* getelementptr inbounds ([512 x %struct.ap_uint]* @_ZZ10correlatorN3hls6streamI10rfnoc_axisEES2_7ap_uintILi1EENS0_IS4_EES3_ILi10EEE6pn_seq, i32 0, i32 0), i32 1, i8* getelementptr inbounds ([9 x i8]* @.str5, i32 0, i32 0), i32 0, i8* getelementptr inbounds ([1 x i8]* @.str, i32 0, i32 0)) nounwind, !dbg !10478 ; [debug line = 119:1]
  call void @llvm.dbg.declare(metadata !{%struct.rfnoc_axis* %tmp_data}, metadata !10479), !dbg !10480 ; [debug line = 121:13] [debug variable = tmp_data]
  call void @_ZN10rfnoc_axisC1Ev(%struct.rfnoc_axis* %tmp_data), !dbg !10481 ; [debug line = 121:21]
  %267 = load i8* @_ZGVZ10correlatorN3hls6streamI10rfnoc_axisEES2_7ap_uintILi1EENS0_IS4_EES3_ILi10EEE8load_cnt, align 1, !dbg !10482 ; [#uses=1 type=i8] [debug line = 123:30]
  %268 = icmp eq i8 %267, 0, !dbg !10482          ; [#uses=1 type=i1] [debug line = 123:30]
  br i1 %268, label %269, label %270, !dbg !10482 ; [debug line = 123:30]

; <label>:269                                     ; preds = %266
  call void @_ZN7ap_uintILi10EEC1Ev(%struct.ap_uint.3* @_ZZ10correlatorN3hls6streamI10rfnoc_axisEES2_7ap_uintILi1EENS0_IS4_EES3_ILi10EEE8load_cnt), !dbg !10482 ; [debug line = 123:30]
  store i8 1, i8* @_ZGVZ10correlatorN3hls6streamI10rfnoc_axisEES2_7ap_uintILi1EENS0_IS4_EES3_ILi10EEE8load_cnt, !dbg !10482 ; [debug line = 123:30]
  br label %270, !dbg !10482                      ; [debug line = 123:30]

; <label>:270                                     ; preds = %269, %266
  call void (...)* @_ssdm_op_SpecReset(%struct.ap_uint.3* @_ZZ10correlatorN3hls6streamI10rfnoc_axisEES2_7ap_uintILi1EENS0_IS4_EES3_ILi10EEE8load_cnt, i32 1, i8* getelementptr inbounds ([1 x i8]* @.str, i32 0, i32 0)) nounwind, !dbg !10483 ; [debug line = 124:1]
  %271 = load i8* @_ZGVZ10correlatorN3hls6streamI10rfnoc_axisEES2_7ap_uintILi1EENS0_IS4_EES3_ILi10EEE14data_valid_reg, align 1, !dbg !10484 ; [#uses=1 type=i8] [debug line = 125:35]
  %272 = icmp eq i8 %271, 0, !dbg !10484          ; [#uses=1 type=i1] [debug line = 125:35]
  br i1 %272, label %273, label %274, !dbg !10484 ; [debug line = 125:35]

; <label>:273                                     ; preds = %270
  call void @_ZN7ap_uintILi24EEC1Ev(%struct.ap_uint.30* @_ZZ10correlatorN3hls6streamI10rfnoc_axisEES2_7ap_uintILi1EENS0_IS4_EES3_ILi10EEE14data_valid_reg), !dbg !10484 ; [debug line = 125:35]
  store i8 1, i8* @_ZGVZ10correlatorN3hls6streamI10rfnoc_axisEES2_7ap_uintILi1EENS0_IS4_EES3_ILi10EEE14data_valid_reg, !dbg !10484 ; [debug line = 125:35]
  br label %274, !dbg !10484                      ; [debug line = 125:35]

; <label>:274                                     ; preds = %273, %270
  %275 = load i8* @_ZGVZ10correlatorN3hls6streamI10rfnoc_axisEES2_7ap_uintILi1EENS0_IS4_EES3_ILi10EEE13pnseq_len_reg, align 1, !dbg !10485 ; [#uses=1 type=i8] [debug line = 126:35]
  %276 = icmp eq i8 %275, 0, !dbg !10485          ; [#uses=1 type=i1] [debug line = 126:35]
  br i1 %276, label %277, label %278, !dbg !10485 ; [debug line = 126:35]

; <label>:277                                     ; preds = %274
  call void @_ZN7ap_uintILi10EEC1Ev(%struct.ap_uint.3* @_ZZ10correlatorN3hls6streamI10rfnoc_axisEES2_7ap_uintILi1EENS0_IS4_EES3_ILi10EEE13pnseq_len_reg), !dbg !10485 ; [debug line = 126:35]
  store i8 1, i8* @_ZGVZ10correlatorN3hls6streamI10rfnoc_axisEES2_7ap_uintILi1EENS0_IS4_EES3_ILi10EEE13pnseq_len_reg, !dbg !10485 ; [debug line = 126:35]
  br label %278, !dbg !10485                      ; [debug line = 126:35]

; <label>:278                                     ; preds = %277, %274
  %279 = load i2* @_ZZ10correlatorN3hls6streamI10rfnoc_axisEES2_7ap_uintILi1EENS0_IS4_EES3_ILi10EEE12currentState, align 1, !dbg !10486 ; [#uses=1 type=i2] [debug line = 130:1]
  %280 = zext i2 %279 to i32, !dbg !10486         ; [#uses=1 type=i32] [debug line = 130:1]
  call void (...)* @_ssdm_op_SpecReset(i32 %280, i32 1, i8* getelementptr inbounds ([1 x i8]* @.str, i32 0, i32 0)) nounwind, !dbg !10486 ; [debug line = 130:1]
  %281 = load i1* @_ZZ10correlatorN3hls6streamI10rfnoc_axisEES2_7ap_uintILi1EENS0_IS4_EES3_ILi10EEE14currentwrState, align 1, !dbg !10487 ; [#uses=1 type=i1] [debug line = 134:1]
  %282 = zext i1 %281 to i32, !dbg !10487         ; [#uses=1 type=i32] [debug line = 134:1]
  call void (...)* @_ssdm_op_SpecReset(i32 %282, i32 1, i8* getelementptr inbounds ([1 x i8]* @.str, i32 0, i32 0)) nounwind, !dbg !10487 ; [debug line = 134:1]
  %283 = load i8* @_ZGVZ10correlatorN3hls6streamI10rfnoc_axisEES2_7ap_uintILi1EENS0_IS4_EES3_ILi10EEE10sum8_reg_i, align 1, !dbg !10488 ; [#uses=1 type=i8] [debug line = 184:44]
  %284 = icmp eq i8 %283, 0, !dbg !10488          ; [#uses=1 type=i1] [debug line = 184:44]
  br i1 %284, label %285, label %291, !dbg !10488 ; [debug line = 184:44]

; <label>:285                                     ; preds = %278
  br label %286, !dbg !10488                      ; [debug line = 184:44]

; <label>:286                                     ; preds = %286, %285
  %287 = phi %struct.ap_uint.30* [ getelementptr inbounds ([2 x %struct.ap_uint.30]* @_ZZ10correlatorN3hls6streamI10rfnoc_axisEES2_7ap_uintILi1EENS0_IS4_EES3_ILi10EEE10sum8_reg_i, i32 0, i32 0), %285 ], [ %288, %286 ], !dbg !10488 ; [#uses=2 type=%struct.ap_uint.30*] [debug line = 184:44]
  call void @_ZN6ap_intILi24EEC1Ev(%struct.ap_uint.30* %287), !dbg !10488 ; [debug line = 184:44]
  %288 = getelementptr inbounds %struct.ap_uint.30* %287, i32 1, !dbg !10488 ; [#uses=2 type=%struct.ap_uint.30*] [debug line = 184:44]
  %289 = icmp eq %struct.ap_uint.30* %288, getelementptr inbounds ([2 x %struct.ap_uint.30]* @_ZZ10correlatorN3hls6streamI10rfnoc_axisEES2_7ap_uintILi1EENS0_IS4_EES3_ILi10EEE10sum8_reg_i, i64 1, i32 0), !dbg !10488 ; [#uses=1 type=i1] [debug line = 184:44]
  br i1 %289, label %290, label %286, !dbg !10488 ; [debug line = 184:44]

; <label>:290                                     ; preds = %286
  store i8 1, i8* @_ZGVZ10correlatorN3hls6streamI10rfnoc_axisEES2_7ap_uintILi1EENS0_IS4_EES3_ILi10EEE10sum8_reg_i, !dbg !10488 ; [debug line = 184:44]
  br label %291, !dbg !10488                      ; [debug line = 184:44]

; <label>:291                                     ; preds = %290, %278
  call void (...)* @_ssdm_SpecArrayPartition(%struct.ap_uint.30* getelementptr inbounds ([2 x %struct.ap_uint.30]* @_ZZ10correlatorN3hls6streamI10rfnoc_axisEES2_7ap_uintILi1EENS0_IS4_EES3_ILi10EEE10sum8_reg_i, i32 0, i32 0), i32 1, i8* getelementptr inbounds ([9 x i8]* @.str5, i32 0, i32 0), i32 0, i8* getelementptr inbounds ([1 x i8]* @.str, i32 0, i32 0)) nounwind, !dbg !10489 ; [debug line = 185:1]
  %292 = load i8* @_ZGVZ10correlatorN3hls6streamI10rfnoc_axisEES2_7ap_uintILi1EENS0_IS4_EES3_ILi10EEE10sum8_reg_q, align 1, !dbg !10490 ; [#uses=1 type=i8] [debug line = 186:44]
  %293 = icmp eq i8 %292, 0, !dbg !10490          ; [#uses=1 type=i1] [debug line = 186:44]
  br i1 %293, label %294, label %300, !dbg !10490 ; [debug line = 186:44]

; <label>:294                                     ; preds = %291
  br label %295, !dbg !10490                      ; [debug line = 186:44]

; <label>:295                                     ; preds = %295, %294
  %296 = phi %struct.ap_uint.30* [ getelementptr inbounds ([2 x %struct.ap_uint.30]* @_ZZ10correlatorN3hls6streamI10rfnoc_axisEES2_7ap_uintILi1EENS0_IS4_EES3_ILi10EEE10sum8_reg_q, i32 0, i32 0), %294 ], [ %297, %295 ], !dbg !10490 ; [#uses=2 type=%struct.ap_uint.30*] [debug line = 186:44]
  call void @_ZN6ap_intILi24EEC1Ev(%struct.ap_uint.30* %296), !dbg !10490 ; [debug line = 186:44]
  %297 = getelementptr inbounds %struct.ap_uint.30* %296, i32 1, !dbg !10490 ; [#uses=2 type=%struct.ap_uint.30*] [debug line = 186:44]
  %298 = icmp eq %struct.ap_uint.30* %297, getelementptr inbounds ([2 x %struct.ap_uint.30]* @_ZZ10correlatorN3hls6streamI10rfnoc_axisEES2_7ap_uintILi1EENS0_IS4_EES3_ILi10EEE10sum8_reg_q, i64 1, i32 0), !dbg !10490 ; [#uses=1 type=i1] [debug line = 186:44]
  br i1 %298, label %299, label %295, !dbg !10490 ; [debug line = 186:44]

; <label>:299                                     ; preds = %295
  store i8 1, i8* @_ZGVZ10correlatorN3hls6streamI10rfnoc_axisEES2_7ap_uintILi1EENS0_IS4_EES3_ILi10EEE10sum8_reg_q, !dbg !10490 ; [debug line = 186:44]
  br label %300, !dbg !10490                      ; [debug line = 186:44]

; <label>:300                                     ; preds = %299, %291
  call void (...)* @_ssdm_SpecArrayPartition(%struct.ap_uint.30* getelementptr inbounds ([2 x %struct.ap_uint.30]* @_ZZ10correlatorN3hls6streamI10rfnoc_axisEES2_7ap_uintILi1EENS0_IS4_EES3_ILi10EEE10sum8_reg_q, i32 0, i32 0), i32 1, i8* getelementptr inbounds ([9 x i8]* @.str5, i32 0, i32 0), i32 0, i8* getelementptr inbounds ([1 x i8]* @.str, i32 0, i32 0)) nounwind, !dbg !10491 ; [debug line = 187:1]
  %301 = load i8* @_ZGVZ10correlatorN3hls6streamI10rfnoc_axisEES2_7ap_uintILi1EENS0_IS4_EES3_ILi10EEE9sum_reg_i, align 1, !dbg !10492 ; [#uses=1 type=i8] [debug line = 189:29]
  %302 = icmp eq i8 %301, 0, !dbg !10492          ; [#uses=1 type=i1] [debug line = 189:29]
  br i1 %302, label %303, label %304, !dbg !10492 ; [debug line = 189:29]

; <label>:303                                     ; preds = %300
  call void @_ZN6ap_intILi25EEC1Ev(%struct.ap_int.36* @_ZZ10correlatorN3hls6streamI10rfnoc_axisEES2_7ap_uintILi1EENS0_IS4_EES3_ILi10EEE9sum_reg_i), !dbg !10492 ; [debug line = 189:29]
  store i8 1, i8* @_ZGVZ10correlatorN3hls6streamI10rfnoc_axisEES2_7ap_uintILi1EENS0_IS4_EES3_ILi10EEE9sum_reg_i, !dbg !10492 ; [debug line = 189:29]
  br label %304, !dbg !10492                      ; [debug line = 189:29]

; <label>:304                                     ; preds = %303, %300
  %305 = load i8* @_ZGVZ10correlatorN3hls6streamI10rfnoc_axisEES2_7ap_uintILi1EENS0_IS4_EES3_ILi10EEE9sum_reg_q, align 1, !dbg !10493 ; [#uses=1 type=i8] [debug line = 190:31]
  %306 = icmp eq i8 %305, 0, !dbg !10493          ; [#uses=1 type=i1] [debug line = 190:31]
  br i1 %306, label %307, label %308, !dbg !10493 ; [debug line = 190:31]

; <label>:307                                     ; preds = %304
  call void @_ZN6ap_intILi25EEC1Ev(%struct.ap_int.36* @_ZZ10correlatorN3hls6streamI10rfnoc_axisEES2_7ap_uintILi1EENS0_IS4_EES3_ILi10EEE9sum_reg_q), !dbg !10493 ; [debug line = 190:31]
  store i8 1, i8* @_ZGVZ10correlatorN3hls6streamI10rfnoc_axisEES2_7ap_uintILi1EENS0_IS4_EES3_ILi10EEE9sum_reg_q, !dbg !10493 ; [debug line = 190:31]
  br label %308, !dbg !10493                      ; [debug line = 190:31]

; <label>:308                                     ; preds = %307, %304
  %309 = load i8* @_ZGVZ10correlatorN3hls6streamI10rfnoc_axisEES2_7ap_uintILi1EENS0_IS4_EES3_ILi10EEE8sq_reg_i, align 1, !dbg !10494 ; [#uses=1 type=i8] [debug line = 192:30]
  %310 = icmp eq i8 %309, 0, !dbg !10494          ; [#uses=1 type=i1] [debug line = 192:30]
  br i1 %310, label %311, label %312, !dbg !10494 ; [debug line = 192:30]

; <label>:311                                     ; preds = %308
  call void @_ZN6ap_intILi50EEC1Ev(%struct.ap_int.39* @_ZZ10correlatorN3hls6streamI10rfnoc_axisEES2_7ap_uintILi1EENS0_IS4_EES3_ILi10EEE8sq_reg_i), !dbg !10494 ; [debug line = 192:30]
  store i8 1, i8* @_ZGVZ10correlatorN3hls6streamI10rfnoc_axisEES2_7ap_uintILi1EENS0_IS4_EES3_ILi10EEE8sq_reg_i, !dbg !10494 ; [debug line = 192:30]
  br label %312, !dbg !10494                      ; [debug line = 192:30]

; <label>:312                                     ; preds = %311, %308
  %313 = load i8* @_ZGVZ10correlatorN3hls6streamI10rfnoc_axisEES2_7ap_uintILi1EENS0_IS4_EES3_ILi10EEE8sq_reg_q, align 1, !dbg !10495 ; [#uses=1 type=i8] [debug line = 193:30]
  %314 = icmp eq i8 %313, 0, !dbg !10495          ; [#uses=1 type=i1] [debug line = 193:30]
  br i1 %314, label %315, label %316, !dbg !10495 ; [debug line = 193:30]

; <label>:315                                     ; preds = %312
  call void @_ZN6ap_intILi50EEC1Ev(%struct.ap_int.39* @_ZZ10correlatorN3hls6streamI10rfnoc_axisEES2_7ap_uintILi1EENS0_IS4_EES3_ILi10EEE8sq_reg_q), !dbg !10495 ; [debug line = 193:30]
  store i8 1, i8* @_ZGVZ10correlatorN3hls6streamI10rfnoc_axisEES2_7ap_uintILi1EENS0_IS4_EES3_ILi10EEE8sq_reg_q, !dbg !10495 ; [debug line = 193:30]
  br label %316, !dbg !10495                      ; [debug line = 193:30]

; <label>:316                                     ; preds = %315, %312
  %317 = load i8* @_ZGVZ10correlatorN3hls6streamI10rfnoc_axisEES2_7ap_uintILi1EENS0_IS4_EES3_ILi10EEE6sq_sum, align 1, !dbg !10496 ; [#uses=1 type=i8] [debug line = 195:28]
  %318 = icmp eq i8 %317, 0, !dbg !10496          ; [#uses=1 type=i1] [debug line = 195:28]
  br i1 %318, label %319, label %320, !dbg !10496 ; [debug line = 195:28]

; <label>:319                                     ; preds = %316
  call void @_ZN6ap_intILi51EEC1Ev(%struct.ap_int.42* @_ZZ10correlatorN3hls6streamI10rfnoc_axisEES2_7ap_uintILi1EENS0_IS4_EES3_ILi10EEE6sq_sum), !dbg !10496 ; [debug line = 195:28]
  store i8 1, i8* @_ZGVZ10correlatorN3hls6streamI10rfnoc_axisEES2_7ap_uintILi1EENS0_IS4_EES3_ILi10EEE6sq_sum, !dbg !10496 ; [debug line = 195:28]
  br label %320, !dbg !10496                      ; [debug line = 195:28]

; <label>:320                                     ; preds = %319, %316
  %321 = load i1* @_ZZ10correlatorN3hls6streamI10rfnoc_axisEES2_7ap_uintILi1EENS0_IS4_EES3_ILi10EEE14currentwrState, align 1, !dbg !10497 ; [#uses=1 type=i1] [debug line = 198:3]
  %322 = zext i1 %321 to i32, !dbg !10497         ; [#uses=1 type=i32] [debug line = 198:3]
  switch i32 %322, label %344 [
    i32 0, label %323
    i32 1, label %327
  ], !dbg !10497                                  ; [debug line = 198:3]

; <label>:323                                     ; preds = %320
  call void @_ZN11ap_int_baseILi24ELb0ELb1EEixEi(%struct.ap_bit_ref* sret %1, %struct.ap_int_base.31* getelementptr inbounds (%struct.ap_uint.30* @_ZZ10correlatorN3hls6streamI10rfnoc_axisEES2_7ap_uintILi1EENS0_IS4_EES3_ILi10EEE14data_valid_reg, i32 0, i32 0), i32 12), !dbg !10498 ; [debug line = 200:14]
  %324 = call zeroext i1 @_ZNK10ap_bit_refILi24ELb0EEcvbEv(%struct.ap_bit_ref* %1), !dbg !10498 ; [#uses=1 type=i1] [debug line = 200:14]
  br i1 %324, label %325, label %326, !dbg !10498 ; [debug line = 200:14]

; <label>:325                                     ; preds = %323
  store i1 true, i1* @_ZZ10correlatorN3hls6streamI10rfnoc_axisEES2_7ap_uintILi1EENS0_IS4_EES3_ILi10EEE14currentwrState, align 1, !dbg !10500 ; [debug line = 201:19]
  br label %326, !dbg !10500                      ; [debug line = 201:19]

; <label>:326                                     ; preds = %325, %323
  br label %344, !dbg !10501                      ; [debug line = 202:11]

; <label>:327                                     ; preds = %320
  call void @_ZmiILi10ELb0EEN11ap_int_baseIXT_EXT0_EXleT_Li64EEE5RTypeIXLi32EEXLb1EEE5minusERKS1_i(%struct.ap_int_base.45* sret %2, %struct.ap_int_base.4* getelementptr inbounds (%struct.ap_uint.3* @_ZZ10correlatorN3hls6streamI10rfnoc_axisEES2_7ap_uintILi1EENS0_IS4_EES3_ILi10EEE13pnseq_len_reg, i32 0, i32 0), i32 1), !dbg !10502 ; [debug line = 204:32]
  %328 = call zeroext i1 @_ZNK11ap_int_baseILi10ELb0ELb1EEeqILi33ELb1EEEbRKS_IXT_EXT0_EXleT_Li64EEE(%struct.ap_int_base.4* getelementptr inbounds (%struct.ap_uint.3* @_ZZ10correlatorN3hls6streamI10rfnoc_axisEES2_7ap_uintILi1EENS0_IS4_EES3_ILi10EEE14out_sample_cnt, i32 0, i32 0), %struct.ap_int_base.45* %2), !dbg !10502 ; [#uses=1 type=i1] [debug line = 204:32]
  br i1 %328, label %329, label %333, !dbg !10502 ; [debug line = 204:32]

; <label>:329                                     ; preds = %327
  %330 = getelementptr inbounds %struct.rfnoc_axis* %out_sample, i32 0, i32 1, !dbg !10503 ; [#uses=1 type=%struct.ap_uint*] [debug line = 205:20]
  call void @_ZN7ap_uintILi1EEC1Ei(%struct.ap_uint* %3, i32 1), !dbg !10503 ; [debug line = 205:20]
  %331 = call %struct.ap_uint* @_ZN7ap_uintILi1EEaSERKS0_(%struct.ap_uint* %330, %struct.ap_uint* %3), !dbg !10503 ; [#uses=0 type=%struct.ap_uint*] [debug line = 205:20]
  call void @_ZN7ap_uintILi10EEC1Ei(%struct.ap_uint.3* %4, i32 0), !dbg !10505 ; [debug line = 206:20]
  %332 = call %struct.ap_uint.3* @_ZN7ap_uintILi10EEaSERKS0_(%struct.ap_uint.3* @_ZZ10correlatorN3hls6streamI10rfnoc_axisEES2_7ap_uintILi1EENS0_IS4_EES3_ILi10EEE14out_sample_cnt, %struct.ap_uint.3* %4), !dbg !10505 ; [#uses=0 type=%struct.ap_uint.3*] [debug line = 206:20]
  br label %337, !dbg !10506                      ; [debug line = 206:40]

; <label>:333                                     ; preds = %327
  %334 = getelementptr inbounds %struct.rfnoc_axis* %out_sample, i32 0, i32 1, !dbg !10507 ; [#uses=1 type=%struct.ap_uint*] [debug line = 208:20]
  call void @_ZN7ap_uintILi1EEC1Ei(%struct.ap_uint* %5, i32 0), !dbg !10507 ; [debug line = 208:20]
  %335 = call %struct.ap_uint* @_ZN7ap_uintILi1EEaSERKS0_(%struct.ap_uint* %334, %struct.ap_uint* %5), !dbg !10507 ; [#uses=0 type=%struct.ap_uint*] [debug line = 208:20]
  call void @_ZplILi10ELb0EEN11ap_int_baseIXT_EXT0_EXleT_Li64EEE5RTypeIXLi32EEXLb1EEE4plusERKS1_i(%struct.ap_int_base.45* sret %7, %struct.ap_int_base.4* getelementptr inbounds (%struct.ap_uint.3* @_ZZ10correlatorN3hls6streamI10rfnoc_axisEES2_7ap_uintILi1EENS0_IS4_EES3_ILi10EEE14out_sample_cnt, i32 0, i32 0), i32 1), !dbg !10509 ; [debug line = 209:33]
  call void @_ZN7ap_uintILi10EEC1ILi33ELb1EEERK11ap_int_baseIXT_EXT0_EXleT_Li64EEE(%struct.ap_uint.3* %6, %struct.ap_int_base.45* %7), !dbg !10509 ; [debug line = 209:33]
  %336 = call %struct.ap_uint.3* @_ZN7ap_uintILi10EEaSERKS0_(%struct.ap_uint.3* @_ZZ10correlatorN3hls6streamI10rfnoc_axisEES2_7ap_uintILi1EENS0_IS4_EES3_ILi10EEE14out_sample_cnt, %struct.ap_uint.3* %6), !dbg !10509 ; [#uses=0 type=%struct.ap_uint.3*] [debug line = 209:33]
  br label %337

; <label>:337                                     ; preds = %333, %329
  call void @_ZN11ap_int_baseILi24ELb0ELb1EEixEi(%struct.ap_bit_ref* sret %8, %struct.ap_int_base.31* getelementptr inbounds (%struct.ap_uint.30* @_ZZ10correlatorN3hls6streamI10rfnoc_axisEES2_7ap_uintILi1EENS0_IS4_EES3_ILi10EEE14data_valid_reg, i32 0, i32 0), i32 12), !dbg !10510 ; [debug line = 211:15]
  %338 = call zeroext i1 @_ZNK10ap_bit_refILi24ELb0EEcvbEv(%struct.ap_bit_ref* %8), !dbg !10510 ; [#uses=1 type=i1] [debug line = 211:15]
  br i1 %338, label %340, label %339, !dbg !10510 ; [debug line = 211:15]

; <label>:339                                     ; preds = %337
  store i1 false, i1* @_ZZ10correlatorN3hls6streamI10rfnoc_axisEES2_7ap_uintILi1EENS0_IS4_EES3_ILi10EEE14currentwrState, align 1, !dbg !10511 ; [debug line = 212:19]
  br label %341, !dbg !10511                      ; [debug line = 212:19]

; <label>:340                                     ; preds = %337
  store i1 true, i1* @_ZZ10correlatorN3hls6streamI10rfnoc_axisEES2_7ap_uintILi1EENS0_IS4_EES3_ILi10EEE14currentwrState, align 1, !dbg !10512 ; [debug line = 214:19]
  br label %341

; <label>:341                                     ; preds = %340, %339
  %342 = getelementptr inbounds %struct.rfnoc_axis* %out_sample, i32 0, i32 0, !dbg !10513 ; [#uses=1 type=%struct.ap_int*] [debug line = 216:11]
  call void @_ZN11ap_int_baseILi51ELb1ELb1EE5rangeEii(%struct.ap_range_ref* sret %10, %struct.ap_int_base.43* getelementptr inbounds (%struct.ap_int.42* @_ZZ10correlatorN3hls6streamI10rfnoc_axisEES2_7ap_uintILi1EENS0_IS4_EES3_ILi10EEE6sq_sum, i32 0, i32 0), i32 50, i32 19), !dbg !10514 ; [debug line = 216:29]
  call void @_ZN6ap_intILi32EEC1ILi51ELb1EEERK12ap_range_refIXT_EXT0_EE(%struct.ap_int* %9, %struct.ap_range_ref* %10), !dbg !10514 ; [debug line = 216:29]
  %343 = call %struct.ap_int* @_ZN6ap_intILi32EEaSERKS0_(%struct.ap_int* %342, %struct.ap_int* %9), !dbg !10514 ; [#uses=0 type=%struct.ap_int*] [debug line = 216:29]
  call void @_ZN3hls6streamI10rfnoc_axisE5writeERKS1_(%"class.hls::stream"* %o_data, %struct.rfnoc_axis* %out_sample), !dbg !10515 ; [debug line = 217:11]
  br label %344, !dbg !10516                      ; [debug line = 219:11]

; <label>:344                                     ; preds = %341, %326, %320
  call void @_ZplILi50ELb1ELi50ELb1EEN11ap_int_baseIXT_EXT0_EXleT_Li64EEE5RTypeIXT1_EXT2_EE4plusERKS1_RKS0_IXT1_EXT2_EXleT1_Li64EEE(%struct.ap_int_base.43* sret %12, %struct.ap_int_base.40* getelementptr inbounds (%struct.ap_int.39* @_ZZ10correlatorN3hls6streamI10rfnoc_axisEES2_7ap_uintILi1EENS0_IS4_EES3_ILi10EEE8sq_reg_i, i32 0, i32 0), %struct.ap_int_base.40* getelementptr inbounds (%struct.ap_int.39* @_ZZ10correlatorN3hls6streamI10rfnoc_axisEES2_7ap_uintILi1EENS0_IS4_EES3_ILi10EEE8sq_reg_q, i32 0, i32 0)), !dbg !10517 ; [debug line = 223:17]
  call void @_ZN6ap_intILi51EEC1ILi51ELb1EEERK11ap_int_baseIXT_EXT0_EXleT_Li64EEE(%struct.ap_int.42* %11, %struct.ap_int_base.43* %12), !dbg !10517 ; [debug line = 223:17]
  %345 = call %struct.ap_int.42* @_ZN6ap_intILi51EEaSERKS0_(%struct.ap_int.42* @_ZZ10correlatorN3hls6streamI10rfnoc_axisEES2_7ap_uintILi1EENS0_IS4_EES3_ILi10EEE6sq_sum, %struct.ap_int.42* %11), !dbg !10517 ; [#uses=0 type=%struct.ap_int.42*] [debug line = 223:17]
  call void @_ZmlILi25ELb1ELi25ELb1EEN11ap_int_baseIXT_EXT0_EXleT_Li64EEE5RTypeIXT1_EXT2_EE4multERKS1_RKS0_IXT1_EXT2_EXleT1_Li64EEE(%struct.ap_int_base.40* sret %14, %struct.ap_int_base.37* getelementptr inbounds (%struct.ap_int.36* @_ZZ10correlatorN3hls6streamI10rfnoc_axisEES2_7ap_uintILi1EENS0_IS4_EES3_ILi10EEE9sum_reg_i, i32 0, i32 0), %struct.ap_int_base.37* getelementptr inbounds (%struct.ap_int.36* @_ZZ10correlatorN3hls6streamI10rfnoc_axisEES2_7ap_uintILi1EENS0_IS4_EES3_ILi10EEE9sum_reg_i, i32 0, i32 0)), !dbg !10518 ; [debug line = 225:18]
  call void @_ZN6ap_intILi50EEC1ILi50ELb1EEERK11ap_int_baseIXT_EXT0_EXleT_Li64EEE(%struct.ap_int.39* %13, %struct.ap_int_base.40* %14), !dbg !10518 ; [debug line = 225:18]
  %346 = call %struct.ap_int.39* @_ZN6ap_intILi50EEaSERKS0_(%struct.ap_int.39* @_ZZ10correlatorN3hls6streamI10rfnoc_axisEES2_7ap_uintILi1EENS0_IS4_EES3_ILi10EEE8sq_reg_i, %struct.ap_int.39* %13), !dbg !10518 ; [#uses=0 type=%struct.ap_int.39*] [debug line = 225:18]
  call void @_ZmlILi25ELb1ELi25ELb1EEN11ap_int_baseIXT_EXT0_EXleT_Li64EEE5RTypeIXT1_EXT2_EE4multERKS1_RKS0_IXT1_EXT2_EXleT1_Li64EEE(%struct.ap_int_base.40* sret %16, %struct.ap_int_base.37* getelementptr inbounds (%struct.ap_int.36* @_ZZ10correlatorN3hls6streamI10rfnoc_axisEES2_7ap_uintILi1EENS0_IS4_EES3_ILi10EEE9sum_reg_q, i32 0, i32 0), %struct.ap_int_base.37* getelementptr inbounds (%struct.ap_int.36* @_ZZ10correlatorN3hls6streamI10rfnoc_axisEES2_7ap_uintILi1EENS0_IS4_EES3_ILi10EEE9sum_reg_q, i32 0, i32 0)), !dbg !10519 ; [debug line = 226:18]
  call void @_ZN6ap_intILi50EEC1ILi50ELb1EEERK11ap_int_baseIXT_EXT0_EXleT_Li64EEE(%struct.ap_int.39* %15, %struct.ap_int_base.40* %16), !dbg !10519 ; [debug line = 226:18]
  %347 = call %struct.ap_int.39* @_ZN6ap_intILi50EEaSERKS0_(%struct.ap_int.39* @_ZZ10correlatorN3hls6streamI10rfnoc_axisEES2_7ap_uintILi1EENS0_IS4_EES3_ILi10EEE8sq_reg_q, %struct.ap_int.39* %15), !dbg !10519 ; [#uses=0 type=%struct.ap_int.39*] [debug line = 226:18]
  call void @_ZplILi24ELb1ELi24ELb1EEN11ap_int_baseIXT_EXT0_EXleT_Li64EEE5RTypeIXT1_EXT2_EE4plusERKS1_RKS0_IXT1_EXT2_EXleT1_Li64EEE(%struct.ap_int_base.37* sret %18, %struct.ap_int_base.31* getelementptr inbounds ([2 x %struct.ap_uint.30]* @_ZZ10correlatorN3hls6streamI10rfnoc_axisEES2_7ap_uintILi1EENS0_IS4_EES3_ILi10EEE10sum8_reg_i, i32 0, i32 0, i32 0), %struct.ap_int_base.31* getelementptr inbounds ([2 x %struct.ap_uint.30]* @_ZZ10correlatorN3hls6streamI10rfnoc_axisEES2_7ap_uintILi1EENS0_IS4_EES3_ILi10EEE10sum8_reg_i, i32 0, i32 1, i32 0)), !dbg !10520 ; [debug line = 229:19]
  call void @_ZN6ap_intILi25EEC1ILi25ELb1EEERK11ap_int_baseIXT_EXT0_EXleT_Li64EEE(%struct.ap_int.36* %17, %struct.ap_int_base.37* %18), !dbg !10520 ; [debug line = 229:19]
  %348 = call %struct.ap_int.36* @_ZN6ap_intILi25EEaSERKS0_(%struct.ap_int.36* @_ZZ10correlatorN3hls6streamI10rfnoc_axisEES2_7ap_uintILi1EENS0_IS4_EES3_ILi10EEE9sum_reg_i, %struct.ap_int.36* %17), !dbg !10520 ; [#uses=0 type=%struct.ap_int.36*] [debug line = 229:19]
  call void @_ZplILi24ELb1ELi24ELb1EEN11ap_int_baseIXT_EXT0_EXleT_Li64EEE5RTypeIXT1_EXT2_EE4plusERKS1_RKS0_IXT1_EXT2_EXleT1_Li64EEE(%struct.ap_int_base.37* sret %20, %struct.ap_int_base.31* getelementptr inbounds ([2 x %struct.ap_uint.30]* @_ZZ10correlatorN3hls6streamI10rfnoc_axisEES2_7ap_uintILi1EENS0_IS4_EES3_ILi10EEE10sum8_reg_q, i32 0, i32 0, i32 0), %struct.ap_int_base.31* getelementptr inbounds ([2 x %struct.ap_uint.30]* @_ZZ10correlatorN3hls6streamI10rfnoc_axisEES2_7ap_uintILi1EENS0_IS4_EES3_ILi10EEE10sum8_reg_q, i32 0, i32 1, i32 0)), !dbg !10521 ; [debug line = 230:19]
  call void @_ZN6ap_intILi25EEC1ILi25ELb1EEERK11ap_int_baseIXT_EXT0_EXleT_Li64EEE(%struct.ap_int.36* %19, %struct.ap_int_base.37* %20), !dbg !10521 ; [debug line = 230:19]
  %349 = call %struct.ap_int.36* @_ZN6ap_intILi25EEaSERKS0_(%struct.ap_int.36* @_ZZ10correlatorN3hls6streamI10rfnoc_axisEES2_7ap_uintILi1EENS0_IS4_EES3_ILi10EEE9sum_reg_q, %struct.ap_int.36* %19), !dbg !10521 ; [#uses=0 type=%struct.ap_int.36*] [debug line = 230:19]
  br label %350, !dbg !10521                      ; [debug line = 230:19]

; <label>:350                                     ; preds = %344
  call void @llvm.dbg.declare(metadata !{i32* %i}, metadata !10522), !dbg !10524 ; [debug line = 233:34] [debug variable = i]
  store i32 0, i32* %i, align 4, !dbg !10525      ; [debug line = 233:39]
  br label %351, !dbg !10525                      ; [debug line = 233:39]

; <label>:351                                     ; preds = %379, %350
  %352 = load i32* %i, align 4, !dbg !10525       ; [#uses=1 type=i32] [debug line = 233:39]
  %353 = icmp slt i32 %352, 2, !dbg !10525        ; [#uses=1 type=i1] [debug line = 233:39]
  br i1 %353, label %354, label %382, !dbg !10525 ; [debug line = 233:39]

; <label>:354                                     ; preds = %351
  call void (...)* @_ssdm_op_SpecLoopName(i8* getelementptr inbounds ([18 x i8]* @.str6, i32 0, i32 0)) nounwind, !dbg !10526 ; [debug line = 233:62]
  call void (...)* @_ssdm_RegionBegin(i8* getelementptr inbounds ([18 x i8]* @.str6, i32 0, i32 0)) nounwind, !dbg !10526 ; [debug line = 233:62]
  call void (...)* @_ssdm_Unroll(i32 0, i32 0, i32 0, i8* getelementptr inbounds ([1 x i8]* @.str, i32 0, i32 0)) nounwind, !dbg !10528 ; [debug line = 234:1]
  %355 = load i32* %i, align 4, !dbg !10529       ; [#uses=1 type=i32] [debug line = 235:2]
  %356 = getelementptr inbounds [2 x %struct.ap_uint.30]* @_ZZ10correlatorN3hls6streamI10rfnoc_axisEES2_7ap_uintILi1EENS0_IS4_EES3_ILi10EEE10sum8_reg_i, i32 0, i32 %355, !dbg !10529 ; [#uses=1 type=%struct.ap_uint.30*] [debug line = 235:2]
  %357 = load i32* %i, align 4, !dbg !10530       ; [#uses=1 type=i32] [debug line = 235:18]
  %358 = mul nsw i32 2, %357, !dbg !10530         ; [#uses=1 type=i32] [debug line = 235:18]
  %359 = getelementptr inbounds [4 x %struct.ap_int.27]* @_ZZ10correlatorN3hls6streamI10rfnoc_axisEES2_7ap_uintILi1EENS0_IS4_EES3_ILi10EEE10sum7_reg_i, i32 0, i32 %358, !dbg !10530 ; [#uses=1 type=%struct.ap_int.27*] [debug line = 235:18]
  %360 = bitcast %struct.ap_int.27* %359 to %struct.ap_int_base.28*, !dbg !10530 ; [#uses=1 type=%struct.ap_int_base.28*] [debug line = 235:18]
  %361 = load i32* %i, align 4, !dbg !10530       ; [#uses=1 type=i32] [debug line = 235:18]
  %362 = mul nsw i32 2, %361, !dbg !10530         ; [#uses=1 type=i32] [debug line = 235:18]
  %363 = add nsw i32 %362, 1, !dbg !10530         ; [#uses=1 type=i32] [debug line = 235:18]
  %364 = getelementptr inbounds [4 x %struct.ap_int.27]* @_ZZ10correlatorN3hls6streamI10rfnoc_axisEES2_7ap_uintILi1EENS0_IS4_EES3_ILi10EEE10sum7_reg_i, i32 0, i32 %363, !dbg !10530 ; [#uses=1 type=%struct.ap_int.27*] [debug line = 235:18]
  %365 = bitcast %struct.ap_int.27* %364 to %struct.ap_int_base.28*, !dbg !10530 ; [#uses=1 type=%struct.ap_int_base.28*] [debug line = 235:18]
  call void @_ZplILi23ELb1ELi23ELb1EEN11ap_int_baseIXT_EXT0_EXleT_Li64EEE5RTypeIXT1_EXT2_EE4plusERKS1_RKS0_IXT1_EXT2_EXleT1_Li64EEE(%struct.ap_int_base.31* sret %22, %struct.ap_int_base.28* %360, %struct.ap_int_base.28* %365), !dbg !10530 ; [debug line = 235:18]
  call void @_ZN6ap_intILi24EEC1ILi24ELb1EEERK11ap_int_baseIXT_EXT0_EXleT_Li64EEE(%struct.ap_uint.30* %21, %struct.ap_int_base.31* %22), !dbg !10530 ; [debug line = 235:18]
  %366 = call %struct.ap_uint.30* @_ZN6ap_intILi24EEaSERKS0_(%struct.ap_uint.30* %356, %struct.ap_uint.30* %21), !dbg !10530 ; [#uses=0 type=%struct.ap_uint.30*] [debug line = 235:18]
  %367 = load i32* %i, align 4, !dbg !10531       ; [#uses=1 type=i32] [debug line = 236:10]
  %368 = getelementptr inbounds [2 x %struct.ap_uint.30]* @_ZZ10correlatorN3hls6streamI10rfnoc_axisEES2_7ap_uintILi1EENS0_IS4_EES3_ILi10EEE10sum8_reg_q, i32 0, i32 %367, !dbg !10531 ; [#uses=1 type=%struct.ap_uint.30*] [debug line = 236:10]
  %369 = load i32* %i, align 4, !dbg !10532       ; [#uses=1 type=i32] [debug line = 236:26]
  %370 = mul nsw i32 2, %369, !dbg !10532         ; [#uses=1 type=i32] [debug line = 236:26]
  %371 = getelementptr inbounds [4 x %struct.ap_int.27]* @_ZZ10correlatorN3hls6streamI10rfnoc_axisEES2_7ap_uintILi1EENS0_IS4_EES3_ILi10EEE10sum7_reg_q, i32 0, i32 %370, !dbg !10532 ; [#uses=1 type=%struct.ap_int.27*] [debug line = 236:26]
  %372 = bitcast %struct.ap_int.27* %371 to %struct.ap_int_base.28*, !dbg !10532 ; [#uses=1 type=%struct.ap_int_base.28*] [debug line = 236:26]
  %373 = load i32* %i, align 4, !dbg !10532       ; [#uses=1 type=i32] [debug line = 236:26]
  %374 = mul nsw i32 2, %373, !dbg !10532         ; [#uses=1 type=i32] [debug line = 236:26]
  %375 = add nsw i32 %374, 1, !dbg !10532         ; [#uses=1 type=i32] [debug line = 236:26]
  %376 = getelementptr inbounds [4 x %struct.ap_int.27]* @_ZZ10correlatorN3hls6streamI10rfnoc_axisEES2_7ap_uintILi1EENS0_IS4_EES3_ILi10EEE10sum7_reg_q, i32 0, i32 %375, !dbg !10532 ; [#uses=1 type=%struct.ap_int.27*] [debug line = 236:26]
  %377 = bitcast %struct.ap_int.27* %376 to %struct.ap_int_base.28*, !dbg !10532 ; [#uses=1 type=%struct.ap_int_base.28*] [debug line = 236:26]
  call void @_ZplILi23ELb1ELi23ELb1EEN11ap_int_baseIXT_EXT0_EXleT_Li64EEE5RTypeIXT1_EXT2_EE4plusERKS1_RKS0_IXT1_EXT2_EXleT1_Li64EEE(%struct.ap_int_base.31* sret %24, %struct.ap_int_base.28* %372, %struct.ap_int_base.28* %377), !dbg !10532 ; [debug line = 236:26]
  call void @_ZN6ap_intILi24EEC1ILi24ELb1EEERK11ap_int_baseIXT_EXT0_EXleT_Li64EEE(%struct.ap_uint.30* %23, %struct.ap_int_base.31* %24), !dbg !10532 ; [debug line = 236:26]
  %378 = call %struct.ap_uint.30* @_ZN6ap_intILi24EEaSERKS0_(%struct.ap_uint.30* %368, %struct.ap_uint.30* %23), !dbg !10532 ; [#uses=0 type=%struct.ap_uint.30*] [debug line = 236:26]
  call void (...)* @_ssdm_RegionEnd(i8* getelementptr inbounds ([18 x i8]* @.str6, i32 0, i32 0)) nounwind, !dbg !10533 ; [debug line = 237:7]
  br label %379, !dbg !10533                      ; [debug line = 237:7]

; <label>:379                                     ; preds = %354
  %380 = load i32* %i, align 4, !dbg !10534       ; [#uses=1 type=i32] [debug line = 233:57]
  %381 = add nsw i32 %380, 1, !dbg !10534         ; [#uses=1 type=i32] [debug line = 233:57]
  store i32 %381, i32* %i, align 4, !dbg !10534   ; [debug line = 233:57]
  br label %351, !dbg !10534                      ; [debug line = 233:57]

; <label>:382                                     ; preds = %351
  br label %383, !dbg !10535                      ; [debug line = 237:7]

; <label>:383                                     ; preds = %382
  call void @llvm.dbg.declare(metadata !{i32* %i1}, metadata !10536), !dbg !10538 ; [debug line = 290:30] [debug variable = i]
  store i32 0, i32* %i1, align 4, !dbg !10539     ; [debug line = 290:35]
  br label %384, !dbg !10539                      ; [debug line = 290:35]

; <label>:384                                     ; preds = %412, %383
  %385 = load i32* %i1, align 4, !dbg !10539      ; [#uses=1 type=i32] [debug line = 290:35]
  %386 = icmp slt i32 %385, 4, !dbg !10539        ; [#uses=1 type=i1] [debug line = 290:35]
  br i1 %386, label %387, label %415, !dbg !10539 ; [debug line = 290:35]

; <label>:387                                     ; preds = %384
  call void (...)* @_ssdm_op_SpecLoopName(i8* getelementptr inbounds ([18 x i8]* @.str7, i32 0, i32 0)) nounwind, !dbg !10540 ; [debug line = 290:58]
  call void (...)* @_ssdm_RegionBegin(i8* getelementptr inbounds ([18 x i8]* @.str7, i32 0, i32 0)) nounwind, !dbg !10540 ; [debug line = 290:58]
  call void (...)* @_ssdm_Unroll(i32 0, i32 0, i32 0, i8* getelementptr inbounds ([1 x i8]* @.str, i32 0, i32 0)) nounwind, !dbg !10542 ; [debug line = 291:1]
  %388 = load i32* %i1, align 4, !dbg !10543      ; [#uses=1 type=i32] [debug line = 292:2]
  %389 = getelementptr inbounds [4 x %struct.ap_int.27]* @_ZZ10correlatorN3hls6streamI10rfnoc_axisEES2_7ap_uintILi1EENS0_IS4_EES3_ILi10EEE10sum7_reg_i, i32 0, i32 %388, !dbg !10543 ; [#uses=1 type=%struct.ap_int.27*] [debug line = 292:2]
  %390 = load i32* %i1, align 4, !dbg !10544      ; [#uses=1 type=i32] [debug line = 292:18]
  %391 = mul nsw i32 2, %390, !dbg !10544         ; [#uses=1 type=i32] [debug line = 292:18]
  %392 = getelementptr inbounds [8 x %struct.ap_int.24]* @_ZZ10correlatorN3hls6streamI10rfnoc_axisEES2_7ap_uintILi1EENS0_IS4_EES3_ILi10EEE10sum6_reg_i, i32 0, i32 %391, !dbg !10544 ; [#uses=1 type=%struct.ap_int.24*] [debug line = 292:18]
  %393 = bitcast %struct.ap_int.24* %392 to %struct.ap_int_base.25*, !dbg !10544 ; [#uses=1 type=%struct.ap_int_base.25*] [debug line = 292:18]
  %394 = load i32* %i1, align 4, !dbg !10544      ; [#uses=1 type=i32] [debug line = 292:18]
  %395 = mul nsw i32 2, %394, !dbg !10544         ; [#uses=1 type=i32] [debug line = 292:18]
  %396 = add nsw i32 %395, 1, !dbg !10544         ; [#uses=1 type=i32] [debug line = 292:18]
  %397 = getelementptr inbounds [8 x %struct.ap_int.24]* @_ZZ10correlatorN3hls6streamI10rfnoc_axisEES2_7ap_uintILi1EENS0_IS4_EES3_ILi10EEE10sum6_reg_i, i32 0, i32 %396, !dbg !10544 ; [#uses=1 type=%struct.ap_int.24*] [debug line = 292:18]
  %398 = bitcast %struct.ap_int.24* %397 to %struct.ap_int_base.25*, !dbg !10544 ; [#uses=1 type=%struct.ap_int_base.25*] [debug line = 292:18]
  call void @_ZplILi22ELb1ELi22ELb1EEN11ap_int_baseIXT_EXT0_EXleT_Li64EEE5RTypeIXT1_EXT2_EE4plusERKS1_RKS0_IXT1_EXT2_EXleT1_Li64EEE(%struct.ap_int_base.28* sret %26, %struct.ap_int_base.25* %393, %struct.ap_int_base.25* %398), !dbg !10544 ; [debug line = 292:18]
  call void @_ZN6ap_intILi23EEC1ILi23ELb1EEERK11ap_int_baseIXT_EXT0_EXleT_Li64EEE(%struct.ap_int.27* %25, %struct.ap_int_base.28* %26), !dbg !10544 ; [debug line = 292:18]
  %399 = call %struct.ap_int.27* @_ZN6ap_intILi23EEaSERKS0_(%struct.ap_int.27* %389, %struct.ap_int.27* %25), !dbg !10544 ; [#uses=0 type=%struct.ap_int.27*] [debug line = 292:18]
  %400 = load i32* %i1, align 4, !dbg !10545      ; [#uses=1 type=i32] [debug line = 293:5]
  %401 = getelementptr inbounds [4 x %struct.ap_int.27]* @_ZZ10correlatorN3hls6streamI10rfnoc_axisEES2_7ap_uintILi1EENS0_IS4_EES3_ILi10EEE10sum7_reg_q, i32 0, i32 %400, !dbg !10545 ; [#uses=1 type=%struct.ap_int.27*] [debug line = 293:5]
  %402 = load i32* %i1, align 4, !dbg !10546      ; [#uses=1 type=i32] [debug line = 293:21]
  %403 = mul nsw i32 2, %402, !dbg !10546         ; [#uses=1 type=i32] [debug line = 293:21]
  %404 = getelementptr inbounds [8 x %struct.ap_int.24]* @_ZZ10correlatorN3hls6streamI10rfnoc_axisEES2_7ap_uintILi1EENS0_IS4_EES3_ILi10EEE10sum6_reg_q, i32 0, i32 %403, !dbg !10546 ; [#uses=1 type=%struct.ap_int.24*] [debug line = 293:21]
  %405 = bitcast %struct.ap_int.24* %404 to %struct.ap_int_base.25*, !dbg !10546 ; [#uses=1 type=%struct.ap_int_base.25*] [debug line = 293:21]
  %406 = load i32* %i1, align 4, !dbg !10546      ; [#uses=1 type=i32] [debug line = 293:21]
  %407 = mul nsw i32 2, %406, !dbg !10546         ; [#uses=1 type=i32] [debug line = 293:21]
  %408 = add nsw i32 %407, 1, !dbg !10546         ; [#uses=1 type=i32] [debug line = 293:21]
  %409 = getelementptr inbounds [8 x %struct.ap_int.24]* @_ZZ10correlatorN3hls6streamI10rfnoc_axisEES2_7ap_uintILi1EENS0_IS4_EES3_ILi10EEE10sum6_reg_q, i32 0, i32 %408, !dbg !10546 ; [#uses=1 type=%struct.ap_int.24*] [debug line = 293:21]
  %410 = bitcast %struct.ap_int.24* %409 to %struct.ap_int_base.25*, !dbg !10546 ; [#uses=1 type=%struct.ap_int_base.25*] [debug line = 293:21]
  call void @_ZplILi22ELb1ELi22ELb1EEN11ap_int_baseIXT_EXT0_EXleT_Li64EEE5RTypeIXT1_EXT2_EE4plusERKS1_RKS0_IXT1_EXT2_EXleT1_Li64EEE(%struct.ap_int_base.28* sret %28, %struct.ap_int_base.25* %405, %struct.ap_int_base.25* %410), !dbg !10546 ; [debug line = 293:21]
  call void @_ZN6ap_intILi23EEC1ILi23ELb1EEERK11ap_int_baseIXT_EXT0_EXleT_Li64EEE(%struct.ap_int.27* %27, %struct.ap_int_base.28* %28), !dbg !10546 ; [debug line = 293:21]
  %411 = call %struct.ap_int.27* @_ZN6ap_intILi23EEaSERKS0_(%struct.ap_int.27* %401, %struct.ap_int.27* %27), !dbg !10546 ; [#uses=0 type=%struct.ap_int.27*] [debug line = 293:21]
  call void (...)* @_ssdm_RegionEnd(i8* getelementptr inbounds ([18 x i8]* @.str7, i32 0, i32 0)) nounwind, !dbg !10547 ; [debug line = 294:3]
  br label %412, !dbg !10547                      ; [debug line = 294:3]

; <label>:412                                     ; preds = %387
  %413 = load i32* %i1, align 4, !dbg !10548      ; [#uses=1 type=i32] [debug line = 290:53]
  %414 = add nsw i32 %413, 1, !dbg !10548         ; [#uses=1 type=i32] [debug line = 290:53]
  store i32 %414, i32* %i1, align 4, !dbg !10548  ; [debug line = 290:53]
  br label %384, !dbg !10548                      ; [debug line = 290:53]

; <label>:415                                     ; preds = %384
  br label %416, !dbg !10549                      ; [debug line = 294:3]

; <label>:416                                     ; preds = %415
  call void @llvm.dbg.declare(metadata !{i32* %i2}, metadata !10550), !dbg !10552 ; [debug line = 296:30] [debug variable = i]
  store i32 0, i32* %i2, align 4, !dbg !10553     ; [debug line = 296:35]
  br label %417, !dbg !10553                      ; [debug line = 296:35]

; <label>:417                                     ; preds = %445, %416
  %418 = load i32* %i2, align 4, !dbg !10553      ; [#uses=1 type=i32] [debug line = 296:35]
  %419 = icmp slt i32 %418, 8, !dbg !10553        ; [#uses=1 type=i1] [debug line = 296:35]
  br i1 %419, label %420, label %448, !dbg !10553 ; [debug line = 296:35]

; <label>:420                                     ; preds = %417
  call void (...)* @_ssdm_op_SpecLoopName(i8* getelementptr inbounds ([18 x i8]* @.str8, i32 0, i32 0)) nounwind, !dbg !10554 ; [debug line = 296:57]
  call void (...)* @_ssdm_RegionBegin(i8* getelementptr inbounds ([18 x i8]* @.str8, i32 0, i32 0)) nounwind, !dbg !10554 ; [debug line = 296:57]
  call void (...)* @_ssdm_Unroll(i32 0, i32 0, i32 0, i8* getelementptr inbounds ([1 x i8]* @.str, i32 0, i32 0)) nounwind, !dbg !10556 ; [debug line = 297:1]
  %421 = load i32* %i2, align 4, !dbg !10557      ; [#uses=1 type=i32] [debug line = 298:2]
  %422 = getelementptr inbounds [8 x %struct.ap_int.24]* @_ZZ10correlatorN3hls6streamI10rfnoc_axisEES2_7ap_uintILi1EENS0_IS4_EES3_ILi10EEE10sum6_reg_i, i32 0, i32 %421, !dbg !10557 ; [#uses=1 type=%struct.ap_int.24*] [debug line = 298:2]
  %423 = load i32* %i2, align 4, !dbg !10558      ; [#uses=1 type=i32] [debug line = 298:18]
  %424 = mul nsw i32 2, %423, !dbg !10558         ; [#uses=1 type=i32] [debug line = 298:18]
  %425 = getelementptr inbounds [16 x %struct.ap_int.21]* @_ZZ10correlatorN3hls6streamI10rfnoc_axisEES2_7ap_uintILi1EENS0_IS4_EES3_ILi10EEE10sum5_reg_i, i32 0, i32 %424, !dbg !10558 ; [#uses=1 type=%struct.ap_int.21*] [debug line = 298:18]
  %426 = bitcast %struct.ap_int.21* %425 to %struct.ap_int_base.22*, !dbg !10558 ; [#uses=1 type=%struct.ap_int_base.22*] [debug line = 298:18]
  %427 = load i32* %i2, align 4, !dbg !10558      ; [#uses=1 type=i32] [debug line = 298:18]
  %428 = mul nsw i32 2, %427, !dbg !10558         ; [#uses=1 type=i32] [debug line = 298:18]
  %429 = add nsw i32 %428, 1, !dbg !10558         ; [#uses=1 type=i32] [debug line = 298:18]
  %430 = getelementptr inbounds [16 x %struct.ap_int.21]* @_ZZ10correlatorN3hls6streamI10rfnoc_axisEES2_7ap_uintILi1EENS0_IS4_EES3_ILi10EEE10sum5_reg_i, i32 0, i32 %429, !dbg !10558 ; [#uses=1 type=%struct.ap_int.21*] [debug line = 298:18]
  %431 = bitcast %struct.ap_int.21* %430 to %struct.ap_int_base.22*, !dbg !10558 ; [#uses=1 type=%struct.ap_int_base.22*] [debug line = 298:18]
  call void @_ZplILi21ELb1ELi21ELb1EEN11ap_int_baseIXT_EXT0_EXleT_Li64EEE5RTypeIXT1_EXT2_EE4plusERKS1_RKS0_IXT1_EXT2_EXleT1_Li64EEE(%struct.ap_int_base.25* sret %30, %struct.ap_int_base.22* %426, %struct.ap_int_base.22* %431), !dbg !10558 ; [debug line = 298:18]
  call void @_ZN6ap_intILi22EEC1ILi22ELb1EEERK11ap_int_baseIXT_EXT0_EXleT_Li64EEE(%struct.ap_int.24* %29, %struct.ap_int_base.25* %30), !dbg !10558 ; [debug line = 298:18]
  %432 = call %struct.ap_int.24* @_ZN6ap_intILi22EEaSERKS0_(%struct.ap_int.24* %422, %struct.ap_int.24* %29), !dbg !10558 ; [#uses=0 type=%struct.ap_int.24*] [debug line = 298:18]
  %433 = load i32* %i2, align 4, !dbg !10559      ; [#uses=1 type=i32] [debug line = 299:6]
  %434 = getelementptr inbounds [8 x %struct.ap_int.24]* @_ZZ10correlatorN3hls6streamI10rfnoc_axisEES2_7ap_uintILi1EENS0_IS4_EES3_ILi10EEE10sum6_reg_q, i32 0, i32 %433, !dbg !10559 ; [#uses=1 type=%struct.ap_int.24*] [debug line = 299:6]
  %435 = load i32* %i2, align 4, !dbg !10560      ; [#uses=1 type=i32] [debug line = 299:22]
  %436 = mul nsw i32 2, %435, !dbg !10560         ; [#uses=1 type=i32] [debug line = 299:22]
  %437 = getelementptr inbounds [16 x %struct.ap_int.21]* @_ZZ10correlatorN3hls6streamI10rfnoc_axisEES2_7ap_uintILi1EENS0_IS4_EES3_ILi10EEE10sum5_reg_q, i32 0, i32 %436, !dbg !10560 ; [#uses=1 type=%struct.ap_int.21*] [debug line = 299:22]
  %438 = bitcast %struct.ap_int.21* %437 to %struct.ap_int_base.22*, !dbg !10560 ; [#uses=1 type=%struct.ap_int_base.22*] [debug line = 299:22]
  %439 = load i32* %i2, align 4, !dbg !10560      ; [#uses=1 type=i32] [debug line = 299:22]
  %440 = mul nsw i32 2, %439, !dbg !10560         ; [#uses=1 type=i32] [debug line = 299:22]
  %441 = add nsw i32 %440, 1, !dbg !10560         ; [#uses=1 type=i32] [debug line = 299:22]
  %442 = getelementptr inbounds [16 x %struct.ap_int.21]* @_ZZ10correlatorN3hls6streamI10rfnoc_axisEES2_7ap_uintILi1EENS0_IS4_EES3_ILi10EEE10sum5_reg_q, i32 0, i32 %441, !dbg !10560 ; [#uses=1 type=%struct.ap_int.21*] [debug line = 299:22]
  %443 = bitcast %struct.ap_int.21* %442 to %struct.ap_int_base.22*, !dbg !10560 ; [#uses=1 type=%struct.ap_int_base.22*] [debug line = 299:22]
  call void @_ZplILi21ELb1ELi21ELb1EEN11ap_int_baseIXT_EXT0_EXleT_Li64EEE5RTypeIXT1_EXT2_EE4plusERKS1_RKS0_IXT1_EXT2_EXleT1_Li64EEE(%struct.ap_int_base.25* sret %32, %struct.ap_int_base.22* %438, %struct.ap_int_base.22* %443), !dbg !10560 ; [debug line = 299:22]
  call void @_ZN6ap_intILi22EEC1ILi22ELb1EEERK11ap_int_baseIXT_EXT0_EXleT_Li64EEE(%struct.ap_int.24* %31, %struct.ap_int_base.25* %32), !dbg !10560 ; [debug line = 299:22]
  %444 = call %struct.ap_int.24* @_ZN6ap_intILi22EEaSERKS0_(%struct.ap_int.24* %434, %struct.ap_int.24* %31), !dbg !10560 ; [#uses=0 type=%struct.ap_int.24*] [debug line = 299:22]
  call void (...)* @_ssdm_RegionEnd(i8* getelementptr inbounds ([18 x i8]* @.str8, i32 0, i32 0)) nounwind, !dbg !10561 ; [debug line = 300:3]
  br label %445, !dbg !10561                      ; [debug line = 300:3]

; <label>:445                                     ; preds = %420
  %446 = load i32* %i2, align 4, !dbg !10562      ; [#uses=1 type=i32] [debug line = 296:52]
  %447 = add nsw i32 %446, 1, !dbg !10562         ; [#uses=1 type=i32] [debug line = 296:52]
  store i32 %447, i32* %i2, align 4, !dbg !10562  ; [debug line = 296:52]
  br label %417, !dbg !10562                      ; [debug line = 296:52]

; <label>:448                                     ; preds = %417
  br label %449, !dbg !10563                      ; [debug line = 300:3]

; <label>:449                                     ; preds = %448
  call void @llvm.dbg.declare(metadata !{i32* %i3}, metadata !10564), !dbg !10566 ; [debug line = 302:30] [debug variable = i]
  store i32 0, i32* %i3, align 4, !dbg !10567     ; [debug line = 302:35]
  br label %450, !dbg !10567                      ; [debug line = 302:35]

; <label>:450                                     ; preds = %478, %449
  %451 = load i32* %i3, align 4, !dbg !10567      ; [#uses=1 type=i32] [debug line = 302:35]
  %452 = icmp slt i32 %451, 16, !dbg !10567       ; [#uses=1 type=i1] [debug line = 302:35]
  br i1 %452, label %453, label %481, !dbg !10567 ; [debug line = 302:35]

; <label>:453                                     ; preds = %450
  call void (...)* @_ssdm_op_SpecLoopName(i8* getelementptr inbounds ([18 x i8]* @.str9, i32 0, i32 0)) nounwind, !dbg !10568 ; [debug line = 302:57]
  call void (...)* @_ssdm_RegionBegin(i8* getelementptr inbounds ([18 x i8]* @.str9, i32 0, i32 0)) nounwind, !dbg !10568 ; [debug line = 302:57]
  call void (...)* @_ssdm_Unroll(i32 0, i32 0, i32 0, i8* getelementptr inbounds ([1 x i8]* @.str, i32 0, i32 0)) nounwind, !dbg !10570 ; [debug line = 303:1]
  %454 = load i32* %i3, align 4, !dbg !10571      ; [#uses=1 type=i32] [debug line = 304:2]
  %455 = getelementptr inbounds [16 x %struct.ap_int.21]* @_ZZ10correlatorN3hls6streamI10rfnoc_axisEES2_7ap_uintILi1EENS0_IS4_EES3_ILi10EEE10sum5_reg_i, i32 0, i32 %454, !dbg !10571 ; [#uses=1 type=%struct.ap_int.21*] [debug line = 304:2]
  %456 = load i32* %i3, align 4, !dbg !10572      ; [#uses=1 type=i32] [debug line = 304:18]
  %457 = mul nsw i32 2, %456, !dbg !10572         ; [#uses=1 type=i32] [debug line = 304:18]
  %458 = getelementptr inbounds [32 x %struct.ap_int.18]* @_ZZ10correlatorN3hls6streamI10rfnoc_axisEES2_7ap_uintILi1EENS0_IS4_EES3_ILi10EEE10sum4_reg_i, i32 0, i32 %457, !dbg !10572 ; [#uses=1 type=%struct.ap_int.18*] [debug line = 304:18]
  %459 = bitcast %struct.ap_int.18* %458 to %struct.ap_int_base.19*, !dbg !10572 ; [#uses=1 type=%struct.ap_int_base.19*] [debug line = 304:18]
  %460 = load i32* %i3, align 4, !dbg !10572      ; [#uses=1 type=i32] [debug line = 304:18]
  %461 = mul nsw i32 2, %460, !dbg !10572         ; [#uses=1 type=i32] [debug line = 304:18]
  %462 = add nsw i32 %461, 1, !dbg !10572         ; [#uses=1 type=i32] [debug line = 304:18]
  %463 = getelementptr inbounds [32 x %struct.ap_int.18]* @_ZZ10correlatorN3hls6streamI10rfnoc_axisEES2_7ap_uintILi1EENS0_IS4_EES3_ILi10EEE10sum4_reg_i, i32 0, i32 %462, !dbg !10572 ; [#uses=1 type=%struct.ap_int.18*] [debug line = 304:18]
  %464 = bitcast %struct.ap_int.18* %463 to %struct.ap_int_base.19*, !dbg !10572 ; [#uses=1 type=%struct.ap_int_base.19*] [debug line = 304:18]
  call void @_ZplILi20ELb1ELi20ELb1EEN11ap_int_baseIXT_EXT0_EXleT_Li64EEE5RTypeIXT1_EXT2_EE4plusERKS1_RKS0_IXT1_EXT2_EXleT1_Li64EEE(%struct.ap_int_base.22* sret %34, %struct.ap_int_base.19* %459, %struct.ap_int_base.19* %464), !dbg !10572 ; [debug line = 304:18]
  call void @_ZN6ap_intILi21EEC1ILi21ELb1EEERK11ap_int_baseIXT_EXT0_EXleT_Li64EEE(%struct.ap_int.21* %33, %struct.ap_int_base.22* %34), !dbg !10572 ; [debug line = 304:18]
  %465 = call %struct.ap_int.21* @_ZN6ap_intILi21EEaSERKS0_(%struct.ap_int.21* %455, %struct.ap_int.21* %33), !dbg !10572 ; [#uses=0 type=%struct.ap_int.21*] [debug line = 304:18]
  %466 = load i32* %i3, align 4, !dbg !10573      ; [#uses=1 type=i32] [debug line = 305:6]
  %467 = getelementptr inbounds [16 x %struct.ap_int.21]* @_ZZ10correlatorN3hls6streamI10rfnoc_axisEES2_7ap_uintILi1EENS0_IS4_EES3_ILi10EEE10sum5_reg_q, i32 0, i32 %466, !dbg !10573 ; [#uses=1 type=%struct.ap_int.21*] [debug line = 305:6]
  %468 = load i32* %i3, align 4, !dbg !10574      ; [#uses=1 type=i32] [debug line = 305:22]
  %469 = mul nsw i32 2, %468, !dbg !10574         ; [#uses=1 type=i32] [debug line = 305:22]
  %470 = getelementptr inbounds [32 x %struct.ap_int.18]* @_ZZ10correlatorN3hls6streamI10rfnoc_axisEES2_7ap_uintILi1EENS0_IS4_EES3_ILi10EEE10sum4_reg_q, i32 0, i32 %469, !dbg !10574 ; [#uses=1 type=%struct.ap_int.18*] [debug line = 305:22]
  %471 = bitcast %struct.ap_int.18* %470 to %struct.ap_int_base.19*, !dbg !10574 ; [#uses=1 type=%struct.ap_int_base.19*] [debug line = 305:22]
  %472 = load i32* %i3, align 4, !dbg !10574      ; [#uses=1 type=i32] [debug line = 305:22]
  %473 = mul nsw i32 2, %472, !dbg !10574         ; [#uses=1 type=i32] [debug line = 305:22]
  %474 = add nsw i32 %473, 1, !dbg !10574         ; [#uses=1 type=i32] [debug line = 305:22]
  %475 = getelementptr inbounds [32 x %struct.ap_int.18]* @_ZZ10correlatorN3hls6streamI10rfnoc_axisEES2_7ap_uintILi1EENS0_IS4_EES3_ILi10EEE10sum4_reg_q, i32 0, i32 %474, !dbg !10574 ; [#uses=1 type=%struct.ap_int.18*] [debug line = 305:22]
  %476 = bitcast %struct.ap_int.18* %475 to %struct.ap_int_base.19*, !dbg !10574 ; [#uses=1 type=%struct.ap_int_base.19*] [debug line = 305:22]
  call void @_ZplILi20ELb1ELi20ELb1EEN11ap_int_baseIXT_EXT0_EXleT_Li64EEE5RTypeIXT1_EXT2_EE4plusERKS1_RKS0_IXT1_EXT2_EXleT1_Li64EEE(%struct.ap_int_base.22* sret %36, %struct.ap_int_base.19* %471, %struct.ap_int_base.19* %476), !dbg !10574 ; [debug line = 305:22]
  call void @_ZN6ap_intILi21EEC1ILi21ELb1EEERK11ap_int_baseIXT_EXT0_EXleT_Li64EEE(%struct.ap_int.21* %35, %struct.ap_int_base.22* %36), !dbg !10574 ; [debug line = 305:22]
  %477 = call %struct.ap_int.21* @_ZN6ap_intILi21EEaSERKS0_(%struct.ap_int.21* %467, %struct.ap_int.21* %35), !dbg !10574 ; [#uses=0 type=%struct.ap_int.21*] [debug line = 305:22]
  call void (...)* @_ssdm_RegionEnd(i8* getelementptr inbounds ([18 x i8]* @.str9, i32 0, i32 0)) nounwind, !dbg !10575 ; [debug line = 306:3]
  br label %478, !dbg !10575                      ; [debug line = 306:3]

; <label>:478                                     ; preds = %453
  %479 = load i32* %i3, align 4, !dbg !10576      ; [#uses=1 type=i32] [debug line = 302:52]
  %480 = add nsw i32 %479, 1, !dbg !10576         ; [#uses=1 type=i32] [debug line = 302:52]
  store i32 %480, i32* %i3, align 4, !dbg !10576  ; [debug line = 302:52]
  br label %450, !dbg !10576                      ; [debug line = 302:52]

; <label>:481                                     ; preds = %450
  br label %482, !dbg !10577                      ; [debug line = 306:3]

; <label>:482                                     ; preds = %481
  call void @llvm.dbg.declare(metadata !{i32* %i4}, metadata !10578), !dbg !10580 ; [debug line = 309:30] [debug variable = i]
  store i32 0, i32* %i4, align 4, !dbg !10581     ; [debug line = 309:35]
  br label %483, !dbg !10581                      ; [debug line = 309:35]

; <label>:483                                     ; preds = %511, %482
  %484 = load i32* %i4, align 4, !dbg !10581      ; [#uses=1 type=i32] [debug line = 309:35]
  %485 = icmp slt i32 %484, 32, !dbg !10581       ; [#uses=1 type=i1] [debug line = 309:35]
  br i1 %485, label %486, label %514, !dbg !10581 ; [debug line = 309:35]

; <label>:486                                     ; preds = %483
  call void (...)* @_ssdm_op_SpecLoopName(i8* getelementptr inbounds ([18 x i8]* @.str10, i32 0, i32 0)) nounwind, !dbg !10582 ; [debug line = 309:57]
  call void (...)* @_ssdm_RegionBegin(i8* getelementptr inbounds ([18 x i8]* @.str10, i32 0, i32 0)) nounwind, !dbg !10582 ; [debug line = 309:57]
  call void (...)* @_ssdm_Unroll(i32 0, i32 0, i32 0, i8* getelementptr inbounds ([1 x i8]* @.str, i32 0, i32 0)) nounwind, !dbg !10584 ; [debug line = 310:1]
  %487 = load i32* %i4, align 4, !dbg !10585      ; [#uses=1 type=i32] [debug line = 311:2]
  %488 = getelementptr inbounds [32 x %struct.ap_int.18]* @_ZZ10correlatorN3hls6streamI10rfnoc_axisEES2_7ap_uintILi1EENS0_IS4_EES3_ILi10EEE10sum4_reg_i, i32 0, i32 %487, !dbg !10585 ; [#uses=1 type=%struct.ap_int.18*] [debug line = 311:2]
  %489 = load i32* %i4, align 4, !dbg !10586      ; [#uses=1 type=i32] [debug line = 311:18]
  %490 = mul nsw i32 2, %489, !dbg !10586         ; [#uses=1 type=i32] [debug line = 311:18]
  %491 = getelementptr inbounds [64 x %struct.ap_int.15]* @_ZZ10correlatorN3hls6streamI10rfnoc_axisEES2_7ap_uintILi1EENS0_IS4_EES3_ILi10EEE10sum3_reg_i, i32 0, i32 %490, !dbg !10586 ; [#uses=1 type=%struct.ap_int.15*] [debug line = 311:18]
  %492 = bitcast %struct.ap_int.15* %491 to %struct.ap_int_base.16*, !dbg !10586 ; [#uses=1 type=%struct.ap_int_base.16*] [debug line = 311:18]
  %493 = load i32* %i4, align 4, !dbg !10586      ; [#uses=1 type=i32] [debug line = 311:18]
  %494 = mul nsw i32 2, %493, !dbg !10586         ; [#uses=1 type=i32] [debug line = 311:18]
  %495 = add nsw i32 %494, 1, !dbg !10586         ; [#uses=1 type=i32] [debug line = 311:18]
  %496 = getelementptr inbounds [64 x %struct.ap_int.15]* @_ZZ10correlatorN3hls6streamI10rfnoc_axisEES2_7ap_uintILi1EENS0_IS4_EES3_ILi10EEE10sum3_reg_i, i32 0, i32 %495, !dbg !10586 ; [#uses=1 type=%struct.ap_int.15*] [debug line = 311:18]
  %497 = bitcast %struct.ap_int.15* %496 to %struct.ap_int_base.16*, !dbg !10586 ; [#uses=1 type=%struct.ap_int_base.16*] [debug line = 311:18]
  call void @_ZplILi19ELb1ELi19ELb1EEN11ap_int_baseIXT_EXT0_EXleT_Li64EEE5RTypeIXT1_EXT2_EE4plusERKS1_RKS0_IXT1_EXT2_EXleT1_Li64EEE(%struct.ap_int_base.19* sret %38, %struct.ap_int_base.16* %492, %struct.ap_int_base.16* %497), !dbg !10586 ; [debug line = 311:18]
  call void @_ZN6ap_intILi20EEC1ILi20ELb1EEERK11ap_int_baseIXT_EXT0_EXleT_Li64EEE(%struct.ap_int.18* %37, %struct.ap_int_base.19* %38), !dbg !10586 ; [debug line = 311:18]
  %498 = call %struct.ap_int.18* @_ZN6ap_intILi20EEaSERKS0_(%struct.ap_int.18* %488, %struct.ap_int.18* %37), !dbg !10586 ; [#uses=0 type=%struct.ap_int.18*] [debug line = 311:18]
  %499 = load i32* %i4, align 4, !dbg !10587      ; [#uses=1 type=i32] [debug line = 312:6]
  %500 = getelementptr inbounds [32 x %struct.ap_int.18]* @_ZZ10correlatorN3hls6streamI10rfnoc_axisEES2_7ap_uintILi1EENS0_IS4_EES3_ILi10EEE10sum4_reg_q, i32 0, i32 %499, !dbg !10587 ; [#uses=1 type=%struct.ap_int.18*] [debug line = 312:6]
  %501 = load i32* %i4, align 4, !dbg !10588      ; [#uses=1 type=i32] [debug line = 312:22]
  %502 = mul nsw i32 2, %501, !dbg !10588         ; [#uses=1 type=i32] [debug line = 312:22]
  %503 = getelementptr inbounds [64 x %struct.ap_int.15]* @_ZZ10correlatorN3hls6streamI10rfnoc_axisEES2_7ap_uintILi1EENS0_IS4_EES3_ILi10EEE10sum3_reg_q, i32 0, i32 %502, !dbg !10588 ; [#uses=1 type=%struct.ap_int.15*] [debug line = 312:22]
  %504 = bitcast %struct.ap_int.15* %503 to %struct.ap_int_base.16*, !dbg !10588 ; [#uses=1 type=%struct.ap_int_base.16*] [debug line = 312:22]
  %505 = load i32* %i4, align 4, !dbg !10588      ; [#uses=1 type=i32] [debug line = 312:22]
  %506 = mul nsw i32 2, %505, !dbg !10588         ; [#uses=1 type=i32] [debug line = 312:22]
  %507 = add nsw i32 %506, 1, !dbg !10588         ; [#uses=1 type=i32] [debug line = 312:22]
  %508 = getelementptr inbounds [64 x %struct.ap_int.15]* @_ZZ10correlatorN3hls6streamI10rfnoc_axisEES2_7ap_uintILi1EENS0_IS4_EES3_ILi10EEE10sum3_reg_q, i32 0, i32 %507, !dbg !10588 ; [#uses=1 type=%struct.ap_int.15*] [debug line = 312:22]
  %509 = bitcast %struct.ap_int.15* %508 to %struct.ap_int_base.16*, !dbg !10588 ; [#uses=1 type=%struct.ap_int_base.16*] [debug line = 312:22]
  call void @_ZplILi19ELb1ELi19ELb1EEN11ap_int_baseIXT_EXT0_EXleT_Li64EEE5RTypeIXT1_EXT2_EE4plusERKS1_RKS0_IXT1_EXT2_EXleT1_Li64EEE(%struct.ap_int_base.19* sret %40, %struct.ap_int_base.16* %504, %struct.ap_int_base.16* %509), !dbg !10588 ; [debug line = 312:22]
  call void @_ZN6ap_intILi20EEC1ILi20ELb1EEERK11ap_int_baseIXT_EXT0_EXleT_Li64EEE(%struct.ap_int.18* %39, %struct.ap_int_base.19* %40), !dbg !10588 ; [debug line = 312:22]
  %510 = call %struct.ap_int.18* @_ZN6ap_intILi20EEaSERKS0_(%struct.ap_int.18* %500, %struct.ap_int.18* %39), !dbg !10588 ; [#uses=0 type=%struct.ap_int.18*] [debug line = 312:22]
  call void (...)* @_ssdm_RegionEnd(i8* getelementptr inbounds ([18 x i8]* @.str10, i32 0, i32 0)) nounwind, !dbg !10589 ; [debug line = 313:3]
  br label %511, !dbg !10589                      ; [debug line = 313:3]

; <label>:511                                     ; preds = %486
  %512 = load i32* %i4, align 4, !dbg !10590      ; [#uses=1 type=i32] [debug line = 309:52]
  %513 = add nsw i32 %512, 1, !dbg !10590         ; [#uses=1 type=i32] [debug line = 309:52]
  store i32 %513, i32* %i4, align 4, !dbg !10590  ; [debug line = 309:52]
  br label %483, !dbg !10590                      ; [debug line = 309:52]

; <label>:514                                     ; preds = %483
  br label %515, !dbg !10591                      ; [debug line = 313:3]

; <label>:515                                     ; preds = %514
  call void @llvm.dbg.declare(metadata !{i32* %i5}, metadata !10592), !dbg !10594 ; [debug line = 315:30] [debug variable = i]
  store i32 0, i32* %i5, align 4, !dbg !10595     ; [debug line = 315:35]
  br label %516, !dbg !10595                      ; [debug line = 315:35]

; <label>:516                                     ; preds = %544, %515
  %517 = load i32* %i5, align 4, !dbg !10595      ; [#uses=1 type=i32] [debug line = 315:35]
  %518 = icmp slt i32 %517, 64, !dbg !10595       ; [#uses=1 type=i1] [debug line = 315:35]
  br i1 %518, label %519, label %547, !dbg !10595 ; [debug line = 315:35]

; <label>:519                                     ; preds = %516
  call void (...)* @_ssdm_op_SpecLoopName(i8* getelementptr inbounds ([18 x i8]* @.str11, i32 0, i32 0)) nounwind, !dbg !10596 ; [debug line = 315:56]
  call void (...)* @_ssdm_RegionBegin(i8* getelementptr inbounds ([18 x i8]* @.str11, i32 0, i32 0)) nounwind, !dbg !10596 ; [debug line = 315:56]
  call void (...)* @_ssdm_Unroll(i32 0, i32 0, i32 0, i8* getelementptr inbounds ([1 x i8]* @.str, i32 0, i32 0)) nounwind, !dbg !10598 ; [debug line = 316:1]
  %520 = load i32* %i5, align 4, !dbg !10599      ; [#uses=1 type=i32] [debug line = 317:2]
  %521 = getelementptr inbounds [64 x %struct.ap_int.15]* @_ZZ10correlatorN3hls6streamI10rfnoc_axisEES2_7ap_uintILi1EENS0_IS4_EES3_ILi10EEE10sum3_reg_i, i32 0, i32 %520, !dbg !10599 ; [#uses=1 type=%struct.ap_int.15*] [debug line = 317:2]
  %522 = load i32* %i5, align 4, !dbg !10600      ; [#uses=1 type=i32] [debug line = 317:18]
  %523 = mul nsw i32 2, %522, !dbg !10600         ; [#uses=1 type=i32] [debug line = 317:18]
  %524 = getelementptr inbounds [128 x %struct.ap_int.12]* @_ZZ10correlatorN3hls6streamI10rfnoc_axisEES2_7ap_uintILi1EENS0_IS4_EES3_ILi10EEE10sum2_reg_i, i32 0, i32 %523, !dbg !10600 ; [#uses=1 type=%struct.ap_int.12*] [debug line = 317:18]
  %525 = bitcast %struct.ap_int.12* %524 to %struct.ap_int_base.13*, !dbg !10600 ; [#uses=1 type=%struct.ap_int_base.13*] [debug line = 317:18]
  %526 = load i32* %i5, align 4, !dbg !10600      ; [#uses=1 type=i32] [debug line = 317:18]
  %527 = mul nsw i32 2, %526, !dbg !10600         ; [#uses=1 type=i32] [debug line = 317:18]
  %528 = add nsw i32 %527, 1, !dbg !10600         ; [#uses=1 type=i32] [debug line = 317:18]
  %529 = getelementptr inbounds [128 x %struct.ap_int.12]* @_ZZ10correlatorN3hls6streamI10rfnoc_axisEES2_7ap_uintILi1EENS0_IS4_EES3_ILi10EEE10sum2_reg_i, i32 0, i32 %528, !dbg !10600 ; [#uses=1 type=%struct.ap_int.12*] [debug line = 317:18]
  %530 = bitcast %struct.ap_int.12* %529 to %struct.ap_int_base.13*, !dbg !10600 ; [#uses=1 type=%struct.ap_int_base.13*] [debug line = 317:18]
  call void @_ZplILi18ELb1ELi18ELb1EEN11ap_int_baseIXT_EXT0_EXleT_Li64EEE5RTypeIXT1_EXT2_EE4plusERKS1_RKS0_IXT1_EXT2_EXleT1_Li64EEE(%struct.ap_int_base.16* sret %42, %struct.ap_int_base.13* %525, %struct.ap_int_base.13* %530), !dbg !10600 ; [debug line = 317:18]
  call void @_ZN6ap_intILi19EEC1ILi19ELb1EEERK11ap_int_baseIXT_EXT0_EXleT_Li64EEE(%struct.ap_int.15* %41, %struct.ap_int_base.16* %42), !dbg !10600 ; [debug line = 317:18]
  %531 = call %struct.ap_int.15* @_ZN6ap_intILi19EEaSERKS0_(%struct.ap_int.15* %521, %struct.ap_int.15* %41), !dbg !10600 ; [#uses=0 type=%struct.ap_int.15*] [debug line = 317:18]
  %532 = load i32* %i5, align 4, !dbg !10601      ; [#uses=1 type=i32] [debug line = 318:6]
  %533 = getelementptr inbounds [64 x %struct.ap_int.15]* @_ZZ10correlatorN3hls6streamI10rfnoc_axisEES2_7ap_uintILi1EENS0_IS4_EES3_ILi10EEE10sum3_reg_q, i32 0, i32 %532, !dbg !10601 ; [#uses=1 type=%struct.ap_int.15*] [debug line = 318:6]
  %534 = load i32* %i5, align 4, !dbg !10602      ; [#uses=1 type=i32] [debug line = 318:22]
  %535 = mul nsw i32 2, %534, !dbg !10602         ; [#uses=1 type=i32] [debug line = 318:22]
  %536 = getelementptr inbounds [128 x %struct.ap_int.12]* @_ZZ10correlatorN3hls6streamI10rfnoc_axisEES2_7ap_uintILi1EENS0_IS4_EES3_ILi10EEE10sum2_reg_q, i32 0, i32 %535, !dbg !10602 ; [#uses=1 type=%struct.ap_int.12*] [debug line = 318:22]
  %537 = bitcast %struct.ap_int.12* %536 to %struct.ap_int_base.13*, !dbg !10602 ; [#uses=1 type=%struct.ap_int_base.13*] [debug line = 318:22]
  %538 = load i32* %i5, align 4, !dbg !10602      ; [#uses=1 type=i32] [debug line = 318:22]
  %539 = mul nsw i32 2, %538, !dbg !10602         ; [#uses=1 type=i32] [debug line = 318:22]
  %540 = add nsw i32 %539, 1, !dbg !10602         ; [#uses=1 type=i32] [debug line = 318:22]
  %541 = getelementptr inbounds [128 x %struct.ap_int.12]* @_ZZ10correlatorN3hls6streamI10rfnoc_axisEES2_7ap_uintILi1EENS0_IS4_EES3_ILi10EEE10sum2_reg_q, i32 0, i32 %540, !dbg !10602 ; [#uses=1 type=%struct.ap_int.12*] [debug line = 318:22]
  %542 = bitcast %struct.ap_int.12* %541 to %struct.ap_int_base.13*, !dbg !10602 ; [#uses=1 type=%struct.ap_int_base.13*] [debug line = 318:22]
  call void @_ZplILi18ELb1ELi18ELb1EEN11ap_int_baseIXT_EXT0_EXleT_Li64EEE5RTypeIXT1_EXT2_EE4plusERKS1_RKS0_IXT1_EXT2_EXleT1_Li64EEE(%struct.ap_int_base.16* sret %44, %struct.ap_int_base.13* %537, %struct.ap_int_base.13* %542), !dbg !10602 ; [debug line = 318:22]
  call void @_ZN6ap_intILi19EEC1ILi19ELb1EEERK11ap_int_baseIXT_EXT0_EXleT_Li64EEE(%struct.ap_int.15* %43, %struct.ap_int_base.16* %44), !dbg !10602 ; [debug line = 318:22]
  %543 = call %struct.ap_int.15* @_ZN6ap_intILi19EEaSERKS0_(%struct.ap_int.15* %533, %struct.ap_int.15* %43), !dbg !10602 ; [#uses=0 type=%struct.ap_int.15*] [debug line = 318:22]
  call void (...)* @_ssdm_RegionEnd(i8* getelementptr inbounds ([18 x i8]* @.str11, i32 0, i32 0)) nounwind, !dbg !10603 ; [debug line = 319:3]
  br label %544, !dbg !10603                      ; [debug line = 319:3]

; <label>:544                                     ; preds = %519
  %545 = load i32* %i5, align 4, !dbg !10604      ; [#uses=1 type=i32] [debug line = 315:51]
  %546 = add nsw i32 %545, 1, !dbg !10604         ; [#uses=1 type=i32] [debug line = 315:51]
  store i32 %546, i32* %i5, align 4, !dbg !10604  ; [debug line = 315:51]
  br label %516, !dbg !10604                      ; [debug line = 315:51]

; <label>:547                                     ; preds = %516
  br label %548, !dbg !10605                      ; [debug line = 319:3]

; <label>:548                                     ; preds = %547
  call void @llvm.dbg.declare(metadata !{i32* %i6}, metadata !10606), !dbg !10608 ; [debug line = 322:30] [debug variable = i]
  store i32 0, i32* %i6, align 4, !dbg !10609     ; [debug line = 322:35]
  br label %549, !dbg !10609                      ; [debug line = 322:35]

; <label>:549                                     ; preds = %577, %548
  %550 = load i32* %i6, align 4, !dbg !10609      ; [#uses=1 type=i32] [debug line = 322:35]
  %551 = icmp slt i32 %550, 128, !dbg !10609      ; [#uses=1 type=i1] [debug line = 322:35]
  br i1 %551, label %552, label %580, !dbg !10609 ; [debug line = 322:35]

; <label>:552                                     ; preds = %549
  call void (...)* @_ssdm_op_SpecLoopName(i8* getelementptr inbounds ([18 x i8]* @.str12, i32 0, i32 0)) nounwind, !dbg !10610 ; [debug line = 322:56]
  call void (...)* @_ssdm_RegionBegin(i8* getelementptr inbounds ([18 x i8]* @.str12, i32 0, i32 0)) nounwind, !dbg !10610 ; [debug line = 322:56]
  call void (...)* @_ssdm_Unroll(i32 0, i32 0, i32 0, i8* getelementptr inbounds ([1 x i8]* @.str, i32 0, i32 0)) nounwind, !dbg !10612 ; [debug line = 323:1]
  %553 = load i32* %i6, align 4, !dbg !10613      ; [#uses=1 type=i32] [debug line = 324:2]
  %554 = getelementptr inbounds [128 x %struct.ap_int.12]* @_ZZ10correlatorN3hls6streamI10rfnoc_axisEES2_7ap_uintILi1EENS0_IS4_EES3_ILi10EEE10sum2_reg_i, i32 0, i32 %553, !dbg !10613 ; [#uses=1 type=%struct.ap_int.12*] [debug line = 324:2]
  %555 = load i32* %i6, align 4, !dbg !10614      ; [#uses=1 type=i32] [debug line = 324:18]
  %556 = mul nsw i32 2, %555, !dbg !10614         ; [#uses=1 type=i32] [debug line = 324:18]
  %557 = getelementptr inbounds [256 x %struct.ap_int.9]* @_ZZ10correlatorN3hls6streamI10rfnoc_axisEES2_7ap_uintILi1EENS0_IS4_EES3_ILi10EEE10sum1_reg_i, i32 0, i32 %556, !dbg !10614 ; [#uses=1 type=%struct.ap_int.9*] [debug line = 324:18]
  %558 = bitcast %struct.ap_int.9* %557 to %struct.ap_int_base.10*, !dbg !10614 ; [#uses=1 type=%struct.ap_int_base.10*] [debug line = 324:18]
  %559 = load i32* %i6, align 4, !dbg !10614      ; [#uses=1 type=i32] [debug line = 324:18]
  %560 = mul nsw i32 2, %559, !dbg !10614         ; [#uses=1 type=i32] [debug line = 324:18]
  %561 = add nsw i32 %560, 1, !dbg !10614         ; [#uses=1 type=i32] [debug line = 324:18]
  %562 = getelementptr inbounds [256 x %struct.ap_int.9]* @_ZZ10correlatorN3hls6streamI10rfnoc_axisEES2_7ap_uintILi1EENS0_IS4_EES3_ILi10EEE10sum1_reg_i, i32 0, i32 %561, !dbg !10614 ; [#uses=1 type=%struct.ap_int.9*] [debug line = 324:18]
  %563 = bitcast %struct.ap_int.9* %562 to %struct.ap_int_base.10*, !dbg !10614 ; [#uses=1 type=%struct.ap_int_base.10*] [debug line = 324:18]
  call void @_ZplILi17ELb1ELi17ELb1EEN11ap_int_baseIXT_EXT0_EXleT_Li64EEE5RTypeIXT1_EXT2_EE4plusERKS1_RKS0_IXT1_EXT2_EXleT1_Li64EEE(%struct.ap_int_base.13* sret %46, %struct.ap_int_base.10* %558, %struct.ap_int_base.10* %563), !dbg !10614 ; [debug line = 324:18]
  call void @_ZN6ap_intILi18EEC1ILi18ELb1EEERK11ap_int_baseIXT_EXT0_EXleT_Li64EEE(%struct.ap_int.12* %45, %struct.ap_int_base.13* %46), !dbg !10614 ; [debug line = 324:18]
  %564 = call %struct.ap_int.12* @_ZN6ap_intILi18EEaSERKS0_(%struct.ap_int.12* %554, %struct.ap_int.12* %45), !dbg !10614 ; [#uses=0 type=%struct.ap_int.12*] [debug line = 324:18]
  %565 = load i32* %i6, align 4, !dbg !10615      ; [#uses=1 type=i32] [debug line = 325:6]
  %566 = getelementptr inbounds [128 x %struct.ap_int.12]* @_ZZ10correlatorN3hls6streamI10rfnoc_axisEES2_7ap_uintILi1EENS0_IS4_EES3_ILi10EEE10sum2_reg_q, i32 0, i32 %565, !dbg !10615 ; [#uses=1 type=%struct.ap_int.12*] [debug line = 325:6]
  %567 = load i32* %i6, align 4, !dbg !10616      ; [#uses=1 type=i32] [debug line = 325:22]
  %568 = mul nsw i32 2, %567, !dbg !10616         ; [#uses=1 type=i32] [debug line = 325:22]
  %569 = getelementptr inbounds [256 x %struct.ap_int.9]* @_ZZ10correlatorN3hls6streamI10rfnoc_axisEES2_7ap_uintILi1EENS0_IS4_EES3_ILi10EEE10sum1_reg_q, i32 0, i32 %568, !dbg !10616 ; [#uses=1 type=%struct.ap_int.9*] [debug line = 325:22]
  %570 = bitcast %struct.ap_int.9* %569 to %struct.ap_int_base.10*, !dbg !10616 ; [#uses=1 type=%struct.ap_int_base.10*] [debug line = 325:22]
  %571 = load i32* %i6, align 4, !dbg !10616      ; [#uses=1 type=i32] [debug line = 325:22]
  %572 = mul nsw i32 2, %571, !dbg !10616         ; [#uses=1 type=i32] [debug line = 325:22]
  %573 = add nsw i32 %572, 1, !dbg !10616         ; [#uses=1 type=i32] [debug line = 325:22]
  %574 = getelementptr inbounds [256 x %struct.ap_int.9]* @_ZZ10correlatorN3hls6streamI10rfnoc_axisEES2_7ap_uintILi1EENS0_IS4_EES3_ILi10EEE10sum1_reg_q, i32 0, i32 %573, !dbg !10616 ; [#uses=1 type=%struct.ap_int.9*] [debug line = 325:22]
  %575 = bitcast %struct.ap_int.9* %574 to %struct.ap_int_base.10*, !dbg !10616 ; [#uses=1 type=%struct.ap_int_base.10*] [debug line = 325:22]
  call void @_ZplILi17ELb1ELi17ELb1EEN11ap_int_baseIXT_EXT0_EXleT_Li64EEE5RTypeIXT1_EXT2_EE4plusERKS1_RKS0_IXT1_EXT2_EXleT1_Li64EEE(%struct.ap_int_base.13* sret %48, %struct.ap_int_base.10* %570, %struct.ap_int_base.10* %575), !dbg !10616 ; [debug line = 325:22]
  call void @_ZN6ap_intILi18EEC1ILi18ELb1EEERK11ap_int_baseIXT_EXT0_EXleT_Li64EEE(%struct.ap_int.12* %47, %struct.ap_int_base.13* %48), !dbg !10616 ; [debug line = 325:22]
  %576 = call %struct.ap_int.12* @_ZN6ap_intILi18EEaSERKS0_(%struct.ap_int.12* %566, %struct.ap_int.12* %47), !dbg !10616 ; [#uses=0 type=%struct.ap_int.12*] [debug line = 325:22]
  call void (...)* @_ssdm_RegionEnd(i8* getelementptr inbounds ([18 x i8]* @.str12, i32 0, i32 0)) nounwind, !dbg !10617 ; [debug line = 326:3]
  br label %577, !dbg !10617                      ; [debug line = 326:3]

; <label>:577                                     ; preds = %552
  %578 = load i32* %i6, align 4, !dbg !10618      ; [#uses=1 type=i32] [debug line = 322:51]
  %579 = add nsw i32 %578, 1, !dbg !10618         ; [#uses=1 type=i32] [debug line = 322:51]
  store i32 %579, i32* %i6, align 4, !dbg !10618  ; [debug line = 322:51]
  br label %549, !dbg !10618                      ; [debug line = 322:51]

; <label>:580                                     ; preds = %549
  br label %581, !dbg !10619                      ; [debug line = 326:3]

; <label>:581                                     ; preds = %580
  call void @llvm.dbg.declare(metadata !{i32* %i7}, metadata !10620), !dbg !10622 ; [debug line = 328:30] [debug variable = i]
  store i32 0, i32* %i7, align 4, !dbg !10623     ; [debug line = 328:35]
  br label %582, !dbg !10623                      ; [debug line = 328:35]

; <label>:582                                     ; preds = %610, %581
  %583 = load i32* %i7, align 4, !dbg !10623      ; [#uses=1 type=i32] [debug line = 328:35]
  %584 = icmp slt i32 %583, 256, !dbg !10623      ; [#uses=1 type=i1] [debug line = 328:35]
  br i1 %584, label %585, label %613, !dbg !10623 ; [debug line = 328:35]

; <label>:585                                     ; preds = %582
  call void (...)* @_ssdm_op_SpecLoopName(i8* getelementptr inbounds ([18 x i8]* @.str13, i32 0, i32 0)) nounwind, !dbg !10624 ; [debug line = 328:56]
  call void (...)* @_ssdm_RegionBegin(i8* getelementptr inbounds ([18 x i8]* @.str13, i32 0, i32 0)) nounwind, !dbg !10624 ; [debug line = 328:56]
  call void (...)* @_ssdm_Unroll(i32 0, i32 0, i32 0, i8* getelementptr inbounds ([1 x i8]* @.str, i32 0, i32 0)) nounwind, !dbg !10626 ; [debug line = 329:1]
  %586 = load i32* %i7, align 4, !dbg !10627      ; [#uses=1 type=i32] [debug line = 330:2]
  %587 = getelementptr inbounds [256 x %struct.ap_int.9]* @_ZZ10correlatorN3hls6streamI10rfnoc_axisEES2_7ap_uintILi1EENS0_IS4_EES3_ILi10EEE10sum1_reg_i, i32 0, i32 %586, !dbg !10627 ; [#uses=1 type=%struct.ap_int.9*] [debug line = 330:2]
  %588 = load i32* %i7, align 4, !dbg !10628      ; [#uses=1 type=i32] [debug line = 330:18]
  %589 = mul nsw i32 2, %588, !dbg !10628         ; [#uses=1 type=i32] [debug line = 330:18]
  %590 = getelementptr inbounds [512 x %struct.ap_int.6]* @_ZZ10correlatorN3hls6streamI10rfnoc_axisEES2_7ap_uintILi1EENS0_IS4_EES3_ILi10EEE14adder_in_reg_i, i32 0, i32 %589, !dbg !10628 ; [#uses=1 type=%struct.ap_int.6*] [debug line = 330:18]
  %591 = bitcast %struct.ap_int.6* %590 to %struct.ap_int_base.7*, !dbg !10628 ; [#uses=1 type=%struct.ap_int_base.7*] [debug line = 330:18]
  %592 = load i32* %i7, align 4, !dbg !10628      ; [#uses=1 type=i32] [debug line = 330:18]
  %593 = mul nsw i32 2, %592, !dbg !10628         ; [#uses=1 type=i32] [debug line = 330:18]
  %594 = add nsw i32 %593, 1, !dbg !10628         ; [#uses=1 type=i32] [debug line = 330:18]
  %595 = getelementptr inbounds [512 x %struct.ap_int.6]* @_ZZ10correlatorN3hls6streamI10rfnoc_axisEES2_7ap_uintILi1EENS0_IS4_EES3_ILi10EEE14adder_in_reg_i, i32 0, i32 %594, !dbg !10628 ; [#uses=1 type=%struct.ap_int.6*] [debug line = 330:18]
  %596 = bitcast %struct.ap_int.6* %595 to %struct.ap_int_base.7*, !dbg !10628 ; [#uses=1 type=%struct.ap_int_base.7*] [debug line = 330:18]
  call void @_ZplILi16ELb1ELi16ELb1EEN11ap_int_baseIXT_EXT0_EXleT_Li64EEE5RTypeIXT1_EXT2_EE4plusERKS1_RKS0_IXT1_EXT2_EXleT1_Li64EEE(%struct.ap_int_base.10* sret %50, %struct.ap_int_base.7* %591, %struct.ap_int_base.7* %596), !dbg !10628 ; [debug line = 330:18]
  call void @_ZN6ap_intILi17EEC1ILi17ELb1EEERK11ap_int_baseIXT_EXT0_EXleT_Li64EEE(%struct.ap_int.9* %49, %struct.ap_int_base.10* %50), !dbg !10628 ; [debug line = 330:18]
  %597 = call %struct.ap_int.9* @_ZN6ap_intILi17EEaSERKS0_(%struct.ap_int.9* %587, %struct.ap_int.9* %49), !dbg !10628 ; [#uses=0 type=%struct.ap_int.9*] [debug line = 330:18]
  %598 = load i32* %i7, align 4, !dbg !10629      ; [#uses=1 type=i32] [debug line = 331:6]
  %599 = getelementptr inbounds [256 x %struct.ap_int.9]* @_ZZ10correlatorN3hls6streamI10rfnoc_axisEES2_7ap_uintILi1EENS0_IS4_EES3_ILi10EEE10sum1_reg_q, i32 0, i32 %598, !dbg !10629 ; [#uses=1 type=%struct.ap_int.9*] [debug line = 331:6]
  %600 = load i32* %i7, align 4, !dbg !10630      ; [#uses=1 type=i32] [debug line = 331:22]
  %601 = mul nsw i32 2, %600, !dbg !10630         ; [#uses=1 type=i32] [debug line = 331:22]
  %602 = getelementptr inbounds [512 x %struct.ap_int.6]* @_ZZ10correlatorN3hls6streamI10rfnoc_axisEES2_7ap_uintILi1EENS0_IS4_EES3_ILi10EEE14adder_in_reg_q, i32 0, i32 %601, !dbg !10630 ; [#uses=1 type=%struct.ap_int.6*] [debug line = 331:22]
  %603 = bitcast %struct.ap_int.6* %602 to %struct.ap_int_base.7*, !dbg !10630 ; [#uses=1 type=%struct.ap_int_base.7*] [debug line = 331:22]
  %604 = load i32* %i7, align 4, !dbg !10630      ; [#uses=1 type=i32] [debug line = 331:22]
  %605 = mul nsw i32 2, %604, !dbg !10630         ; [#uses=1 type=i32] [debug line = 331:22]
  %606 = add nsw i32 %605, 1, !dbg !10630         ; [#uses=1 type=i32] [debug line = 331:22]
  %607 = getelementptr inbounds [512 x %struct.ap_int.6]* @_ZZ10correlatorN3hls6streamI10rfnoc_axisEES2_7ap_uintILi1EENS0_IS4_EES3_ILi10EEE14adder_in_reg_q, i32 0, i32 %606, !dbg !10630 ; [#uses=1 type=%struct.ap_int.6*] [debug line = 331:22]
  %608 = bitcast %struct.ap_int.6* %607 to %struct.ap_int_base.7*, !dbg !10630 ; [#uses=1 type=%struct.ap_int_base.7*] [debug line = 331:22]
  call void @_ZplILi16ELb1ELi16ELb1EEN11ap_int_baseIXT_EXT0_EXleT_Li64EEE5RTypeIXT1_EXT2_EE4plusERKS1_RKS0_IXT1_EXT2_EXleT1_Li64EEE(%struct.ap_int_base.10* sret %52, %struct.ap_int_base.7* %603, %struct.ap_int_base.7* %608), !dbg !10630 ; [debug line = 331:22]
  call void @_ZN6ap_intILi17EEC1ILi17ELb1EEERK11ap_int_baseIXT_EXT0_EXleT_Li64EEE(%struct.ap_int.9* %51, %struct.ap_int_base.10* %52), !dbg !10630 ; [debug line = 331:22]
  %609 = call %struct.ap_int.9* @_ZN6ap_intILi17EEaSERKS0_(%struct.ap_int.9* %599, %struct.ap_int.9* %51), !dbg !10630 ; [#uses=0 type=%struct.ap_int.9*] [debug line = 331:22]
  call void (...)* @_ssdm_RegionEnd(i8* getelementptr inbounds ([18 x i8]* @.str13, i32 0, i32 0)) nounwind, !dbg !10631 ; [debug line = 332:3]
  br label %610, !dbg !10631                      ; [debug line = 332:3]

; <label>:610                                     ; preds = %585
  %611 = load i32* %i7, align 4, !dbg !10632      ; [#uses=1 type=i32] [debug line = 328:51]
  %612 = add nsw i32 %611, 1, !dbg !10632         ; [#uses=1 type=i32] [debug line = 328:51]
  store i32 %612, i32* %i7, align 4, !dbg !10632  ; [debug line = 328:51]
  br label %582, !dbg !10632                      ; [debug line = 328:51]

; <label>:613                                     ; preds = %582
  br label %614, !dbg !10633                      ; [debug line = 332:3]

; <label>:614                                     ; preds = %613
  call void @llvm.dbg.declare(metadata !{i32* %i8}, metadata !10634), !dbg !10636 ; [debug line = 334:29] [debug variable = i]
  store i32 0, i32* %i8, align 4, !dbg !10637     ; [debug line = 334:34]
  br label %615, !dbg !10637                      ; [debug line = 334:34]

; <label>:615                                     ; preds = %642, %614
  %616 = load i32* %i8, align 4, !dbg !10637      ; [#uses=1 type=i32] [debug line = 334:34]
  %617 = icmp slt i32 %616, 512, !dbg !10637      ; [#uses=1 type=i1] [debug line = 334:34]
  br i1 %617, label %618, label %645, !dbg !10637 ; [debug line = 334:34]

; <label>:618                                     ; preds = %615
  call void (...)* @_ssdm_op_SpecLoopName(i8* getelementptr inbounds ([17 x i8]* @.str14, i32 0, i32 0)) nounwind, !dbg !10638 ; [debug line = 334:55]
  call void (...)* @_ssdm_RegionBegin(i8* getelementptr inbounds ([17 x i8]* @.str14, i32 0, i32 0)) nounwind, !dbg !10638 ; [debug line = 334:55]
  call void (...)* @_ssdm_Unroll(i32 0, i32 0, i32 0, i8* getelementptr inbounds ([1 x i8]* @.str, i32 0, i32 0)) nounwind, !dbg !10640 ; [debug line = 335:1]
  %619 = load i32* %i8, align 4, !dbg !10641      ; [#uses=1 type=i32] [debug line = 336:2]
  %620 = call zeroext i16 @_ZNK11ap_int_baseILi10ELb0ELb1EEcvtEv(%struct.ap_int_base.4* getelementptr inbounds (%struct.ap_uint.3* @_ZZ10correlatorN3hls6streamI10rfnoc_axisEES2_7ap_uintILi1EENS0_IS4_EES3_ILi10EEE13pnseq_len_reg, i32 0, i32 0)), !dbg !10642 ; [#uses=1 type=i16] [debug line = 336:9]
  %621 = zext i16 %620 to i32, !dbg !10642        ; [#uses=1 type=i32] [debug line = 336:9]
  %622 = icmp slt i32 %619, %621, !dbg !10642     ; [#uses=1 type=i1] [debug line = 336:9]
  br i1 %622, label %623, label %634, !dbg !10642 ; [debug line = 336:9]

; <label>:623                                     ; preds = %618
  %624 = load i32* %i8, align 4, !dbg !10643      ; [#uses=1 type=i32] [debug line = 337:11]
  %625 = getelementptr inbounds [512 x %struct.ap_int.6]* @_ZZ10correlatorN3hls6streamI10rfnoc_axisEES2_7ap_uintILi1EENS0_IS4_EES3_ILi10EEE14adder_in_reg_i, i32 0, i32 %624, !dbg !10643 ; [#uses=1 type=%struct.ap_int.6*] [debug line = 337:11]
  %626 = load i32* %i8, align 4, !dbg !10643      ; [#uses=1 type=i32] [debug line = 337:11]
  %627 = getelementptr inbounds [512 x %struct.ap_int.6]* @_ZZ10correlatorN3hls6streamI10rfnoc_axisEES2_7ap_uintILi1EENS0_IS4_EES3_ILi10EEE13product_reg_i, i32 0, i32 %626, !dbg !10643 ; [#uses=1 type=%struct.ap_int.6*] [debug line = 337:11]
  %628 = call %struct.ap_int.6* @_ZN6ap_intILi16EEaSERKS0_(%struct.ap_int.6* %625, %struct.ap_int.6* %627), !dbg !10643 ; [#uses=0 type=%struct.ap_int.6*] [debug line = 337:11]
  %629 = load i32* %i8, align 4, !dbg !10645      ; [#uses=1 type=i32] [debug line = 338:11]
  %630 = getelementptr inbounds [512 x %struct.ap_int.6]* @_ZZ10correlatorN3hls6streamI10rfnoc_axisEES2_7ap_uintILi1EENS0_IS4_EES3_ILi10EEE14adder_in_reg_q, i32 0, i32 %629, !dbg !10645 ; [#uses=1 type=%struct.ap_int.6*] [debug line = 338:11]
  %631 = load i32* %i8, align 4, !dbg !10645      ; [#uses=1 type=i32] [debug line = 338:11]
  %632 = getelementptr inbounds [512 x %struct.ap_int.6]* @_ZZ10correlatorN3hls6streamI10rfnoc_axisEES2_7ap_uintILi1EENS0_IS4_EES3_ILi10EEE13product_reg_q, i32 0, i32 %631, !dbg !10645 ; [#uses=1 type=%struct.ap_int.6*] [debug line = 338:11]
  %633 = call %struct.ap_int.6* @_ZN6ap_intILi16EEaSERKS0_(%struct.ap_int.6* %630, %struct.ap_int.6* %632), !dbg !10645 ; [#uses=0 type=%struct.ap_int.6*] [debug line = 338:11]
  br label %641, !dbg !10646                      ; [debug line = 339:10]

; <label>:634                                     ; preds = %618
  %635 = load i32* %i8, align 4, !dbg !10647      ; [#uses=1 type=i32] [debug line = 342:11]
  %636 = getelementptr inbounds [512 x %struct.ap_int.6]* @_ZZ10correlatorN3hls6streamI10rfnoc_axisEES2_7ap_uintILi1EENS0_IS4_EES3_ILi10EEE14adder_in_reg_i, i32 0, i32 %635, !dbg !10647 ; [#uses=1 type=%struct.ap_int.6*] [debug line = 342:11]
  call void @_ZN6ap_intILi16EEC1Ei(%struct.ap_int.6* %53, i32 0), !dbg !10647 ; [debug line = 342:11]
  %637 = call %struct.ap_int.6* @_ZN6ap_intILi16EEaSERKS0_(%struct.ap_int.6* %636, %struct.ap_int.6* %53), !dbg !10647 ; [#uses=0 type=%struct.ap_int.6*] [debug line = 342:11]
  %638 = load i32* %i8, align 4, !dbg !10649      ; [#uses=1 type=i32] [debug line = 343:11]
  %639 = getelementptr inbounds [512 x %struct.ap_int.6]* @_ZZ10correlatorN3hls6streamI10rfnoc_axisEES2_7ap_uintILi1EENS0_IS4_EES3_ILi10EEE14adder_in_reg_q, i32 0, i32 %638, !dbg !10649 ; [#uses=1 type=%struct.ap_int.6*] [debug line = 343:11]
  call void @_ZN6ap_intILi16EEC1Ei(%struct.ap_int.6* %54, i32 0), !dbg !10649 ; [debug line = 343:11]
  %640 = call %struct.ap_int.6* @_ZN6ap_intILi16EEaSERKS0_(%struct.ap_int.6* %639, %struct.ap_int.6* %54), !dbg !10649 ; [#uses=0 type=%struct.ap_int.6*] [debug line = 343:11]
  br label %641

; <label>:641                                     ; preds = %634, %623
  call void (...)* @_ssdm_RegionEnd(i8* getelementptr inbounds ([17 x i8]* @.str14, i32 0, i32 0)) nounwind, !dbg !10650 ; [debug line = 345:3]
  br label %642, !dbg !10650                      ; [debug line = 345:3]

; <label>:642                                     ; preds = %641
  %643 = load i32* %i8, align 4, !dbg !10651      ; [#uses=1 type=i32] [debug line = 334:50]
  %644 = add nsw i32 %643, 1, !dbg !10651         ; [#uses=1 type=i32] [debug line = 334:50]
  store i32 %644, i32* %i8, align 4, !dbg !10651  ; [debug line = 334:50]
  br label %615, !dbg !10651                      ; [debug line = 334:50]

; <label>:645                                     ; preds = %615
  br label %646, !dbg !10652                      ; [debug line = 345:3]

; <label>:646                                     ; preds = %645
  call void @llvm.dbg.declare(metadata !{i32* %i9}, metadata !10653), !dbg !10655 ; [debug line = 349:28] [debug variable = i]
  store i32 0, i32* %i9, align 4, !dbg !10656     ; [debug line = 349:33]
  br label %647, !dbg !10656                      ; [debug line = 349:33]

; <label>:647                                     ; preds = %680, %646
  %648 = load i32* %i9, align 4, !dbg !10656      ; [#uses=1 type=i32] [debug line = 349:33]
  %649 = icmp slt i32 %648, 512, !dbg !10656      ; [#uses=1 type=i1] [debug line = 349:33]
  br i1 %649, label %650, label %683, !dbg !10656 ; [debug line = 349:33]

; <label>:650                                     ; preds = %647
  call void (...)* @_ssdm_op_SpecLoopName(i8* getelementptr inbounds ([17 x i8]* @.str15, i32 0, i32 0)) nounwind, !dbg !10657 ; [debug line = 349:54]
  call void (...)* @_ssdm_RegionBegin(i8* getelementptr inbounds ([17 x i8]* @.str15, i32 0, i32 0)) nounwind, !dbg !10657 ; [debug line = 349:54]
  call void (...)* @_ssdm_Unroll(i32 0, i32 0, i32 0, i8* getelementptr inbounds ([1 x i8]* @.str, i32 0, i32 0)) nounwind, !dbg !10659 ; [debug line = 350:1]
  %651 = load i32* %i9, align 4, !dbg !10660      ; [#uses=1 type=i32] [debug line = 351:5]
  %652 = getelementptr inbounds [512 x %struct.ap_uint]* @_ZZ10correlatorN3hls6streamI10rfnoc_axisEES2_7ap_uintILi1EENS0_IS4_EES3_ILi10EEE6pn_seq, i32 0, i32 %651, !dbg !10660 ; [#uses=1 type=%struct.ap_uint*] [debug line = 351:5]
  %653 = bitcast %struct.ap_uint* %652 to %struct.ap_int_base.0*, !dbg !10660 ; [#uses=1 type=%struct.ap_int_base.0*] [debug line = 351:5]
  %654 = call zeroext i1 @_ZeqILi1ELb0EEbRK11ap_int_baseIXT_EXT0_EXleT_Li64EEEi(%struct.ap_int_base.0* %653, i32 1), !dbg !10660 ; [#uses=1 type=i1] [debug line = 351:5]
  br i1 %654, label %655, label %667, !dbg !10660 ; [debug line = 351:5]

; <label>:655                                     ; preds = %650
  %656 = load i32* %i9, align 4, !dbg !10661      ; [#uses=1 type=i32] [debug line = 352:10]
  %657 = getelementptr inbounds [512 x %struct.ap_int.6]* @_ZZ10correlatorN3hls6streamI10rfnoc_axisEES2_7ap_uintILi1EENS0_IS4_EES3_ILi10EEE13product_reg_i, i32 0, i32 %656, !dbg !10661 ; [#uses=1 type=%struct.ap_int.6*] [debug line = 352:10]
  %658 = load i32* %i9, align 4, !dbg !10661      ; [#uses=1 type=i32] [debug line = 352:10]
  %659 = getelementptr inbounds [512 x %struct.ap_int.6]* @_ZZ10correlatorN3hls6streamI10rfnoc_axisEES2_7ap_uintILi1EENS0_IS4_EES3_ILi10EEE10data_reg_i, i32 0, i32 %658, !dbg !10661 ; [#uses=1 type=%struct.ap_int.6*] [debug line = 352:10]
  %660 = call %struct.ap_int.6* @_ZN6ap_intILi16EEaSERKS0_(%struct.ap_int.6* %657, %struct.ap_int.6* %659), !dbg !10661 ; [#uses=0 type=%struct.ap_int.6*] [debug line = 352:10]
  %661 = load i32* %i9, align 4, !dbg !10663      ; [#uses=1 type=i32] [debug line = 353:10]
  %662 = getelementptr inbounds [512 x %struct.ap_int.6]* @_ZZ10correlatorN3hls6streamI10rfnoc_axisEES2_7ap_uintILi1EENS0_IS4_EES3_ILi10EEE13product_reg_q, i32 0, i32 %661, !dbg !10663 ; [#uses=1 type=%struct.ap_int.6*] [debug line = 353:10]
  %663 = load i32* %i9, align 4, !dbg !10664      ; [#uses=1 type=i32] [debug line = 353:28]
  %664 = getelementptr inbounds [512 x %struct.ap_int.6]* @_ZZ10correlatorN3hls6streamI10rfnoc_axisEES2_7ap_uintILi1EENS0_IS4_EES3_ILi10EEE10data_reg_q, i32 0, i32 %663, !dbg !10664 ; [#uses=1 type=%struct.ap_int.6*] [debug line = 353:28]
  %665 = bitcast %struct.ap_int.6* %664 to %struct.ap_int_base.7*, !dbg !10664 ; [#uses=1 type=%struct.ap_int_base.7*] [debug line = 353:28]
  call void @_ZmiILi16ELb1EEN11ap_int_baseIXT_EXT0_EXleT_Li64EEE5RTypeIXLi32EEXLb1EEE5minusEiRKS1_(%struct.ap_int_base.45* sret %56, i32 0, %struct.ap_int_base.7* %665), !dbg !10664 ; [debug line = 353:28]
  call void @_ZN6ap_intILi16EEC1ILi33ELb1EEERK11ap_int_baseIXT_EXT0_EXleT_Li64EEE(%struct.ap_int.6* %55, %struct.ap_int_base.45* %56), !dbg !10664 ; [debug line = 353:28]
  %666 = call %struct.ap_int.6* @_ZN6ap_intILi16EEaSERKS0_(%struct.ap_int.6* %662, %struct.ap_int.6* %55), !dbg !10664 ; [#uses=0 type=%struct.ap_int.6*] [debug line = 353:28]
  br label %679, !dbg !10665                      ; [debug line = 354:4]

; <label>:667                                     ; preds = %650
  %668 = load i32* %i9, align 4, !dbg !10666      ; [#uses=1 type=i32] [debug line = 356:10]
  %669 = getelementptr inbounds [512 x %struct.ap_int.6]* @_ZZ10correlatorN3hls6streamI10rfnoc_axisEES2_7ap_uintILi1EENS0_IS4_EES3_ILi10EEE13product_reg_i, i32 0, i32 %668, !dbg !10666 ; [#uses=1 type=%struct.ap_int.6*] [debug line = 356:10]
  %670 = load i32* %i9, align 4, !dbg !10668      ; [#uses=1 type=i32] [debug line = 356:29]
  %671 = getelementptr inbounds [512 x %struct.ap_int.6]* @_ZZ10correlatorN3hls6streamI10rfnoc_axisEES2_7ap_uintILi1EENS0_IS4_EES3_ILi10EEE10data_reg_i, i32 0, i32 %670, !dbg !10668 ; [#uses=1 type=%struct.ap_int.6*] [debug line = 356:29]
  %672 = bitcast %struct.ap_int.6* %671 to %struct.ap_int_base.7*, !dbg !10668 ; [#uses=1 type=%struct.ap_int_base.7*] [debug line = 356:29]
  call void @_ZmiILi16ELb1EEN11ap_int_baseIXT_EXT0_EXleT_Li64EEE5RTypeIXLi32EEXLb1EEE5minusEiRKS1_(%struct.ap_int_base.45* sret %58, i32 0, %struct.ap_int_base.7* %672), !dbg !10668 ; [debug line = 356:29]
  call void @_ZN6ap_intILi16EEC1ILi33ELb1EEERK11ap_int_baseIXT_EXT0_EXleT_Li64EEE(%struct.ap_int.6* %57, %struct.ap_int_base.45* %58), !dbg !10668 ; [debug line = 356:29]
  %673 = call %struct.ap_int.6* @_ZN6ap_intILi16EEaSERKS0_(%struct.ap_int.6* %669, %struct.ap_int.6* %57), !dbg !10668 ; [#uses=0 type=%struct.ap_int.6*] [debug line = 356:29]
  %674 = load i32* %i9, align 4, !dbg !10669      ; [#uses=1 type=i32] [debug line = 357:10]
  %675 = getelementptr inbounds [512 x %struct.ap_int.6]* @_ZZ10correlatorN3hls6streamI10rfnoc_axisEES2_7ap_uintILi1EENS0_IS4_EES3_ILi10EEE13product_reg_q, i32 0, i32 %674, !dbg !10669 ; [#uses=1 type=%struct.ap_int.6*] [debug line = 357:10]
  %676 = load i32* %i9, align 4, !dbg !10669      ; [#uses=1 type=i32] [debug line = 357:10]
  %677 = getelementptr inbounds [512 x %struct.ap_int.6]* @_ZZ10correlatorN3hls6streamI10rfnoc_axisEES2_7ap_uintILi1EENS0_IS4_EES3_ILi10EEE10data_reg_q, i32 0, i32 %676, !dbg !10669 ; [#uses=1 type=%struct.ap_int.6*] [debug line = 357:10]
  %678 = call %struct.ap_int.6* @_ZN6ap_intILi16EEaSERKS0_(%struct.ap_int.6* %675, %struct.ap_int.6* %677), !dbg !10669 ; [#uses=0 type=%struct.ap_int.6*] [debug line = 357:10]
  br label %679

; <label>:679                                     ; preds = %667, %655
  call void (...)* @_ssdm_RegionEnd(i8* getelementptr inbounds ([17 x i8]* @.str15, i32 0, i32 0)) nounwind, !dbg !10670 ; [debug line = 359:3]
  br label %680, !dbg !10670                      ; [debug line = 359:3]

; <label>:680                                     ; preds = %679
  %681 = load i32* %i9, align 4, !dbg !10671      ; [#uses=1 type=i32] [debug line = 349:49]
  %682 = add nsw i32 %681, 1, !dbg !10671         ; [#uses=1 type=i32] [debug line = 349:49]
  store i32 %682, i32* %i9, align 4, !dbg !10671  ; [debug line = 349:49]
  br label %647, !dbg !10671                      ; [debug line = 349:49]

; <label>:683                                     ; preds = %647
  call void @_ZN11ap_int_baseILi24ELb0ELb1EE5rangeEii(%struct.ap_range_ref.47* sret %59, %struct.ap_int_base.31* getelementptr inbounds (%struct.ap_uint.30* @_ZZ10correlatorN3hls6streamI10rfnoc_axisEES2_7ap_uintILi1EENS0_IS4_EES3_ILi10EEE14data_valid_reg, i32 0, i32 0), i32 23, i32 1), !dbg !10672 ; [debug line = 361:3]
  call void @_ZN11ap_int_baseILi24ELb0ELb1EE5rangeEii(%struct.ap_range_ref.47* sret %60, %struct.ap_int_base.31* getelementptr inbounds (%struct.ap_uint.30* @_ZZ10correlatorN3hls6streamI10rfnoc_axisEES2_7ap_uintILi1EENS0_IS4_EES3_ILi10EEE14data_valid_reg, i32 0, i32 0), i32 22, i32 0), !dbg !10673 ; [debug line = 361:32]
  %684 = call %struct.ap_range_ref.47* @_ZN12ap_range_refILi24ELb0EEaSERKS0_(%struct.ap_range_ref.47* %59, %struct.ap_range_ref.47* %60), !dbg !10673 ; [#uses=0 type=%struct.ap_range_ref.47*] [debug line = 361:32]
  %685 = load i2* @_ZZ10correlatorN3hls6streamI10rfnoc_axisEES2_7ap_uintILi1EENS0_IS4_EES3_ILi10EEE12currentState, align 1, !dbg !10674 ; [#uses=1 type=i2] [debug line = 364:3]
  %686 = zext i2 %685 to i32, !dbg !10674         ; [#uses=1 type=i32] [debug line = 364:3]
  switch i32 %686, label %742 [
    i32 0, label %687
    i32 1, label %693
    i32 2, label %697
    i32 3, label %708
  ], !dbg !10674                                  ; [debug line = 364:3]

; <label>:687                                     ; preds = %683
  %688 = bitcast %struct.ap_uint* %start to %struct.ap_int_base.0*, !dbg !10675 ; [#uses=1 type=%struct.ap_int_base.0*] [debug line = 366:14]
  %689 = call zeroext i8 @_ZNK11ap_int_baseILi1ELb0ELb1EEcvhEv(%struct.ap_int_base.0* %688), !dbg !10675 ; [#uses=1 type=i8] [debug line = 366:14]
  %690 = icmp ne i8 %689, 0, !dbg !10675          ; [#uses=1 type=i1] [debug line = 366:14]
  br i1 %690, label %691, label %692, !dbg !10675 ; [debug line = 366:14]

; <label>:691                                     ; preds = %687
  store i2 1, i2* @_ZZ10correlatorN3hls6streamI10rfnoc_axisEES2_7ap_uintILi1EENS0_IS4_EES3_ILi10EEE12currentState, align 1, !dbg !10677 ; [debug line = 367:19]
  br label %692, !dbg !10677                      ; [debug line = 367:19]

; <label>:692                                     ; preds = %691, %687
  br label %742, !dbg !10678                      ; [debug line = 368:11]

; <label>:693                                     ; preds = %683
  %694 = call %struct.ap_uint.3* @_ZN7ap_uintILi10EEaSERKS0_(%struct.ap_uint.3* @_ZZ10correlatorN3hls6streamI10rfnoc_axisEES2_7ap_uintILi1EENS0_IS4_EES3_ILi10EEE13pnseq_len_reg, %struct.ap_uint.3* %pnseq_len), !dbg !10679 ; [#uses=0 type=%struct.ap_uint.3*] [debug line = 370:11]
  %695 = bitcast %struct.ap_uint.3* %pnseq_len to %struct.ap_int_base.4*, !dbg !10680 ; [#uses=1 type=%struct.ap_int_base.4*] [debug line = 371:22]
  call void @_ZmiILi10ELb0EEN11ap_int_baseIXT_EXT0_EXleT_Li64EEE5RTypeIXLi32EEXLb1EEE5minusERKS1_i(%struct.ap_int_base.45* sret %62, %struct.ap_int_base.4* %695, i32 1), !dbg !10680 ; [debug line = 371:22]
  call void @_ZN7ap_uintILi10EEC1ILi33ELb1EEERK11ap_int_baseIXT_EXT0_EXleT_Li64EEE(%struct.ap_uint.3* %61, %struct.ap_int_base.45* %62), !dbg !10680 ; [debug line = 371:22]
  %696 = call %struct.ap_uint.3* @_ZN7ap_uintILi10EEaSERKS0_(%struct.ap_uint.3* @_ZZ10correlatorN3hls6streamI10rfnoc_axisEES2_7ap_uintILi1EENS0_IS4_EES3_ILi10EEE8load_cnt, %struct.ap_uint.3* %61), !dbg !10680 ; [#uses=0 type=%struct.ap_uint.3*] [debug line = 371:22]
  store i2 -2, i2* @_ZZ10correlatorN3hls6streamI10rfnoc_axisEES2_7ap_uintILi1EENS0_IS4_EES3_ILi10EEE12currentState, align 1, !dbg !10681 ; [debug line = 372:11]
  br label %742, !dbg !10682                      ; [debug line = 373:11]

; <label>:697                                     ; preds = %683
  %698 = call zeroext i16 @_ZNK11ap_int_baseILi10ELb0ELb1EEcvtEv(%struct.ap_int_base.4* getelementptr inbounds (%struct.ap_uint.3* @_ZZ10correlatorN3hls6streamI10rfnoc_axisEES2_7ap_uintILi1EENS0_IS4_EES3_ILi10EEE8load_cnt, i32 0, i32 0)), !dbg !10683 ; [#uses=1 type=i16] [debug line = 375:18]
  %699 = zext i16 %698 to i32, !dbg !10683        ; [#uses=1 type=i32] [debug line = 375:18]
  %700 = getelementptr inbounds [512 x %struct.ap_uint]* @_ZZ10correlatorN3hls6streamI10rfnoc_axisEES2_7ap_uintILi1EENS0_IS4_EES3_ILi10EEE6pn_seq, i32 0, i32 %699, !dbg !10683 ; [#uses=1 type=%struct.ap_uint*] [debug line = 375:18]
  call void @_ZN3hls6streamI7ap_uintILi1EEE4readEv(%struct.ap_uint* sret %63, %"class.hls::stream.2"* %pnseq_in), !dbg !10684 ; [debug line = 375:30]
  %701 = call %struct.ap_uint* @_ZN7ap_uintILi1EEaSERKS0_(%struct.ap_uint* %700, %struct.ap_uint* %63), !dbg !10684 ; [#uses=0 type=%struct.ap_uint*] [debug line = 375:30]
  %702 = call zeroext i1 @_ZeqILi10ELb0EEbRK11ap_int_baseIXT_EXT0_EXleT_Li64EEEi(%struct.ap_int_base.4* getelementptr inbounds (%struct.ap_uint.3* @_ZZ10correlatorN3hls6streamI10rfnoc_axisEES2_7ap_uintILi1EENS0_IS4_EES3_ILi10EEE8load_cnt, i32 0, i32 0), i32 0), !dbg !10685 ; [#uses=1 type=i1] [debug line = 376:15]
  br i1 %702, label %703, label %705, !dbg !10685 ; [debug line = 376:15]

; <label>:703                                     ; preds = %697
  store i2 -1, i2* @_ZZ10correlatorN3hls6streamI10rfnoc_axisEES2_7ap_uintILi1EENS0_IS4_EES3_ILi10EEE12currentState, align 1, !dbg !10686 ; [debug line = 377:19]
  call void @_ZmiILi10ELb0EEN11ap_int_baseIXT_EXT0_EXleT_Li64EEE5RTypeIXLi32EEXLb1EEE5minusERKS1_i(%struct.ap_int_base.45* sret %65, %struct.ap_int_base.4* getelementptr inbounds (%struct.ap_uint.3* @_ZZ10correlatorN3hls6streamI10rfnoc_axisEES2_7ap_uintILi1EENS0_IS4_EES3_ILi10EEE13pnseq_len_reg, i32 0, i32 0), i32 1), !dbg !10688 ; [debug line = 378:26]
  call void @_ZN7ap_uintILi10EEC1ILi33ELb1EEERK11ap_int_baseIXT_EXT0_EXleT_Li64EEE(%struct.ap_uint.3* %64, %struct.ap_int_base.45* %65), !dbg !10688 ; [debug line = 378:26]
  %704 = call %struct.ap_uint.3* @_ZN7ap_uintILi10EEaSERKS0_(%struct.ap_uint.3* @_ZZ10correlatorN3hls6streamI10rfnoc_axisEES2_7ap_uintILi1EENS0_IS4_EES3_ILi10EEE8load_cnt, %struct.ap_uint.3* %64), !dbg !10688 ; [#uses=0 type=%struct.ap_uint.3*] [debug line = 378:26]
  br label %707, !dbg !10689                      ; [debug line = 378:44]

; <label>:705                                     ; preds = %697
  store i2 -2, i2* @_ZZ10correlatorN3hls6streamI10rfnoc_axisEES2_7ap_uintILi1EENS0_IS4_EES3_ILi10EEE12currentState, align 1, !dbg !10690 ; [debug line = 380:19]
  call void @_ZmiILi10ELb0EEN11ap_int_baseIXT_EXT0_EXleT_Li64EEE5RTypeIXLi32EEXLb1EEE5minusERKS1_i(%struct.ap_int_base.45* sret %67, %struct.ap_int_base.4* getelementptr inbounds (%struct.ap_uint.3* @_ZZ10correlatorN3hls6streamI10rfnoc_axisEES2_7ap_uintILi1EENS0_IS4_EES3_ILi10EEE8load_cnt, i32 0, i32 0), i32 1), !dbg !10692 ; [debug line = 381:30]
  call void @_ZN7ap_uintILi10EEC1ILi33ELb1EEERK11ap_int_baseIXT_EXT0_EXleT_Li64EEE(%struct.ap_uint.3* %66, %struct.ap_int_base.45* %67), !dbg !10692 ; [debug line = 381:30]
  %706 = call %struct.ap_uint.3* @_ZN7ap_uintILi10EEaSERKS0_(%struct.ap_uint.3* @_ZZ10correlatorN3hls6streamI10rfnoc_axisEES2_7ap_uintILi1EENS0_IS4_EES3_ILi10EEE8load_cnt, %struct.ap_uint.3* %66), !dbg !10692 ; [#uses=0 type=%struct.ap_uint.3*] [debug line = 381:30]
  br label %707

; <label>:707                                     ; preds = %705, %703
  br label %742, !dbg !10693                      ; [debug line = 382:11]

; <label>:708                                     ; preds = %683
  %709 = call zeroext i1 @_ZNK3hls6streamI10rfnoc_axisE5emptyEv(%"class.hls::stream"* %i_data), !dbg !10694 ; [#uses=1 type=i1] [debug line = 384:15]
  br i1 %709, label %739, label %710, !dbg !10694 ; [debug line = 384:15]

; <label>:710                                     ; preds = %708
  br label %711, !dbg !10695                      ; [debug line = 385:11]

; <label>:711                                     ; preds = %710
  call void @llvm.dbg.declare(metadata !{i32* %i10}, metadata !10697), !dbg !10699 ; [debug line = 386:39] [debug variable = i]
  store i32 511, i32* %i10, align 4, !dbg !10700  ; [debug line = 386:54]
  br label %712, !dbg !10700                      ; [debug line = 386:54]

; <label>:712                                     ; preds = %728, %711
  %713 = load i32* %i10, align 4, !dbg !10700     ; [#uses=1 type=i32] [debug line = 386:54]
  %714 = icmp sgt i32 %713, 0, !dbg !10700        ; [#uses=1 type=i1] [debug line = 386:54]
  br i1 %714, label %715, label %731, !dbg !10700 ; [debug line = 386:54]

; <label>:715                                     ; preds = %712
  call void (...)* @_ssdm_op_SpecLoopName(i8* getelementptr inbounds ([11 x i8]* @.str16, i32 0, i32 0)) nounwind, !dbg !10701 ; [debug line = 386:69]
  call void (...)* @_ssdm_RegionBegin(i8* getelementptr inbounds ([11 x i8]* @.str16, i32 0, i32 0)) nounwind, !dbg !10701 ; [debug line = 386:69]
  call void (...)* @_ssdm_Unroll(i32 0, i32 0, i32 0, i8* getelementptr inbounds ([1 x i8]* @.str, i32 0, i32 0)) nounwind, !dbg !10703 ; [debug line = 387:1]
  %716 = load i32* %i10, align 4, !dbg !10704     ; [#uses=1 type=i32] [debug line = 388:2]
  %717 = getelementptr inbounds [512 x %struct.ap_int.6]* @_ZZ10correlatorN3hls6streamI10rfnoc_axisEES2_7ap_uintILi1EENS0_IS4_EES3_ILi10EEE10data_reg_i, i32 0, i32 %716, !dbg !10704 ; [#uses=1 type=%struct.ap_int.6*] [debug line = 388:2]
  %718 = load i32* %i10, align 4, !dbg !10704     ; [#uses=1 type=i32] [debug line = 388:2]
  %719 = sub nsw i32 %718, 1, !dbg !10704         ; [#uses=1 type=i32] [debug line = 388:2]
  %720 = getelementptr inbounds [512 x %struct.ap_int.6]* @_ZZ10correlatorN3hls6streamI10rfnoc_axisEES2_7ap_uintILi1EENS0_IS4_EES3_ILi10EEE10data_reg_i, i32 0, i32 %719, !dbg !10704 ; [#uses=1 type=%struct.ap_int.6*] [debug line = 388:2]
  %721 = call %struct.ap_int.6* @_ZN6ap_intILi16EEaSERKS0_(%struct.ap_int.6* %717, %struct.ap_int.6* %720), !dbg !10704 ; [#uses=0 type=%struct.ap_int.6*] [debug line = 388:2]
  %722 = load i32* %i10, align 4, !dbg !10705     ; [#uses=1 type=i32] [debug line = 389:33]
  %723 = getelementptr inbounds [512 x %struct.ap_int.6]* @_ZZ10correlatorN3hls6streamI10rfnoc_axisEES2_7ap_uintILi1EENS0_IS4_EES3_ILi10EEE10data_reg_q, i32 0, i32 %722, !dbg !10705 ; [#uses=1 type=%struct.ap_int.6*] [debug line = 389:33]
  %724 = load i32* %i10, align 4, !dbg !10705     ; [#uses=1 type=i32] [debug line = 389:33]
  %725 = sub nsw i32 %724, 1, !dbg !10705         ; [#uses=1 type=i32] [debug line = 389:33]
  %726 = getelementptr inbounds [512 x %struct.ap_int.6]* @_ZZ10correlatorN3hls6streamI10rfnoc_axisEES2_7ap_uintILi1EENS0_IS4_EES3_ILi10EEE10data_reg_q, i32 0, i32 %725, !dbg !10705 ; [#uses=1 type=%struct.ap_int.6*] [debug line = 389:33]
  %727 = call %struct.ap_int.6* @_ZN6ap_intILi16EEaSERKS0_(%struct.ap_int.6* %723, %struct.ap_int.6* %726), !dbg !10705 ; [#uses=0 type=%struct.ap_int.6*] [debug line = 389:33]
  call void (...)* @_ssdm_RegionEnd(i8* getelementptr inbounds ([11 x i8]* @.str16, i32 0, i32 0)) nounwind, !dbg !10706 ; [debug line = 389:67]
  br label %728, !dbg !10706                      ; [debug line = 389:67]

; <label>:728                                     ; preds = %715
  %729 = load i32* %i10, align 4, !dbg !10707     ; [#uses=1 type=i32] [debug line = 386:64]
  %730 = add nsw i32 %729, -1, !dbg !10707        ; [#uses=1 type=i32] [debug line = 386:64]
  store i32 %730, i32* %i10, align 4, !dbg !10707 ; [debug line = 386:64]
  br label %712, !dbg !10707                      ; [debug line = 386:64]

; <label>:731                                     ; preds = %712
  call void @_ZN3hls6streamI10rfnoc_axisE4readERS1_(%"class.hls::stream"* %i_data, %struct.rfnoc_axis* %tmp_data), !dbg !10708 ; [debug line = 391:20]
  %732 = getelementptr inbounds %struct.rfnoc_axis* %tmp_data, i32 0, i32 0, !dbg !10709 ; [#uses=1 type=%struct.ap_int*] [debug line = 392:36]
  %733 = bitcast %struct.ap_int* %732 to %struct.ap_int_base*, !dbg !10709 ; [#uses=1 type=%struct.ap_int_base*] [debug line = 392:36]
  call void @_ZN11ap_int_baseILi32ELb1ELb1EE5rangeEii(%struct.ap_range_ref.48* sret %69, %struct.ap_int_base* %733, i32 15, i32 0), !dbg !10709 ; [debug line = 392:36]
  call void @_ZN6ap_intILi16EEC1ILi32ELb1EEERK12ap_range_refIXT_EXT0_EE(%struct.ap_int.6* %68, %struct.ap_range_ref.48* %69), !dbg !10709 ; [debug line = 392:36]
  %734 = call %struct.ap_int.6* @_ZN6ap_intILi16EEaSERKS0_(%struct.ap_int.6* getelementptr inbounds ([512 x %struct.ap_int.6]* @_ZZ10correlatorN3hls6streamI10rfnoc_axisEES2_7ap_uintILi1EENS0_IS4_EES3_ILi10EEE10data_reg_q, i32 0, i32 0), %struct.ap_int.6* %68), !dbg !10709 ; [#uses=0 type=%struct.ap_int.6*] [debug line = 392:36]
  %735 = getelementptr inbounds %struct.rfnoc_axis* %tmp_data, i32 0, i32 0, !dbg !10710 ; [#uses=1 type=%struct.ap_int*] [debug line = 393:36]
  %736 = bitcast %struct.ap_int* %735 to %struct.ap_int_base*, !dbg !10710 ; [#uses=1 type=%struct.ap_int_base*] [debug line = 393:36]
  call void @_ZN11ap_int_baseILi32ELb1ELb1EE5rangeEii(%struct.ap_range_ref.48* sret %71, %struct.ap_int_base* %736, i32 31, i32 16), !dbg !10710 ; [debug line = 393:36]
  call void @_ZN6ap_intILi16EEC1ILi32ELb1EEERK12ap_range_refIXT_EXT0_EE(%struct.ap_int.6* %70, %struct.ap_range_ref.48* %71), !dbg !10710 ; [debug line = 393:36]
  %737 = call %struct.ap_int.6* @_ZN6ap_intILi16EEaSERKS0_(%struct.ap_int.6* getelementptr inbounds ([512 x %struct.ap_int.6]* @_ZZ10correlatorN3hls6streamI10rfnoc_axisEES2_7ap_uintILi1EENS0_IS4_EES3_ILi10EEE10data_reg_i, i32 0, i32 0), %struct.ap_int.6* %70), !dbg !10710 ; [#uses=0 type=%struct.ap_int.6*] [debug line = 393:36]
  call void @_ZN11ap_int_baseILi24ELb0ELb1EEixEi(%struct.ap_bit_ref* sret %72, %struct.ap_int_base.31* getelementptr inbounds (%struct.ap_uint.30* @_ZZ10correlatorN3hls6streamI10rfnoc_axisEES2_7ap_uintILi1EENS0_IS4_EES3_ILi10EEE14data_valid_reg, i32 0, i32 0), i32 0), !dbg !10711 ; [debug line = 394:20]
  %738 = call %struct.ap_bit_ref* @_ZN10ap_bit_refILi24ELb0EEaSEy(%struct.ap_bit_ref* %72, i64 1), !dbg !10711 ; [#uses=0 type=%struct.ap_bit_ref*] [debug line = 394:20]
  br label %741, !dbg !10712                      ; [debug line = 395:11]

; <label>:739                                     ; preds = %708
  call void @_ZN11ap_int_baseILi24ELb0ELb1EEixEi(%struct.ap_bit_ref* sret %73, %struct.ap_int_base.31* getelementptr inbounds (%struct.ap_uint.30* @_ZZ10correlatorN3hls6streamI10rfnoc_axisEES2_7ap_uintILi1EENS0_IS4_EES3_ILi10EEE14data_valid_reg, i32 0, i32 0), i32 0), !dbg !10713 ; [debug line = 397:19]
  %740 = call %struct.ap_bit_ref* @_ZN10ap_bit_refILi24ELb0EEaSEy(%struct.ap_bit_ref* %73, i64 0), !dbg !10713 ; [#uses=0 type=%struct.ap_bit_ref*] [debug line = 397:19]
  br label %741

; <label>:741                                     ; preds = %739, %731
  br label %742, !dbg !10714                      ; [debug line = 398:9]

; <label>:742                                     ; preds = %741, %707, %693, %692, %683
  ret void, !dbg !10715                           ; [debug line = 401:1]
}

; [#uses=445]
declare void @llvm.dbg.declare(metadata, metadata) nounwind readnone

; [#uses=1]
declare void @_ssdm_op_SpecResource(...) nounwind

; [#uses=4]
declare void @_ssdm_op_SpecInterface(...) nounwind

; [#uses=1]
declare void @_ssdm_op_SpecPipeline(...) nounwind

; [#uses=6]
define linkonce_odr void @_ZN6ap_intILi16EEC1Ev(%struct.ap_int.6* %this) unnamed_addr nounwind inlinehint alwaysinline align 2 {
  %1 = alloca %struct.ap_int.6*, align 4          ; [#uses=2 type=%struct.ap_int.6**]
  store %struct.ap_int.6* %this, %struct.ap_int.6** %1, align 4
  call void @llvm.dbg.declare(metadata !{%struct.ap_int.6** %1}, metadata !10716), !dbg !10718 ; [debug line = 77:43] [debug variable = this]
  %2 = load %struct.ap_int.6** %1                 ; [#uses=1 type=%struct.ap_int.6*]
  call void @_ZN6ap_intILi16EEC2Ev(%struct.ap_int.6* %2), !dbg !10719 ; [debug line = 77:61]
  ret void, !dbg !10719                           ; [debug line = 77:61]
}

; [#uses=6]
declare void @_ssdm_op_SpecReset(...) nounwind

; [#uses=23]
declare void @_ssdm_SpecArrayPartition(...) nounwind

; [#uses=2]
define linkonce_odr void @_ZN6ap_intILi17EEC1Ev(%struct.ap_int.9* %this) unnamed_addr nounwind inlinehint alwaysinline align 2 {
  %1 = alloca %struct.ap_int.9*, align 4          ; [#uses=2 type=%struct.ap_int.9**]
  store %struct.ap_int.9* %this, %struct.ap_int.9** %1, align 4
  call void @llvm.dbg.declare(metadata !{%struct.ap_int.9** %1}, metadata !10720), !dbg !10722 ; [debug line = 77:43] [debug variable = this]
  %2 = load %struct.ap_int.9** %1                 ; [#uses=1 type=%struct.ap_int.9*]
  call void @_ZN6ap_intILi17EEC2Ev(%struct.ap_int.9* %2), !dbg !10723 ; [debug line = 77:61]
  ret void, !dbg !10723                           ; [debug line = 77:61]
}

; [#uses=2]
define linkonce_odr void @_ZN6ap_intILi18EEC1Ev(%struct.ap_int.12* %this) unnamed_addr nounwind inlinehint alwaysinline align 2 {
  %1 = alloca %struct.ap_int.12*, align 4         ; [#uses=2 type=%struct.ap_int.12**]
  store %struct.ap_int.12* %this, %struct.ap_int.12** %1, align 4
  call void @llvm.dbg.declare(metadata !{%struct.ap_int.12** %1}, metadata !10724), !dbg !10726 ; [debug line = 77:43] [debug variable = this]
  %2 = load %struct.ap_int.12** %1                ; [#uses=1 type=%struct.ap_int.12*]
  call void @_ZN6ap_intILi18EEC2Ev(%struct.ap_int.12* %2), !dbg !10727 ; [debug line = 77:61]
  ret void, !dbg !10727                           ; [debug line = 77:61]
}

; [#uses=2]
define linkonce_odr void @_ZN6ap_intILi19EEC1Ev(%struct.ap_int.15* %this) unnamed_addr nounwind inlinehint alwaysinline align 2 {
  %1 = alloca %struct.ap_int.15*, align 4         ; [#uses=2 type=%struct.ap_int.15**]
  store %struct.ap_int.15* %this, %struct.ap_int.15** %1, align 4
  call void @llvm.dbg.declare(metadata !{%struct.ap_int.15** %1}, metadata !10728), !dbg !10730 ; [debug line = 77:43] [debug variable = this]
  %2 = load %struct.ap_int.15** %1                ; [#uses=1 type=%struct.ap_int.15*]
  call void @_ZN6ap_intILi19EEC2Ev(%struct.ap_int.15* %2), !dbg !10731 ; [debug line = 77:61]
  ret void, !dbg !10731                           ; [debug line = 77:61]
}

; [#uses=2]
define linkonce_odr void @_ZN6ap_intILi20EEC1Ev(%struct.ap_int.18* %this) unnamed_addr nounwind inlinehint alwaysinline align 2 {
  %1 = alloca %struct.ap_int.18*, align 4         ; [#uses=2 type=%struct.ap_int.18**]
  store %struct.ap_int.18* %this, %struct.ap_int.18** %1, align 4
  call void @llvm.dbg.declare(metadata !{%struct.ap_int.18** %1}, metadata !10732), !dbg !10734 ; [debug line = 77:43] [debug variable = this]
  %2 = load %struct.ap_int.18** %1                ; [#uses=1 type=%struct.ap_int.18*]
  call void @_ZN6ap_intILi20EEC2Ev(%struct.ap_int.18* %2), !dbg !10735 ; [debug line = 77:61]
  ret void, !dbg !10735                           ; [debug line = 77:61]
}

; [#uses=2]
define linkonce_odr void @_ZN6ap_intILi21EEC1Ev(%struct.ap_int.21* %this) unnamed_addr nounwind inlinehint alwaysinline align 2 {
  %1 = alloca %struct.ap_int.21*, align 4         ; [#uses=2 type=%struct.ap_int.21**]
  store %struct.ap_int.21* %this, %struct.ap_int.21** %1, align 4
  call void @llvm.dbg.declare(metadata !{%struct.ap_int.21** %1}, metadata !10736), !dbg !10738 ; [debug line = 77:43] [debug variable = this]
  %2 = load %struct.ap_int.21** %1                ; [#uses=1 type=%struct.ap_int.21*]
  call void @_ZN6ap_intILi21EEC2Ev(%struct.ap_int.21* %2), !dbg !10739 ; [debug line = 77:61]
  ret void, !dbg !10739                           ; [debug line = 77:61]
}

; [#uses=2]
define linkonce_odr void @_ZN6ap_intILi22EEC1Ev(%struct.ap_int.24* %this) unnamed_addr nounwind inlinehint alwaysinline align 2 {
  %1 = alloca %struct.ap_int.24*, align 4         ; [#uses=2 type=%struct.ap_int.24**]
  store %struct.ap_int.24* %this, %struct.ap_int.24** %1, align 4
  call void @llvm.dbg.declare(metadata !{%struct.ap_int.24** %1}, metadata !10740), !dbg !10742 ; [debug line = 77:43] [debug variable = this]
  %2 = load %struct.ap_int.24** %1                ; [#uses=1 type=%struct.ap_int.24*]
  call void @_ZN6ap_intILi22EEC2Ev(%struct.ap_int.24* %2), !dbg !10743 ; [debug line = 77:61]
  ret void, !dbg !10743                           ; [debug line = 77:61]
}

; [#uses=2]
define linkonce_odr void @_ZN6ap_intILi23EEC1Ev(%struct.ap_int.27* %this) unnamed_addr nounwind inlinehint alwaysinline align 2 {
  %1 = alloca %struct.ap_int.27*, align 4         ; [#uses=2 type=%struct.ap_int.27**]
  store %struct.ap_int.27* %this, %struct.ap_int.27** %1, align 4
  call void @llvm.dbg.declare(metadata !{%struct.ap_int.27** %1}, metadata !10744), !dbg !10746 ; [debug line = 77:43] [debug variable = this]
  %2 = load %struct.ap_int.27** %1                ; [#uses=1 type=%struct.ap_int.27*]
  call void @_ZN6ap_intILi23EEC2Ev(%struct.ap_int.27* %2), !dbg !10747 ; [debug line = 77:61]
  ret void, !dbg !10747                           ; [debug line = 77:61]
}

; [#uses=3]
define linkonce_odr void @_ZN10rfnoc_axisC1Ev(%struct.rfnoc_axis* %this) unnamed_addr nounwind inlinehint align 2 {
  %1 = alloca %struct.rfnoc_axis*, align 4        ; [#uses=2 type=%struct.rfnoc_axis**]
  store %struct.rfnoc_axis* %this, %struct.rfnoc_axis** %1, align 4
  call void @llvm.dbg.declare(metadata !{%struct.rfnoc_axis** %1}, metadata !10748), !dbg !10750 ; [debug line = 28:9] [debug variable = this]
  %2 = load %struct.rfnoc_axis** %1               ; [#uses=1 type=%struct.rfnoc_axis*]
  call void @_ZN10rfnoc_axisC2Ev(%struct.rfnoc_axis* %2), !dbg !10750 ; [debug line = 28:9]
  ret void, !dbg !10750                           ; [debug line = 28:9]
}

; [#uses=3]
define linkonce_odr void @_ZN7ap_uintILi10EEC1Ev(%struct.ap_uint.3* %this) unnamed_addr nounwind inlinehint alwaysinline align 2 {
  %1 = alloca %struct.ap_uint.3*, align 4         ; [#uses=2 type=%struct.ap_uint.3**]
  store %struct.ap_uint.3* %this, %struct.ap_uint.3** %1, align 4
  call void @llvm.dbg.declare(metadata !{%struct.ap_uint.3** %1}, metadata !10751), !dbg !10753 ; [debug line = 185:43] [debug variable = this]
  %2 = load %struct.ap_uint.3** %1                ; [#uses=1 type=%struct.ap_uint.3*]
  call void @_ZN7ap_uintILi10EEC2Ev(%struct.ap_uint.3* %2), !dbg !10754 ; [debug line = 185:62]
  ret void, !dbg !10754                           ; [debug line = 185:62]
}

; [#uses=3]
define linkonce_odr void @_ZN7ap_uintILi1EEC1Ev(%struct.ap_uint* %this) unnamed_addr nounwind inlinehint alwaysinline align 2 {
  %1 = alloca %struct.ap_uint*, align 4           ; [#uses=2 type=%struct.ap_uint**]
  store %struct.ap_uint* %this, %struct.ap_uint** %1, align 4
  call void @llvm.dbg.declare(metadata !{%struct.ap_uint** %1}, metadata !10755), !dbg !10757 ; [debug line = 185:43] [debug variable = this]
  %2 = load %struct.ap_uint** %1                  ; [#uses=1 type=%struct.ap_uint*]
  call void @_ZN7ap_uintILi1EEC2Ev(%struct.ap_uint* %2), !dbg !10758 ; [debug line = 185:62]
  ret void, !dbg !10758                           ; [debug line = 185:62]
}

; [#uses=1]
define linkonce_odr void @_ZN7ap_uintILi24EEC1Ev(%struct.ap_uint.30* %this) unnamed_addr nounwind inlinehint alwaysinline align 2 {
  %1 = alloca %struct.ap_uint.30*, align 4        ; [#uses=2 type=%struct.ap_uint.30**]
  store %struct.ap_uint.30* %this, %struct.ap_uint.30** %1, align 4
  call void @llvm.dbg.declare(metadata !{%struct.ap_uint.30** %1}, metadata !10759), !dbg !10761 ; [debug line = 185:43] [debug variable = this]
  %2 = load %struct.ap_uint.30** %1               ; [#uses=1 type=%struct.ap_uint.30*]
  call void @_ZN7ap_uintILi24EEC2Ev(%struct.ap_uint.30* %2), !dbg !10762 ; [debug line = 185:62]
  ret void, !dbg !10762                           ; [debug line = 185:62]
}

; [#uses=2]
define linkonce_odr void @_ZN6ap_intILi24EEC1Ev(%struct.ap_uint.30* %this) unnamed_addr nounwind inlinehint alwaysinline align 2 {
  %1 = alloca %struct.ap_uint.30*, align 4        ; [#uses=2 type=%struct.ap_uint.30**]
  store %struct.ap_uint.30* %this, %struct.ap_uint.30** %1, align 4
  call void @llvm.dbg.declare(metadata !{%struct.ap_uint.30** %1}, metadata !10763), !dbg !10765 ; [debug line = 77:43] [debug variable = this]
  %2 = load %struct.ap_uint.30** %1               ; [#uses=1 type=%struct.ap_uint.30*]
  call void @_ZN6ap_intILi24EEC2Ev(%struct.ap_uint.30* %2), !dbg !10766 ; [debug line = 77:61]
  ret void, !dbg !10766                           ; [debug line = 77:61]
}

; [#uses=2]
define linkonce_odr void @_ZN6ap_intILi25EEC1Ev(%struct.ap_int.36* %this) unnamed_addr nounwind inlinehint alwaysinline align 2 {
  %1 = alloca %struct.ap_int.36*, align 4         ; [#uses=2 type=%struct.ap_int.36**]
  store %struct.ap_int.36* %this, %struct.ap_int.36** %1, align 4
  call void @llvm.dbg.declare(metadata !{%struct.ap_int.36** %1}, metadata !10767), !dbg !10769 ; [debug line = 77:43] [debug variable = this]
  %2 = load %struct.ap_int.36** %1                ; [#uses=1 type=%struct.ap_int.36*]
  call void @_ZN6ap_intILi25EEC2Ev(%struct.ap_int.36* %2), !dbg !10770 ; [debug line = 77:61]
  ret void, !dbg !10770                           ; [debug line = 77:61]
}

; [#uses=2]
define linkonce_odr void @_ZN6ap_intILi50EEC1Ev(%struct.ap_int.39* %this) unnamed_addr nounwind inlinehint alwaysinline align 2 {
  %1 = alloca %struct.ap_int.39*, align 4         ; [#uses=2 type=%struct.ap_int.39**]
  store %struct.ap_int.39* %this, %struct.ap_int.39** %1, align 4
  call void @llvm.dbg.declare(metadata !{%struct.ap_int.39** %1}, metadata !10771), !dbg !10773 ; [debug line = 77:43] [debug variable = this]
  %2 = load %struct.ap_int.39** %1                ; [#uses=1 type=%struct.ap_int.39*]
  call void @_ZN6ap_intILi50EEC2Ev(%struct.ap_int.39* %2), !dbg !10774 ; [debug line = 77:61]
  ret void, !dbg !10774                           ; [debug line = 77:61]
}

; [#uses=1]
define linkonce_odr void @_ZN6ap_intILi51EEC1Ev(%struct.ap_int.42* %this) unnamed_addr nounwind inlinehint alwaysinline align 2 {
  %1 = alloca %struct.ap_int.42*, align 4         ; [#uses=2 type=%struct.ap_int.42**]
  store %struct.ap_int.42* %this, %struct.ap_int.42** %1, align 4
  call void @llvm.dbg.declare(metadata !{%struct.ap_int.42** %1}, metadata !10775), !dbg !10777 ; [debug line = 77:43] [debug variable = this]
  %2 = load %struct.ap_int.42** %1                ; [#uses=1 type=%struct.ap_int.42*]
  call void @_ZN6ap_intILi51EEC2Ev(%struct.ap_int.42* %2), !dbg !10778 ; [debug line = 77:61]
  ret void, !dbg !10778                           ; [debug line = 77:61]
}

; [#uses=4]
define linkonce_odr void @_ZN11ap_int_baseILi24ELb0ELb1EEixEi(%struct.ap_bit_ref* noalias sret %agg.result, %struct.ap_int_base.31* %this, i32 %index) nounwind inlinehint alwaysinline align 2 {
  %1 = alloca %struct.ap_int_base.31*, align 4    ; [#uses=2 type=%struct.ap_int_base.31**]
  %2 = alloca i32, align 4                        ; [#uses=2 type=i32*]
  store %struct.ap_int_base.31* %this, %struct.ap_int_base.31** %1, align 4
  call void @llvm.dbg.declare(metadata !{%struct.ap_int_base.31** %1}, metadata !10779), !dbg !10780 ; [debug line = 2044:64] [debug variable = this]
  store i32 %index, i32* %2, align 4
  call void @llvm.dbg.declare(metadata !{i32* %2}, metadata !10781), !dbg !10782 ; [debug line = 2044:81] [debug variable = index]
  %3 = load %struct.ap_int_base.31** %1           ; [#uses=1 type=%struct.ap_int_base.31*]
  call void @llvm.dbg.declare(metadata !{%struct.ap_bit_ref* %agg.result}, metadata !10783), !dbg !10785 ; [debug line = 2047:33] [debug variable = bvh]
  %4 = load i32* %2, align 4, !dbg !10786         ; [#uses=1 type=i32] [debug line = 2047:51]
  call void @_ZN10ap_bit_refILi24ELb0EEC1EP11ap_int_baseILi24ELb0ELb1EEi(%struct.ap_bit_ref* %agg.result, %struct.ap_int_base.31* %3, i32 %4), !dbg !10786 ; [debug line = 2047:51]
  ret void, !dbg !10787                           ; [debug line = 2048:9]
}

; [#uses=2]
define linkonce_odr zeroext i1 @_ZNK10ap_bit_refILi24ELb0EEcvbEv(%struct.ap_bit_ref* %this) nounwind inlinehint alwaysinline align 2 {
  %1 = alloca %struct.ap_bit_ref*, align 4        ; [#uses=2 type=%struct.ap_bit_ref**]
  %__Result__ = alloca i24, align 4               ; [#uses=4 type=i24*]
  %__Val2__ = alloca i24, align 4                 ; [#uses=3 type=i24*]
  store %struct.ap_bit_ref* %this, %struct.ap_bit_ref** %1, align 4
  call void @llvm.dbg.declare(metadata !{%struct.ap_bit_ref** %1}, metadata !10788), !dbg !10790 ; [debug line = 1204:43] [debug variable = this]
  %2 = load %struct.ap_bit_ref** %1               ; [#uses=3 type=%struct.ap_bit_ref*]
  call void @llvm.dbg.declare(metadata !{i24* %__Result__}, metadata !10791), !dbg !10794 ; [debug line = 1204:93] [debug variable = __Result__]
  store i24 0, i24* %__Result__, align 4, !dbg !10795 ; [debug line = 1204:107]
  call void @llvm.dbg.declare(metadata !{i24* %__Val2__}, metadata !10796), !dbg !10797 ; [debug line = 1204:124] [debug variable = __Val2__]
  %3 = getelementptr inbounds %struct.ap_bit_ref* %2, i32 0, i32 0, !dbg !10798 ; [#uses=1 type=%struct.ap_int_base.31**] [debug line = 1204:141]
  %4 = load %struct.ap_int_base.31** %3, align 4, !dbg !10798 ; [#uses=1 type=%struct.ap_int_base.31*] [debug line = 1204:141]
  %5 = bitcast %struct.ap_int_base.31* %4 to %struct.ssdm_int.32*, !dbg !10798 ; [#uses=1 type=%struct.ssdm_int.32*] [debug line = 1204:141]
  %6 = getelementptr inbounds %struct.ssdm_int.32* %5, i32 0, i32 0, !dbg !10798 ; [#uses=1 type=i24*] [debug line = 1204:141]
  %7 = load i24* %6, align 4, !dbg !10798         ; [#uses=1 type=i24] [debug line = 1204:141]
  store i24 %7, i24* %__Val2__, align 4, !dbg !10798 ; [debug line = 1204:141]
  %8 = bitcast i24* %__Result__ to i8*, !dbg !10799 ; [#uses=0 type=i8*] [debug line = 1204:143]
  %9 = bitcast i24* %__Val2__ to i8*, !dbg !10799 ; [#uses=0 type=i8*] [debug line = 1204:143]
  %10 = getelementptr inbounds %struct.ap_bit_ref* %2, i32 0, i32 1, !dbg !10799 ; [#uses=1 type=i32*] [debug line = 1204:143]
  %11 = load i32* %10, align 4, !dbg !10799       ; [#uses=1 type=i32] [debug line = 1204:143]
  %12 = getelementptr inbounds %struct.ap_bit_ref* %2, i32 0, i32 1, !dbg !10799 ; [#uses=1 type=i32*] [debug line = 1204:143]
  %13 = load i32* %12, align 4, !dbg !10799       ; [#uses=1 type=i32] [debug line = 1204:143]
  %14 = load i24* %__Val2__, !dbg !10799          ; [#uses=1 type=i24] [debug line = 1204:143]
  %15 = call i24 @llvm.part.select.i24(i24 %14, i32 %11, i32 %13), !dbg !10799 ; [#uses=1 type=i24] [debug line = 1204:143]
  store i24 %15, i24* %__Result__, !dbg !10799    ; [debug line = 1204:143]
  %16 = load i24* %__Result__, align 4, !dbg !10799 ; [#uses=1 type=i24] [debug line = 1204:143]
  %17 = zext i24 %16 to i32, !dbg !10799          ; [#uses=1 type=i32] [debug line = 1204:143]
  %18 = and i32 %17, 1, !dbg !10799               ; [#uses=1 type=i32] [debug line = 1204:143]
  %19 = icmp ne i32 %18, 0, !dbg !10799           ; [#uses=1 type=i1] [debug line = 1204:143]
  ret i1 %19, !dbg !10800                         ; [debug line = 1204:254]
}

; [#uses=1]
define linkonce_odr zeroext i1 @_ZNK11ap_int_baseILi10ELb0ELb1EEeqILi33ELb1EEEbRKS_IXT_EXT0_EXleT_Li64EEE(%struct.ap_int_base.4* %this, %struct.ap_int_base.45* %op2) nounwind inlinehint alwaysinline align 2 {
  %1 = alloca %struct.ap_int_base.4*, align 4     ; [#uses=2 type=%struct.ap_int_base.4**]
  %2 = alloca %struct.ap_int_base.45*, align 4    ; [#uses=2 type=%struct.ap_int_base.45**]
  store %struct.ap_int_base.4* %this, %struct.ap_int_base.4** %1, align 4
  call void @llvm.dbg.declare(metadata !{%struct.ap_int_base.4** %1}, metadata !10801), !dbg !10803 ; [debug line = 1978:48] [debug variable = this]
  store %struct.ap_int_base.45* %op2, %struct.ap_int_base.45** %2, align 4
  call void @llvm.dbg.declare(metadata !{%struct.ap_int_base.45** %2}, metadata !10804), !dbg !10805 ; [debug line = 1978:96] [debug variable = op2]
  %3 = load %struct.ap_int_base.4** %1            ; [#uses=1 type=%struct.ap_int_base.4*]
  %4 = bitcast %struct.ap_int_base.4* %3 to %struct.ssdm_int.5*, !dbg !10806 ; [#uses=1 type=%struct.ssdm_int.5*] [debug line = 1979:9]
  %5 = getelementptr inbounds %struct.ssdm_int.5* %4, i32 0, i32 0, !dbg !10806 ; [#uses=1 type=i10*] [debug line = 1979:9]
  %6 = load i10* %5, align 2, !dbg !10806         ; [#uses=1 type=i10] [debug line = 1979:9]
  %7 = zext i10 %6 to i33, !dbg !10806            ; [#uses=1 type=i33] [debug line = 1979:9]
  %8 = load %struct.ap_int_base.45** %2, align 4, !dbg !10806 ; [#uses=1 type=%struct.ap_int_base.45*] [debug line = 1979:9]
  %9 = bitcast %struct.ap_int_base.45* %8 to %struct.ssdm_int.46*, !dbg !10806 ; [#uses=1 type=%struct.ssdm_int.46*] [debug line = 1979:9]
  %10 = getelementptr inbounds %struct.ssdm_int.46* %9, i32 0, i32 0, !dbg !10806 ; [#uses=1 type=i33*] [debug line = 1979:9]
  %11 = load i33* %10, align 8, !dbg !10806       ; [#uses=1 type=i33] [debug line = 1979:9]
  %12 = icmp eq i33 %7, %11, !dbg !10806          ; [#uses=1 type=i1] [debug line = 1979:9]
  ret i1 %12, !dbg !10806                         ; [debug line = 1979:9]
}

; [#uses=4]
define linkonce_odr void @_ZmiILi10ELb0EEN11ap_int_baseIXT_EXT0_EXleT_Li64EEE5RTypeIXLi32EEXLb1EEE5minusERKS1_i(%struct.ap_int_base.45* noalias sret %agg.result, %struct.ap_int_base.4* %op, i32 %i_op) nounwind inlinehint alwaysinline {
  %1 = alloca %struct.ap_int_base.4*, align 4     ; [#uses=2 type=%struct.ap_int_base.4**]
  %2 = alloca i32, align 4                        ; [#uses=2 type=i32*]
  %3 = alloca %struct.ap_int_base, align 4        ; [#uses=2 type=%struct.ap_int_base*]
  store %struct.ap_int_base.4* %op, %struct.ap_int_base.4** %1, align 4
  call void @llvm.dbg.declare(metadata !{%struct.ap_int_base.4** %1}, metadata !10808), !dbg !10809 ; [debug line = 3468:0] [debug variable = op]
  store i32 %i_op, i32* %2, align 4
  call void @llvm.dbg.declare(metadata !{i32* %2}, metadata !10810), !dbg !10809 ; [debug line = 3468:0] [debug variable = i_op]
  %4 = load %struct.ap_int_base.4** %1, align 4, !dbg !10811 ; [#uses=1 type=%struct.ap_int_base.4*] [debug line = 3468:0]
  %5 = load i32* %2, align 4, !dbg !10811         ; [#uses=1 type=i32] [debug line = 3468:0]
  call void @_ZN11ap_int_baseILi32ELb1ELb1EEC1Ei(%struct.ap_int_base* %3, i32 %5), !dbg !10811 ; [debug line = 3468:0]
  call void @_ZmiILi10ELb0ELi32ELb1EEN11ap_int_baseIXT_EXT0_EXleT_Li64EEE5RTypeIXT1_EXT2_EE5minusERKS1_RKS0_IXT1_EXT2_EXleT1_Li64EEE(%struct.ap_int_base.45* sret %agg.result, %struct.ap_int_base.4* %4, %struct.ap_int_base* %3), !dbg !10811 ; [debug line = 3468:0]
  ret void, !dbg !10811                           ; [debug line = 3468:0]
}

; [#uses=4]
define linkonce_odr %struct.ap_uint* @_ZN7ap_uintILi1EEaSERKS0_(%struct.ap_uint* %this, %struct.ap_uint* %op2) nounwind inlinehint alwaysinline align 2 {
  %1 = alloca %struct.ap_uint*, align 4           ; [#uses=2 type=%struct.ap_uint**]
  %2 = alloca %struct.ap_uint*, align 4           ; [#uses=2 type=%struct.ap_uint**]
  store %struct.ap_uint* %this, %struct.ap_uint** %1, align 4
  call void @llvm.dbg.declare(metadata !{%struct.ap_uint** %1}, metadata !10813), !dbg !10814 ; [debug line = 279:53] [debug variable = this]
  store %struct.ap_uint* %op2, %struct.ap_uint** %2, align 4
  call void @llvm.dbg.declare(metadata !{%struct.ap_uint** %2}, metadata !10815), !dbg !10816 ; [debug line = 279:87] [debug variable = op2]
  %3 = load %struct.ap_uint** %1                  ; [#uses=2 type=%struct.ap_uint*]
  %4 = load %struct.ap_uint** %2, align 4, !dbg !10817 ; [#uses=1 type=%struct.ap_uint*] [debug line = 280:10]
  %5 = bitcast %struct.ap_uint* %4 to %struct.ssdm_int.1*, !dbg !10817 ; [#uses=1 type=%struct.ssdm_int.1*] [debug line = 280:10]
  %6 = getelementptr inbounds %struct.ssdm_int.1* %5, i32 0, i32 0, !dbg !10817 ; [#uses=1 type=i1*] [debug line = 280:10]
  %7 = load i1* %6, align 1, !dbg !10817          ; [#uses=1 type=i1] [debug line = 280:10]
  %8 = bitcast %struct.ap_uint* %3 to %struct.ap_int_base.0*, !dbg !10817 ; [#uses=1 type=%struct.ap_int_base.0*] [debug line = 280:10]
  %9 = bitcast %struct.ap_int_base.0* %8 to %struct.ssdm_int.1*, !dbg !10817 ; [#uses=1 type=%struct.ssdm_int.1*] [debug line = 280:10]
  %10 = getelementptr inbounds %struct.ssdm_int.1* %9, i32 0, i32 0, !dbg !10817 ; [#uses=1 type=i1*] [debug line = 280:10]
  store i1 %7, i1* %10, align 1, !dbg !10817      ; [debug line = 280:10]
  ret %struct.ap_uint* %3, !dbg !10819            ; [debug line = 281:10]
}

; [#uses=2]
define linkonce_odr void @_ZN7ap_uintILi1EEC1Ei(%struct.ap_uint* %this, i32 %val) unnamed_addr nounwind inlinehint alwaysinline align 2 {
  %1 = alloca %struct.ap_uint*, align 4           ; [#uses=2 type=%struct.ap_uint**]
  %2 = alloca i32, align 4                        ; [#uses=2 type=i32*]
  store %struct.ap_uint* %this, %struct.ap_uint** %1, align 4
  call void @llvm.dbg.declare(metadata !{%struct.ap_uint** %1}, metadata !10820), !dbg !10821 ; [debug line = 252:43] [debug variable = this]
  store i32 %val, i32* %2, align 4
  call void @llvm.dbg.declare(metadata !{i32* %2}, metadata !10822), !dbg !10823 ; [debug line = 252:55] [debug variable = val]
  %3 = load %struct.ap_uint** %1                  ; [#uses=1 type=%struct.ap_uint*]
  %4 = load i32* %2, align 4, !dbg !10824         ; [#uses=1 type=i32] [debug line = 252:77]
  call void @_ZN7ap_uintILi1EEC2Ei(%struct.ap_uint* %3, i32 %4), !dbg !10824 ; [debug line = 252:77]
  ret void, !dbg !10824                           ; [debug line = 252:77]
}

; [#uses=6]
define linkonce_odr %struct.ap_uint.3* @_ZN7ap_uintILi10EEaSERKS0_(%struct.ap_uint.3* %this, %struct.ap_uint.3* %op2) nounwind inlinehint alwaysinline align 2 {
  %1 = alloca %struct.ap_uint.3*, align 4         ; [#uses=2 type=%struct.ap_uint.3**]
  %2 = alloca %struct.ap_uint.3*, align 4         ; [#uses=2 type=%struct.ap_uint.3**]
  store %struct.ap_uint.3* %this, %struct.ap_uint.3** %1, align 4
  call void @llvm.dbg.declare(metadata !{%struct.ap_uint.3** %1}, metadata !10825), !dbg !10826 ; [debug line = 279:53] [debug variable = this]
  store %struct.ap_uint.3* %op2, %struct.ap_uint.3** %2, align 4
  call void @llvm.dbg.declare(metadata !{%struct.ap_uint.3** %2}, metadata !10827), !dbg !10828 ; [debug line = 279:87] [debug variable = op2]
  %3 = load %struct.ap_uint.3** %1                ; [#uses=2 type=%struct.ap_uint.3*]
  %4 = load %struct.ap_uint.3** %2, align 4, !dbg !10829 ; [#uses=1 type=%struct.ap_uint.3*] [debug line = 280:10]
  %5 = bitcast %struct.ap_uint.3* %4 to %struct.ssdm_int.5*, !dbg !10829 ; [#uses=1 type=%struct.ssdm_int.5*] [debug line = 280:10]
  %6 = getelementptr inbounds %struct.ssdm_int.5* %5, i32 0, i32 0, !dbg !10829 ; [#uses=1 type=i10*] [debug line = 280:10]
  %7 = load i10* %6, align 2, !dbg !10829         ; [#uses=1 type=i10] [debug line = 280:10]
  %8 = bitcast %struct.ap_uint.3* %3 to %struct.ap_int_base.4*, !dbg !10829 ; [#uses=1 type=%struct.ap_int_base.4*] [debug line = 280:10]
  %9 = bitcast %struct.ap_int_base.4* %8 to %struct.ssdm_int.5*, !dbg !10829 ; [#uses=1 type=%struct.ssdm_int.5*] [debug line = 280:10]
  %10 = getelementptr inbounds %struct.ssdm_int.5* %9, i32 0, i32 0, !dbg !10829 ; [#uses=1 type=i10*] [debug line = 280:10]
  store i10 %7, i10* %10, align 2, !dbg !10829    ; [debug line = 280:10]
  ret %struct.ap_uint.3* %3, !dbg !10831          ; [debug line = 281:10]
}

; [#uses=1]
define linkonce_odr void @_ZN7ap_uintILi10EEC1Ei(%struct.ap_uint.3* %this, i32 %val) unnamed_addr nounwind inlinehint alwaysinline align 2 {
  %1 = alloca %struct.ap_uint.3*, align 4         ; [#uses=2 type=%struct.ap_uint.3**]
  %2 = alloca i32, align 4                        ; [#uses=2 type=i32*]
  store %struct.ap_uint.3* %this, %struct.ap_uint.3** %1, align 4
  call void @llvm.dbg.declare(metadata !{%struct.ap_uint.3** %1}, metadata !10832), !dbg !10833 ; [debug line = 252:43] [debug variable = this]
  store i32 %val, i32* %2, align 4
  call void @llvm.dbg.declare(metadata !{i32* %2}, metadata !10834), !dbg !10835 ; [debug line = 252:55] [debug variable = val]
  %3 = load %struct.ap_uint.3** %1                ; [#uses=1 type=%struct.ap_uint.3*]
  %4 = load i32* %2, align 4, !dbg !10836         ; [#uses=1 type=i32] [debug line = 252:77]
  call void @_ZN7ap_uintILi10EEC2Ei(%struct.ap_uint.3* %3, i32 %4), !dbg !10836 ; [debug line = 252:77]
  ret void, !dbg !10836                           ; [debug line = 252:77]
}

; [#uses=4]
define linkonce_odr void @_ZN7ap_uintILi10EEC1ILi33ELb1EEERK11ap_int_baseIXT_EXT0_EXleT_Li64EEE(%struct.ap_uint.3* %this, %struct.ap_int_base.45* %op) unnamed_addr nounwind inlinehint alwaysinline align 2 {
  %1 = alloca %struct.ap_uint.3*, align 4         ; [#uses=2 type=%struct.ap_uint.3**]
  %2 = alloca %struct.ap_int_base.45*, align 4    ; [#uses=2 type=%struct.ap_int_base.45**]
  store %struct.ap_uint.3* %this, %struct.ap_uint.3** %1, align 4
  call void @llvm.dbg.declare(metadata !{%struct.ap_uint.3** %1}, metadata !10837), !dbg !10838 ; [debug line = 228:43] [debug variable = this]
  store %struct.ap_int_base.45* %op, %struct.ap_int_base.45** %2, align 4
  call void @llvm.dbg.declare(metadata !{%struct.ap_int_base.45** %2}, metadata !10839), !dbg !10840 ; [debug line = 228:86] [debug variable = op]
  %3 = load %struct.ap_uint.3** %1                ; [#uses=1 type=%struct.ap_uint.3*]
  %4 = load %struct.ap_int_base.45** %2, !dbg !10841 ; [#uses=1 type=%struct.ap_int_base.45*] [debug line = 228:106]
  call void @_ZN7ap_uintILi10EEC2ILi33ELb1EEERK11ap_int_baseIXT_EXT0_EXleT_Li64EEE(%struct.ap_uint.3* %3, %struct.ap_int_base.45* %4), !dbg !10841 ; [debug line = 228:106]
  ret void, !dbg !10841                           ; [debug line = 228:106]
}

; [#uses=1]
define linkonce_odr void @_ZplILi10ELb0EEN11ap_int_baseIXT_EXT0_EXleT_Li64EEE5RTypeIXLi32EEXLb1EEE4plusERKS1_i(%struct.ap_int_base.45* noalias sret %agg.result, %struct.ap_int_base.4* %op, i32 %i_op) nounwind inlinehint alwaysinline {
  %1 = alloca %struct.ap_int_base.4*, align 4     ; [#uses=2 type=%struct.ap_int_base.4**]
  %2 = alloca i32, align 4                        ; [#uses=2 type=i32*]
  %3 = alloca %struct.ap_int_base, align 4        ; [#uses=2 type=%struct.ap_int_base*]
  store %struct.ap_int_base.4* %op, %struct.ap_int_base.4** %1, align 4
  call void @llvm.dbg.declare(metadata !{%struct.ap_int_base.4** %1}, metadata !10842), !dbg !10843 ; [debug line = 3468:0] [debug variable = op]
  store i32 %i_op, i32* %2, align 4
  call void @llvm.dbg.declare(metadata !{i32* %2}, metadata !10844), !dbg !10843 ; [debug line = 3468:0] [debug variable = i_op]
  %4 = load %struct.ap_int_base.4** %1, align 4, !dbg !10845 ; [#uses=1 type=%struct.ap_int_base.4*] [debug line = 3468:0]
  %5 = load i32* %2, align 4, !dbg !10845         ; [#uses=1 type=i32] [debug line = 3468:0]
  call void @_ZN11ap_int_baseILi32ELb1ELb1EEC1Ei(%struct.ap_int_base* %3, i32 %5), !dbg !10845 ; [debug line = 3468:0]
  call void @_ZplILi10ELb0ELi32ELb1EEN11ap_int_baseIXT_EXT0_EXleT_Li64EEE5RTypeIXT1_EXT2_EE4plusERKS1_RKS0_IXT1_EXT2_EXleT1_Li64EEE(%struct.ap_int_base.45* sret %agg.result, %struct.ap_int_base.4* %4, %struct.ap_int_base* %3), !dbg !10845 ; [debug line = 3468:0]
  ret void, !dbg !10845                           ; [debug line = 3468:0]
}

; [#uses=2]
define linkonce_odr %struct.ap_int* @_ZN6ap_intILi32EEaSERKS0_(%struct.ap_int* %this, %struct.ap_int* %op2) nounwind inlinehint alwaysinline align 2 {
  %1 = alloca %struct.ap_int*, align 4            ; [#uses=2 type=%struct.ap_int**]
  %2 = alloca %struct.ap_int*, align 4            ; [#uses=2 type=%struct.ap_int**]
  store %struct.ap_int* %this, %struct.ap_int** %1, align 4
  call void @llvm.dbg.declare(metadata !{%struct.ap_int** %1}, metadata !10847), !dbg !10849 ; [debug line = 173:52] [debug variable = this]
  store %struct.ap_int* %op2, %struct.ap_int** %2, align 4
  call void @llvm.dbg.declare(metadata !{%struct.ap_int** %2}, metadata !10850), !dbg !10851 ; [debug line = 173:85] [debug variable = op2]
  %3 = load %struct.ap_int** %1                   ; [#uses=2 type=%struct.ap_int*]
  %4 = load %struct.ap_int** %2, align 4, !dbg !10852 ; [#uses=1 type=%struct.ap_int*] [debug line = 174:10]
  %5 = bitcast %struct.ap_int* %4 to %"class.std::locale::id"*, !dbg !10852 ; [#uses=1 type=%"class.std::locale::id"*] [debug line = 174:10]
  %6 = getelementptr inbounds %"class.std::locale::id"* %5, i32 0, i32 0, !dbg !10852 ; [#uses=1 type=i32*] [debug line = 174:10]
  %7 = load i32* %6, align 4, !dbg !10852         ; [#uses=1 type=i32] [debug line = 174:10]
  %8 = bitcast %struct.ap_int* %3 to %struct.ap_int_base*, !dbg !10852 ; [#uses=1 type=%struct.ap_int_base*] [debug line = 174:10]
  %9 = bitcast %struct.ap_int_base* %8 to %"class.std::locale::id"*, !dbg !10852 ; [#uses=1 type=%"class.std::locale::id"*] [debug line = 174:10]
  %10 = getelementptr inbounds %"class.std::locale::id"* %9, i32 0, i32 0, !dbg !10852 ; [#uses=1 type=i32*] [debug line = 174:10]
  store i32 %7, i32* %10, align 4, !dbg !10852    ; [debug line = 174:10]
  ret %struct.ap_int* %3, !dbg !10854             ; [debug line = 175:10]
}

; [#uses=1]
define linkonce_odr void @_ZN6ap_intILi32EEC1ILi51ELb1EEERK12ap_range_refIXT_EXT0_EE(%struct.ap_int* %this, %struct.ap_range_ref* %ref) unnamed_addr nounwind inlinehint alwaysinline align 2 {
  %1 = alloca %struct.ap_int*, align 4            ; [#uses=2 type=%struct.ap_int**]
  %2 = alloca %struct.ap_range_ref*, align 4      ; [#uses=2 type=%struct.ap_range_ref**]
  store %struct.ap_int* %this, %struct.ap_int** %1, align 4
  call void @llvm.dbg.declare(metadata !{%struct.ap_int** %1}, metadata !10855), !dbg !10856 ; [debug line = 91:43] [debug variable = this]
  store %struct.ap_range_ref* %ref, %struct.ap_range_ref** %2, align 4
  call void @llvm.dbg.declare(metadata !{%struct.ap_range_ref** %2}, metadata !10857), !dbg !10858 ; [debug line = 91:86] [debug variable = ref]
  %3 = load %struct.ap_int** %1                   ; [#uses=1 type=%struct.ap_int*]
  %4 = load %struct.ap_range_ref** %2, !dbg !10859 ; [#uses=1 type=%struct.ap_range_ref*] [debug line = 91:102]
  call void @_ZN6ap_intILi32EEC2ILi51ELb1EEERK12ap_range_refIXT_EXT0_EE(%struct.ap_int* %3, %struct.ap_range_ref* %4), !dbg !10859 ; [debug line = 91:102]
  ret void, !dbg !10859                           ; [debug line = 91:102]
}

; [#uses=1]
define linkonce_odr void @_ZN11ap_int_baseILi51ELb1ELb1EE5rangeEii(%struct.ap_range_ref* noalias sret %agg.result, %struct.ap_int_base.43* %this, i32 %Hi, i32 %Lo) nounwind inlinehint alwaysinline align 2 {
  %1 = alloca %struct.ap_int_base.43*, align 4    ; [#uses=2 type=%struct.ap_int_base.43**]
  %2 = alloca i32, align 4                        ; [#uses=2 type=i32*]
  %3 = alloca i32, align 4                        ; [#uses=2 type=i32*]
  store %struct.ap_int_base.43* %this, %struct.ap_int_base.43** %1, align 4
  call void @llvm.dbg.declare(metadata !{%struct.ap_int_base.43** %1}, metadata !10860), !dbg !10861 ; [debug line = 2007:5] [debug variable = this]
  store i32 %Hi, i32* %2, align 4
  call void @llvm.dbg.declare(metadata !{i32* %2}, metadata !10862), !dbg !10863 ; [debug line = 2007:16] [debug variable = Hi]
  store i32 %Lo, i32* %3, align 4
  call void @llvm.dbg.declare(metadata !{i32* %3}, metadata !10864), !dbg !10865 ; [debug line = 2007:24] [debug variable = Lo]
  %4 = load %struct.ap_int_base.43** %1           ; [#uses=1 type=%struct.ap_int_base.43*]
  %5 = load i32* %2, align 4, !dbg !10866         ; [#uses=1 type=i32] [debug line = 2009:9]
  %6 = load i32* %3, align 4, !dbg !10866         ; [#uses=1 type=i32] [debug line = 2009:9]
  call void @_ZN12ap_range_refILi51ELb1EEC1EP11ap_int_baseILi51ELb1ELb1EEii(%struct.ap_range_ref* %agg.result, %struct.ap_int_base.43* %4, i32 %5, i32 %6), !dbg !10866 ; [debug line = 2009:9]
  ret void, !dbg !10866                           ; [debug line = 2009:9]
}

; [#uses=1]
define linkonce_odr void @_ZN3hls6streamI10rfnoc_axisE5writeERKS1_(%"class.hls::stream"* %this, %struct.rfnoc_axis* %din) nounwind inlinehint alwaysinline align 2 {
  %1 = alloca %"class.hls::stream"*, align 4      ; [#uses=2 type=%"class.hls::stream"**]
  %2 = alloca %struct.rfnoc_axis*, align 4        ; [#uses=2 type=%struct.rfnoc_axis**]
  %tmp = alloca %struct.rfnoc_axis, align 4       ; [#uses=4 type=%struct.rfnoc_axis*]
  store %"class.hls::stream"* %this, %"class.hls::stream"** %1, align 4
  call void @llvm.dbg.declare(metadata !{%"class.hls::stream"** %1}, metadata !10868), !dbg !10870 ; [debug line = 144:48] [debug variable = this]
  store %struct.rfnoc_axis* %din, %struct.rfnoc_axis** %2, align 4
  call void @llvm.dbg.declare(metadata !{%struct.rfnoc_axis** %2}, metadata !10871), !dbg !10872 ; [debug line = 144:74] [debug variable = din]
  %3 = load %"class.hls::stream"** %1             ; [#uses=1 type=%"class.hls::stream"*]
  call void @llvm.dbg.declare(metadata !{%struct.rfnoc_axis* %tmp}, metadata !10873), !dbg !10875 ; [debug line = 145:22] [debug variable = tmp]
  %4 = load %struct.rfnoc_axis** %2, align 4, !dbg !10876 ; [#uses=3 type=%struct.rfnoc_axis*] [debug line = 145:31]
  %5 = bitcast %struct.rfnoc_axis* %tmp to i8*, !dbg !10876 ; [#uses=0 type=i8*] [debug line = 145:31]
  %6 = bitcast %struct.rfnoc_axis* %4 to i8*, !dbg !10876 ; [#uses=0 type=i8*] [debug line = 145:31]
  %7 = getelementptr inbounds %struct.rfnoc_axis* %tmp, i32 0, i32 0, !dbg !10876 ; [#uses=1 type=%struct.ap_int*] [debug line = 145:31]
  %8 = getelementptr inbounds %struct.rfnoc_axis* %4, i32 0, i32 0, !dbg !10876 ; [#uses=1 type=%struct.ap_int*] [debug line = 145:31]
  %9 = getelementptr inbounds %struct.ap_int* %7, i32 0, i32 0, !dbg !10876 ; [#uses=1 type=%struct.ap_int_base*] [debug line = 145:31]
  %10 = getelementptr inbounds %struct.ap_int* %8, i32 0, i32 0, !dbg !10876 ; [#uses=1 type=%struct.ap_int_base*] [debug line = 145:31]
  %11 = getelementptr inbounds %struct.ap_int_base* %9, i32 0, i32 0, !dbg !10876 ; [#uses=1 type=%"class.std::locale::id"*] [debug line = 145:31]
  %12 = getelementptr inbounds %struct.ap_int_base* %10, i32 0, i32 0, !dbg !10876 ; [#uses=1 type=%"class.std::locale::id"*] [debug line = 145:31]
  %13 = getelementptr inbounds %"class.std::locale::id"* %11, i32 0, i32 0, !dbg !10876 ; [#uses=1 type=i32*] [debug line = 145:31]
  %14 = getelementptr inbounds %"class.std::locale::id"* %12, i32 0, i32 0, !dbg !10876 ; [#uses=1 type=i32*] [debug line = 145:31]
  %15 = load i32* %14, !dbg !10876                ; [#uses=1 type=i32] [debug line = 145:31]
  store i32 %15, i32* %13, !dbg !10876            ; [debug line = 145:31]
  %16 = getelementptr inbounds %struct.rfnoc_axis* %tmp, i32 0, i32 1, !dbg !10876 ; [#uses=1 type=%struct.ap_uint*] [debug line = 145:31]
  %17 = getelementptr inbounds %struct.rfnoc_axis* %4, i32 0, i32 1, !dbg !10876 ; [#uses=1 type=%struct.ap_uint*] [debug line = 145:31]
  %18 = getelementptr inbounds %struct.ap_uint* %16, i32 0, i32 0, !dbg !10876 ; [#uses=1 type=%struct.ap_int_base.0*] [debug line = 145:31]
  %19 = getelementptr inbounds %struct.ap_uint* %17, i32 0, i32 0, !dbg !10876 ; [#uses=1 type=%struct.ap_int_base.0*] [debug line = 145:31]
  %20 = getelementptr inbounds %struct.ap_int_base.0* %18, i32 0, i32 0, !dbg !10876 ; [#uses=1 type=%struct.ssdm_int.1*] [debug line = 145:31]
  %21 = getelementptr inbounds %struct.ap_int_base.0* %19, i32 0, i32 0, !dbg !10876 ; [#uses=1 type=%struct.ssdm_int.1*] [debug line = 145:31]
  %22 = getelementptr inbounds %struct.ssdm_int.1* %20, i32 0, i32 0, !dbg !10876 ; [#uses=1 type=i1*] [debug line = 145:31]
  %23 = getelementptr inbounds %struct.ssdm_int.1* %21, i32 0, i32 0, !dbg !10876 ; [#uses=1 type=i1*] [debug line = 145:31]
  %24 = load i1* %23, !dbg !10876                 ; [#uses=1 type=i1] [debug line = 145:31]
  store i1 %24, i1* %22, !dbg !10876              ; [debug line = 145:31]
  %25 = getelementptr inbounds %"class.hls::stream"* %3, i32 0, i32 0, !dbg !10877 ; [#uses=1 type=%struct.rfnoc_axis*] [debug line = 146:9]
  call void (...)* @_ssdm_StreamWrite(%struct.rfnoc_axis* %25, %struct.rfnoc_axis* %tmp) nounwind, !dbg !10877 ; [debug line = 146:9]
  ret void, !dbg !10878                           ; [debug line = 147:5]
}

; [#uses=1]
define linkonce_odr %struct.ap_int.42* @_ZN6ap_intILi51EEaSERKS0_(%struct.ap_int.42* %this, %struct.ap_int.42* %op2) nounwind inlinehint alwaysinline align 2 {
  %1 = alloca %struct.ap_int.42*, align 4         ; [#uses=2 type=%struct.ap_int.42**]
  %2 = alloca %struct.ap_int.42*, align 4         ; [#uses=2 type=%struct.ap_int.42**]
  store %struct.ap_int.42* %this, %struct.ap_int.42** %1, align 4
  call void @llvm.dbg.declare(metadata !{%struct.ap_int.42** %1}, metadata !10879), !dbg !10880 ; [debug line = 173:52] [debug variable = this]
  store %struct.ap_int.42* %op2, %struct.ap_int.42** %2, align 4
  call void @llvm.dbg.declare(metadata !{%struct.ap_int.42** %2}, metadata !10881), !dbg !10882 ; [debug line = 173:85] [debug variable = op2]
  %3 = load %struct.ap_int.42** %1                ; [#uses=2 type=%struct.ap_int.42*]
  %4 = load %struct.ap_int.42** %2, align 4, !dbg !10883 ; [#uses=1 type=%struct.ap_int.42*] [debug line = 174:10]
  %5 = bitcast %struct.ap_int.42* %4 to %struct.ssdm_int.44*, !dbg !10883 ; [#uses=1 type=%struct.ssdm_int.44*] [debug line = 174:10]
  %6 = getelementptr inbounds %struct.ssdm_int.44* %5, i32 0, i32 0, !dbg !10883 ; [#uses=1 type=i51*] [debug line = 174:10]
  %7 = load i51* %6, align 8, !dbg !10883         ; [#uses=1 type=i51] [debug line = 174:10]
  %8 = bitcast %struct.ap_int.42* %3 to %struct.ap_int_base.43*, !dbg !10883 ; [#uses=1 type=%struct.ap_int_base.43*] [debug line = 174:10]
  %9 = bitcast %struct.ap_int_base.43* %8 to %struct.ssdm_int.44*, !dbg !10883 ; [#uses=1 type=%struct.ssdm_int.44*] [debug line = 174:10]
  %10 = getelementptr inbounds %struct.ssdm_int.44* %9, i32 0, i32 0, !dbg !10883 ; [#uses=1 type=i51*] [debug line = 174:10]
  store i51 %7, i51* %10, align 8, !dbg !10883    ; [debug line = 174:10]
  ret %struct.ap_int.42* %3, !dbg !10885          ; [debug line = 175:10]
}

; [#uses=1]
define linkonce_odr void @_ZN6ap_intILi51EEC1ILi51ELb1EEERK11ap_int_baseIXT_EXT0_EXleT_Li64EEE(%struct.ap_int.42* %this, %struct.ap_int_base.43* %op) unnamed_addr nounwind inlinehint alwaysinline align 2 {
  %1 = alloca %struct.ap_int.42*, align 4         ; [#uses=2 type=%struct.ap_int.42**]
  %2 = alloca %struct.ap_int_base.43*, align 4    ; [#uses=2 type=%struct.ap_int_base.43**]
  store %struct.ap_int.42* %this, %struct.ap_int.42** %1, align 4
  call void @llvm.dbg.declare(metadata !{%struct.ap_int.42** %1}, metadata !10886), !dbg !10887 ; [debug line = 121:43] [debug variable = this]
  store %struct.ap_int_base.43* %op, %struct.ap_int_base.43** %2, align 4
  call void @llvm.dbg.declare(metadata !{%struct.ap_int_base.43** %2}, metadata !10888), !dbg !10889 ; [debug line = 121:85] [debug variable = op]
  %3 = load %struct.ap_int.42** %1                ; [#uses=1 type=%struct.ap_int.42*]
  %4 = load %struct.ap_int_base.43** %2, !dbg !10890 ; [#uses=1 type=%struct.ap_int_base.43*] [debug line = 121:106]
  call void @_ZN6ap_intILi51EEC2ILi51ELb1EEERK11ap_int_baseIXT_EXT0_EXleT_Li64EEE(%struct.ap_int.42* %3, %struct.ap_int_base.43* %4), !dbg !10890 ; [debug line = 121:106]
  ret void, !dbg !10890                           ; [debug line = 121:106]
}

; [#uses=1]
define linkonce_odr void @_ZplILi50ELb1ELi50ELb1EEN11ap_int_baseIXT_EXT0_EXleT_Li64EEE5RTypeIXT1_EXT2_EE4plusERKS1_RKS0_IXT1_EXT2_EXleT1_Li64EEE(%struct.ap_int_base.43* noalias sret %agg.result, %struct.ap_int_base.40* %op, %struct.ap_int_base.40* %op2) nounwind inlinehint alwaysinline {
  %1 = alloca %struct.ap_int_base.40*, align 4    ; [#uses=2 type=%struct.ap_int_base.40**]
  %2 = alloca %struct.ap_int_base.40*, align 4    ; [#uses=2 type=%struct.ap_int_base.40**]
  %lhs = alloca %struct.ap_int_base.43, align 8   ; [#uses=2 type=%struct.ap_int_base.43*]
  %rhs = alloca %struct.ap_int_base.43, align 8   ; [#uses=2 type=%struct.ap_int_base.43*]
  store %struct.ap_int_base.40* %op, %struct.ap_int_base.40** %1, align 4
  call void @llvm.dbg.declare(metadata !{%struct.ap_int_base.40** %1}, metadata !10891), !dbg !10892 ; [debug line = 3369:216] [debug variable = op]
  store %struct.ap_int_base.40* %op2, %struct.ap_int_base.40** %2, align 4
  call void @llvm.dbg.declare(metadata !{%struct.ap_int_base.40** %2}, metadata !10893), !dbg !10894 ; [debug line = 3369:254] [debug variable = op2]
  call void @llvm.dbg.declare(metadata !{%struct.ap_int_base.43* %lhs}, metadata !10895), !dbg !10897 ; [debug line = 3369:0] [debug variable = lhs]
  %3 = load %struct.ap_int_base.40** %1, align 4, !dbg !10897 ; [#uses=1 type=%struct.ap_int_base.40*] [debug line = 3369:0]
  call void @_ZN11ap_int_baseILi51ELb1ELb1EEC1ILi50ELb1EEERKS_IXT_EXT0_EXleT_Li64EEE(%struct.ap_int_base.43* %lhs, %struct.ap_int_base.40* %3), !dbg !10897 ; [debug line = 3369:0]
  call void @llvm.dbg.declare(metadata !{%struct.ap_int_base.43* %rhs}, metadata !10898), !dbg !10897 ; [debug line = 3369:0] [debug variable = rhs]
  %4 = load %struct.ap_int_base.40** %2, align 4, !dbg !10897 ; [#uses=1 type=%struct.ap_int_base.40*] [debug line = 3369:0]
  call void @_ZN11ap_int_baseILi51ELb1ELb1EEC1ILi50ELb1EEERKS_IXT_EXT0_EXleT_Li64EEE(%struct.ap_int_base.43* %rhs, %struct.ap_int_base.40* %4), !dbg !10897 ; [debug line = 3369:0]
  call void @llvm.dbg.declare(metadata !{%struct.ap_int_base.43* %agg.result}, metadata !10899), !dbg !10897 ; [debug line = 3369:0] [debug variable = r]
  call void @_ZN11ap_int_baseILi51ELb1ELb1EEC1Ev(%struct.ap_int_base.43* %agg.result), !dbg !10897 ; [debug line = 3369:0]
  %5 = bitcast %struct.ap_int_base.43* %lhs to %struct.ssdm_int.44*, !dbg !10897 ; [#uses=1 type=%struct.ssdm_int.44*] [debug line = 3369:0]
  %6 = getelementptr inbounds %struct.ssdm_int.44* %5, i32 0, i32 0, !dbg !10897 ; [#uses=1 type=i51*] [debug line = 3369:0]
  %7 = load i51* %6, align 8, !dbg !10897         ; [#uses=1 type=i51] [debug line = 3369:0]
  %8 = bitcast %struct.ap_int_base.43* %rhs to %struct.ssdm_int.44*, !dbg !10897 ; [#uses=1 type=%struct.ssdm_int.44*] [debug line = 3369:0]
  %9 = getelementptr inbounds %struct.ssdm_int.44* %8, i32 0, i32 0, !dbg !10897 ; [#uses=1 type=i51*] [debug line = 3369:0]
  %10 = load i51* %9, align 8, !dbg !10897        ; [#uses=1 type=i51] [debug line = 3369:0]
  %11 = add nsw i51 %7, %10, !dbg !10897          ; [#uses=1 type=i51] [debug line = 3369:0]
  %12 = bitcast %struct.ap_int_base.43* %agg.result to %struct.ssdm_int.44*, !dbg !10897 ; [#uses=1 type=%struct.ssdm_int.44*] [debug line = 3369:0]
  %13 = getelementptr inbounds %struct.ssdm_int.44* %12, i32 0, i32 0, !dbg !10897 ; [#uses=1 type=i51*] [debug line = 3369:0]
  store i51 %11, i51* %13, align 8, !dbg !10897   ; [debug line = 3369:0]
  ret void, !dbg !10897                           ; [debug line = 3369:0]
}

; [#uses=2]
define linkonce_odr %struct.ap_int.39* @_ZN6ap_intILi50EEaSERKS0_(%struct.ap_int.39* %this, %struct.ap_int.39* %op2) nounwind inlinehint alwaysinline align 2 {
  %1 = alloca %struct.ap_int.39*, align 4         ; [#uses=2 type=%struct.ap_int.39**]
  %2 = alloca %struct.ap_int.39*, align 4         ; [#uses=2 type=%struct.ap_int.39**]
  store %struct.ap_int.39* %this, %struct.ap_int.39** %1, align 4
  call void @llvm.dbg.declare(metadata !{%struct.ap_int.39** %1}, metadata !10901), !dbg !10902 ; [debug line = 173:52] [debug variable = this]
  store %struct.ap_int.39* %op2, %struct.ap_int.39** %2, align 4
  call void @llvm.dbg.declare(metadata !{%struct.ap_int.39** %2}, metadata !10903), !dbg !10904 ; [debug line = 173:85] [debug variable = op2]
  %3 = load %struct.ap_int.39** %1                ; [#uses=2 type=%struct.ap_int.39*]
  %4 = load %struct.ap_int.39** %2, align 4, !dbg !10905 ; [#uses=1 type=%struct.ap_int.39*] [debug line = 174:10]
  %5 = bitcast %struct.ap_int.39* %4 to %struct.ssdm_int.41*, !dbg !10905 ; [#uses=1 type=%struct.ssdm_int.41*] [debug line = 174:10]
  %6 = getelementptr inbounds %struct.ssdm_int.41* %5, i32 0, i32 0, !dbg !10905 ; [#uses=1 type=i50*] [debug line = 174:10]
  %7 = load i50* %6, align 8, !dbg !10905         ; [#uses=1 type=i50] [debug line = 174:10]
  %8 = bitcast %struct.ap_int.39* %3 to %struct.ap_int_base.40*, !dbg !10905 ; [#uses=1 type=%struct.ap_int_base.40*] [debug line = 174:10]
  %9 = bitcast %struct.ap_int_base.40* %8 to %struct.ssdm_int.41*, !dbg !10905 ; [#uses=1 type=%struct.ssdm_int.41*] [debug line = 174:10]
  %10 = getelementptr inbounds %struct.ssdm_int.41* %9, i32 0, i32 0, !dbg !10905 ; [#uses=1 type=i50*] [debug line = 174:10]
  store i50 %7, i50* %10, align 8, !dbg !10905    ; [debug line = 174:10]
  ret %struct.ap_int.39* %3, !dbg !10907          ; [debug line = 175:10]
}

; [#uses=2]
define linkonce_odr void @_ZN6ap_intILi50EEC1ILi50ELb1EEERK11ap_int_baseIXT_EXT0_EXleT_Li64EEE(%struct.ap_int.39* %this, %struct.ap_int_base.40* %op) unnamed_addr nounwind inlinehint alwaysinline align 2 {
  %1 = alloca %struct.ap_int.39*, align 4         ; [#uses=2 type=%struct.ap_int.39**]
  %2 = alloca %struct.ap_int_base.40*, align 4    ; [#uses=2 type=%struct.ap_int_base.40**]
  store %struct.ap_int.39* %this, %struct.ap_int.39** %1, align 4
  call void @llvm.dbg.declare(metadata !{%struct.ap_int.39** %1}, metadata !10908), !dbg !10909 ; [debug line = 121:43] [debug variable = this]
  store %struct.ap_int_base.40* %op, %struct.ap_int_base.40** %2, align 4
  call void @llvm.dbg.declare(metadata !{%struct.ap_int_base.40** %2}, metadata !10910), !dbg !10911 ; [debug line = 121:85] [debug variable = op]
  %3 = load %struct.ap_int.39** %1                ; [#uses=1 type=%struct.ap_int.39*]
  %4 = load %struct.ap_int_base.40** %2, !dbg !10912 ; [#uses=1 type=%struct.ap_int_base.40*] [debug line = 121:106]
  call void @_ZN6ap_intILi50EEC2ILi50ELb1EEERK11ap_int_baseIXT_EXT0_EXleT_Li64EEE(%struct.ap_int.39* %3, %struct.ap_int_base.40* %4), !dbg !10912 ; [debug line = 121:106]
  ret void, !dbg !10912                           ; [debug line = 121:106]
}

; [#uses=2]
define linkonce_odr void @_ZmlILi25ELb1ELi25ELb1EEN11ap_int_baseIXT_EXT0_EXleT_Li64EEE5RTypeIXT1_EXT2_EE4multERKS1_RKS0_IXT1_EXT2_EXleT1_Li64EEE(%struct.ap_int_base.40* noalias sret %agg.result, %struct.ap_int_base.37* %op, %struct.ap_int_base.37* %op2) nounwind inlinehint alwaysinline {
  %1 = alloca %struct.ap_int_base.37*, align 4    ; [#uses=2 type=%struct.ap_int_base.37**]
  %2 = alloca %struct.ap_int_base.37*, align 4    ; [#uses=2 type=%struct.ap_int_base.37**]
  %lhs = alloca %struct.ap_int_base.40, align 8   ; [#uses=2 type=%struct.ap_int_base.40*]
  %rhs = alloca %struct.ap_int_base.40, align 8   ; [#uses=2 type=%struct.ap_int_base.40*]
  store %struct.ap_int_base.37* %op, %struct.ap_int_base.37** %1, align 4
  call void @llvm.dbg.declare(metadata !{%struct.ap_int_base.37** %1}, metadata !10913), !dbg !10914 ; [debug line = 3368:213] [debug variable = op]
  store %struct.ap_int_base.37* %op2, %struct.ap_int_base.37** %2, align 4
  call void @llvm.dbg.declare(metadata !{%struct.ap_int_base.37** %2}, metadata !10915), !dbg !10916 ; [debug line = 3368:251] [debug variable = op2]
  call void @llvm.dbg.declare(metadata !{%struct.ap_int_base.40* %lhs}, metadata !10917), !dbg !10919 ; [debug line = 3368:0] [debug variable = lhs]
  %3 = load %struct.ap_int_base.37** %1, align 4, !dbg !10919 ; [#uses=1 type=%struct.ap_int_base.37*] [debug line = 3368:0]
  call void @_ZN11ap_int_baseILi50ELb1ELb1EEC1ILi25ELb1EEERKS_IXT_EXT0_EXleT_Li64EEE(%struct.ap_int_base.40* %lhs, %struct.ap_int_base.37* %3), !dbg !10919 ; [debug line = 3368:0]
  call void @llvm.dbg.declare(metadata !{%struct.ap_int_base.40* %rhs}, metadata !10920), !dbg !10919 ; [debug line = 3368:0] [debug variable = rhs]
  %4 = load %struct.ap_int_base.37** %2, align 4, !dbg !10919 ; [#uses=1 type=%struct.ap_int_base.37*] [debug line = 3368:0]
  call void @_ZN11ap_int_baseILi50ELb1ELb1EEC1ILi25ELb1EEERKS_IXT_EXT0_EXleT_Li64EEE(%struct.ap_int_base.40* %rhs, %struct.ap_int_base.37* %4), !dbg !10919 ; [debug line = 3368:0]
  call void @llvm.dbg.declare(metadata !{%struct.ap_int_base.40* %agg.result}, metadata !10921), !dbg !10919 ; [debug line = 3368:0] [debug variable = r]
  call void @_ZN11ap_int_baseILi50ELb1ELb1EEC1Ev(%struct.ap_int_base.40* %agg.result), !dbg !10919 ; [debug line = 3368:0]
  %5 = bitcast %struct.ap_int_base.40* %lhs to %struct.ssdm_int.41*, !dbg !10919 ; [#uses=1 type=%struct.ssdm_int.41*] [debug line = 3368:0]
  %6 = getelementptr inbounds %struct.ssdm_int.41* %5, i32 0, i32 0, !dbg !10919 ; [#uses=1 type=i50*] [debug line = 3368:0]
  %7 = load i50* %6, align 8, !dbg !10919         ; [#uses=1 type=i50] [debug line = 3368:0]
  %8 = bitcast %struct.ap_int_base.40* %rhs to %struct.ssdm_int.41*, !dbg !10919 ; [#uses=1 type=%struct.ssdm_int.41*] [debug line = 3368:0]
  %9 = getelementptr inbounds %struct.ssdm_int.41* %8, i32 0, i32 0, !dbg !10919 ; [#uses=1 type=i50*] [debug line = 3368:0]
  %10 = load i50* %9, align 8, !dbg !10919        ; [#uses=1 type=i50] [debug line = 3368:0]
  %11 = mul nsw i50 %7, %10, !dbg !10919          ; [#uses=1 type=i50] [debug line = 3368:0]
  %12 = bitcast %struct.ap_int_base.40* %agg.result to %struct.ssdm_int.41*, !dbg !10919 ; [#uses=1 type=%struct.ssdm_int.41*] [debug line = 3368:0]
  %13 = getelementptr inbounds %struct.ssdm_int.41* %12, i32 0, i32 0, !dbg !10919 ; [#uses=1 type=i50*] [debug line = 3368:0]
  store i50 %11, i50* %13, align 8, !dbg !10919   ; [debug line = 3368:0]
  ret void, !dbg !10919                           ; [debug line = 3368:0]
}

; [#uses=2]
define linkonce_odr %struct.ap_int.36* @_ZN6ap_intILi25EEaSERKS0_(%struct.ap_int.36* %this, %struct.ap_int.36* %op2) nounwind inlinehint alwaysinline align 2 {
  %1 = alloca %struct.ap_int.36*, align 4         ; [#uses=2 type=%struct.ap_int.36**]
  %2 = alloca %struct.ap_int.36*, align 4         ; [#uses=2 type=%struct.ap_int.36**]
  store %struct.ap_int.36* %this, %struct.ap_int.36** %1, align 4
  call void @llvm.dbg.declare(metadata !{%struct.ap_int.36** %1}, metadata !10923), !dbg !10924 ; [debug line = 173:52] [debug variable = this]
  store %struct.ap_int.36* %op2, %struct.ap_int.36** %2, align 4
  call void @llvm.dbg.declare(metadata !{%struct.ap_int.36** %2}, metadata !10925), !dbg !10926 ; [debug line = 173:85] [debug variable = op2]
  %3 = load %struct.ap_int.36** %1                ; [#uses=2 type=%struct.ap_int.36*]
  %4 = load %struct.ap_int.36** %2, align 4, !dbg !10927 ; [#uses=1 type=%struct.ap_int.36*] [debug line = 174:10]
  %5 = bitcast %struct.ap_int.36* %4 to %struct.ssdm_int.38*, !dbg !10927 ; [#uses=1 type=%struct.ssdm_int.38*] [debug line = 174:10]
  %6 = getelementptr inbounds %struct.ssdm_int.38* %5, i32 0, i32 0, !dbg !10927 ; [#uses=1 type=i25*] [debug line = 174:10]
  %7 = load i25* %6, align 4, !dbg !10927         ; [#uses=1 type=i25] [debug line = 174:10]
  %8 = bitcast %struct.ap_int.36* %3 to %struct.ap_int_base.37*, !dbg !10927 ; [#uses=1 type=%struct.ap_int_base.37*] [debug line = 174:10]
  %9 = bitcast %struct.ap_int_base.37* %8 to %struct.ssdm_int.38*, !dbg !10927 ; [#uses=1 type=%struct.ssdm_int.38*] [debug line = 174:10]
  %10 = getelementptr inbounds %struct.ssdm_int.38* %9, i32 0, i32 0, !dbg !10927 ; [#uses=1 type=i25*] [debug line = 174:10]
  store i25 %7, i25* %10, align 4, !dbg !10927    ; [debug line = 174:10]
  ret %struct.ap_int.36* %3, !dbg !10929          ; [debug line = 175:10]
}

; [#uses=2]
define linkonce_odr void @_ZN6ap_intILi25EEC1ILi25ELb1EEERK11ap_int_baseIXT_EXT0_EXleT_Li64EEE(%struct.ap_int.36* %this, %struct.ap_int_base.37* %op) unnamed_addr nounwind inlinehint alwaysinline align 2 {
  %1 = alloca %struct.ap_int.36*, align 4         ; [#uses=2 type=%struct.ap_int.36**]
  %2 = alloca %struct.ap_int_base.37*, align 4    ; [#uses=2 type=%struct.ap_int_base.37**]
  store %struct.ap_int.36* %this, %struct.ap_int.36** %1, align 4
  call void @llvm.dbg.declare(metadata !{%struct.ap_int.36** %1}, metadata !10930), !dbg !10931 ; [debug line = 121:43] [debug variable = this]
  store %struct.ap_int_base.37* %op, %struct.ap_int_base.37** %2, align 4
  call void @llvm.dbg.declare(metadata !{%struct.ap_int_base.37** %2}, metadata !10932), !dbg !10933 ; [debug line = 121:85] [debug variable = op]
  %3 = load %struct.ap_int.36** %1                ; [#uses=1 type=%struct.ap_int.36*]
  %4 = load %struct.ap_int_base.37** %2, !dbg !10934 ; [#uses=1 type=%struct.ap_int_base.37*] [debug line = 121:106]
  call void @_ZN6ap_intILi25EEC2ILi25ELb1EEERK11ap_int_baseIXT_EXT0_EXleT_Li64EEE(%struct.ap_int.36* %3, %struct.ap_int_base.37* %4), !dbg !10934 ; [debug line = 121:106]
  ret void, !dbg !10934                           ; [debug line = 121:106]
}

; [#uses=2]
define linkonce_odr void @_ZplILi24ELb1ELi24ELb1EEN11ap_int_baseIXT_EXT0_EXleT_Li64EEE5RTypeIXT1_EXT2_EE4plusERKS1_RKS0_IXT1_EXT2_EXleT1_Li64EEE(%struct.ap_int_base.37* noalias sret %agg.result, %struct.ap_int_base.31* %op, %struct.ap_int_base.31* %op2) nounwind inlinehint alwaysinline {
  %1 = alloca %struct.ap_int_base.31*, align 4    ; [#uses=2 type=%struct.ap_int_base.31**]
  %2 = alloca %struct.ap_int_base.31*, align 4    ; [#uses=2 type=%struct.ap_int_base.31**]
  %lhs = alloca %struct.ap_int_base.37, align 4   ; [#uses=2 type=%struct.ap_int_base.37*]
  %rhs = alloca %struct.ap_int_base.37, align 4   ; [#uses=2 type=%struct.ap_int_base.37*]
  store %struct.ap_int_base.31* %op, %struct.ap_int_base.31** %1, align 4
  call void @llvm.dbg.declare(metadata !{%struct.ap_int_base.31** %1}, metadata !10935), !dbg !10936 ; [debug line = 3369:216] [debug variable = op]
  store %struct.ap_int_base.31* %op2, %struct.ap_int_base.31** %2, align 4
  call void @llvm.dbg.declare(metadata !{%struct.ap_int_base.31** %2}, metadata !10937), !dbg !10938 ; [debug line = 3369:254] [debug variable = op2]
  call void @llvm.dbg.declare(metadata !{%struct.ap_int_base.37* %lhs}, metadata !10939), !dbg !10941 ; [debug line = 3369:0] [debug variable = lhs]
  %3 = load %struct.ap_int_base.31** %1, align 4, !dbg !10941 ; [#uses=1 type=%struct.ap_int_base.31*] [debug line = 3369:0]
  call void @_ZN11ap_int_baseILi25ELb1ELb1EEC1ILi24ELb1EEERKS_IXT_EXT0_EXleT_Li64EEE(%struct.ap_int_base.37* %lhs, %struct.ap_int_base.31* %3), !dbg !10941 ; [debug line = 3369:0]
  call void @llvm.dbg.declare(metadata !{%struct.ap_int_base.37* %rhs}, metadata !10942), !dbg !10941 ; [debug line = 3369:0] [debug variable = rhs]
  %4 = load %struct.ap_int_base.31** %2, align 4, !dbg !10941 ; [#uses=1 type=%struct.ap_int_base.31*] [debug line = 3369:0]
  call void @_ZN11ap_int_baseILi25ELb1ELb1EEC1ILi24ELb1EEERKS_IXT_EXT0_EXleT_Li64EEE(%struct.ap_int_base.37* %rhs, %struct.ap_int_base.31* %4), !dbg !10941 ; [debug line = 3369:0]
  call void @llvm.dbg.declare(metadata !{%struct.ap_int_base.37* %agg.result}, metadata !10943), !dbg !10941 ; [debug line = 3369:0] [debug variable = r]
  call void @_ZN11ap_int_baseILi25ELb1ELb1EEC1Ev(%struct.ap_int_base.37* %agg.result), !dbg !10941 ; [debug line = 3369:0]
  %5 = bitcast %struct.ap_int_base.37* %lhs to %struct.ssdm_int.38*, !dbg !10941 ; [#uses=1 type=%struct.ssdm_int.38*] [debug line = 3369:0]
  %6 = getelementptr inbounds %struct.ssdm_int.38* %5, i32 0, i32 0, !dbg !10941 ; [#uses=1 type=i25*] [debug line = 3369:0]
  %7 = load i25* %6, align 4, !dbg !10941         ; [#uses=1 type=i25] [debug line = 3369:0]
  %8 = sext i25 %7 to i32, !dbg !10941            ; [#uses=1 type=i32] [debug line = 3369:0]
  %9 = bitcast %struct.ap_int_base.37* %rhs to %struct.ssdm_int.38*, !dbg !10941 ; [#uses=1 type=%struct.ssdm_int.38*] [debug line = 3369:0]
  %10 = getelementptr inbounds %struct.ssdm_int.38* %9, i32 0, i32 0, !dbg !10941 ; [#uses=1 type=i25*] [debug line = 3369:0]
  %11 = load i25* %10, align 4, !dbg !10941       ; [#uses=1 type=i25] [debug line = 3369:0]
  %12 = sext i25 %11 to i32, !dbg !10941          ; [#uses=1 type=i32] [debug line = 3369:0]
  %13 = add nsw i32 %8, %12, !dbg !10941          ; [#uses=1 type=i32] [debug line = 3369:0]
  %14 = trunc i32 %13 to i25, !dbg !10941         ; [#uses=1 type=i25] [debug line = 3369:0]
  %15 = bitcast %struct.ap_int_base.37* %agg.result to %struct.ssdm_int.38*, !dbg !10941 ; [#uses=1 type=%struct.ssdm_int.38*] [debug line = 3369:0]
  %16 = getelementptr inbounds %struct.ssdm_int.38* %15, i32 0, i32 0, !dbg !10941 ; [#uses=1 type=i25*] [debug line = 3369:0]
  store i25 %14, i25* %16, align 4, !dbg !10941   ; [debug line = 3369:0]
  ret void, !dbg !10941                           ; [debug line = 3369:0]
}

; [#uses=11]
declare void @_ssdm_op_SpecLoopName(...) nounwind

; [#uses=11]
declare void @_ssdm_RegionBegin(...) nounwind

; [#uses=11]
declare void @_ssdm_Unroll(...) nounwind

; [#uses=2]
define linkonce_odr %struct.ap_uint.30* @_ZN6ap_intILi24EEaSERKS0_(%struct.ap_uint.30* %this, %struct.ap_uint.30* %op2) nounwind inlinehint alwaysinline align 2 {
  %1 = alloca %struct.ap_uint.30*, align 4        ; [#uses=2 type=%struct.ap_uint.30**]
  %2 = alloca %struct.ap_uint.30*, align 4        ; [#uses=2 type=%struct.ap_uint.30**]
  store %struct.ap_uint.30* %this, %struct.ap_uint.30** %1, align 4
  call void @llvm.dbg.declare(metadata !{%struct.ap_uint.30** %1}, metadata !10945), !dbg !10946 ; [debug line = 173:52] [debug variable = this]
  store %struct.ap_uint.30* %op2, %struct.ap_uint.30** %2, align 4
  call void @llvm.dbg.declare(metadata !{%struct.ap_uint.30** %2}, metadata !10947), !dbg !10948 ; [debug line = 173:85] [debug variable = op2]
  %3 = load %struct.ap_uint.30** %1               ; [#uses=2 type=%struct.ap_uint.30*]
  %4 = load %struct.ap_uint.30** %2, align 4, !dbg !10949 ; [#uses=1 type=%struct.ap_uint.30*] [debug line = 174:10]
  %5 = bitcast %struct.ap_uint.30* %4 to %struct.ssdm_int.32*, !dbg !10949 ; [#uses=1 type=%struct.ssdm_int.32*] [debug line = 174:10]
  %6 = getelementptr inbounds %struct.ssdm_int.32* %5, i32 0, i32 0, !dbg !10949 ; [#uses=1 type=i24*] [debug line = 174:10]
  %7 = load i24* %6, align 4, !dbg !10949         ; [#uses=1 type=i24] [debug line = 174:10]
  %8 = bitcast %struct.ap_uint.30* %3 to %struct.ap_int_base.31*, !dbg !10949 ; [#uses=1 type=%struct.ap_int_base.31*] [debug line = 174:10]
  %9 = bitcast %struct.ap_int_base.31* %8 to %struct.ssdm_int.32*, !dbg !10949 ; [#uses=1 type=%struct.ssdm_int.32*] [debug line = 174:10]
  %10 = getelementptr inbounds %struct.ssdm_int.32* %9, i32 0, i32 0, !dbg !10949 ; [#uses=1 type=i24*] [debug line = 174:10]
  store i24 %7, i24* %10, align 4, !dbg !10949    ; [debug line = 174:10]
  ret %struct.ap_uint.30* %3, !dbg !10951         ; [debug line = 175:10]
}

; [#uses=2]
define linkonce_odr void @_ZN6ap_intILi24EEC1ILi24ELb1EEERK11ap_int_baseIXT_EXT0_EXleT_Li64EEE(%struct.ap_uint.30* %this, %struct.ap_int_base.31* %op) unnamed_addr nounwind inlinehint alwaysinline align 2 {
  %1 = alloca %struct.ap_uint.30*, align 4        ; [#uses=2 type=%struct.ap_uint.30**]
  %2 = alloca %struct.ap_int_base.31*, align 4    ; [#uses=2 type=%struct.ap_int_base.31**]
  store %struct.ap_uint.30* %this, %struct.ap_uint.30** %1, align 4
  call void @llvm.dbg.declare(metadata !{%struct.ap_uint.30** %1}, metadata !10952), !dbg !10953 ; [debug line = 121:43] [debug variable = this]
  store %struct.ap_int_base.31* %op, %struct.ap_int_base.31** %2, align 4
  call void @llvm.dbg.declare(metadata !{%struct.ap_int_base.31** %2}, metadata !10954), !dbg !10955 ; [debug line = 121:85] [debug variable = op]
  %3 = load %struct.ap_uint.30** %1               ; [#uses=1 type=%struct.ap_uint.30*]
  %4 = load %struct.ap_int_base.31** %2, !dbg !10956 ; [#uses=1 type=%struct.ap_int_base.31*] [debug line = 121:106]
  call void @_ZN6ap_intILi24EEC2ILi24ELb1EEERK11ap_int_baseIXT_EXT0_EXleT_Li64EEE(%struct.ap_uint.30* %3, %struct.ap_int_base.31* %4), !dbg !10956 ; [debug line = 121:106]
  ret void, !dbg !10956                           ; [debug line = 121:106]
}

; [#uses=2]
define linkonce_odr void @_ZplILi23ELb1ELi23ELb1EEN11ap_int_baseIXT_EXT0_EXleT_Li64EEE5RTypeIXT1_EXT2_EE4plusERKS1_RKS0_IXT1_EXT2_EXleT1_Li64EEE(%struct.ap_int_base.31* noalias sret %agg.result, %struct.ap_int_base.28* %op, %struct.ap_int_base.28* %op2) nounwind inlinehint alwaysinline {
  %1 = alloca %struct.ap_int_base.28*, align 4    ; [#uses=2 type=%struct.ap_int_base.28**]
  %2 = alloca %struct.ap_int_base.28*, align 4    ; [#uses=2 type=%struct.ap_int_base.28**]
  %lhs = alloca %struct.ap_int_base.31, align 4   ; [#uses=2 type=%struct.ap_int_base.31*]
  %rhs = alloca %struct.ap_int_base.31, align 4   ; [#uses=2 type=%struct.ap_int_base.31*]
  store %struct.ap_int_base.28* %op, %struct.ap_int_base.28** %1, align 4
  call void @llvm.dbg.declare(metadata !{%struct.ap_int_base.28** %1}, metadata !10957), !dbg !10958 ; [debug line = 3369:216] [debug variable = op]
  store %struct.ap_int_base.28* %op2, %struct.ap_int_base.28** %2, align 4
  call void @llvm.dbg.declare(metadata !{%struct.ap_int_base.28** %2}, metadata !10959), !dbg !10960 ; [debug line = 3369:254] [debug variable = op2]
  call void @llvm.dbg.declare(metadata !{%struct.ap_int_base.31* %lhs}, metadata !10961), !dbg !10963 ; [debug line = 3369:0] [debug variable = lhs]
  %3 = load %struct.ap_int_base.28** %1, align 4, !dbg !10963 ; [#uses=1 type=%struct.ap_int_base.28*] [debug line = 3369:0]
  call void @_ZN11ap_int_baseILi24ELb1ELb1EEC1ILi23ELb1EEERKS_IXT_EXT0_EXleT_Li64EEE(%struct.ap_int_base.31* %lhs, %struct.ap_int_base.28* %3), !dbg !10963 ; [debug line = 3369:0]
  call void @llvm.dbg.declare(metadata !{%struct.ap_int_base.31* %rhs}, metadata !10964), !dbg !10963 ; [debug line = 3369:0] [debug variable = rhs]
  %4 = load %struct.ap_int_base.28** %2, align 4, !dbg !10963 ; [#uses=1 type=%struct.ap_int_base.28*] [debug line = 3369:0]
  call void @_ZN11ap_int_baseILi24ELb1ELb1EEC1ILi23ELb1EEERKS_IXT_EXT0_EXleT_Li64EEE(%struct.ap_int_base.31* %rhs, %struct.ap_int_base.28* %4), !dbg !10963 ; [debug line = 3369:0]
  call void @llvm.dbg.declare(metadata !{%struct.ap_int_base.31* %agg.result}, metadata !10965), !dbg !10963 ; [debug line = 3369:0] [debug variable = r]
  call void @_ZN11ap_int_baseILi24ELb1ELb1EEC1Ev(%struct.ap_int_base.31* %agg.result), !dbg !10963 ; [debug line = 3369:0]
  %5 = bitcast %struct.ap_int_base.31* %lhs to %struct.ssdm_int.32*, !dbg !10963 ; [#uses=1 type=%struct.ssdm_int.32*] [debug line = 3369:0]
  %6 = getelementptr inbounds %struct.ssdm_int.32* %5, i32 0, i32 0, !dbg !10963 ; [#uses=1 type=i24*] [debug line = 3369:0]
  %7 = load i24* %6, align 4, !dbg !10963         ; [#uses=1 type=i24] [debug line = 3369:0]
  %8 = sext i24 %7 to i32, !dbg !10963            ; [#uses=1 type=i32] [debug line = 3369:0]
  %9 = bitcast %struct.ap_int_base.31* %rhs to %struct.ssdm_int.32*, !dbg !10963 ; [#uses=1 type=%struct.ssdm_int.32*] [debug line = 3369:0]
  %10 = getelementptr inbounds %struct.ssdm_int.32* %9, i32 0, i32 0, !dbg !10963 ; [#uses=1 type=i24*] [debug line = 3369:0]
  %11 = load i24* %10, align 4, !dbg !10963       ; [#uses=1 type=i24] [debug line = 3369:0]
  %12 = sext i24 %11 to i32, !dbg !10963          ; [#uses=1 type=i32] [debug line = 3369:0]
  %13 = add nsw i32 %8, %12, !dbg !10963          ; [#uses=1 type=i32] [debug line = 3369:0]
