; ModuleID = '/home/ece492fa18/RFNoCFrameSynchHWAccel/correlatorDev/correlator/solution1/.autopilot/db/a.g.1.bc'
target datalayout = "e-p:64:64:64-i1:8:8-i8:8:8-i16:16:16-i32:32:32-i64:64:64-f32:32:32-f64:64:64-v64:64:64-v128:128:128-a0:0:64-s0:64:64-f80:128:128-n8:16:32:64-S128"
target triple = "x86_64-unknown-linux-gnu"

%struct.ap_fixed.5.11 = type { %struct.ap_fixed_base.6.10 }
%struct.ap_fixed_base.6.10 = type { %struct.ssdm_int.7.9 }
%struct.ssdm_int.7.9 = type { i16 }
%struct.ap_uint.8.14 = type { %struct.ap_int_base.9.13 }
%struct.ap_int_base.9.13 = type { %struct.ssdm_int.10.12 }
%struct.ssdm_int.10.12 = type { i4 }
%struct.ap_fixed.6 = type { %struct.ap_fixed_base.5 }
%struct.ap_fixed_base.5 = type { %struct.ssdm_int.2.4 }
%struct.ssdm_int.2.4 = type { i32 }
%struct.ap_int.3 = type { %struct.ap_int_base.2 }
%struct.ap_int_base.2 = type { %struct.ssdm_int.1 }
%struct.ssdm_int.1 = type { i2 }
%class.correlate.8 = type { [16 x %struct.phase.7], [16 x %struct.ap_fixed.6], [16 x %struct.ap_fixed.6], [16 x %struct.ap_fixed.6], [16 x %struct.ap_fixed.6], [16 x %struct.ap_fixed.6], [16 x %struct.ap_fixed.6], [16 x %struct.ap_fixed.6], [16 x %struct.ap_fixed.6], [16 x %struct.ap_fixed.6], [16 x %struct.ap_fixed.6], [16 x %struct.ap_fixed.6], [16 x %struct.ap_fixed.6], [16 x %struct.ap_fixed.6], [16 x %struct.ap_fixed.6], [16 x %struct.ap_fixed.6], [16 x %struct.ap_fixed.6] }
%struct.phase.7 = type { [16 x %struct.ap_fixed.6] }
%"class.hls::stream.19" = type { %struct.rfnoc_axis.18 }
%struct.rfnoc_axis.18 = type { %struct.ap_fixed.6, %struct.ap_uint.17 }
%struct.ap_uint.17 = type { %struct.ap_int_base.3.16 }
%struct.ap_int_base.3.16 = type { %struct.ssdm_int.4.15 }
%struct.ssdm_int.4.15 = type { i1 }
%struct.ap_uint.11.23 = type { %struct.ap_int_base.12.22 }
%struct.ap_int_base.12.22 = type { %struct.ssdm_int.13.21 }
%struct.ssdm_int.13.21 = type { i5 }

@unScalled = internal global %struct.ap_fixed.5.11 zeroinitializer, align 2 ; [#uses=2 type=%struct.ap_fixed.5.11*]
@phaseClass = internal global %struct.ap_uint.8.14 zeroinitializer, align 1 ; [#uses=2 type=%struct.ap_uint.8.14*]
@newVal = internal global %struct.ap_fixed.6 zeroinitializer, align 4 ; [#uses=2 type=%struct.ap_fixed.6*]
@loadCount = internal global %struct.ap_fixed.6 zeroinitializer, align 4 ; [#uses=2 type=%struct.ap_fixed.6*]
@llvm.global_ctors = appending global [1 x { i32, void ()* }] [{ i32, void ()* } { i32 65535, void ()* @_GLOBAL__I_a }] ; [#uses=0 type=[1 x { i32, void ()* }]*]
@currentState = internal unnamed_addr global i1 false, align 1 ; [#uses=3 type=i1*]
@correlateTop.str = internal unnamed_addr constant [13 x i8] c"correlateTop\00" ; [#uses=1 type=[13 x i8]*]
@corrSeq = internal constant [16 x %struct.ap_int.3] [%struct.ap_int.3 { %struct.ap_int_base.2 { %struct.ssdm_int.1 { i2 -1 } } }, %struct.ap_int.3 { %struct.ap_int_base.2 { %struct.ssdm_int.1 { i2 -1 } } }, %struct.ap_int.3 { %struct.ap_int_base.2 { %struct.ssdm_int.1 { i2 -1 } } }, %struct.ap_int.3 { %struct.ap_int_base.2 { %struct.ssdm_int.1 { i2 1 } } }, %struct.ap_int.3 { %struct.ap_int_base.2 { %struct.ssdm_int.1 { i2 -1 } } }, %struct.ap_int.3 { %struct.ap_int_base.2 { %struct.ssdm_int.1 { i2 -1 } } }, %struct.ap_int.3 { %struct.ap_int_base.2 { %struct.ssdm_int.1 { i2 1 } } }, %struct.ap_int.3 { %struct.ap_int_base.2 { %struct.ssdm_int.1 { i2 1 } } }, %struct.ap_int.3 { %struct.ap_int_base.2 { %struct.ssdm_int.1 { i2 1 } } }, %struct.ap_int.3 { %struct.ap_int_base.2 { %struct.ssdm_int.1 { i2 1 } } }, %struct.ap_int.3 { %struct.ap_int_base.2 { %struct.ssdm_int.1 { i2 -1 } } }, %struct.ap_int.3 { %struct.ap_int_base.2 { %struct.ssdm_int.1 { i2 -1 } } }, %struct.ap_int.3 { %struct.ap_int_base.2 { %struct.ssdm_int.1 { i2 -1 } } }, %struct.ap_int.3 { %struct.ap_int_base.2 { %struct.ssdm_int.1 { i2 1 } } }, %struct.ap_int.3 { %struct.ap_int_base.2 { %struct.ssdm_int.1 { i2 1 } } }, %struct.ap_int.3 { %struct.ap_int_base.2 { %struct.ssdm_int.1 { i2 -1 } } }], align 16 ; [#uses=2 type=[16 x %struct.ap_int.3]*]
@corHelperQ = internal constant %struct.ap_fixed.6 zeroinitializer, align 4 ; [#uses=1 type=%struct.ap_fixed.6*]
@corHelperI = internal constant %struct.ap_fixed.6 zeroinitializer, align 4 ; [#uses=1 type=%struct.ap_fixed.6*]
@cor = internal global %class.correlate.8 zeroinitializer, align 4 ; [#uses=21 type=%class.correlate.8*]
@.str7 = private unnamed_addr constant [15 x i8] c"correlateData0\00", align 1 ; [#uses=1 type=[15 x i8]*]
@.str6 = private unnamed_addr constant [12 x i8] c"SHIFT_DATA0\00", align 1 ; [#uses=1 type=[12 x i8]*]
@.str5 = private unnamed_addr constant [9 x i8] c"COMPLETE\00", align 1 ; [#uses=1 type=[9 x i8]*]
@.str4 = private unnamed_addr constant [5 x i8] c"both\00", align 1 ; [#uses=1 type=[5 x i8]*]
@.str3 = private unnamed_addr constant [5 x i8] c"axis\00", align 1 ; [#uses=1 type=[5 x i8]*]
@.str2 = private unnamed_addr constant [1 x i8] zeroinitializer, align 1 ; [#uses=1 type=[1 x i8]*]
@.str = private unnamed_addr constant [13 x i8] c"ap_ctrl_none\00", align 1 ; [#uses=1 type=[13 x i8]*]

; [#uses=1]
declare i32 @llvm.part.select.i32(i32, i32, i32) nounwind readnone

; [#uses=43]
declare void @llvm.dbg.value(metadata, i64, metadata) nounwind readnone

; [#uses=10]
declare void @llvm.dbg.declare(metadata, metadata) nounwind readnone

; [#uses=0]
define void @correlateTop(%"class.hls::stream.19"* %i_data, %"class.hls::stream.19"* %o_data) nounwind uwtable {
codeRepl:
  call void (...)* @_ssdm_op_SpecTopModule([13 x i8]* @correlateTop.str) nounwind
  %tmp.1 = alloca %struct.rfnoc_axis.18, align 4  ; [#uses=3 type=%struct.rfnoc_axis.18*]
  %tmp.11 = alloca %struct.rfnoc_axis.18, align 4 ; [#uses=3 type=%struct.rfnoc_axis.18*]
  %0 = alloca %struct.ap_fixed.6, align 4         ; [#uses=2 type=%struct.ap_fixed.6*]
  %this.assign = alloca %struct.ap_uint.11.23, align 1 ; [#uses=2 type=%struct.ap_uint.11.23*]
  %op.assign = alloca %struct.ap_fixed.6, align 4 ; [#uses=2 type=%struct.ap_fixed.6*]
  %this.assign.1 = alloca %struct.ap_uint.11.23, align 1 ; [#uses=2 type=%struct.ap_uint.11.23*]
  call void @llvm.dbg.declare(metadata !{%"class.hls::stream.19"* %i_data}, metadata !8272), !dbg !8273 ; [debug line = 10:43] [debug variable = i_data]
  call void @llvm.dbg.declare(metadata !{%"class.hls::stream.19"* %o_data}, metadata !8274), !dbg !8275 ; [debug line = 10:75] [debug variable = o_data]
  call void (...)* @_ssdm_op_SpecInterface(i32 0, i8* getelementptr inbounds ([13 x i8]* @.str, i64 0, i64 0), i32 0, i32 0, i8* getelementptr inbounds ([1 x i8]* @.str2, i64 0, i64 0), i32 0, i32 0, i8* getelementptr inbounds ([1 x i8]* @.str2, i64 0, i64 0), i8* getelementptr inbounds ([1 x i8]* @.str2, i64 0, i64 0), i8* getelementptr inbounds ([1 x i8]* @.str2, i64 0, i64 0), i32 0, i32 0, i32 0, i32 0, i8* getelementptr inbounds ([1 x i8]* @.str2, i64 0, i64 0), i8* getelementptr inbounds ([1 x i8]* @.str2, i64 0, i64 0)) nounwind, !dbg !8276 ; [debug line = 14:1]
  call void (...)* @_ssdm_op_SpecInterface(%"class.hls::stream.19"* %o_data, i8* getelementptr inbounds ([5 x i8]* @.str3, i64 0, i64 0), i32 1, i32 1, i8* getelementptr inbounds ([5 x i8]* @.str4, i64 0, i64 0), i32 0, i32 0, i8* getelementptr inbounds ([1 x i8]* @.str2, i64 0, i64 0), i8* getelementptr inbounds ([1 x i8]* @.str2, i64 0, i64 0), i8* getelementptr inbounds ([1 x i8]* @.str2, i64 0, i64 0), i32 0, i32 0, i32 0, i32 0, i8* getelementptr inbounds ([1 x i8]* @.str2, i64 0, i64 0), i8* getelementptr inbounds ([1 x i8]* @.str2, i64 0, i64 0)) nounwind, !dbg !8278 ; [debug line = 15:1]
  call void (...)* @_ssdm_op_SpecInterface(%"class.hls::stream.19"* %i_data, i8* getelementptr inbounds ([5 x i8]* @.str3, i64 0, i64 0), i32 1, i32 1, i8* getelementptr inbounds ([5 x i8]* @.str4, i64 0, i64 0), i32 0, i32 0, i8* getelementptr inbounds ([1 x i8]* @.str2, i64 0, i64 0), i8* getelementptr inbounds ([1 x i8]* @.str2, i64 0, i64 0), i8* getelementptr inbounds ([1 x i8]* @.str2, i64 0, i64 0), i32 0, i32 0, i32 0, i32 0, i8* getelementptr inbounds ([1 x i8]* @.str2, i64 0, i64 0), i8* getelementptr inbounds ([1 x i8]* @.str2, i64 0, i64 0)) nounwind, !dbg !8279 ; [debug line = 16:1]
  call void (...)* @_ssdm_op_SpecPipeline(i32 1, i32 1, i32 1, i32 0, i8* getelementptr inbounds ([1 x i8]* @.str2, i64 0, i64 0)) nounwind, !dbg !8280 ; [debug line = 18:1]
  call void (...)* @_ssdm_SpecArrayPartition(%struct.ap_fixed.6* getelementptr inbounds (%class.correlate.8* @cor, i64 0, i32 1, i64 0), i32 1, i8* getelementptr inbounds ([9 x i8]* @.str5, i64 0, i64 0), i32 0, i8* getelementptr inbounds ([1 x i8]* @.str2, i64 0, i64 0)) nounwind, !dbg !8281 ; [debug line = 22:1]
  call void (...)* @_ssdm_SpecArrayPartition(%struct.ap_fixed.6* getelementptr inbounds (%class.correlate.8* @cor, i64 0, i32 2, i64 0), i32 1, i8* getelementptr inbounds ([9 x i8]* @.str5, i64 0, i64 0), i32 0, i8* getelementptr inbounds ([1 x i8]* @.str2, i64 0, i64 0)) nounwind, !dbg !8282 ; [debug line = 23:1]
  call void (...)* @_ssdm_SpecArrayPartition(%struct.ap_fixed.6* getelementptr inbounds (%class.correlate.8* @cor, i64 0, i32 3, i64 0), i32 1, i8* getelementptr inbounds ([9 x i8]* @.str5, i64 0, i64 0), i32 0, i8* getelementptr inbounds ([1 x i8]* @.str2, i64 0, i64 0)) nounwind, !dbg !8283 ; [debug line = 24:1]
  call void (...)* @_ssdm_SpecArrayPartition(%struct.ap_fixed.6* getelementptr inbounds (%class.correlate.8* @cor, i64 0, i32 4, i64 0), i32 1, i8* getelementptr inbounds ([9 x i8]* @.str5, i64 0, i64 0), i32 0, i8* getelementptr inbounds ([1 x i8]* @.str2, i64 0, i64 0)) nounwind, !dbg !8284 ; [debug line = 25:1]
  call void (...)* @_ssdm_SpecArrayPartition(%struct.ap_fixed.6* getelementptr inbounds (%class.correlate.8* @cor, i64 0, i32 5, i64 0), i32 1, i8* getelementptr inbounds ([9 x i8]* @.str5, i64 0, i64 0), i32 0, i8* getelementptr inbounds ([1 x i8]* @.str2, i64 0, i64 0)) nounwind, !dbg !8285 ; [debug line = 26:1]
  call void (...)* @_ssdm_SpecArrayPartition(%struct.ap_fixed.6* getelementptr inbounds (%class.correlate.8* @cor, i64 0, i32 6, i64 0), i32 1, i8* getelementptr inbounds ([9 x i8]* @.str5, i64 0, i64 0), i32 0, i8* getelementptr inbounds ([1 x i8]* @.str2, i64 0, i64 0)) nounwind, !dbg !8286 ; [debug line = 27:1]
  call void (...)* @_ssdm_SpecArrayPartition(%struct.ap_fixed.6* getelementptr inbounds (%class.correlate.8* @cor, i64 0, i32 7, i64 0), i32 1, i8* getelementptr inbounds ([9 x i8]* @.str5, i64 0, i64 0), i32 0, i8* getelementptr inbounds ([1 x i8]* @.str2, i64 0, i64 0)) nounwind, !dbg !8287 ; [debug line = 28:1]
  call void (...)* @_ssdm_SpecArrayPartition(%struct.ap_fixed.6* getelementptr inbounds (%class.correlate.8* @cor, i64 0, i32 8, i64 0), i32 1, i8* getelementptr inbounds ([9 x i8]* @.str5, i64 0, i64 0), i32 0, i8* getelementptr inbounds ([1 x i8]* @.str2, i64 0, i64 0)) nounwind, !dbg !8288 ; [debug line = 29:1]
  call void (...)* @_ssdm_SpecArrayPartition(%struct.ap_fixed.6* getelementptr inbounds (%class.correlate.8* @cor, i64 0, i32 9, i64 0), i32 1, i8* getelementptr inbounds ([9 x i8]* @.str5, i64 0, i64 0), i32 0, i8* getelementptr inbounds ([1 x i8]* @.str2, i64 0, i64 0)) nounwind, !dbg !8289 ; [debug line = 30:1]
  call void (...)* @_ssdm_SpecArrayPartition(%struct.ap_fixed.6* getelementptr inbounds (%class.correlate.8* @cor, i64 0, i32 10, i64 0), i32 1, i8* getelementptr inbounds ([9 x i8]* @.str5, i64 0, i64 0), i32 0, i8* getelementptr inbounds ([1 x i8]* @.str2, i64 0, i64 0)) nounwind, !dbg !8290 ; [debug line = 31:1]
  call void (...)* @_ssdm_SpecArrayPartition(%struct.ap_fixed.6* getelementptr inbounds (%class.correlate.8* @cor, i64 0, i32 11, i64 0), i32 1, i8* getelementptr inbounds ([9 x i8]* @.str5, i64 0, i64 0), i32 0, i8* getelementptr inbounds ([1 x i8]* @.str2, i64 0, i64 0)) nounwind, !dbg !8291 ; [debug line = 32:1]
  call void (...)* @_ssdm_SpecArrayPartition(%struct.ap_fixed.6* getelementptr inbounds (%class.correlate.8* @cor, i64 0, i32 12, i64 0), i32 1, i8* getelementptr inbounds ([9 x i8]* @.str5, i64 0, i64 0), i32 0, i8* getelementptr inbounds ([1 x i8]* @.str2, i64 0, i64 0)) nounwind, !dbg !8292 ; [debug line = 33:1]
  call void (...)* @_ssdm_SpecArrayPartition(%struct.ap_fixed.6* getelementptr inbounds (%class.correlate.8* @cor, i64 0, i32 13, i64 0), i32 1, i8* getelementptr inbounds ([9 x i8]* @.str5, i64 0, i64 0), i32 0, i8* getelementptr inbounds ([1 x i8]* @.str2, i64 0, i64 0)) nounwind, !dbg !8293 ; [debug line = 34:1]
  call void (...)* @_ssdm_SpecArrayPartition(%struct.ap_fixed.6* getelementptr inbounds (%class.correlate.8* @cor, i64 0, i32 14, i64 0), i32 1, i8* getelementptr inbounds ([9 x i8]* @.str5, i64 0, i64 0), i32 0, i8* getelementptr inbounds ([1 x i8]* @.str2, i64 0, i64 0)) nounwind, !dbg !8294 ; [debug line = 35:1]
  call void (...)* @_ssdm_SpecArrayPartition(%struct.ap_fixed.6* getelementptr inbounds (%class.correlate.8* @cor, i64 0, i32 15, i64 0), i32 1, i8* getelementptr inbounds ([9 x i8]* @.str5, i64 0, i64 0), i32 0, i8* getelementptr inbounds ([1 x i8]* @.str2, i64 0, i64 0)) nounwind, !dbg !8295 ; [debug line = 36:1]
  call void (...)* @_ssdm_SpecArrayPartition(%struct.ap_fixed.6* getelementptr inbounds (%class.correlate.8* @cor, i64 0, i32 16, i64 0), i32 1, i8* getelementptr inbounds ([9 x i8]* @.str5, i64 0, i64 0), i32 0, i8* getelementptr inbounds ([1 x i8]* @.str2, i64 0, i64 0)) nounwind, !dbg !8296 ; [debug line = 37:1]
  call void (...)* @_ssdm_SpecArrayPartition(%struct.ap_int.3* getelementptr inbounds ([16 x %struct.ap_int.3]* @corrSeq, i64 0, i64 0), i32 1, i8* getelementptr inbounds ([9 x i8]* @.str5, i64 0, i64 0), i32 0, i8* getelementptr inbounds ([1 x i8]* @.str2, i64 0, i64 0)) nounwind, !dbg !8297 ; [debug line = 39:1]
  call void (...)* @_ssdm_op_SpecReset(%struct.ap_fixed.6* @newVal, i32 1, i8* getelementptr inbounds ([1 x i8]* @.str2, i64 0, i64 0)) nounwind, !dbg !8298 ; [debug line = 42:1]
  call void (...)* @_ssdm_op_SpecReset(%struct.ap_fixed.5.11* @unScalled, i32 1, i8* getelementptr inbounds ([1 x i8]* @.str2, i64 0, i64 0)) nounwind, !dbg !8299 ; [debug line = 45:1]
  call void (...)* @_ssdm_op_SpecReset(%struct.ap_fixed.6* @loadCount, i32 1, i8* getelementptr inbounds ([1 x i8]* @.str2, i64 0, i64 0)) nounwind, !dbg !8300 ; [debug line = 52:1]
  call void (...)* @_ssdm_op_SpecReset(%struct.ap_fixed.6* @corHelperI, i32 1, i8* getelementptr inbounds ([1 x i8]* @.str2, i64 0, i64 0)) nounwind, !dbg !8301 ; [debug line = 57:1]
  call void (...)* @_ssdm_op_SpecReset(%struct.ap_fixed.6* @corHelperQ, i32 1, i8* getelementptr inbounds ([1 x i8]* @.str2, i64 0, i64 0)) nounwind, !dbg !8302 ; [debug line = 60:1]
  call void (...)* @_ssdm_op_SpecReset(%struct.ap_uint.8.14* @phaseClass, i32 1, i8* getelementptr inbounds ([1 x i8]* @.str2, i64 0, i64 0)) nounwind, !dbg !8303 ; [debug line = 63:1]
  %currentState.load = load i1* @currentState, align 1, !dbg !8304 ; [#uses=1 type=i1] [debug line = 69:1]
  %tmp = zext i1 %currentState.load to i32, !dbg !8304 ; [#uses=2 type=i32] [debug line = 69:1]
  call void (...)* @_ssdm_op_SpecReset(i32 %tmp, i32 1, i8* getelementptr inbounds ([1 x i8]* @.str2, i64 0, i64 0)) nounwind, !dbg !8304 ; [debug line = 69:1]
  switch i32 %tmp, label %._crit_edge160 [
    i32 0, label %1
    i32 1, label %2
  ], !dbg !8305                                   ; [debug line = 75:1]

; <label>:1                                       ; preds = %codeRepl
  store i32 0, i32* getelementptr inbounds (%struct.ap_fixed.6* @loadCount, i64 0, i32 0, i32 0, i32 0), align 4, !dbg !8306 ; [debug line = 174:5@78:4]
  store i4 0, i4* getelementptr inbounds (%struct.ap_uint.8.14* @phaseClass, i64 0, i32 0, i32 0, i32 0), align 1, !dbg !8310 ; [debug line = 281:5@79:4]
  store i1 true, i1* @currentState, align 1, !dbg !8313 ; [debug line = 80:3]
  br label %._crit_edge160, !dbg !8314            ; [debug line = 82:2]

; <label>:2                                       ; preds = %codeRepl
  call void @llvm.dbg.value(metadata !{%"class.hls::stream.19"* %i_data}, i64 0, metadata !8315), !dbg !8317 ; [debug line = 123:48@84:3] [debug variable = this]
  call void @llvm.dbg.declare(metadata !{%struct.rfnoc_axis.18* %tmp.1}, metadata !8319) nounwind, !dbg !8321 ; [debug line = 124:22@84:3] [debug variable = tmp]
  %i_data.addr = getelementptr inbounds %"class.hls::stream.19"* %i_data, i64 0, i32 0, !dbg !8322 ; [#uses=1 type=%struct.rfnoc_axis.18*] [debug line = 125:9@84:3]
  call void @"_ssdm_op_IfRead.Stream.%struct.rfnoc_axis.18 = type { %struct.ap_fixed.6, %struct.ap_uint.17 }P.%struct.rfnoc_axis.18 = type { %struct.ap_fixed.6, %struct.ap_uint.17 }P"(%struct.rfnoc_axis.18* %i_data.addr, %struct.rfnoc_axis.18* %tmp.1) nounwind, !dbg !8322 ; [debug line = 125:9@84:3]
  %tmp.1.addr = getelementptr inbounds %struct.rfnoc_axis.18* %tmp.1, i64 0, i32 0, i32 0, i32 0, i32 0, !dbg !8323 ; [#uses=1 type=i32*] [debug line = 174:5@6:9@126:9@84:3]
  %__Val2__ = load i32* %tmp.1.addr, align 4, !dbg !8323 ; [#uses=3 type=i32] [debug line = 174:5@6:9@126:9@84:3]
  call void (...)* @_ssdm_SpecKeepArrayLoad(i32 %__Val2__) nounwind
  %tmp.1.addr.1 = getelementptr inbounds %struct.rfnoc_axis.18* %tmp.1, i64 0, i32 1, i32 0, i32 0, i32 0, !dbg !8327 ; [#uses=1 type=i1*] [debug line = 281:5@6:9@126:9@84:3]
  %out_sample.last.V = load i1* %tmp.1.addr.1, align 4, !dbg !8327 ; [#uses=4 type=i1] [debug line = 281:5@6:9@126:9@84:3]
  call void (...)* @_ssdm_SpecKeepArrayLoad(i1 %out_sample.last.V) nounwind
  call void (...)* @_ssdm_SpecKeepArrayLoad(i1 %out_sample.last.V) nounwind
  call void @llvm.dbg.value(metadata !{i1 %out_sample.last.V}, i64 0, metadata !8329), !dbg !8339 ; [debug line = 281:5@85:3] [debug variable = out_sample.last.V]
  call void (...)* @_ssdm_SpecKeepArrayLoad(i32 %__Val2__) nounwind
  call void @llvm.dbg.value(metadata !{i32 %__Val2__}, i64 0, metadata !8341), !dbg !8344 ; [debug line = 1207:89@946:12@87:17] [debug variable = __Val2__]
  %__Result__ = call i32 @llvm.part.select.i32(i32 %__Val2__, i32 0, i32 15) nounwind, !dbg !8348 ; [#uses=1 type=i32] [debug line = 1207:91@946:12@87:17]
  call void @llvm.dbg.value(metadata !{i32 %__Result__}, i64 0, metadata !8349), !dbg !8348 ; [debug line = 1207:91@946:12@87:17] [debug variable = __Result__]
  %__Val2__.1 = trunc i32 %__Result__ to i16, !dbg !8347 ; [#uses=5 type=i16] [debug line = 87:17]
  store i16 %__Val2__.1, i16* getelementptr inbounds (%struct.ap_fixed.5.11* @unScalled, i64 0, i32 0, i32 0, i32 0), align 2, !dbg !8347 ; [debug line = 87:17]
  call void (...)* @_ssdm_SpecKeepArrayLoad(i16 %__Val2__.1) nounwind
  call void (...)* @_ssdm_SpecKeepArrayLoad(i16 %__Val2__.1) nounwind
  call void @llvm.dbg.value(metadata !{i16 %__Val2__.1}, i64 0, metadata !8350) nounwind, !dbg !8356 ; [debug line = 675:0@301:46@301:47@88:3] [debug variable = __Val2__]
  call void (...)* @_ssdm_SpecKeepArrayLoad(i16 %__Val2__.1) nounwind
  %tmp.3 = sext i16 %__Val2__.1 to i32, !dbg !8357 ; [#uses=2 type=i32] [debug line = 701:13@301:46@301:47@88:3]
  call void (...)* @_ssdm_SpecKeepArrayLoad(i32 %tmp.3) nounwind
  %tmp.4 = shl nsw i32 %tmp.3, 5, !dbg !8359      ; [#uses=4 type=i32] [debug line = 703:17@301:46@301:47@88:3]
  call void (...)* @_ssdm_SpecKeepArrayLoad(i32 %tmp.4) nounwind
  store i32 %tmp.4, i32* getelementptr inbounds (%struct.ap_fixed.6* @newVal, i64 0, i32 0, i32 0, i32 0), align 4, !dbg !8360 ; [debug line = 388:5@88:3]
  %.addr = getelementptr inbounds %struct.ap_fixed.6* %0, i64 0, i32 0, i32 0, i32 0, !dbg !8362 ; [#uses=1 type=i32*] [debug line = 94:3]
  call void (...)* @_ssdm_SpecKeepArrayLoad(i32 %tmp.4) nounwind
  store i32 %tmp.4, i32* %.addr, align 4, !dbg !8362 ; [debug line = 94:3]
  call void @llvm.dbg.value(metadata !{%struct.ap_uint.11.23* %this.assign}, i64 0, metadata !8363), !dbg !8365 ; [debug line = 188:41@94:3] [debug variable = this]
  call void @llvm.dbg.value(metadata !{%struct.ap_uint.11.23* %this.assign}, i64 0, metadata !8366), !dbg !8367 ; [debug line = 188:41@188:94@94:3] [debug variable = this]
  %phaseClass.load = load i4* getelementptr inbounds (%struct.ap_uint.8.14* @phaseClass, i64 0, i32 0, i32 0, i32 0), align 1, !dbg !8369 ; [#uses=2 type=i4] [debug line = 188:78@188:94@94:3]
  call void (...)* @_ssdm_SpecKeepArrayLoad(i4 %phaseClass.load) nounwind
  %tmp.5 = zext i4 %phaseClass.load to i5, !dbg !8369 ; [#uses=1 type=i5] [debug line = 188:78@188:94@94:3]
  %this.assign.addr = getelementptr inbounds %struct.ap_uint.11.23* %this.assign, i64 0, i32 0, i32 0, i32 0, !dbg !8369 ; [#uses=1 type=i5*] [debug line = 188:78@188:94@94:3]
  store i5 %tmp.5, i5* %this.assign.addr, align 1, !dbg !8369 ; [debug line = 188:78@188:94@94:3]
  call fastcc void @"correlate::shiftPhaseClass"(%struct.ap_fixed.6* byval align 8 %0, %struct.ap_uint.11.23* byval align 8 %this.assign), !dbg !8362 ; [debug line = 94:3]
  call void @llvm.dbg.value(metadata !{%struct.ap_uint.11.23* %this.assign.1}, i64 0, metadata !8363), !dbg !8371 ; [debug line = 188:41@95:9] [debug variable = this]
  call void @llvm.dbg.value(metadata !{%struct.ap_uint.11.23* %this.assign.1}, i64 0, metadata !8366), !dbg !8373 ; [debug line = 188:41@188:94@95:9] [debug variable = this]
  %phaseClass.load.1 = load i4* getelementptr inbounds (%struct.ap_uint.8.14* @phaseClass, i64 0, i32 0, i32 0, i32 0), align 1, !dbg !8375 ; [#uses=2 type=i4] [debug line = 188:78@188:94@95:9]
  call void (...)* @_ssdm_SpecKeepArrayLoad(i4 %phaseClass.load.1) nounwind
  %tmp.6 = zext i4 %phaseClass.load.1 to i5, !dbg !8375 ; [#uses=1 type=i5] [debug line = 188:78@188:94@95:9]
  %this.assign.1.addr = getelementptr inbounds %struct.ap_uint.11.23* %this.assign.1, i64 0, i32 0, i32 0, i32 0, !dbg !8375 ; [#uses=1 type=i5*] [debug line = 188:78@188:94@95:9]
  store i5 %tmp.6, i5* %this.assign.1.addr, align 1, !dbg !8375 ; [debug line = 188:78@188:94@95:9]
  call fastcc void @"correlate::correlator"(%struct.ap_fixed.6* sret %op.assign, %struct.ap_uint.11.23* byval align 8 %this.assign.1), !dbg !8372 ; [debug line = 95:9]
  call void @llvm.dbg.value(metadata !{%struct.ap_fixed.6* %op.assign}, i64 0, metadata !8376), !dbg !8377 ; [debug line = 387:19@95:9] [debug variable = op]
  %op.assign.addr = getelementptr inbounds %struct.ap_fixed.6* %op.assign, i64 0, i32 0, i32 0, i32 0, !dbg !8378 ; [#uses=1 type=i32*] [debug line = 388:5@95:9]
  %op.assign.load = load i32* %op.assign.addr, align 4, !dbg !8378 ; [#uses=3 type=i32] [debug line = 388:5@95:9]
  call void (...)* @_ssdm_SpecKeepArrayLoad(i32 %op.assign.load) nounwind
  %loadCount.load = load i32* getelementptr inbounds (%struct.ap_fixed.6* @loadCount, i64 0, i32 0, i32 0, i32 0), align 4, !dbg !8379 ; [#uses=2 type=i32] [debug line = 1506:93@1506:109@3424:0@3523:0@98:15]
  call void (...)* @_ssdm_SpecKeepArrayLoad(i32 %loadCount.load) nounwind
  %out_sample.data.V = add i32 %loadCount.load, 1, !dbg !8387 ; [#uses=2 type=i32] [debug line = 121:88@121:104@98:15]
  store i32 %out_sample.data.V, i32* getelementptr inbounds (%struct.ap_fixed.6* @loadCount, i64 0, i32 0, i32 0, i32 0), align 4, !dbg !8390 ; [debug line = 174:5@98:15]
  %phaseClass.load.2 = load i4* getelementptr inbounds (%struct.ap_uint.8.14* @phaseClass, i64 0, i32 0, i32 0, i32 0), align 1, !dbg !8391 ; [#uses=4 type=i4] [debug line = 2034:5@3559:0@99:6]
  call void (...)* @_ssdm_SpecKeepArrayLoad(i4 %phaseClass.load.2) nounwind
  %tmp.8 = icmp eq i4 %phaseClass.load.2, -1, !dbg !8391 ; [#uses=1 type=i1] [debug line = 2034:5@3559:0@99:6]
  br i1 %tmp.8, label %._crit_edge161, label %3, !dbg !8395 ; [debug line = 99:6]

; <label>:3                                       ; preds = %2
  call void (...)* @_ssdm_SpecKeepArrayLoad(i4 %phaseClass.load.2) nounwind
  %tmp.9 = add i4 %phaseClass.load.2, 1, !dbg !8396 ; [#uses=1 type=i4] [debug line = 229:89@229:104@102:17]
  br label %._crit_edge161

._crit_edge161:                                   ; preds = %3, %2
  %storemerge = phi i4 [ %tmp.9, %3 ], [ 0, %2 ]  ; [#uses=1 type=i4]
  store i4 %storemerge, i4* getelementptr inbounds (%struct.ap_uint.8.14* @phaseClass, i64 0, i32 0, i32 0, i32 0), align 1, !dbg !8401 ; [debug line = 281:5@100:4]
  call void (...)* @_ssdm_SpecKeepArrayLoad(i32 %op.assign.load) nounwind
  call void (...)* @_ssdm_SpecKeepArrayLoad(i32 29000) nounwind
  call void (...)* @_ssdm_SpecKeepArrayLoad(i32 29000) nounwind
  call void (...)* @_ssdm_SpecKeepArrayLoad(i42 29000) nounwind
  call void (...)* @_ssdm_SpecKeepArrayLoad(i42 29696000) nounwind
  %tmp.10 = icmp sgt i32 %op.assign.load, 29696000, !dbg !8404 ; [#uses=1 type=i1] [debug line = 1955:0@2350:0@105:6]
  br i1 %tmp.10, label %4, label %5, !dbg !8408   ; [debug line = 105:6]

; <label>:4                                       ; preds = %._crit_edge161
  call void (...)* @_ssdm_SpecKeepArrayLoad(i32 %out_sample.data.V) nounwind
  call void @llvm.dbg.value(metadata !{i32 %out_sample.data.V}, i64 0, metadata !8409), !dbg !8418 ; [debug line = 174:5@106:4] [debug variable = out_sample.data.V]
  br label %6, !dbg !8421                         ; [debug line = 108:3]

; <label>:5                                       ; preds = %._crit_edge161
  call void @llvm.dbg.value(metadata !{%"class.hls::stream.19"* %o_data}, i64 0, metadata !8422), !dbg !8423 ; [debug line = 144:48@110:4] [debug variable = this]
  call void @llvm.dbg.declare(metadata !{%struct.rfnoc_axis.18* %tmp.11}, metadata !8426) nounwind, !dbg !8428 ; [debug line = 145:22@110:4] [debug variable = tmp]
  %tmp.11.addr = getelementptr inbounds %struct.rfnoc_axis.18* %tmp.11, i64 0, i32 0, i32 0, i32 0, i32 0, !dbg !8429 ; [#uses=1 type=i32*] [debug line = 145:31@110:4]
  call void (...)* @_ssdm_SpecKeepArrayLoad(i32 0) nounwind
  store i32 0, i32* %tmp.11.addr, align 4, !dbg !8429 ; [debug line = 145:31@110:4]
  %tmp.11.addr.1 = getelementptr inbounds %struct.rfnoc_axis.18* %tmp.11, i64 0, i32 1, i32 0, i32 0, i32 0, !dbg !8429 ; [#uses=1 type=i1*] [debug line = 145:31@110:4]
  call void (...)* @_ssdm_SpecKeepArrayLoad(i1 %out_sample.last.V) nounwind
  store i1 %out_sample.last.V, i1* %tmp.11.addr.1, align 4, !dbg !8429 ; [debug line = 145:31@110:4]
  %o_data.addr = getelementptr inbounds %"class.hls::stream.19"* %o_data, i64 0, i32 0, !dbg !8430 ; [#uses=1 type=%struct.rfnoc_axis.18*] [debug line = 146:9@110:4]
  call void @"_ssdm_op_IfWrite.Stream.%struct.rfnoc_axis.18 = type { %struct.ap_fixed.6, %struct.ap_uint.17 }P.%struct.rfnoc_axis.18 = type { %struct.ap_fixed.6, %struct.ap_uint.17 }P"(%struct.rfnoc_axis.18* %o_data.addr, %struct.rfnoc_axis.18* %tmp.11) nounwind, !dbg !8430 ; [debug line = 146:9@110:4]
  br label %6

; <label>:6                                       ; preds = %5, %4
  store i1 true, i1* @currentState, align 1, !dbg !8431 ; [debug line = 115:3]
  br label %._crit_edge160, !dbg !8432            ; [debug line = 117:2]

._crit_edge160:                                   ; preds = %6, %1, %codeRepl
  ret void, !dbg !8433                            ; [debug line = 120:1]
}

; [#uses=1]
define internal fastcc void @"correlate::shiftPhaseClass"(%struct.ap_fixed.6* byval align 8 %newValue, %struct.ap_uint.11.23* byval align 8 %phaseClass) nounwind uwtable align 2 {
  call void @llvm.dbg.declare(metadata !{%struct.ap_fixed.6* %newValue}, metadata !8434), !dbg !8435 ; [debug line = 122:39] [debug variable = newValue]
  call void @llvm.dbg.declare(metadata !{%struct.ap_uint.11.23* %phaseClass}, metadata !8436), !dbg !8437 ; [debug line = 122:60] [debug variable = phaseClass]
  %phaseClass.addr = getelementptr inbounds %struct.ap_uint.11.23* %phaseClass, i64 0, i32 0, i32 0, i32 0, !dbg !8438 ; [#uses=1 type=i5*] [debug line = 1710:68@123:9]
  %phaseClass.load = load i5* %phaseClass.addr, align 8, !dbg !8438 ; [#uses=2 type=i5] [debug line = 1710:68@123:9]
  call void (...)* @_ssdm_SpecKeepArrayLoad(i5 %phaseClass.load) nounwind
  %cond = icmp eq i5 %phaseClass.load, 0, !dbg !8440 ; [#uses=1 type=i1] [debug line = 123:9]
  br i1 %cond, label %.preheader.preheader, label %._crit_edge, !dbg !8440 ; [debug line = 123:9]

.preheader.preheader:                             ; preds = %0
  br label %.preheader, !dbg !8442                ; [debug line = 125:33]

.preheader:                                       ; preds = %1, %.preheader.preheader
  %a = phi i32 [ %a.1, %1 ], [ 15, %.preheader.preheader ] ; [#uses=3 type=i32]
  %tmp = icmp sgt i32 %a, 0, !dbg !8442           ; [#uses=1 type=i1] [debug line = 125:33]
  br i1 %tmp, label %1, label %2, !dbg !8442      ; [debug line = 125:33]

; <label>:1                                       ; preds = %.preheader
  call void (...)* @_ssdm_op_SpecLoopName(i8* getelementptr inbounds ([12 x i8]* @.str6, i64 0, i64 0)) nounwind, !dbg !8445 ; [debug line = 125:43]
  %rbegin = call i32 (...)* @_ssdm_op_SpecRegionBegin(i8* getelementptr inbounds ([12 x i8]* @.str6, i64 0, i64 0)) nounwind, !dbg !8445 ; [#uses=1 type=i32] [debug line = 125:43]
  call void (...)* @_ssdm_Unroll(i32 0, i32 0, i32 0, i8* getelementptr inbounds ([1 x i8]* @.str2, i64 0, i64 0)) nounwind, !dbg !8447 ; [debug line = 126:1]
  %tmp.12 = sext i32 %a to i64, !dbg !8448        ; [#uses=1 type=i64] [debug line = 127:2]
  %a.1 = add nsw i32 %a, -1, !dbg !8448           ; [#uses=2 type=i32] [debug line = 127:2]
  %tmp.14 = sext i32 %a.1 to i64, !dbg !8448      ; [#uses=1 type=i64] [debug line = 127:2]
  %cor.addr = getelementptr inbounds %class.correlate.8* @cor, i64 0, i32 1, i64 %tmp.14, i32 0, i32 0, i32 0, !dbg !8449 ; [#uses=1 type=i32*] [debug line = 388:5@127:2]
  %cor.load = load i32* %cor.addr, align 4, !dbg !8449 ; [#uses=2 type=i32] [debug line = 388:5@127:2]
  call void (...)* @_ssdm_SpecKeepArrayLoad(i32 %cor.load) nounwind
  %cor.addr.1 = getelementptr inbounds %class.correlate.8* @cor, i64 0, i32 1, i64 %tmp.12, i32 0, i32 0, i32 0, !dbg !8449 ; [#uses=1 type=i32*] [debug line = 388:5@127:2]
  store i32 %cor.load, i32* %cor.addr.1, align 4, !dbg !8449 ; [debug line = 388:5@127:2]
  %rend = call i32 (...)* @_ssdm_op_SpecRegionEnd(i8* getelementptr inbounds ([12 x i8]* @.str6, i64 0, i64 0), i32 %rbegin) nounwind, !dbg !8450 ; [#uses=0 type=i32] [debug line = 128:3]
  call void @llvm.dbg.value(metadata !{i32 %a.1}, i64 0, metadata !8451), !dbg !8452 ; [debug line = 125:38] [debug variable = a]
  br label %.preheader, !dbg !8452                ; [debug line = 125:38]

; <label>:2                                       ; preds = %.preheader
  call void @llvm.dbg.value(metadata !{%struct.ap_fixed.6* %newValue}, i64 0, metadata !8376), !dbg !8453 ; [debug line = 387:19@129:3] [debug variable = op]
  %newValue.addr = getelementptr inbounds %struct.ap_fixed.6* %newValue, i64 0, i32 0, i32 0, i32 0, !dbg !8455 ; [#uses=1 type=i32*] [debug line = 388:5@129:3]
  %newValue.load = load i32* %newValue.addr, align 8, !dbg !8455 ; [#uses=2 type=i32] [debug line = 388:5@129:3]
  call void (...)* @_ssdm_SpecKeepArrayLoad(i32 %newValue.load) nounwind
  store i32 %newValue.load, i32* getelementptr inbounds (%class.correlate.8* @cor, i64 0, i32 1, i64 0, i32 0, i32 0, i32 0), align 4, !dbg !8455 ; [debug line = 388:5@129:3]
  br label %._crit_edge, !dbg !8456               ; [debug line = 130:3]

._crit_edge:                                      ; preds = %2, %0
  ret void, !dbg !8457                            ; [debug line = 243:1]
}

; [#uses=1]
define internal fastcc void @"correlate::correlator"(%struct.ap_fixed.6* noalias sret %agg.result, %struct.ap_uint.11.23* byval align 8 %phaseClass) nounwind uwtable align 2 {
  %corHelperINeg = alloca %struct.ap_fixed.6, align 4 ; [#uses=1 type=%struct.ap_fixed.6*]
  %corHelperIPos = alloca %struct.ap_fixed.6, align 4 ; [#uses=1 type=%struct.ap_fixed.6*]
  call void @llvm.dbg.declare(metadata !{%struct.ap_uint.11.23* %phaseClass}, metadata !8458), !dbg !8459 ; [debug line = 245:40] [debug variable = phaseClass]
  call void @llvm.dbg.declare(metadata !{%struct.ap_fixed.6* %corHelperINeg}, metadata !8460), !dbg !8462 ; [debug line = 246:8] [debug variable = corHelperINeg]
  call void @llvm.dbg.value(metadata !{%struct.ap_fixed.6* %corHelperINeg}, i64 0, metadata !8463), !dbg !8465 ; [debug line = 295:41@246:39] [debug variable = this]
  call void @llvm.dbg.value(metadata !{%struct.ap_fixed.6* %corHelperINeg}, i64 0, metadata !8467), !dbg !8468 ; [debug line = 295:41@295:60@246:39] [debug variable = this]
  call void @llvm.dbg.declare(metadata !{%struct.ap_fixed.6* %corHelperIPos}, metadata !8470), !dbg !8471 ; [debug line = 246:22] [debug variable = corHelperIPos]
  call void @llvm.dbg.value(metadata !{%struct.ap_fixed.6* %corHelperIPos}, i64 0, metadata !8463), !dbg !8465 ; [debug line = 295:41@246:39] [debug variable = this]
  call void @llvm.dbg.value(metadata !{%struct.ap_fixed.6* %corHelperIPos}, i64 0, metadata !8467), !dbg !8468 ; [debug line = 295:41@295:60@246:39] [debug variable = this]
  call void @llvm.dbg.declare(metadata !{%struct.ap_fixed.6* %agg.result}, metadata !8472), !dbg !8474 ; [debug line = 246:36] [debug variable = res]
  call void @llvm.dbg.value(metadata !{%struct.ap_fixed.6* %agg.result}, i64 0, metadata !8463), !dbg !8465 ; [debug line = 295:41@246:39] [debug variable = this]
  call void @llvm.dbg.value(metadata !{%struct.ap_fixed.6* %agg.result}, i64 0, metadata !8467), !dbg !8468 ; [debug line = 295:41@295:60@246:39] [debug variable = this]
  call void (...)* @_ssdm_SpecKeepArrayLoad(i32 0) nounwind
  call void (...)* @_ssdm_SpecKeepArrayLoad(i32 0) nounwind
  call void (...)* @_ssdm_SpecKeepArrayLoad(i32 0) nounwind
  call void (...)* @_ssdm_SpecKeepArrayLoad(i32 0) nounwind
  call void @llvm.dbg.value(metadata !{%struct.ap_fixed.6* %corHelperINeg}, i64 0, metadata !8475), !dbg !8476 ; [debug line = 386:51@247:2] [debug variable = this]
  %this.assign.addr = getelementptr inbounds %struct.ap_fixed.6* %corHelperINeg, i64 0, i32 0, i32 0, i32 0, !dbg !8478 ; [#uses=3 type=i32*] [debug line = 388:5@247:2]
  store i32 0, i32* %this.assign.addr, align 4, !dbg !8478 ; [debug line = 388:5@247:2]
  call void (...)* @_ssdm_SpecKeepArrayLoad(i32 0) nounwind
  call void (...)* @_ssdm_SpecKeepArrayLoad(i32 0) nounwind
  call void (...)* @_ssdm_SpecKeepArrayLoad(i32 0) nounwind
  call void (...)* @_ssdm_SpecKeepArrayLoad(i32 0) nounwind
  call void @llvm.dbg.value(metadata !{%struct.ap_fixed.6* %corHelperIPos}, i64 0, metadata !8475), !dbg !8479 ; [debug line = 386:51@248:2] [debug variable = this]
  %this.assign.2.addr = getelementptr inbounds %struct.ap_fixed.6* %corHelperIPos, i64 0, i32 0, i32 0, i32 0, !dbg !8481 ; [#uses=3 type=i32*] [debug line = 388:5@248:2]
  store i32 0, i32* %this.assign.2.addr, align 4, !dbg !8481 ; [debug line = 388:5@248:2]
  %phaseClass.addr = getelementptr inbounds %struct.ap_uint.11.23* %phaseClass, i64 0, i32 0, i32 0, i32 0, !dbg !8482 ; [#uses=1 type=i5*] [debug line = 1710:68@257:9]
  %phaseClass.load = load i5* %phaseClass.addr, align 8, !dbg !8482 ; [#uses=2 type=i5] [debug line = 1710:68@257:9]
  call void (...)* @_ssdm_SpecKeepArrayLoad(i5 %phaseClass.load) nounwind
  %cond = icmp eq i5 %phaseClass.load, 0, !dbg !8483 ; [#uses=1 type=i1] [debug line = 257:9]
  br i1 %cond, label %.preheader.preheader, label %.loopexit, !dbg !8483 ; [debug line = 257:9]

.preheader.preheader:                             ; preds = %0
  br label %.preheader, !dbg !8484                ; [debug line = 259:35]

.preheader:                                       ; preds = %4, %.preheader.preheader
  %tmp = phi i32 [ %tmp.30, %4 ], [ 0, %.preheader.preheader ] ; [#uses=2 type=i32]
  %tmp.15 = phi i32 [ %tmp.31, %4 ], [ 0, %.preheader.preheader ] ; [#uses=2 type=i32]
  %a = phi i32 [ %a.2, %4 ], [ 15, %.preheader.preheader ] ; [#uses=4 type=i32]
  %tmp.16 = icmp sgt i32 %a, -1, !dbg !8484       ; [#uses=1 type=i1] [debug line = 259:35]
  br i1 %tmp.16, label %1, label %.loopexit.loopexit, !dbg !8484 ; [debug line = 259:35]

; <label>:1                                       ; preds = %.preheader
  call void (...)* @_ssdm_op_SpecLoopName(i8* getelementptr inbounds ([15 x i8]* @.str7, i64 0, i64 0)) nounwind, !dbg !8487 ; [debug line = 259:46]
  %rbegin = call i32 (...)* @_ssdm_op_SpecRegionBegin(i8* getelementptr inbounds ([15 x i8]* @.str7, i64 0, i64 0)) nounwind, !dbg !8487 ; [#uses=1 type=i32] [debug line = 259:46]
  call void (...)* @_ssdm_Unroll(i32 0, i32 0, i32 0, i8* getelementptr inbounds ([1 x i8]* @.str2, i64 0, i64 0)) nounwind, !dbg !8489 ; [debug line = 260:1]
  %tmp.17 = sext i32 %a to i64, !dbg !8490        ; [#uses=3 type=i64] [debug line = 2034:5@3559:0@261:5]
  %corrSeq.addr = getelementptr inbounds [16 x %struct.ap_int.3]* @corrSeq, i64 0, i64 %tmp.17, i32 0, i32 0, i32 0, !dbg !8490 ; [#uses=1 type=i2*] [debug line = 2034:5@3559:0@261:5]
  %corrSeq.load = load i2* %corrSeq.addr, align 1, !dbg !8490 ; [#uses=1 type=i2] [debug line = 2034:5@3559:0@261:5]
  call void (...)* @_ssdm_SpecKeepArrayLoad(i2 %corrSeq.load) nounwind
  %tmp.18 = lshr i32 25544, %a, !dbg !8490        ; [#uses=1 type=i32] [debug line = 2034:5@3559:0@261:5]
  %tmp.19 = and i32 %tmp.18, 1, !dbg !8490        ; [#uses=1 type=i32] [debug line = 2034:5@3559:0@261:5]
  %tmp.20 = icmp eq i32 %tmp.19, 0, !dbg !8490    ; [#uses=1 type=i1] [debug line = 2034:5@3559:0@261:5]
  br i1 %tmp.20, label %3, label %2, !dbg !8494   ; [debug line = 261:5]

; <label>:2                                       ; preds = %1
  %__Val2__.4 = load i32* %this.assign.2.addr, align 4, !dbg !8495 ; [#uses=3 type=i32] [debug line = 675:0@773:5@1400:0@262:21]
  call void (...)* @_ssdm_SpecKeepArrayLoad(i32 %__Val2__.4) nounwind
  call void @llvm.dbg.value(metadata !{i32 %__Val2__.4}, i64 0, metadata !8503) nounwind, !dbg !8495 ; [debug line = 675:0@773:5@1400:0@262:21] [debug variable = __Val2__]
  call void (...)* @_ssdm_SpecKeepArrayLoad(i32 %__Val2__.4) nounwind
  %tmp.25 = sext i32 %__Val2__.4 to i33, !dbg !8504 ; [#uses=2 type=i33] [debug line = 679:13@773:5@1400:0@262:21]
  %cor.addr.2 = getelementptr inbounds %class.correlate.8* @cor, i64 0, i32 1, i64 %tmp.17, i32 0, i32 0, i32 0, !dbg !8495 ; [#uses=1 type=i32*] [debug line = 675:0@773:5@1400:0@262:21]
  %__Val2__.5 = load i32* %cor.addr.2, align 4, !dbg !8495 ; [#uses=3 type=i32] [debug line = 675:0@773:5@1400:0@262:21]
  call void (...)* @_ssdm_SpecKeepArrayLoad(i32 %__Val2__.5) nounwind
  call void @llvm.dbg.value(metadata !{i32 %__Val2__.5}, i64 0, metadata !8503) nounwind, !dbg !8495 ; [debug line = 675:0@773:5@1400:0@262:21] [debug variable = __Val2__]
  call void (...)* @_ssdm_SpecKeepArrayLoad(i32 %__Val2__.5) nounwind
  %tmp.26 = sext i32 %__Val2__.5 to i33, !dbg !8504 ; [#uses=2 type=i33] [debug line = 679:13@773:5@1400:0@262:21]
  call void (...)* @_ssdm_SpecKeepArrayLoad(i33 %tmp.25) nounwind
  call void (...)* @_ssdm_SpecKeepArrayLoad(i33 %tmp.26) nounwind
  %__Val2__.6 = add nsw i33 %tmp.26, %tmp.25, !dbg !8499 ; [#uses=3 type=i33] [debug line = 1400:0@262:21]
  call void (...)* @_ssdm_SpecKeepArrayLoad(i33 %__Val2__.6) nounwind
  call void @llvm.dbg.value(metadata !{i33 %__Val2__.6}, i64 0, metadata !8505) nounwind, !dbg !8510 ; [debug line = 675:0@338:43@338:44@262:21] [debug variable = __Val2__]
  call void (...)* @_ssdm_SpecKeepArrayLoad(i33 %__Val2__.6) nounwind
  %tmp.28 = trunc i33 %__Val2__.6 to i32, !dbg !8511 ; [#uses=3 type=i32] [debug line = 679:13@338:43@338:44@262:21]
  call void @llvm.dbg.value(metadata !{%struct.ap_fixed.6* %corHelperIPos}, i64 0, metadata !8475), !dbg !8512 ; [debug line = 386:51@262:21] [debug variable = this]
  call void (...)* @_ssdm_SpecKeepArrayLoad(i32 %tmp.28) nounwind
  store i32 %tmp.28, i32* %this.assign.2.addr, align 4, !dbg !8513 ; [debug line = 388:5@262:21]
  br label %4, !dbg !8514                         ; [debug line = 263:4]

; <label>:3                                       ; preds = %1
  %__Val2__ = load i32* %this.assign.addr, align 4, !dbg !8515 ; [#uses=3 type=i32] [debug line = 675:0@773:5@1400:0@264:21]
  call void (...)* @_ssdm_SpecKeepArrayLoad(i32 %__Val2__) nounwind
  call void @llvm.dbg.value(metadata !{i32 %__Val2__}, i64 0, metadata !8520) nounwind, !dbg !8515 ; [debug line = 675:0@773:5@1400:0@264:21] [debug variable = __Val2__]
  call void (...)* @_ssdm_SpecKeepArrayLoad(i32 %__Val2__) nounwind
  %tmp.21 = sext i32 %__Val2__ to i33, !dbg !8521 ; [#uses=2 type=i33] [debug line = 679:13@773:5@1400:0@264:21]
  %cor.addr = getelementptr inbounds %class.correlate.8* @cor, i64 0, i32 1, i64 %tmp.17, i32 0, i32 0, i32 0, !dbg !8515 ; [#uses=1 type=i32*] [debug line = 675:0@773:5@1400:0@264:21]
  %__Val2__.2 = load i32* %cor.addr, align 4, !dbg !8515 ; [#uses=3 type=i32] [debug line = 675:0@773:5@1400:0@264:21]
  call void (...)* @_ssdm_SpecKeepArrayLoad(i32 %__Val2__.2) nounwind
  call void @llvm.dbg.value(metadata !{i32 %__Val2__.2}, i64 0, metadata !8520) nounwind, !dbg !8515 ; [debug line = 675:0@773:5@1400:0@264:21] [debug variable = __Val2__]
  call void (...)* @_ssdm_SpecKeepArrayLoad(i32 %__Val2__.2) nounwind
  %tmp.22 = sext i32 %__Val2__.2 to i33, !dbg !8521 ; [#uses=2 type=i33] [debug line = 679:13@773:5@1400:0@264:21]
  call void (...)* @_ssdm_SpecKeepArrayLoad(i33 %tmp.21) nounwind
  call void (...)* @_ssdm_SpecKeepArrayLoad(i33 %tmp.22) nounwind
  %__Val2__.3 = add nsw i33 %tmp.22, %tmp.21, !dbg !8517 ; [#uses=3 type=i33] [debug line = 1400:0@264:21]
  call void (...)* @_ssdm_SpecKeepArrayLoad(i33 %__Val2__.3) nounwind
  call void @llvm.dbg.value(metadata !{i33 %__Val2__.3}, i64 0, metadata !8522) nounwind, !dbg !8525 ; [debug line = 675:0@338:43@338:44@264:21] [debug variable = __Val2__]
  call void (...)* @_ssdm_SpecKeepArrayLoad(i33 %__Val2__.3) nounwind
  %tmp.24 = trunc i33 %__Val2__.3 to i32, !dbg !8526 ; [#uses=3 type=i32] [debug line = 679:13@338:43@338:44@264:21]
  call void @llvm.dbg.value(metadata !{%struct.ap_fixed.6* %corHelperINeg}, i64 0, metadata !8475), !dbg !8527 ; [debug line = 386:51@264:21] [debug variable = this]
  call void (...)* @_ssdm_SpecKeepArrayLoad(i32 %tmp.24) nounwind
  store i32 %tmp.24, i32* %this.assign.addr, align 4, !dbg !8528 ; [debug line = 388:5@264:21]
  br label %4

; <label>:4                                       ; preds = %3, %2
  %tmp.30 = phi i32 [ %tmp.24, %3 ], [ %tmp, %2 ] ; [#uses=1 type=i32]
  %tmp.31 = phi i32 [ %tmp.15, %3 ], [ %tmp.28, %2 ] ; [#uses=1 type=i32]
  %rend = call i32 (...)* @_ssdm_op_SpecRegionEnd(i8* getelementptr inbounds ([15 x i8]* @.str7, i64 0, i64 0), i32 %rbegin) nounwind, !dbg !8529 ; [#uses=0 type=i32] [debug line = 266:3]
  %a.2 = add nsw i32 %a, -1, !dbg !8530           ; [#uses=1 type=i32] [debug line = 259:41]
  call void @llvm.dbg.value(metadata !{i32 %a.2}, i64 0, metadata !8531), !dbg !8530 ; [debug line = 259:41] [debug variable = a]
  br label %.preheader, !dbg !8530                ; [debug line = 259:41]

.loopexit.loopexit:                               ; preds = %.preheader
  %.lcssa1 = phi i32 [ %tmp.15, %.preheader ]     ; [#uses=1 type=i32]
  %.lcssa = phi i32 [ %tmp, %.preheader ]         ; [#uses=1 type=i32]
  br label %.loopexit

.loopexit:                                        ; preds = %.loopexit.loopexit, %0
  %__Val2__.8 = phi i32 [ 0, %0 ], [ %.lcssa, %.loopexit.loopexit ] ; [#uses=8 type=i32]
  %__Val2__.7 = phi i32 [ 0, %0 ], [ %.lcssa1, %.loopexit.loopexit ] ; [#uses=8 type=i32]
  call void (...)* @_ssdm_SpecKeepArrayLoad(i32 %__Val2__.7) nounwind
  call void (...)* @_ssdm_SpecKeepArrayLoad(i32 %__Val2__.8) nounwind
  %tmp.29 = icmp sgt i32 %__Val2__.7, %__Val2__.8, !dbg !8532 ; [#uses=1 type=i1] [debug line = 1955:0@420:5]
  br i1 %tmp.29, label %5, label %6, !dbg !8534   ; [debug line = 420:5]

; <label>:5                                       ; preds = %.loopexit
  call void (...)* @_ssdm_SpecKeepArrayLoad(i32 %__Val2__.7) nounwind
  call void @llvm.dbg.value(metadata !{i32 %__Val2__.7}, i64 0, metadata !8535) nounwind, !dbg !8541 ; [debug line = 675:0@773:5@1401:0@421:9] [debug variable = __Val2__]
  call void (...)* @_ssdm_SpecKeepArrayLoad(i32 %__Val2__.7) nounwind
  %tmp.33 = sext i32 %__Val2__.7 to i33, !dbg !8542 ; [#uses=2 type=i33] [debug line = 679:13@773:5@1401:0@421:9]
  call void (...)* @_ssdm_SpecKeepArrayLoad(i32 %__Val2__.8) nounwind
  call void @llvm.dbg.value(metadata !{i32 %__Val2__.8}, i64 0, metadata !8535) nounwind, !dbg !8541 ; [debug line = 675:0@773:5@1401:0@421:9] [debug variable = __Val2__]
  call void (...)* @_ssdm_SpecKeepArrayLoad(i32 %__Val2__.8) nounwind
  %tmp.34 = sext i32 %__Val2__.8 to i33, !dbg !8542 ; [#uses=2 type=i33] [debug line = 679:13@773:5@1401:0@421:9]
  call void (...)* @_ssdm_SpecKeepArrayLoad(i33 %tmp.33) nounwind
  call void (...)* @_ssdm_SpecKeepArrayLoad(i33 %tmp.34) nounwind
  %__Val2__.9 = sub nsw i33 %tmp.33, %tmp.34, !dbg !8537 ; [#uses=3 type=i33] [debug line = 1401:0@421:9]
  call void (...)* @_ssdm_SpecKeepArrayLoad(i33 %__Val2__.9) nounwind
  call void @llvm.dbg.value(metadata !{i33 %__Val2__.9}, i64 0, metadata !8543) nounwind, !dbg !8546 ; [debug line = 675:0@338:43@338:44@421:9] [debug variable = __Val2__]
  call void (...)* @_ssdm_SpecKeepArrayLoad(i33 %__Val2__.9) nounwind
  %tmp.36 = trunc i33 %__Val2__.9 to i32, !dbg !8547 ; [#uses=2 type=i32] [debug line = 679:13@338:43@338:44@421:9]
  call void @llvm.dbg.value(metadata !{%struct.ap_fixed.6* %agg.result}, i64 0, metadata !8475), !dbg !8548 ; [debug line = 386:51@421:9] [debug variable = this]
  call void (...)* @_ssdm_SpecKeepArrayLoad(i32 %tmp.36) nounwind
  br label %7, !dbg !8549                         ; [debug line = 422:2]

; <label>:6                                       ; preds = %.loopexit
  call void (...)* @_ssdm_SpecKeepArrayLoad(i32 %__Val2__.8) nounwind
  call void @llvm.dbg.value(metadata !{i32 %__Val2__.8}, i64 0, metadata !8550) nounwind, !dbg !8555 ; [debug line = 675:0@773:5@1401:0@423:9] [debug variable = __Val2__]
  call void (...)* @_ssdm_SpecKeepArrayLoad(i32 %__Val2__.8) nounwind
  %tmp.37 = sext i32 %__Val2__.8 to i33, !dbg !8556 ; [#uses=2 type=i33] [debug line = 679:13@773:5@1401:0@423:9]
  call void (...)* @_ssdm_SpecKeepArrayLoad(i32 %__Val2__.7) nounwind
  call void @llvm.dbg.value(metadata !{i32 %__Val2__.7}, i64 0, metadata !8550) nounwind, !dbg !8555 ; [debug line = 675:0@773:5@1401:0@423:9] [debug variable = __Val2__]
  call void (...)* @_ssdm_SpecKeepArrayLoad(i32 %__Val2__.7) nounwind
  %tmp.38 = sext i32 %__Val2__.7 to i33, !dbg !8556 ; [#uses=2 type=i33] [debug line = 679:13@773:5@1401:0@423:9]
  call void (...)* @_ssdm_SpecKeepArrayLoad(i33 %tmp.37) nounwind
  call void (...)* @_ssdm_SpecKeepArrayLoad(i33 %tmp.38) nounwind
  %__Val2__.10 = sub nsw i33 %tmp.37, %tmp.38, !dbg !8552 ; [#uses=3 type=i33] [debug line = 1401:0@423:9]
  call void (...)* @_ssdm_SpecKeepArrayLoad(i33 %__Val2__.10) nounwind
  call void @llvm.dbg.value(metadata !{i33 %__Val2__.10}, i64 0, metadata !8557) nounwind, !dbg !8560 ; [debug line = 675:0@338:43@338:44@423:9] [debug variable = __Val2__]
  call void (...)* @_ssdm_SpecKeepArrayLoad(i33 %__Val2__.10) nounwind
  %tmp.40 = trunc i33 %__Val2__.10 to i32, !dbg !8561 ; [#uses=2 type=i32] [debug line = 679:13@338:43@338:44@423:9]
  call void @llvm.dbg.value(metadata !{%struct.ap_fixed.6* %agg.result}, i64 0, metadata !8475), !dbg !8562 ; [debug line = 386:51@423:9] [debug variable = this]
  call void (...)* @_ssdm_SpecKeepArrayLoad(i32 %tmp.40) nounwind
  br label %7

; <label>:7                                       ; preds = %6, %5
  %tmp.41 = phi i32 [ %tmp.40, %6 ], [ %tmp.36, %5 ] ; [#uses=3 type=i32]
  %agg.result.addr = getelementptr inbounds %struct.ap_fixed.6* %agg.result, i64 0, i32 0, i32 0, i32 0, !dbg !8563 ; [#uses=1 type=i32*] [debug line = 1364:9@425:8]
  call void (...)* @_ssdm_SpecKeepArrayLoad(i32 %tmp.41) nounwind
  %OP1.V = sext i32 %tmp.41 to i64, !dbg !8563    ; [#uses=2 type=i64] [debug line = 1364:9@425:8]
  call void @llvm.dbg.value(metadata !{i64 %OP1.V}, i64 0, metadata !8566), !dbg !8563 ; [debug line = 1364:9@425:8] [debug variable = OP1.V]
  call void (...)* @_ssdm_SpecKeepArrayLoad(i32 %tmp.41) nounwind
  call void @llvm.dbg.value(metadata !{i64 %OP1.V}, i64 0, metadata !8572), !dbg !8574 ; [debug line = 1366:9@425:8] [debug variable = OP2.V]
  %__Val2__.11 = mul nsw i64 %OP1.V, %OP1.V, !dbg !8575 ; [#uses=3 type=i64] [debug line = 1367:9@425:8]
  call void (...)* @_ssdm_SpecKeepArrayLoad(i64 %__Val2__.11) nounwind
  call void @llvm.dbg.value(metadata !{i64 %__Val2__.11}, i64 0, metadata !8576) nounwind, !dbg !8581 ; [debug line = 675:0@338:43@338:44@425:8] [debug variable = __Val2__]
  call void (...)* @_ssdm_SpecKeepArrayLoad(i64 %__Val2__.11) nounwind
  %tmp.43 = lshr i64 %__Val2__.11, 10, !dbg !8582 ; [#uses=1 type=i64] [debug line = 682:17@338:43@338:44@425:8]
  %tmp.44 = trunc i64 %tmp.43 to i32, !dbg !8582  ; [#uses=2 type=i32] [debug line = 682:17@338:43@338:44@425:8]
  call void @llvm.dbg.value(metadata !{%struct.ap_fixed.6* %agg.result}, i64 0, metadata !8475), !dbg !8584 ; [debug line = 386:51@425:8] [debug variable = this]
  call void (...)* @_ssdm_SpecKeepArrayLoad(i32 %tmp.44) nounwind
  store i32 %tmp.44, i32* %agg.result.addr, align 4, !dbg !8585 ; [debug line = 388:5@425:8]
  ret void, !dbg !8586                            ; [debug line = 426:2]
}

; [#uses=1]
declare void @_ssdm_op_SpecTopModule(...)

; [#uses=7]
declare void @_ssdm_op_SpecReset(...) nounwind

; [#uses=2]
declare i32 @_ssdm_op_SpecRegionEnd(...)

; [#uses=2]
declare i32 @_ssdm_op_SpecRegionBegin(...)

; [#uses=1]
declare void @_ssdm_op_SpecPipeline(...) nounwind

; [#uses=2]
declare void @_ssdm_op_SpecLoopName(...) nounwind

; [#uses=3]
declare void @_ssdm_op_SpecInterface(...) nounwind

; [#uses=1]
declare void @"_ssdm_op_IfWrite.Stream.%struct.rfnoc_axis.18 = type { %struct.ap_fixed.6, %struct.ap_uint.17 }P.%struct.rfnoc_axis.18 = type { %struct.ap_fixed.6, %struct.ap_uint.17 }P"(%struct.rfnoc_axis.18*, %struct.rfnoc_axis.18*)

; [#uses=1]
declare void @"_ssdm_op_IfRead.Stream.%struct.rfnoc_axis.18 = type { %struct.ap_fixed.6, %struct.ap_uint.17 }P.%struct.rfnoc_axis.18 = type { %struct.ap_fixed.6, %struct.ap_uint.17 }P"(%struct.rfnoc_axis.18*, %struct.rfnoc_axis.18*)

; [#uses=2]
declare void @_ssdm_Unroll(...) nounwind

; [#uses=80]
declare void @_ssdm_SpecKeepArrayLoad(...)

; [#uses=17]
declare void @_ssdm_SpecArrayPartition(...) nounwind

; [#uses=1]
declare void @_GLOBAL__I_a() nounwind section ".text.startup"

!llvm.dbg.cu = !{!0}
!opencl.kernels = !{!8176, !8183, !8186, !8192, !8192, !8192, !8195, !8201, !8195, !8195, !8195, !8195, !8195, !8201, !8204, !8204, !8195, !8195, !8195, !8201, !8205, !8205, !8205, !8201, !8207, !8210, !8210, !8212, !8214, !8214, !8216, !8218, !8218, !8220, !8220, !8204, !8195, !8222, !8225, !8228, !8220, !8220, !8195, !8229, !8229, !8195, !8195, !8231, !8233, !8195, !8195, !8235, !8235, !8236, !8236, !8238, !8212, !8229, !8229, !8195, !8239, !8241, !8243, !8243, !8195, !8195, !8245, !8245, !8247, !8249, !8195, !8195, !8251, !8254, !8254, !8260, !8262, !8265, !8267, !8267, !8269, !8267, !8267, !8270, !8195, !8195, !8195, !8195, !8195, !8195, !8195, !8195, !8195, !8195, !8195, !8267, !8267, !8195, !8195, !8195, !8195, !8195, !8195, !8195, !8195, !8195, !8195, !8195, !8195}
!hls.encrypted.func = !{}

!0 = metadata !{i32 786449, i32 0, i32 4, metadata !"/home/ece492fa18/RFNoCFrameSynchHWAccel/correlatorDev/correlator/solution1/.autopilot/db/correlator.pragma.2.cpp", metadata !"/home/ece492fa18/RFNoCFrameSynchHWAccel/correlatorDev", metadata !"clang version 3.1 ", i1 true, i1 false, metadata !"", i32 0, metadata !1, metadata !4820, metadata !4821, metadata !6424} ; [ DW_TAG_compile_unit ]
!1 = metadata !{metadata !2}
!2 = metadata !{metadata !3, metadata !26, metadata !33, metadata !42, metadata !48, metadata !890, metadata !897, metadata !906, metadata !913, metadata !913, metadata !913, metadata !2591, metadata !2591, metadata !2591, metadata !3453, metadata !3453, metadata !3453, metadata !3458, metadata !3458, metadata !3458, metadata !3464, metadata !3464, metadata !3464, metadata !3743, metadata !3743, metadata !3743, metadata !4026, metadata !4026, metadata !4026}
!3 = metadata !{i32 786436, metadata !4, metadata !"_Ios_Fmtflags", metadata !5, i32 52, i64 17, i64 32, i32 0, i32 0, null, metadata !6, i32 0, i32 0} ; [ DW_TAG_enumeration_type ]
!4 = metadata !{i32 786489, null, metadata !"std", metadata !5, i32 44} ; [ DW_TAG_namespace ]
!5 = metadata !{i32 786473, metadata !"/home/ece492fa18/Vivado/2017.4/lnx64/tools/gcc/lib/gcc/x86_64-unknown-linux-gnu/4.6.3/../../../../include/c++/4.6.3/bits/ios_base.h", metadata !"/home/ece492fa18/RFNoCFrameSynchHWAccel/correlatorDev", null} ; [ DW_TAG_file_type ]
!6 = metadata !{metadata !7, metadata !8, metadata !9, metadata !10, metadata !11, metadata !12, metadata !13, metadata !14, metadata !15, metadata !16, metadata !17, metadata !18, metadata !19, metadata !20, metadata !21, metadata !22, metadata !23, metadata !24, metadata !25}
!7 = metadata !{i32 786472, metadata !"_S_boolalpha", i64 1} ; [ DW_TAG_enumerator ]
!8 = metadata !{i32 786472, metadata !"_S_dec", i64 2} ; [ DW_TAG_enumerator ]
!9 = metadata !{i32 786472, metadata !"_S_fixed", i64 4} ; [ DW_TAG_enumerator ]
!10 = metadata !{i32 786472, metadata !"_S_hex", i64 8} ; [ DW_TAG_enumerator ]
!11 = metadata !{i32 786472, metadata !"_S_internal", i64 16} ; [ DW_TAG_enumerator ]
!12 = metadata !{i32 786472, metadata !"_S_left", i64 32} ; [ DW_TAG_enumerator ]
!13 = metadata !{i32 786472, metadata !"_S_oct", i64 64} ; [ DW_TAG_enumerator ]
!14 = metadata !{i32 786472, metadata !"_S_right", i64 128} ; [ DW_TAG_enumerator ]
!15 = metadata !{i32 786472, metadata !"_S_scientific", i64 256} ; [ DW_TAG_enumerator ]
!16 = metadata !{i32 786472, metadata !"_S_showbase", i64 512} ; [ DW_TAG_enumerator ]
!17 = metadata !{i32 786472, metadata !"_S_showpoint", i64 1024} ; [ DW_TAG_enumerator ]
!18 = metadata !{i32 786472, metadata !"_S_showpos", i64 2048} ; [ DW_TAG_enumerator ]
!19 = metadata !{i32 786472, metadata !"_S_skipws", i64 4096} ; [ DW_TAG_enumerator ]
!20 = metadata !{i32 786472, metadata !"_S_unitbuf", i64 8192} ; [ DW_TAG_enumerator ]
!21 = metadata !{i32 786472, metadata !"_S_uppercase", i64 16384} ; [ DW_TAG_enumerator ]
!22 = metadata !{i32 786472, metadata !"_S_adjustfield", i64 176} ; [ DW_TAG_enumerator ]
!23 = metadata !{i32 786472, metadata !"_S_basefield", i64 74} ; [ DW_TAG_enumerator ]
!24 = metadata !{i32 786472, metadata !"_S_floatfield", i64 260} ; [ DW_TAG_enumerator ]
!25 = metadata !{i32 786472, metadata !"_S_ios_fmtflags_end", i64 65536} ; [ DW_TAG_enumerator ]
!26 = metadata !{i32 786436, metadata !4, metadata !"_Ios_Iostate", metadata !5, i32 144, i64 17, i64 32, i32 0, i32 0, null, metadata !27, i32 0, i32 0} ; [ DW_TAG_enumeration_type ]
!27 = metadata !{metadata !28, metadata !29, metadata !30, metadata !31, metadata !32}
!28 = metadata !{i32 786472, metadata !"_S_goodbit", i64 0} ; [ DW_TAG_enumerator ]
!29 = metadata !{i32 786472, metadata !"_S_badbit", i64 1} ; [ DW_TAG_enumerator ]
!30 = metadata !{i32 786472, metadata !"_S_eofbit", i64 2} ; [ DW_TAG_enumerator ]
!31 = metadata !{i32 786472, metadata !"_S_failbit", i64 4} ; [ DW_TAG_enumerator ]
!32 = metadata !{i32 786472, metadata !"_S_ios_iostate_end", i64 65536} ; [ DW_TAG_enumerator ]
!33 = metadata !{i32 786436, metadata !4, metadata !"_Ios_Openmode", metadata !5, i32 104, i64 17, i64 32, i32 0, i32 0, null, metadata !34, i32 0, i32 0} ; [ DW_TAG_enumeration_type ]
!34 = metadata !{metadata !35, metadata !36, metadata !37, metadata !38, metadata !39, metadata !40, metadata !41}
!35 = metadata !{i32 786472, metadata !"_S_app", i64 1} ; [ DW_TAG_enumerator ]
!36 = metadata !{i32 786472, metadata !"_S_ate", i64 2} ; [ DW_TAG_enumerator ]
!37 = metadata !{i32 786472, metadata !"_S_bin", i64 4} ; [ DW_TAG_enumerator ]
!38 = metadata !{i32 786472, metadata !"_S_in", i64 8} ; [ DW_TAG_enumerator ]
!39 = metadata !{i32 786472, metadata !"_S_out", i64 16} ; [ DW_TAG_enumerator ]
!40 = metadata !{i32 786472, metadata !"_S_trunc", i64 32} ; [ DW_TAG_enumerator ]
!41 = metadata !{i32 786472, metadata !"_S_ios_openmode_end", i64 65536} ; [ DW_TAG_enumerator ]
!42 = metadata !{i32 786436, metadata !4, metadata !"_Ios_Seekdir", metadata !5, i32 182, i64 17, i64 32, i32 0, i32 0, null, metadata !43, i32 0, i32 0} ; [ DW_TAG_enumeration_type ]
!43 = metadata !{metadata !44, metadata !45, metadata !46, metadata !47}
!44 = metadata !{i32 786472, metadata !"_S_beg", i64 0} ; [ DW_TAG_enumerator ]
!45 = metadata !{i32 786472, metadata !"_S_cur", i64 1} ; [ DW_TAG_enumerator ]
!46 = metadata !{i32 786472, metadata !"_S_end", i64 2} ; [ DW_TAG_enumerator ]
!47 = metadata !{i32 786472, metadata !"_S_ios_seekdir_end", i64 65536} ; [ DW_TAG_enumerator ]
!48 = metadata !{i32 786436, metadata !49, metadata !"event", metadata !5, i32 420, i64 2, i64 2, i32 0, i32 0, null, metadata !886, i32 0, i32 0} ; [ DW_TAG_enumeration_type ]
!49 = metadata !{i32 786434, metadata !4, metadata !"ios_base", metadata !5, i32 200, i64 1728, i64 64, i32 0, i32 0, null, metadata !50, i32 0, metadata !49, null} ; [ DW_TAG_class_type ]
!50 = metadata !{metadata !51, metadata !57, metadata !65, metadata !66, metadata !68, metadata !70, metadata !71, metadata !97, metadata !107, metadata !111, metadata !112, metadata !114, metadata !818, metadata !822, metadata !825, metadata !828, metadata !832, metadata !833, metadata !838, metadata !841, metadata !842, metadata !845, metadata !848, metadata !851, metadata !854, metadata !855, metadata !856, metadata !859, metadata !862, metadata !865, metadata !868, metadata !869, metadata !873, metadata !877, metadata !878, metadata !879, metadata !883}
!51 = metadata !{i32 786445, metadata !5, metadata !"_vptr$ios_base", metadata !5, i32 0, i64 64, i64 0, i64 0, i32 0, metadata !52} ; [ DW_TAG_member ]
!52 = metadata !{i32 786447, null, metadata !"", null, i32 0, i64 64, i64 0, i64 0, i32 0, metadata !53} ; [ DW_TAG_pointer_type ]
!53 = metadata !{i32 786447, null, metadata !"__vtbl_ptr_type", null, i32 0, i64 64, i64 0, i64 0, i32 0, metadata !54} ; [ DW_TAG_pointer_type ]
!54 = metadata !{i32 786453, i32 0, metadata !"", i32 0, i32 0, i64 0, i64 0, i64 0, i32 0, null, metadata !55, i32 0, i32 0} ; [ DW_TAG_subroutine_type ]
!55 = metadata !{metadata !56}
!56 = metadata !{i32 786468, null, metadata !"int", null, i32 0, i64 32, i64 32, i64 0, i32 0, i32 5} ; [ DW_TAG_base_type ]
!57 = metadata !{i32 786445, metadata !49, metadata !"_M_precision", metadata !5, i32 453, i64 64, i64 64, i64 64, i32 2, metadata !58} ; [ DW_TAG_member ]
!58 = metadata !{i32 786454, metadata !59, metadata !"streamsize", metadata !5, i32 99, i64 0, i64 0, i64 0, i32 0, metadata !61} ; [ DW_TAG_typedef ]
!59 = metadata !{i32 786489, null, metadata !"std", metadata !60, i32 69} ; [ DW_TAG_namespace ]
!60 = metadata !{i32 786473, metadata !"/home/ece492fa18/Vivado/2017.4/lnx64/tools/gcc/lib/gcc/x86_64-unknown-linux-gnu/4.6.3/../../../../include/c++/4.6.3/bits/postypes.h", metadata !"/home/ece492fa18/RFNoCFrameSynchHWAccel/correlatorDev", null} ; [ DW_TAG_file_type ]
!61 = metadata !{i32 786454, metadata !62, metadata !"ptrdiff_t", metadata !5, i32 156, i64 0, i64 0, i64 0, i32 0, metadata !64} ; [ DW_TAG_typedef ]
!62 = metadata !{i32 786489, null, metadata !"std", metadata !63, i32 153} ; [ DW_TAG_namespace ]
!63 = metadata !{i32 786473, metadata !"/home/ece492fa18/Vivado/2017.4/lnx64/tools/gcc/lib/gcc/x86_64-unknown-linux-gnu/4.6.3/../../../../include/c++/4.6.3/x86_64-unknown-linux-gnu/bits/c++config.h", metadata !"/home/ece492fa18/RFNoCFrameSynchHWAccel/correlatorDev", null} ; [ DW_TAG_file_type ]
!64 = metadata !{i32 786468, null, metadata !"long int", null, i32 0, i64 64, i64 64, i64 0, i32 0, i32 5} ; [ DW_TAG_base_type ]
!65 = metadata !{i32 786445, metadata !49, metadata !"_M_width", metadata !5, i32 454, i64 64, i64 64, i64 128, i32 2, metadata !58} ; [ DW_TAG_member ]
!66 = metadata !{i32 786445, metadata !49, metadata !"_M_flags", metadata !5, i32 455, i64 17, i64 32, i64 192, i32 2, metadata !67} ; [ DW_TAG_member ]
!67 = metadata !{i32 786454, metadata !49, metadata !"fmtflags", metadata !5, i32 256, i64 0, i64 0, i64 0, i32 0, metadata !3} ; [ DW_TAG_typedef ]
!68 = metadata !{i32 786445, metadata !49, metadata !"_M_exception", metadata !5, i32 456, i64 17, i64 32, i64 224, i32 2, metadata !69} ; [ DW_TAG_member ]
!69 = metadata !{i32 786454, metadata !49, metadata !"iostate", metadata !5, i32 331, i64 0, i64 0, i64 0, i32 0, metadata !26} ; [ DW_TAG_typedef ]
!70 = metadata !{i32 786445, metadata !49, metadata !"_M_streambuf_state", metadata !5, i32 457, i64 17, i64 32, i64 256, i32 2, metadata !69} ; [ DW_TAG_member ]
!71 = metadata !{i32 786445, metadata !49, metadata !"_M_callbacks", metadata !5, i32 491, i64 64, i64 64, i64 320, i32 2, metadata !72} ; [ DW_TAG_member ]
!72 = metadata !{i32 786447, null, metadata !"", null, i32 0, i64 64, i64 64, i64 0, i32 0, metadata !73} ; [ DW_TAG_pointer_type ]
!73 = metadata !{i32 786434, metadata !49, metadata !"_Callback_list", metadata !5, i32 461, i64 192, i64 64, i32 0, i32 0, null, metadata !74, i32 0, null, null} ; [ DW_TAG_class_type ]
!74 = metadata !{metadata !75, metadata !76, metadata !82, metadata !83, metadata !85, metadata !91, metadata !94}
!75 = metadata !{i32 786445, metadata !73, metadata !"_M_next", metadata !5, i32 464, i64 64, i64 64, i64 0, i32 0, metadata !72} ; [ DW_TAG_member ]
!76 = metadata !{i32 786445, metadata !73, metadata !"_M_fn", metadata !5, i32 465, i64 64, i64 64, i64 64, i32 0, metadata !77} ; [ DW_TAG_member ]
!77 = metadata !{i32 786454, metadata !49, metadata !"event_callback", metadata !5, i32 437, i64 0, i64 0, i64 0, i32 0, metadata !78} ; [ DW_TAG_typedef ]
!78 = metadata !{i32 786447, null, metadata !"", null, i32 0, i64 64, i64 64, i64 0, i32 0, metadata !79} ; [ DW_TAG_pointer_type ]
!79 = metadata !{i32 786453, i32 0, metadata !"", i32 0, i32 0, i64 0, i64 0, i64 0, i32 0, null, metadata !80, i32 0, i32 0} ; [ DW_TAG_subroutine_type ]
!80 = metadata !{null, metadata !48, metadata !81, metadata !56}
!81 = metadata !{i32 786448, null, null, null, i32 0, i64 0, i64 0, i64 0, i32 0, metadata !49} ; [ DW_TAG_reference_type ]
!82 = metadata !{i32 786445, metadata !73, metadata !"_M_index", metadata !5, i32 466, i64 32, i64 32, i64 128, i32 0, metadata !56} ; [ DW_TAG_member ]
!83 = metadata !{i32 786445, metadata !73, metadata !"_M_refcount", metadata !5, i32 467, i64 32, i64 32, i64 160, i32 0, metadata !84} ; [ DW_TAG_member ]
!84 = metadata !{i32 786454, null, metadata !"_Atomic_word", metadata !5, i32 32, i64 0, i64 0, i64 0, i32 0, metadata !56} ; [ DW_TAG_typedef ]
!85 = metadata !{i32 786478, i32 0, metadata !73, metadata !"_Callback_list", metadata !"_Callback_list", metadata !"", metadata !5, i32 469, metadata !86, i1 false, i1 false, i32 0, i32 0, null, i32 256, i1 false, null, null, i32 0, metadata !89, i32 469} ; [ DW_TAG_subprogram ]
!86 = metadata !{i32 786453, i32 0, metadata !"", i32 0, i32 0, i64 0, i64 0, i64 0, i32 0, null, metadata !87, i32 0, i32 0} ; [ DW_TAG_subroutine_type ]
!87 = metadata !{null, metadata !88, metadata !77, metadata !56, metadata !72}
!88 = metadata !{i32 786447, i32 0, metadata !"", i32 0, i32 0, i64 64, i64 64, i64 0, i32 64, metadata !73} ; [ DW_TAG_pointer_type ]
!89 = metadata !{metadata !90}
!90 = metadata !{i32 786468}                      ; [ DW_TAG_base_type ]
!91 = metadata !{i32 786478, i32 0, metadata !73, metadata !"_M_add_reference", metadata !"_M_add_reference", metadata !"_ZNSt8ios_base14_Callback_list16_M_add_referenceEv", metadata !5, i32 474, metadata !92, i1 false, i1 false, i32 0, i32 0, null, i32 256, i1 false, null, null, i32 0, metadata !89, i32 474} ; [ DW_TAG_subprogram ]
!92 = metadata !{i32 786453, i32 0, metadata !"", i32 0, i32 0, i64 0, i64 0, i64 0, i32 0, null, metadata !93, i32 0, i32 0} ; [ DW_TAG_subroutine_type ]
!93 = metadata !{null, metadata !88}
!94 = metadata !{i32 786478, i32 0, metadata !73, metadata !"_M_remove_reference", metadata !"_M_remove_reference", metadata !"_ZNSt8ios_base14_Callback_list19_M_remove_referenceEv", metadata !5, i32 478, metadata !95, i1 false, i1 false, i32 0, i32 0, null, i32 256, i1 false, null, null, i32 0, metadata !89, i32 478} ; [ DW_TAG_subprogram ]
!95 = metadata !{i32 786453, i32 0, metadata !"", i32 0, i32 0, i64 0, i64 0, i64 0, i32 0, null, metadata !96, i32 0, i32 0} ; [ DW_TAG_subroutine_type ]
!96 = metadata !{metadata !56, metadata !88}
!97 = metadata !{i32 786445, metadata !49, metadata !"_M_word_zero", metadata !5, i32 508, i64 128, i64 64, i64 384, i32 2, metadata !98} ; [ DW_TAG_member ]
!98 = metadata !{i32 786434, metadata !49, metadata !"_Words", metadata !5, i32 500, i64 128, i64 64, i32 0, i32 0, null, metadata !99, i32 0, null, null} ; [ DW_TAG_class_type ]
!99 = metadata !{metadata !100, metadata !102, metadata !103}
!100 = metadata !{i32 786445, metadata !98, metadata !"_M_pword", metadata !5, i32 502, i64 64, i64 64, i64 0, i32 0, metadata !101} ; [ DW_TAG_member ]
!101 = metadata !{i32 786447, null, metadata !"", null, i32 0, i64 64, i64 64, i64 0, i32 0, null} ; [ DW_TAG_pointer_type ]
!102 = metadata !{i32 786445, metadata !98, metadata !"_M_iword", metadata !5, i32 503, i64 64, i64 64, i64 64, i32 0, metadata !64} ; [ DW_TAG_member ]
!103 = metadata !{i32 786478, i32 0, metadata !98, metadata !"_Words", metadata !"_Words", metadata !"", metadata !5, i32 504, metadata !104, i1 false, i1 false, i32 0, i32 0, null, i32 256, i1 false, null, null, i32 0, metadata !89, i32 504} ; [ DW_TAG_subprogram ]
!104 = metadata !{i32 786453, i32 0, metadata !"", i32 0, i32 0, i64 0, i64 0, i64 0, i32 0, null, metadata !105, i32 0, i32 0} ; [ DW_TAG_subroutine_type ]
!105 = metadata !{null, metadata !106}
!106 = metadata !{i32 786447, i32 0, metadata !"", i32 0, i32 0, i64 64, i64 64, i64 0, i32 64, metadata !98} ; [ DW_TAG_pointer_type ]
!107 = metadata !{i32 786445, metadata !49, metadata !"_M_local_word", metadata !5, i32 513, i64 1024, i64 64, i64 512, i32 2, metadata !108} ; [ DW_TAG_member ]
!108 = metadata !{i32 786433, null, metadata !"", null, i32 0, i64 1024, i64 64, i32 0, i32 0, metadata !98, metadata !109, i32 0, i32 0} ; [ DW_TAG_array_type ]
!109 = metadata !{metadata !110}
!110 = metadata !{i32 786465, i64 0, i64 7}       ; [ DW_TAG_subrange_type ]
!111 = metadata !{i32 786445, metadata !49, metadata !"_M_word_size", metadata !5, i32 516, i64 32, i64 32, i64 1536, i32 2, metadata !56} ; [ DW_TAG_member ]
!112 = metadata !{i32 786445, metadata !49, metadata !"_M_word", metadata !5, i32 517, i64 64, i64 64, i64 1600, i32 2, metadata !113} ; [ DW_TAG_member ]
!113 = metadata !{i32 786447, null, metadata !"", null, i32 0, i64 64, i64 64, i64 0, i32 0, metadata !98} ; [ DW_TAG_pointer_type ]
!114 = metadata !{i32 786445, metadata !49, metadata !"_M_ios_locale", metadata !5, i32 523, i64 64, i64 64, i64 1664, i32 2, metadata !115} ; [ DW_TAG_member ]
!115 = metadata !{i32 786434, metadata !116, metadata !"locale", metadata !117, i32 63, i64 64, i64 64, i32 0, i32 0, null, metadata !118, i32 0, null, null} ; [ DW_TAG_class_type ]
!116 = metadata !{i32 786489, null, metadata !"std", metadata !117, i32 44} ; [ DW_TAG_namespace ]
!117 = metadata !{i32 786473, metadata !"/home/ece492fa18/Vivado/2017.4/lnx64/tools/gcc/lib/gcc/x86_64-unknown-linux-gnu/4.6.3/../../../../include/c++/4.6.3/bits/locale_classes.h", metadata !"/home/ece492fa18/RFNoCFrameSynchHWAccel/correlatorDev", null} ; [ DW_TAG_file_type ]
!118 = metadata !{metadata !119, metadata !280, metadata !284, metadata !289, metadata !292, metadata !295, metadata !298, metadata !299, metadata !302, metadata !797, metadata !800, metadata !801, metadata !804, metadata !807, metadata !810, metadata !811, metadata !812, metadata !815, metadata !816, metadata !817}
!119 = metadata !{i32 786445, metadata !115, metadata !"_M_impl", metadata !117, i32 280, i64 64, i64 64, i64 0, i32 1, metadata !120} ; [ DW_TAG_member ]
!120 = metadata !{i32 786447, null, metadata !"", null, i32 0, i64 64, i64 64, i64 0, i32 0, metadata !121} ; [ DW_TAG_pointer_type ]
!121 = metadata !{i32 786434, metadata !115, metadata !"_Impl", metadata !117, i32 475, i64 320, i64 64, i32 0, i32 0, null, metadata !122, i32 0, null, null} ; [ DW_TAG_class_type ]
!122 = metadata !{metadata !123, metadata !124, metadata !209, metadata !210, metadata !211, metadata !214, metadata !218, metadata !219, metadata !224, metadata !227, metadata !230, metadata !231, metadata !234, metadata !235, metadata !239, metadata !244, metadata !269, metadata !272, metadata !275, metadata !278, metadata !279}
!123 = metadata !{i32 786445, metadata !121, metadata !"_M_refcount", metadata !117, i32 495, i64 32, i64 32, i64 0, i32 1, metadata !84} ; [ DW_TAG_member ]
!124 = metadata !{i32 786445, metadata !121, metadata !"_M_facets", metadata !117, i32 496, i64 64, i64 64, i64 64, i32 1, metadata !125} ; [ DW_TAG_member ]
!125 = metadata !{i32 786447, null, metadata !"", null, i32 0, i64 64, i64 64, i64 0, i32 0, metadata !126} ; [ DW_TAG_pointer_type ]
!126 = metadata !{i32 786447, null, metadata !"", null, i32 0, i64 64, i64 64, i64 0, i32 0, metadata !127} ; [ DW_TAG_pointer_type ]
!127 = metadata !{i32 786470, null, metadata !"", null, i32 0, i64 0, i64 0, i64 0, i32 0, metadata !128} ; [ DW_TAG_const_type ]
!128 = metadata !{i32 786434, metadata !115, metadata !"facet", metadata !117, i32 338, i64 128, i64 64, i32 0, i32 0, null, metadata !129, i32 0, metadata !128, null} ; [ DW_TAG_class_type ]
!129 = metadata !{metadata !130, metadata !131, metadata !132, metadata !135, metadata !141, metadata !144, metadata !179, metadata !182, metadata !185, metadata !188, metadata !191, metadata !194, metadata !198, metadata !199, metadata !203, metadata !207, metadata !208}
!130 = metadata !{i32 786445, metadata !117, metadata !"_vptr$facet", metadata !117, i32 0, i64 64, i64 0, i64 0, i32 0, metadata !52} ; [ DW_TAG_member ]
!131 = metadata !{i32 786445, metadata !128, metadata !"_M_refcount", metadata !117, i32 344, i64 32, i64 32, i64 64, i32 1, metadata !84} ; [ DW_TAG_member ]
!132 = metadata !{i32 786478, i32 0, metadata !128, metadata !"_S_initialize_once", metadata !"_S_initialize_once", metadata !"_ZNSt6locale5facet18_S_initialize_onceEv", metadata !117, i32 357, metadata !133, i1 false, i1 false, i32 0, i32 0, null, i32 257, i1 false, null, null, i32 0, metadata !89, i32 357} ; [ DW_TAG_subprogram ]
!133 = metadata !{i32 786453, i32 0, metadata !"", i32 0, i32 0, i64 0, i64 0, i64 0, i32 0, null, metadata !134, i32 0, i32 0} ; [ DW_TAG_subroutine_type ]
!134 = metadata !{null}
!135 = metadata !{i32 786478, i32 0, metadata !128, metadata !"facet", metadata !"facet", metadata !"", metadata !117, i32 370, metadata !136, i1 false, i1 false, i32 0, i32 0, null, i32 386, i1 false, null, null, i32 0, metadata !89, i32 370} ; [ DW_TAG_subprogram ]
!136 = metadata !{i32 786453, i32 0, metadata !"", i32 0, i32 0, i64 0, i64 0, i64 0, i32 0, null, metadata !137, i32 0, i32 0} ; [ DW_TAG_subroutine_type ]
!137 = metadata !{null, metadata !138, metadata !139}
!138 = metadata !{i32 786447, i32 0, metadata !"", i32 0, i32 0, i64 64, i64 64, i64 0, i32 64, metadata !128} ; [ DW_TAG_pointer_type ]
!139 = metadata !{i32 786454, metadata !62, metadata !"size_t", metadata !117, i32 155, i64 0, i64 0, i64 0, i32 0, metadata !140} ; [ DW_TAG_typedef ]
!140 = metadata !{i32 786468, null, metadata !"long unsigned int", null, i32 0, i64 64, i64 64, i64 0, i32 0, i32 7} ; [ DW_TAG_base_type ]
!141 = metadata !{i32 786478, i32 0, metadata !128, metadata !"~facet", metadata !"~facet", metadata !"", metadata !117, i32 375, metadata !142, i1 false, i1 false, i32 1, i32 0, metadata !128, i32 258, i1 false, null, null, i32 0, metadata !89, i32 375} ; [ DW_TAG_subprogram ]
!142 = metadata !{i32 786453, i32 0, metadata !"", i32 0, i32 0, i64 0, i64 0, i64 0, i32 0, null, metadata !143, i32 0, i32 0} ; [ DW_TAG_subroutine_type ]
!143 = metadata !{null, metadata !138}
!144 = metadata !{i32 786478, i32 0, metadata !128, metadata !"_S_create_c_locale", metadata !"_S_create_c_locale", metadata !"_ZNSt6locale5facet18_S_create_c_localeERP15__locale_structPKcS2_", metadata !117, i32 378, metadata !145, i1 false, i1 false, i32 0, i32 0, null, i32 258, i1 false, null, null, i32 0, metadata !89, i32 378} ; [ DW_TAG_subprogram ]
!145 = metadata !{i32 786453, i32 0, metadata !"", i32 0, i32 0, i64 0, i64 0, i64 0, i32 0, null, metadata !146, i32 0, i32 0} ; [ DW_TAG_subroutine_type ]
!146 = metadata !{null, metadata !147, metadata !172, metadata !148}
!147 = metadata !{i32 786448, null, null, null, i32 0, i64 0, i64 0, i64 0, i32 0, metadata !148} ; [ DW_TAG_reference_type ]
!148 = metadata !{i32 786454, metadata !149, metadata !"__c_locale", metadata !117, i32 62, i64 0, i64 0, i64 0, i32 0, metadata !151} ; [ DW_TAG_typedef ]
!149 = metadata !{i32 786489, null, metadata !"std", metadata !150, i32 58} ; [ DW_TAG_namespace ]
!150 = metadata !{i32 786473, metadata !"/home/ece492fa18/Vivado/2017.4/lnx64/tools/gcc/lib/gcc/x86_64-unknown-linux-gnu/4.6.3/../../../../include/c++/4.6.3/x86_64-unknown-linux-gnu/bits/c++locale.h", metadata !"/home/ece492fa18/RFNoCFrameSynchHWAccel/correlatorDev", null} ; [ DW_TAG_file_type ]
!151 = metadata !{i32 786454, null, metadata !"__locale_t", metadata !117, i32 39, i64 0, i64 0, i64 0, i32 0, metadata !152} ; [ DW_TAG_typedef ]
!152 = metadata !{i32 786447, null, metadata !"", null, i32 0, i64 64, i64 64, i64 0, i32 0, metadata !153} ; [ DW_TAG_pointer_type ]
!153 = metadata !{i32 786434, null, metadata !"__locale_struct", metadata !154, i32 27, i64 1856, i64 64, i32 0, i32 0, null, metadata !155, i32 0, null, null} ; [ DW_TAG_class_type ]
!154 = metadata !{i32 786473, metadata !"/usr/include/xlocale.h", metadata !"/home/ece492fa18/RFNoCFrameSynchHWAccel/correlatorDev", null} ; [ DW_TAG_file_type ]
!155 = metadata !{metadata !156, metadata !162, metadata !166, metadata !169, metadata !170, metadata !175}
!156 = metadata !{i32 786445, metadata !153, metadata !"__locales", metadata !154, i32 30, i64 832, i64 64, i64 0, i32 0, metadata !157} ; [ DW_TAG_member ]
!157 = metadata !{i32 786433, null, metadata !"", null, i32 0, i64 832, i64 64, i32 0, i32 0, metadata !158, metadata !160, i32 0, i32 0} ; [ DW_TAG_array_type ]
!158 = metadata !{i32 786447, null, metadata !"", null, i32 0, i64 64, i64 64, i64 0, i32 0, metadata !159} ; [ DW_TAG_pointer_type ]
!159 = metadata !{i32 786434, null, metadata !"__locale_data", metadata !154, i32 30, i32 0, i32 0, i32 0, i32 4, null, null, i32 0} ; [ DW_TAG_class_type ]
!160 = metadata !{metadata !161}
!161 = metadata !{i32 786465, i64 0, i64 12}      ; [ DW_TAG_subrange_type ]
!162 = metadata !{i32 786445, metadata !153, metadata !"__ctype_b", metadata !154, i32 33, i64 64, i64 64, i64 832, i32 0, metadata !163} ; [ DW_TAG_member ]
!163 = metadata !{i32 786447, null, metadata !"", null, i32 0, i64 64, i64 64, i64 0, i32 0, metadata !164} ; [ DW_TAG_pointer_type ]
!164 = metadata !{i32 786470, null, metadata !"", null, i32 0, i64 0, i64 0, i64 0, i32 0, metadata !165} ; [ DW_TAG_const_type ]
!165 = metadata !{i32 786468, null, metadata !"unsigned short", null, i32 0, i64 16, i64 16, i64 0, i32 0, i32 7} ; [ DW_TAG_base_type ]
!166 = metadata !{i32 786445, metadata !153, metadata !"__ctype_tolower", metadata !154, i32 34, i64 64, i64 64, i64 896, i32 0, metadata !167} ; [ DW_TAG_member ]
!167 = metadata !{i32 786447, null, metadata !"", null, i32 0, i64 64, i64 64, i64 0, i32 0, metadata !168} ; [ DW_TAG_pointer_type ]
!168 = metadata !{i32 786470, null, metadata !"", null, i32 0, i64 0, i64 0, i64 0, i32 0, metadata !56} ; [ DW_TAG_const_type ]
!169 = metadata !{i32 786445, metadata !153, metadata !"__ctype_toupper", metadata !154, i32 35, i64 64, i64 64, i64 960, i32 0, metadata !167} ; [ DW_TAG_member ]
!170 = metadata !{i32 786445, metadata !153, metadata !"__names", metadata !154, i32 38, i64 832, i64 64, i64 1024, i32 0, metadata !171} ; [ DW_TAG_member ]
!171 = metadata !{i32 786433, null, metadata !"", null, i32 0, i64 832, i64 64, i32 0, i32 0, metadata !172, metadata !160, i32 0, i32 0} ; [ DW_TAG_array_type ]
!172 = metadata !{i32 786447, null, metadata !"", null, i32 0, i64 64, i64 64, i64 0, i32 0, metadata !173} ; [ DW_TAG_pointer_type ]
!173 = metadata !{i32 786470, null, metadata !"", null, i32 0, i64 0, i64 0, i64 0, i32 0, metadata !174} ; [ DW_TAG_const_type ]
!174 = metadata !{i32 786468, null, metadata !"char", null, i32 0, i64 8, i64 8, i64 0, i32 0, i32 6} ; [ DW_TAG_base_type ]
!175 = metadata !{i32 786478, i32 0, metadata !153, metadata !"__locale_struct", metadata !"__locale_struct", metadata !"", metadata !154, i32 41, metadata !176, i1 false, i1 false, i32 0, i32 0, null, i32 256, i1 false, null, null, i32 0, metadata !89, i32 41} ; [ DW_TAG_subprogram ]
!176 = metadata !{i32 786453, i32 0, metadata !"", i32 0, i32 0, i64 0, i64 0, i64 0, i32 0, null, metadata !177, i32 0, i32 0} ; [ DW_TAG_subroutine_type ]
!177 = metadata !{null, metadata !178}
!178 = metadata !{i32 786447, i32 0, metadata !"", i32 0, i32 0, i64 64, i64 64, i64 0, i32 64, metadata !153} ; [ DW_TAG_pointer_type ]
!179 = metadata !{i32 786478, i32 0, metadata !128, metadata !"_S_clone_c_locale", metadata !"_S_clone_c_locale", metadata !"_ZNSt6locale5facet17_S_clone_c_localeERP15__locale_struct", metadata !117, i32 382, metadata !180, i1 false, i1 false, i32 0, i32 0, null, i32 258, i1 false, null, null, i32 0, metadata !89, i32 382} ; [ DW_TAG_subprogram ]
!180 = metadata !{i32 786453, i32 0, metadata !"", i32 0, i32 0, i64 0, i64 0, i64 0, i32 0, null, metadata !181, i32 0, i32 0} ; [ DW_TAG_subroutine_type ]
!181 = metadata !{metadata !148, metadata !147}
!182 = metadata !{i32 786478, i32 0, metadata !128, metadata !"_S_destroy_c_locale", metadata !"_S_destroy_c_locale", metadata !"_ZNSt6locale5facet19_S_destroy_c_localeERP15__locale_struct", metadata !117, i32 385, metadata !183, i1 false, i1 false, i32 0, i32 0, null, i32 258, i1 false, null, null, i32 0, metadata !89, i32 385} ; [ DW_TAG_subprogram ]
!183 = metadata !{i32 786453, i32 0, metadata !"", i32 0, i32 0, i64 0, i64 0, i64 0, i32 0, null, metadata !184, i32 0, i32 0} ; [ DW_TAG_subroutine_type ]
!184 = metadata !{null, metadata !147}
!185 = metadata !{i32 786478, i32 0, metadata !128, metadata !"_S_lc_ctype_c_locale", metadata !"_S_lc_ctype_c_locale", metadata !"_ZNSt6locale5facet20_S_lc_ctype_c_localeEP15__locale_structPKc", metadata !117, i32 388, metadata !186, i1 false, i1 false, i32 0, i32 0, null, i32 258, i1 false, null, null, i32 0, metadata !89, i32 388} ; [ DW_TAG_subprogram ]
!186 = metadata !{i32 786453, i32 0, metadata !"", i32 0, i32 0, i64 0, i64 0, i64 0, i32 0, null, metadata !187, i32 0, i32 0} ; [ DW_TAG_subroutine_type ]
!187 = metadata !{metadata !148, metadata !148, metadata !172}
!188 = metadata !{i32 786478, i32 0, metadata !128, metadata !"_S_get_c_locale", metadata !"_S_get_c_locale", metadata !"_ZNSt6locale5facet15_S_get_c_localeEv", metadata !117, i32 393, metadata !189, i1 false, i1 false, i32 0, i32 0, null, i32 258, i1 false, null, null, i32 0, metadata !89, i32 393} ; [ DW_TAG_subprogram ]
!189 = metadata !{i32 786453, i32 0, metadata !"", i32 0, i32 0, i64 0, i64 0, i64 0, i32 0, null, metadata !190, i32 0, i32 0} ; [ DW_TAG_subroutine_type ]
!190 = metadata !{metadata !148}
!191 = metadata !{i32 786478, i32 0, metadata !128, metadata !"_S_get_c_name", metadata !"_S_get_c_name", metadata !"_ZNSt6locale5facet13_S_get_c_nameEv", metadata !117, i32 396, metadata !192, i1 false, i1 false, i32 0, i32 0, null, i32 258, i1 false, null, null, i32 0, metadata !89, i32 396} ; [ DW_TAG_subprogram ]
!192 = metadata !{i32 786453, i32 0, metadata !"", i32 0, i32 0, i64 0, i64 0, i64 0, i32 0, null, metadata !193, i32 0, i32 0} ; [ DW_TAG_subroutine_type ]
!193 = metadata !{metadata !172}
!194 = metadata !{i32 786478, i32 0, metadata !128, metadata !"_M_add_reference", metadata !"_M_add_reference", metadata !"_ZNKSt6locale5facet16_M_add_referenceEv", metadata !117, i32 400, metadata !195, i1 false, i1 false, i32 0, i32 0, null, i32 257, i1 false, null, null, i32 0, metadata !89, i32 400} ; [ DW_TAG_subprogram ]
!195 = metadata !{i32 786453, i32 0, metadata !"", i32 0, i32 0, i64 0, i64 0, i64 0, i32 0, null, metadata !196, i32 0, i32 0} ; [ DW_TAG_subroutine_type ]
!196 = metadata !{null, metadata !197}
!197 = metadata !{i32 786447, i32 0, metadata !"", i32 0, i32 0, i64 64, i64 64, i64 0, i32 64, metadata !127} ; [ DW_TAG_pointer_type ]
!198 = metadata !{i32 786478, i32 0, metadata !128, metadata !"_M_remove_reference", metadata !"_M_remove_reference", metadata !"_ZNKSt6locale5facet19_M_remove_referenceEv", metadata !117, i32 404, metadata !195, i1 false, i1 false, i32 0, i32 0, null, i32 257, i1 false, null, null, i32 0, metadata !89, i32 404} ; [ DW_TAG_subprogram ]
!199 = metadata !{i32 786478, i32 0, metadata !128, metadata !"facet", metadata !"facet", metadata !"", metadata !117, i32 418, metadata !200, i1 false, i1 false, i32 0, i32 0, null, i32 257, i1 false, null, null, i32 0, metadata !89, i32 418} ; [ DW_TAG_subprogram ]
!200 = metadata !{i32 786453, i32 0, metadata !"", i32 0, i32 0, i64 0, i64 0, i64 0, i32 0, null, metadata !201, i32 0, i32 0} ; [ DW_TAG_subroutine_type ]
!201 = metadata !{null, metadata !138, metadata !202}
!202 = metadata !{i32 786448, null, null, null, i32 0, i64 0, i64 0, i64 0, i32 0, metadata !127} ; [ DW_TAG_reference_type ]
!203 = metadata !{i32 786478, i32 0, metadata !128, metadata !"operator=", metadata !"operator=", metadata !"_ZNSt6locale5facetaSERKS0_", metadata !117, i32 421, metadata !204, i1 false, i1 false, i32 0, i32 0, null, i32 257, i1 false, null, null, i32 0, metadata !89, i32 421} ; [ DW_TAG_subprogram ]
!204 = metadata !{i32 786453, i32 0, metadata !"", i32 0, i32 0, i64 0, i64 0, i64 0, i32 0, null, metadata !205, i32 0, i32 0} ; [ DW_TAG_subroutine_type ]
!205 = metadata !{metadata !206, metadata !138, metadata !202}
!206 = metadata !{i32 786448, null, null, null, i32 0, i64 0, i64 0, i64 0, i32 0, metadata !128} ; [ DW_TAG_reference_type ]
!207 = metadata !{i32 786474, metadata !128, null, metadata !117, i32 0, i64 0, i64 0, i64 0, i32 0, metadata !121} ; [ DW_TAG_friend ]
!208 = metadata !{i32 786474, metadata !128, null, metadata !117, i32 0, i64 0, i64 0, i64 0, i32 0, metadata !115} ; [ DW_TAG_friend ]
!209 = metadata !{i32 786445, metadata !121, metadata !"_M_facets_size", metadata !117, i32 497, i64 64, i64 64, i64 128, i32 1, metadata !139} ; [ DW_TAG_member ]
!210 = metadata !{i32 786445, metadata !121, metadata !"_M_caches", metadata !117, i32 498, i64 64, i64 64, i64 192, i32 1, metadata !125} ; [ DW_TAG_member ]
!211 = metadata !{i32 786445, metadata !121, metadata !"_M_names", metadata !117, i32 499, i64 64, i64 64, i64 256, i32 1, metadata !212} ; [ DW_TAG_member ]
!212 = metadata !{i32 786447, null, metadata !"", null, i32 0, i64 64, i64 64, i64 0, i32 0, metadata !213} ; [ DW_TAG_pointer_type ]
!213 = metadata !{i32 786447, null, metadata !"", null, i32 0, i64 64, i64 64, i64 0, i32 0, metadata !174} ; [ DW_TAG_pointer_type ]
!214 = metadata !{i32 786478, i32 0, metadata !121, metadata !"_M_add_reference", metadata !"_M_add_reference", metadata !"_ZNSt6locale5_Impl16_M_add_referenceEv", metadata !117, i32 509, metadata !215, i1 false, i1 false, i32 0, i32 0, null, i32 257, i1 false, null, null, i32 0, metadata !89, i32 509} ; [ DW_TAG_subprogram ]
!215 = metadata !{i32 786453, i32 0, metadata !"", i32 0, i32 0, i64 0, i64 0, i64 0, i32 0, null, metadata !216, i32 0, i32 0} ; [ DW_TAG_subroutine_type ]
!216 = metadata !{null, metadata !217}
!217 = metadata !{i32 786447, i32 0, metadata !"", i32 0, i32 0, i64 64, i64 64, i64 0, i32 64, metadata !121} ; [ DW_TAG_pointer_type ]
!218 = metadata !{i32 786478, i32 0, metadata !121, metadata !"_M_remove_reference", metadata !"_M_remove_reference", metadata !"_ZNSt6locale5_Impl19_M_remove_referenceEv", metadata !117, i32 513, metadata !215, i1 false, i1 false, i32 0, i32 0, null, i32 257, i1 false, null, null, i32 0, metadata !89, i32 513} ; [ DW_TAG_subprogram ]
!219 = metadata !{i32 786478, i32 0, metadata !121, metadata !"_Impl", metadata !"_Impl", metadata !"", metadata !117, i32 527, metadata !220, i1 false, i1 false, i32 0, i32 0, null, i32 257, i1 false, null, null, i32 0, metadata !89, i32 527} ; [ DW_TAG_subprogram ]
!220 = metadata !{i32 786453, i32 0, metadata !"", i32 0, i32 0, i64 0, i64 0, i64 0, i32 0, null, metadata !221, i32 0, i32 0} ; [ DW_TAG_subroutine_type ]
!221 = metadata !{null, metadata !217, metadata !222, metadata !139}
!222 = metadata !{i32 786448, null, null, null, i32 0, i64 0, i64 0, i64 0, i32 0, metadata !223} ; [ DW_TAG_reference_type ]
!223 = metadata !{i32 786470, null, metadata !"", null, i32 0, i64 0, i64 0, i64 0, i32 0, metadata !121} ; [ DW_TAG_const_type ]
!224 = metadata !{i32 786478, i32 0, metadata !121, metadata !"_Impl", metadata !"_Impl", metadata !"", metadata !117, i32 528, metadata !225, i1 false, i1 false, i32 0, i32 0, null, i32 257, i1 false, null, null, i32 0, metadata !89, i32 528} ; [ DW_TAG_subprogram ]
!225 = metadata !{i32 786453, i32 0, metadata !"", i32 0, i32 0, i64 0, i64 0, i64 0, i32 0, null, metadata !226, i32 0, i32 0} ; [ DW_TAG_subroutine_type ]
!226 = metadata !{null, metadata !217, metadata !172, metadata !139}
!227 = metadata !{i32 786478, i32 0, metadata !121, metadata !"_Impl", metadata !"_Impl", metadata !"", metadata !117, i32 529, metadata !228, i1 false, i1 false, i32 0, i32 0, null, i32 257, i1 false, null, null, i32 0, metadata !89, i32 529} ; [ DW_TAG_subprogram ]
!228 = metadata !{i32 786453, i32 0, metadata !"", i32 0, i32 0, i64 0, i64 0, i64 0, i32 0, null, metadata !229, i32 0, i32 0} ; [ DW_TAG_subroutine_type ]
!229 = metadata !{null, metadata !217, metadata !139}
!230 = metadata !{i32 786478, i32 0, metadata !121, metadata !"~_Impl", metadata !"~_Impl", metadata !"", metadata !117, i32 531, metadata !215, i1 false, i1 false, i32 0, i32 0, null, i32 257, i1 false, null, null, i32 0, metadata !89, i32 531} ; [ DW_TAG_subprogram ]
!231 = metadata !{i32 786478, i32 0, metadata !121, metadata !"_Impl", metadata !"_Impl", metadata !"", metadata !117, i32 533, metadata !232, i1 false, i1 false, i32 0, i32 0, null, i32 257, i1 false, null, null, i32 0, metadata !89, i32 533} ; [ DW_TAG_subprogram ]
!232 = metadata !{i32 786453, i32 0, metadata !"", i32 0, i32 0, i64 0, i64 0, i64 0, i32 0, null, metadata !233, i32 0, i32 0} ; [ DW_TAG_subroutine_type ]
!233 = metadata !{null, metadata !217, metadata !222}
!234 = metadata !{i32 786478, i32 0, metadata !121, metadata !"operator=", metadata !"operator=", metadata !"_ZNSt6locale5_ImplaSERKS0_", metadata !117, i32 536, metadata !232, i1 false, i1 false, i32 0, i32 0, null, i32 257, i1 false, null, null, i32 0, metadata !89, i32 536} ; [ DW_TAG_subprogram ]
!235 = metadata !{i32 786478, i32 0, metadata !121, metadata !"_M_check_same_name", metadata !"_M_check_same_name", metadata !"_ZNSt6locale5_Impl18_M_check_same_nameEv", metadata !117, i32 539, metadata !236, i1 false, i1 false, i32 0, i32 0, null, i32 257, i1 false, null, null, i32 0, metadata !89, i32 539} ; [ DW_TAG_subprogram ]
!236 = metadata !{i32 786453, i32 0, metadata !"", i32 0, i32 0, i64 0, i64 0, i64 0, i32 0, null, metadata !237, i32 0, i32 0} ; [ DW_TAG_subroutine_type ]
!237 = metadata !{metadata !238, metadata !217}
!238 = metadata !{i32 786468, null, metadata !"bool", null, i32 0, i64 8, i64 8, i64 0, i32 0, i32 2} ; [ DW_TAG_base_type ]
!239 = metadata !{i32 786478, i32 0, metadata !121, metadata !"_M_replace_categories", metadata !"_M_replace_categories", metadata !"_ZNSt6locale5_Impl21_M_replace_categoriesEPKS0_i", metadata !117, i32 550, metadata !240, i1 false, i1 false, i32 0, i32 0, null, i32 257, i1 false, null, null, i32 0, metadata !89, i32 550} ; [ DW_TAG_subprogram ]
!240 = metadata !{i32 786453, i32 0, metadata !"", i32 0, i32 0, i64 0, i64 0, i64 0, i32 0, null, metadata !241, i32 0, i32 0} ; [ DW_TAG_subroutine_type ]
!241 = metadata !{null, metadata !217, metadata !242, metadata !243}
!242 = metadata !{i32 786447, null, metadata !"", null, i32 0, i64 64, i64 64, i64 0, i32 0, metadata !223} ; [ DW_TAG_pointer_type ]
!243 = metadata !{i32 786454, metadata !115, metadata !"category", metadata !117, i32 68, i64 0, i64 0, i64 0, i32 0, metadata !56} ; [ DW_TAG_typedef ]
!244 = metadata !{i32 786478, i32 0, metadata !121, metadata !"_M_replace_category", metadata !"_M_replace_category", metadata !"_ZNSt6locale5_Impl19_M_replace_categoryEPKS0_PKPKNS_2idE", metadata !117, i32 553, metadata !245, i1 false, i1 false, i32 0, i32 0, null, i32 257, i1 false, null, null, i32 0, metadata !89, i32 553} ; [ DW_TAG_subprogram ]
!245 = metadata !{i32 786453, i32 0, metadata !"", i32 0, i32 0, i64 0, i64 0, i64 0, i32 0, null, metadata !246, i32 0, i32 0} ; [ DW_TAG_subroutine_type ]
!246 = metadata !{null, metadata !217, metadata !242, metadata !247}
!247 = metadata !{i32 786447, null, metadata !"", null, i32 0, i64 64, i64 64, i64 0, i32 0, metadata !248} ; [ DW_TAG_pointer_type ]
!248 = metadata !{i32 786470, null, metadata !"", null, i32 0, i64 0, i64 0, i64 0, i32 0, metadata !249} ; [ DW_TAG_const_type ]
!249 = metadata !{i32 786447, null, metadata !"", null, i32 0, i64 64, i64 64, i64 0, i32 0, metadata !250} ; [ DW_TAG_pointer_type ]
!250 = metadata !{i32 786470, null, metadata !"", null, i32 0, i64 0, i64 0, i64 0, i32 0, metadata !251} ; [ DW_TAG_const_type ]
!251 = metadata !{i32 786434, metadata !115, metadata !"id", metadata !117, i32 436, i64 64, i64 64, i32 0, i32 0, null, metadata !252, i32 0, null, null} ; [ DW_TAG_class_type ]
!252 = metadata !{metadata !253, metadata !254, metadata !259, metadata !260, metadata !263, metadata !267, metadata !268}
!253 = metadata !{i32 786445, metadata !251, metadata !"_M_index", metadata !117, i32 453, i64 64, i64 64, i64 0, i32 1, metadata !139} ; [ DW_TAG_member ]
!254 = metadata !{i32 786478, i32 0, metadata !251, metadata !"operator=", metadata !"operator=", metadata !"_ZNSt6locale2idaSERKS0_", metadata !117, i32 459, metadata !255, i1 false, i1 false, i32 0, i32 0, null, i32 257, i1 false, null, null, i32 0, metadata !89, i32 459} ; [ DW_TAG_subprogram ]
!255 = metadata !{i32 786453, i32 0, metadata !"", i32 0, i32 0, i64 0, i64 0, i64 0, i32 0, null, metadata !256, i32 0, i32 0} ; [ DW_TAG_subroutine_type ]
!256 = metadata !{null, metadata !257, metadata !258}
!257 = metadata !{i32 786447, i32 0, metadata !"", i32 0, i32 0, i64 64, i64 64, i64 0, i32 64, metadata !251} ; [ DW_TAG_pointer_type ]
!258 = metadata !{i32 786448, null, null, null, i32 0, i64 0, i64 0, i64 0, i32 0, metadata !250} ; [ DW_TAG_reference_type ]
!259 = metadata !{i32 786478, i32 0, metadata !251, metadata !"id", metadata !"id", metadata !"", metadata !117, i32 461, metadata !255, i1 false, i1 false, i32 0, i32 0, null, i32 257, i1 false, null, null, i32 0, metadata !89, i32 461} ; [ DW_TAG_subprogram ]
!260 = metadata !{i32 786478, i32 0, metadata !251, metadata !"id", metadata !"id", metadata !"", metadata !117, i32 467, metadata !261, i1 false, i1 false, i32 0, i32 0, null, i32 256, i1 false, null, null, i32 0, metadata !89, i32 467} ; [ DW_TAG_subprogram ]
!261 = metadata !{i32 786453, i32 0, metadata !"", i32 0, i32 0, i64 0, i64 0, i64 0, i32 0, null, metadata !262, i32 0, i32 0} ; [ DW_TAG_subroutine_type ]
!262 = metadata !{null, metadata !257}
!263 = metadata !{i32 786478, i32 0, metadata !251, metadata !"_M_id", metadata !"_M_id", metadata !"_ZNKSt6locale2id5_M_idEv", metadata !117, i32 470, metadata !264, i1 false, i1 false, i32 0, i32 0, null, i32 256, i1 false, null, null, i32 0, metadata !89, i32 470} ; [ DW_TAG_subprogram ]
!264 = metadata !{i32 786453, i32 0, metadata !"", i32 0, i32 0, i64 0, i64 0, i64 0, i32 0, null, metadata !265, i32 0, i32 0} ; [ DW_TAG_subroutine_type ]
!265 = metadata !{metadata !139, metadata !266}
!266 = metadata !{i32 786447, i32 0, metadata !"", i32 0, i32 0, i64 64, i64 64, i64 0, i32 64, metadata !250} ; [ DW_TAG_pointer_type ]
!267 = metadata !{i32 786474, metadata !251, null, metadata !117, i32 0, i64 0, i64 0, i64 0, i32 0, metadata !121} ; [ DW_TAG_friend ]
!268 = metadata !{i32 786474, metadata !251, null, metadata !117, i32 0, i64 0, i64 0, i64 0, i32 0, metadata !115} ; [ DW_TAG_friend ]
!269 = metadata !{i32 786478, i32 0, metadata !121, metadata !"_M_replace_facet", metadata !"_M_replace_facet", metadata !"_ZNSt6locale5_Impl16_M_replace_facetEPKS0_PKNS_2idE", metadata !117, i32 556, metadata !270, i1 false, i1 false, i32 0, i32 0, null, i32 257, i1 false, null, null, i32 0, metadata !89, i32 556} ; [ DW_TAG_subprogram ]
!270 = metadata !{i32 786453, i32 0, metadata !"", i32 0, i32 0, i64 0, i64 0, i64 0, i32 0, null, metadata !271, i32 0, i32 0} ; [ DW_TAG_subroutine_type ]
!271 = metadata !{null, metadata !217, metadata !242, metadata !249}
!272 = metadata !{i32 786478, i32 0, metadata !121, metadata !"_M_install_facet", metadata !"_M_install_facet", metadata !"_ZNSt6locale5_Impl16_M_install_facetEPKNS_2idEPKNS_5facetE", metadata !117, i32 559, metadata !273, i1 false, i1 false, i32 0, i32 0, null, i32 257, i1 false, null, null, i32 0, metadata !89, i32 559} ; [ DW_TAG_subprogram ]
!273 = metadata !{i32 786453, i32 0, metadata !"", i32 0, i32 0, i64 0, i64 0, i64 0, i32 0, null, metadata !274, i32 0, i32 0} ; [ DW_TAG_subroutine_type ]
!274 = metadata !{null, metadata !217, metadata !249, metadata !126}
!275 = metadata !{i32 786478, i32 0, metadata !121, metadata !"_M_install_cache", metadata !"_M_install_cache", metadata !"_ZNSt6locale5_Impl16_M_install_cacheEPKNS_5facetEm", metadata !117, i32 567, metadata !276, i1 false, i1 false, i32 0, i32 0, null, i32 257, i1 false, null, null, i32 0, metadata !89, i32 567} ; [ DW_TAG_subprogram ]
!276 = metadata !{i32 786453, i32 0, metadata !"", i32 0, i32 0, i64 0, i64 0, i64 0, i32 0, null, metadata !277, i32 0, i32 0} ; [ DW_TAG_subroutine_type ]
!277 = metadata !{null, metadata !217, metadata !126, metadata !139}
!278 = metadata !{i32 786474, metadata !121, null, metadata !117, i32 0, i64 0, i64 0, i64 0, i32 0, metadata !128} ; [ DW_TAG_friend ]
!279 = metadata !{i32 786474, metadata !121, null, metadata !117, i32 0, i64 0, i64 0, i64 0, i32 0, metadata !115} ; [ DW_TAG_friend ]
!280 = metadata !{i32 786478, i32 0, metadata !115, metadata !"locale", metadata !"locale", metadata !"", metadata !117, i32 118, metadata !281, i1 false, i1 false, i32 0, i32 0, null, i32 256, i1 false, null, null, i32 0, metadata !89, i32 118} ; [ DW_TAG_subprogram ]
!281 = metadata !{i32 786453, i32 0, metadata !"", i32 0, i32 0, i64 0, i64 0, i64 0, i32 0, null, metadata !282, i32 0, i32 0} ; [ DW_TAG_subroutine_type ]
!282 = metadata !{null, metadata !283}
!283 = metadata !{i32 786447, i32 0, metadata !"", i32 0, i32 0, i64 64, i64 64, i64 0, i32 64, metadata !115} ; [ DW_TAG_pointer_type ]
!284 = metadata !{i32 786478, i32 0, metadata !115, metadata !"locale", metadata !"locale", metadata !"", metadata !117, i32 127, metadata !285, i1 false, i1 false, i32 0, i32 0, null, i32 256, i1 false, null, null, i32 0, metadata !89, i32 127} ; [ DW_TAG_subprogram ]
!285 = metadata !{i32 786453, i32 0, metadata !"", i32 0, i32 0, i64 0, i64 0, i64 0, i32 0, null, metadata !286, i32 0, i32 0} ; [ DW_TAG_subroutine_type ]
!286 = metadata !{null, metadata !283, metadata !287}
!287 = metadata !{i32 786448, null, null, null, i32 0, i64 0, i64 0, i64 0, i32 0, metadata !288} ; [ DW_TAG_reference_type ]
!288 = metadata !{i32 786470, null, metadata !"", null, i32 0, i64 0, i64 0, i64 0, i32 0, metadata !115} ; [ DW_TAG_const_type ]
!289 = metadata !{i32 786478, i32 0, metadata !115, metadata !"locale", metadata !"locale", metadata !"", metadata !117, i32 138, metadata !290, i1 false, i1 false, i32 0, i32 0, null, i32 384, i1 false, null, null, i32 0, metadata !89, i32 138} ; [ DW_TAG_subprogram ]
!290 = metadata !{i32 786453, i32 0, metadata !"", i32 0, i32 0, i64 0, i64 0, i64 0, i32 0, null, metadata !291, i32 0, i32 0} ; [ DW_TAG_subroutine_type ]
!291 = metadata !{null, metadata !283, metadata !172}
!292 = metadata !{i32 786478, i32 0, metadata !115, metadata !"locale", metadata !"locale", metadata !"", metadata !117, i32 152, metadata !293, i1 false, i1 false, i32 0, i32 0, null, i32 256, i1 false, null, null, i32 0, metadata !89, i32 152} ; [ DW_TAG_subprogram ]
!293 = metadata !{i32 786453, i32 0, metadata !"", i32 0, i32 0, i64 0, i64 0, i64 0, i32 0, null, metadata !294, i32 0, i32 0} ; [ DW_TAG_subroutine_type ]
!294 = metadata !{null, metadata !283, metadata !287, metadata !172, metadata !243}
!295 = metadata !{i32 786478, i32 0, metadata !115, metadata !"locale", metadata !"locale", metadata !"", metadata !117, i32 165, metadata !296, i1 false, i1 false, i32 0, i32 0, null, i32 256, i1 false, null, null, i32 0, metadata !89, i32 165} ; [ DW_TAG_subprogram ]
!296 = metadata !{i32 786453, i32 0, metadata !"", i32 0, i32 0, i64 0, i64 0, i64 0, i32 0, null, metadata !297, i32 0, i32 0} ; [ DW_TAG_subroutine_type ]
!297 = metadata !{null, metadata !283, metadata !287, metadata !287, metadata !243}
!298 = metadata !{i32 786478, i32 0, metadata !115, metadata !"~locale", metadata !"~locale", metadata !"", metadata !117, i32 181, metadata !281, i1 false, i1 false, i32 0, i32 0, null, i32 256, i1 false, null, null, i32 0, metadata !89, i32 181} ; [ DW_TAG_subprogram ]
!299 = metadata !{i32 786478, i32 0, metadata !115, metadata !"operator=", metadata !"operator=", metadata !"_ZNSt6localeaSERKS_", metadata !117, i32 192, metadata !300, i1 false, i1 false, i32 0, i32 0, null, i32 256, i1 false, null, null, i32 0, metadata !89, i32 192} ; [ DW_TAG_subprogram ]
!300 = metadata !{i32 786453, i32 0, metadata !"", i32 0, i32 0, i64 0, i64 0, i64 0, i32 0, null, metadata !301, i32 0, i32 0} ; [ DW_TAG_subroutine_type ]
!301 = metadata !{metadata !287, metadata !283, metadata !287}
!302 = metadata !{i32 786478, i32 0, metadata !115, metadata !"name", metadata !"name", metadata !"_ZNKSt6locale4nameEv", metadata !117, i32 216, metadata !303, i1 false, i1 false, i32 0, i32 0, null, i32 256, i1 false, null, null, i32 0, metadata !89, i32 216} ; [ DW_TAG_subprogram ]
!303 = metadata !{i32 786453, i32 0, metadata !"", i32 0, i32 0, i64 0, i64 0, i64 0, i32 0, null, metadata !304, i32 0, i32 0} ; [ DW_TAG_subroutine_type ]
!304 = metadata !{metadata !305, metadata !796}
!305 = metadata !{i32 786454, metadata !306, metadata !"string", metadata !117, i32 64, i64 0, i64 0, i64 0, i32 0, metadata !308} ; [ DW_TAG_typedef ]
!306 = metadata !{i32 786489, null, metadata !"std", metadata !307, i32 42} ; [ DW_TAG_namespace ]
!307 = metadata !{i32 786473, metadata !"/home/ece492fa18/Vivado/2017.4/lnx64/tools/gcc/lib/gcc/x86_64-unknown-linux-gnu/4.6.3/../../../../include/c++/4.6.3/bits/stringfwd.h", metadata !"/home/ece492fa18/RFNoCFrameSynchHWAccel/correlatorDev", null} ; [ DW_TAG_file_type ]
!308 = metadata !{i32 786434, metadata !306, metadata !"basic_string<char>", metadata !309, i32 1133, i64 64, i64 64, i32 0, i32 0, null, metadata !310, i32 0, null, metadata !740} ; [ DW_TAG_class_type ]
!309 = metadata !{i32 786473, metadata !"/home/ece492fa18/Vivado/2017.4/lnx64/tools/gcc/lib/gcc/x86_64-unknown-linux-gnu/4.6.3/../../../../include/c++/4.6.3/bits/basic_string.tcc", metadata !"/home/ece492fa18/RFNoCFrameSynchHWAccel/correlatorDev", null} ; [ DW_TAG_file_type ]
!310 = metadata !{metadata !311, metadata !384, metadata !389, metadata !393, metadata !442, metadata !448, metadata !449, metadata !452, metadata !455, metadata !458, metadata !461, metadata !464, metadata !467, metadata !468, metadata !471, metadata !474, metadata !479, metadata !482, metadata !485, metadata !488, metadata !491, metadata !492, metadata !493, metadata !494, metadata !497, metadata !501, metadata !504, metadata !507, metadata !510, metadata !513, metadata !516, metadata !517, metadata !521, metadata !524, metadata !527, metadata !530, metadata !533, metadata !534, metadata !535, metadata !540, metadata !545, metadata !546, metadata !547, metadata !550, metadata !551, metadata !552, metadata !555, metadata !558, metadata !559, metadata !560, metadata !561, metadata !564, metadata !569, metadata !574, metadata !575, metadata !576, metadata !577, metadata !578, metadata !579, metadata !580, metadata !583, metadata !586, metadata !587, metadata !590, metadata !593, metadata !594, metadata !595, metadata !596, metadata !597, metadata !598, metadata !601, metadata !604, metadata !607, metadata !610, metadata !613, metadata !616, metadata !619, metadata !622, metadata !625, metadata !628, metadata !631, metadata !634, metadata !637, metadata !640, metadata !643, metadata !646, metadata !649, metadata !652, metadata !655, metadata !658, metadata !661, metadata !664, metadata !667, metadata !668, metadata !669, metadata !672, metadata !673, metadata !676, metadata !679, metadata !682, metadata !683, metadata !687, metadata !690, metadata !693, metadata !696, metadata !699, metadata !700, metadata !701, metadata !702, metadata !703, metadata !704, metadata !705, metadata !706, metadata !707, metadata !708, metadata !709, metadata !710, metadata !711, metadata !712, metadata !713, metadata !714, metadata !715, metadata !716, metadata !717, metadata !718, metadata !719, metadata !722, metadata !725, metadata !728, metadata !731, metadata !734, metadata !737}
!311 = metadata !{i32 786445, metadata !308, metadata !"_M_dataplus", metadata !312, i32 283, i64 64, i64 64, i64 0, i32 1, metadata !313} ; [ DW_TAG_member ]
!312 = metadata !{i32 786473, metadata !"/home/ece492fa18/Vivado/2017.4/lnx64/tools/gcc/lib/gcc/x86_64-unknown-linux-gnu/4.6.3/../../../../include/c++/4.6.3/bits/basic_string.h", metadata !"/home/ece492fa18/RFNoCFrameSynchHWAccel/correlatorDev", null} ; [ DW_TAG_file_type ]
!313 = metadata !{i32 786434, metadata !308, metadata !"_Alloc_hider", metadata !312, i32 266, i64 64, i64 64, i32 0, i32 0, null, metadata !314, i32 0, null, null} ; [ DW_TAG_class_type ]
!314 = metadata !{metadata !315, metadata !379, metadata !380}
!315 = metadata !{i32 786460, metadata !313, null, metadata !312, i32 0, i64 0, i64 0, i64 0, i32 0, metadata !316} ; [ DW_TAG_inheritance ]
!316 = metadata !{i32 786434, metadata !306, metadata !"allocator<char>", metadata !317, i32 143, i64 8, i64 8, i32 0, i32 0, null, metadata !318, i32 0, null, metadata !377} ; [ DW_TAG_class_type ]
!317 = metadata !{i32 786473, metadata !"/home/ece492fa18/Vivado/2017.4/lnx64/tools/gcc/lib/gcc/x86_64-unknown-linux-gnu/4.6.3/../../../../include/c++/4.6.3/bits/allocator.h", metadata !"/home/ece492fa18/RFNoCFrameSynchHWAccel/correlatorDev", null} ; [ DW_TAG_file_type ]
!318 = metadata !{metadata !319, metadata !367, metadata !371, metadata !376}
!319 = metadata !{i32 786460, metadata !316, null, metadata !317, i32 0, i64 0, i64 0, i64 0, i32 0, metadata !320} ; [ DW_TAG_inheritance ]
!320 = metadata !{i32 786434, metadata !321, metadata !"new_allocator<char>", metadata !322, i32 54, i64 8, i64 8, i32 0, i32 0, null, metadata !323, i32 0, null, metadata !365} ; [ DW_TAG_class_type ]
!321 = metadata !{i32 786489, null, metadata !"__gnu_cxx", metadata !322, i32 38} ; [ DW_TAG_namespace ]
!322 = metadata !{i32 786473, metadata !"/home/ece492fa18/Vivado/2017.4/lnx64/tools/gcc/lib/gcc/x86_64-unknown-linux-gnu/4.6.3/../../../../include/c++/4.6.3/ext/new_allocator.h", metadata !"/home/ece492fa18/RFNoCFrameSynchHWAccel/correlatorDev", null} ; [ DW_TAG_file_type ]
!323 = metadata !{metadata !324, metadata !328, metadata !333, metadata !334, metadata !341, metadata !347, metadata !353, metadata !356, metadata !359, metadata !362}
!324 = metadata !{i32 786478, i32 0, metadata !320, metadata !"new_allocator", metadata !"new_allocator", metadata !"", metadata !322, i32 69, metadata !325, i1 false, i1 false, i32 0, i32 0, null, i32 256, i1 false, null, null, i32 0, metadata !89, i32 69} ; [ DW_TAG_subprogram ]
!325 = metadata !{i32 786453, i32 0, metadata !"", i32 0, i32 0, i64 0, i64 0, i64 0, i32 0, null, metadata !326, i32 0, i32 0} ; [ DW_TAG_subroutine_type ]
!326 = metadata !{null, metadata !327}
!327 = metadata !{i32 786447, i32 0, metadata !"", i32 0, i32 0, i64 64, i64 64, i64 0, i32 64, metadata !320} ; [ DW_TAG_pointer_type ]
!328 = metadata !{i32 786478, i32 0, metadata !320, metadata !"new_allocator", metadata !"new_allocator", metadata !"", metadata !322, i32 71, metadata !329, i1 false, i1 false, i32 0, i32 0, null, i32 256, i1 false, null, null, i32 0, metadata !89, i32 71} ; [ DW_TAG_subprogram ]
!329 = metadata !{i32 786453, i32 0, metadata !"", i32 0, i32 0, i64 0, i64 0, i64 0, i32 0, null, metadata !330, i32 0, i32 0} ; [ DW_TAG_subroutine_type ]
!330 = metadata !{null, metadata !327, metadata !331}
!331 = metadata !{i32 786448, null, null, null, i32 0, i64 0, i64 0, i64 0, i32 0, metadata !332} ; [ DW_TAG_reference_type ]
!332 = metadata !{i32 786470, null, metadata !"", null, i32 0, i64 0, i64 0, i64 0, i32 0, metadata !320} ; [ DW_TAG_const_type ]
!333 = metadata !{i32 786478, i32 0, metadata !320, metadata !"~new_allocator", metadata !"~new_allocator", metadata !"", metadata !322, i32 76, metadata !325, i1 false, i1 false, i32 0, i32 0, null, i32 256, i1 false, null, null, i32 0, metadata !89, i32 76} ; [ DW_TAG_subprogram ]
!334 = metadata !{i32 786478, i32 0, metadata !320, metadata !"address", metadata !"address", metadata !"_ZNK9__gnu_cxx13new_allocatorIcE7addressERc", metadata !322, i32 79, metadata !335, i1 false, i1 false, i32 0, i32 0, null, i32 256, i1 false, null, null, i32 0, metadata !89, i32 79} ; [ DW_TAG_subprogram ]
!335 = metadata !{i32 786453, i32 0, metadata !"", i32 0, i32 0, i64 0, i64 0, i64 0, i32 0, null, metadata !336, i32 0, i32 0} ; [ DW_TAG_subroutine_type ]
!336 = metadata !{metadata !337, metadata !338, metadata !339}
!337 = metadata !{i32 786454, metadata !320, metadata !"pointer", metadata !322, i32 59, i64 0, i64 0, i64 0, i32 0, metadata !213} ; [ DW_TAG_typedef ]
!338 = metadata !{i32 786447, i32 0, metadata !"", i32 0, i32 0, i64 64, i64 64, i64 0, i32 64, metadata !332} ; [ DW_TAG_pointer_type ]
!339 = metadata !{i32 786454, metadata !320, metadata !"reference", metadata !322, i32 61, i64 0, i64 0, i64 0, i32 0, metadata !340} ; [ DW_TAG_typedef ]
!340 = metadata !{i32 786448, null, null, null, i32 0, i64 0, i64 0, i64 0, i32 0, metadata !174} ; [ DW_TAG_reference_type ]
!341 = metadata !{i32 786478, i32 0, metadata !320, metadata !"address", metadata !"address", metadata !"_ZNK9__gnu_cxx13new_allocatorIcE7addressERKc", metadata !322, i32 82, metadata !342, i1 false, i1 false, i32 0, i32 0, null, i32 256, i1 false, null, null, i32 0, metadata !89, i32 82} ; [ DW_TAG_subprogram ]
!342 = metadata !{i32 786453, i32 0, metadata !"", i32 0, i32 0, i64 0, i64 0, i64 0, i32 0, null, metadata !343, i32 0, i32 0} ; [ DW_TAG_subroutine_type ]
!343 = metadata !{metadata !344, metadata !338, metadata !345}
!344 = metadata !{i32 786454, metadata !320, metadata !"const_pointer", metadata !322, i32 60, i64 0, i64 0, i64 0, i32 0, metadata !172} ; [ DW_TAG_typedef ]
!345 = metadata !{i32 786454, metadata !320, metadata !"const_reference", metadata !322, i32 62, i64 0, i64 0, i64 0, i32 0, metadata !346} ; [ DW_TAG_typedef ]
!346 = metadata !{i32 786448, null, null, null, i32 0, i64 0, i64 0, i64 0, i32 0, metadata !173} ; [ DW_TAG_reference_type ]
!347 = metadata !{i32 786478, i32 0, metadata !320, metadata !"allocate", metadata !"allocate", metadata !"_ZN9__gnu_cxx13new_allocatorIcE8allocateEmPKv", metadata !322, i32 87, metadata !348, i1 false, i1 false, i32 0, i32 0, null, i32 256, i1 false, null, null, i32 0, metadata !89, i32 87} ; [ DW_TAG_subprogram ]
!348 = metadata !{i32 786453, i32 0, metadata !"", i32 0, i32 0, i64 0, i64 0, i64 0, i32 0, null, metadata !349, i32 0, i32 0} ; [ DW_TAG_subroutine_type ]
!349 = metadata !{metadata !337, metadata !327, metadata !350, metadata !351}
!350 = metadata !{i32 786454, null, metadata !"size_type", metadata !322, i32 57, i64 0, i64 0, i64 0, i32 0, metadata !139} ; [ DW_TAG_typedef ]
!351 = metadata !{i32 786447, null, metadata !"", null, i32 0, i64 64, i64 64, i64 0, i32 0, metadata !352} ; [ DW_TAG_pointer_type ]
!352 = metadata !{i32 786470, null, metadata !"", null, i32 0, i64 0, i64 0, i64 0, i32 0, null} ; [ DW_TAG_const_type ]
!353 = metadata !{i32 786478, i32 0, metadata !320, metadata !"deallocate", metadata !"deallocate", metadata !"_ZN9__gnu_cxx13new_allocatorIcE10deallocateEPcm", metadata !322, i32 97, metadata !354, i1 false, i1 false, i32 0, i32 0, null, i32 256, i1 false, null, null, i32 0, metadata !89, i32 97} ; [ DW_TAG_subprogram ]
!354 = metadata !{i32 786453, i32 0, metadata !"", i32 0, i32 0, i64 0, i64 0, i64 0, i32 0, null, metadata !355, i32 0, i32 0} ; [ DW_TAG_subroutine_type ]
!355 = metadata !{null, metadata !327, metadata !337, metadata !350}
!356 = metadata !{i32 786478, i32 0, metadata !320, metadata !"max_size", metadata !"max_size", metadata !"_ZNK9__gnu_cxx13new_allocatorIcE8max_sizeEv", metadata !322, i32 101, metadata !357, i1 false, i1 false, i32 0, i32 0, null, i32 256, i1 false, null, null, i32 0, metadata !89, i32 101} ; [ DW_TAG_subprogram ]
!357 = metadata !{i32 786453, i32 0, metadata !"", i32 0, i32 0, i64 0, i64 0, i64 0, i32 0, null, metadata !358, i32 0, i32 0} ; [ DW_TAG_subroutine_type ]
!358 = metadata !{metadata !350, metadata !338}
!359 = metadata !{i32 786478, i32 0, metadata !320, metadata !"construct", metadata !"construct", metadata !"_ZN9__gnu_cxx13new_allocatorIcE9constructEPcRKc", metadata !322, i32 107, metadata !360, i1 false, i1 false, i32 0, i32 0, null, i32 256, i1 false, null, null, i32 0, metadata !89, i32 107} ; [ DW_TAG_subprogram ]
!360 = metadata !{i32 786453, i32 0, metadata !"", i32 0, i32 0, i64 0, i64 0, i64 0, i32 0, null, metadata !361, i32 0, i32 0} ; [ DW_TAG_subroutine_type ]
!361 = metadata !{null, metadata !327, metadata !337, metadata !346}
!362 = metadata !{i32 786478, i32 0, metadata !320, metadata !"destroy", metadata !"destroy", metadata !"_ZN9__gnu_cxx13new_allocatorIcE7destroyEPc", metadata !322, i32 118, metadata !363, i1 false, i1 false, i32 0, i32 0, null, i32 256, i1 false, null, null, i32 0, metadata !89, i32 118} ; [ DW_TAG_subprogram ]
!363 = metadata !{i32 786453, i32 0, metadata !"", i32 0, i32 0, i64 0, i64 0, i64 0, i32 0, null, metadata !364, i32 0, i32 0} ; [ DW_TAG_subroutine_type ]
!364 = metadata !{null, metadata !327, metadata !337}
!365 = metadata !{metadata !366}
!366 = metadata !{i32 786479, null, metadata !"_Tp", metadata !174, null, i32 0, i32 0} ; [ DW_TAG_template_type_parameter ]
!367 = metadata !{i32 786478, i32 0, metadata !316, metadata !"allocator", metadata !"allocator", metadata !"", metadata !317, i32 107, metadata !368, i1 false, i1 false, i32 0, i32 0, null, i32 256, i1 false, null, null, i32 0, metadata !89, i32 107} ; [ DW_TAG_subprogram ]
!368 = metadata !{i32 786453, i32 0, metadata !"", i32 0, i32 0, i64 0, i64 0, i64 0, i32 0, null, metadata !369, i32 0, i32 0} ; [ DW_TAG_subroutine_type ]
!369 = metadata !{null, metadata !370}
!370 = metadata !{i32 786447, i32 0, metadata !"", i32 0, i32 0, i64 64, i64 64, i64 0, i32 64, metadata !316} ; [ DW_TAG_pointer_type ]
!371 = metadata !{i32 786478, i32 0, metadata !316, metadata !"allocator", metadata !"allocator", metadata !"", metadata !317, i32 109, metadata !372, i1 false, i1 false, i32 0, i32 0, null, i32 256, i1 false, null, null, i32 0, metadata !89, i32 109} ; [ DW_TAG_subprogram ]
!372 = metadata !{i32 786453, i32 0, metadata !"", i32 0, i32 0, i64 0, i64 0, i64 0, i32 0, null, metadata !373, i32 0, i32 0} ; [ DW_TAG_subroutine_type ]
!373 = metadata !{null, metadata !370, metadata !374}
!374 = metadata !{i32 786448, null, null, null, i32 0, i64 0, i64 0, i64 0, i32 0, metadata !375} ; [ DW_TAG_reference_type ]
!375 = metadata !{i32 786470, null, metadata !"", null, i32 0, i64 0, i64 0, i64 0, i32 0, metadata !316} ; [ DW_TAG_const_type ]
!376 = metadata !{i32 786478, i32 0, metadata !316, metadata !"~allocator", metadata !"~allocator", metadata !"", metadata !317, i32 115, metadata !368, i1 false, i1 false, i32 0, i32 0, null, i32 256, i1 false, null, null, i32 0, metadata !89, i32 115} ; [ DW_TAG_subprogram ]
!377 = metadata !{metadata !378}
!378 = metadata !{i32 786479, null, metadata !"_Alloc", metadata !174, null, i32 0, i32 0} ; [ DW_TAG_template_type_parameter ]
!379 = metadata !{i32 786445, metadata !313, metadata !"_M_p", metadata !312, i32 271, i64 64, i64 64, i64 0, i32 0, metadata !213} ; [ DW_TAG_member ]
!380 = metadata !{i32 786478, i32 0, metadata !313, metadata !"_Alloc_hider", metadata !"_Alloc_hider", metadata !"", metadata !312, i32 268, metadata !381, i1 false, i1 false, i32 0, i32 0, null, i32 256, i1 false, null, null, i32 0, metadata !89, i32 268} ; [ DW_TAG_subprogram ]
!381 = metadata !{i32 786453, i32 0, metadata !"", i32 0, i32 0, i64 0, i64 0, i64 0, i32 0, null, metadata !382, i32 0, i32 0} ; [ DW_TAG_subroutine_type ]
!382 = metadata !{null, metadata !383, metadata !213, metadata !374}
!383 = metadata !{i32 786447, i32 0, metadata !"", i32 0, i32 0, i64 64, i64 64, i64 0, i32 64, metadata !313} ; [ DW_TAG_pointer_type ]
!384 = metadata !{i32 786478, i32 0, metadata !308, metadata !"_M_data", metadata !"_M_data", metadata !"_ZNKSs7_M_dataEv", metadata !312, i32 286, metadata !385, i1 false, i1 false, i32 0, i32 0, null, i32 257, i1 false, null, null, i32 0, metadata !89, i32 286} ; [ DW_TAG_subprogram ]
!385 = metadata !{i32 786453, i32 0, metadata !"", i32 0, i32 0, i64 0, i64 0, i64 0, i32 0, null, metadata !386, i32 0, i32 0} ; [ DW_TAG_subroutine_type ]
!386 = metadata !{metadata !213, metadata !387}
!387 = metadata !{i32 786447, i32 0, metadata !"", i32 0, i32 0, i64 64, i64 64, i64 0, i32 64, metadata !388} ; [ DW_TAG_pointer_type ]
!388 = metadata !{i32 786470, null, metadata !"", null, i32 0, i64 0, i64 0, i64 0, i32 0, metadata !308} ; [ DW_TAG_const_type ]
!389 = metadata !{i32 786478, i32 0, metadata !308, metadata !"_M_data", metadata !"_M_data", metadata !"_ZNSs7_M_dataEPc", metadata !312, i32 290, metadata !390, i1 false, i1 false, i32 0, i32 0, null, i32 257, i1 false, null, null, i32 0, metadata !89, i32 290} ; [ DW_TAG_subprogram ]
!390 = metadata !{i32 786453, i32 0, metadata !"", i32 0, i32 0, i64 0, i64 0, i64 0, i32 0, null, metadata !391, i32 0, i32 0} ; [ DW_TAG_subroutine_type ]
!391 = metadata !{metadata !213, metadata !392, metadata !213}
!392 = metadata !{i32 786447, i32 0, metadata !"", i32 0, i32 0, i64 64, i64 64, i64 0, i32 64, metadata !308} ; [ DW_TAG_pointer_type ]
!393 = metadata !{i32 786478, i32 0, metadata !308, metadata !"_M_rep", metadata !"_M_rep", metadata !"_ZNKSs6_M_repEv", metadata !312, i32 294, metadata !394, i1 false, i1 false, i32 0, i32 0, null, i32 257, i1 false, null, null, i32 0, metadata !89, i32 294} ; [ DW_TAG_subprogram ]
!394 = metadata !{i32 786453, i32 0, metadata !"", i32 0, i32 0, i64 0, i64 0, i64 0, i32 0, null, metadata !395, i32 0, i32 0} ; [ DW_TAG_subroutine_type ]
!395 = metadata !{metadata !396, metadata !387}
!396 = metadata !{i32 786447, null, metadata !"", null, i32 0, i64 64, i64 64, i64 0, i32 0, metadata !397} ; [ DW_TAG_pointer_type ]
!397 = metadata !{i32 786434, metadata !308, metadata !"_Rep", metadata !312, i32 149, i64 192, i64 64, i32 0, i32 0, null, metadata !398, i32 0, null, null} ; [ DW_TAG_class_type ]
!398 = metadata !{metadata !399, metadata !407, metadata !411, metadata !416, metadata !417, metadata !421, metadata !422, metadata !425, metadata !428, metadata !431, metadata !434, metadata !437, metadata !438, metadata !439}
!399 = metadata !{i32 786460, metadata !397, null, metadata !312, i32 0, i64 0, i64 0, i64 0, i32 0, metadata !400} ; [ DW_TAG_inheritance ]
!400 = metadata !{i32 786434, metadata !308, metadata !"_Rep_base", metadata !312, i32 142, i64 192, i64 64, i32 0, i32 0, null, metadata !401, i32 0, null, null} ; [ DW_TAG_class_type ]
!401 = metadata !{metadata !402, metadata !405, metadata !406}
!402 = metadata !{i32 786445, metadata !400, metadata !"_M_length", metadata !312, i32 144, i64 64, i64 64, i64 0, i32 0, metadata !403} ; [ DW_TAG_member ]
!403 = metadata !{i32 786454, metadata !308, metadata !"size_type", metadata !312, i32 115, i64 0, i64 0, i64 0, i32 0, metadata !404} ; [ DW_TAG_typedef ]
!404 = metadata !{i32 786454, metadata !316, metadata !"size_type", metadata !312, i32 95, i64 0, i64 0, i64 0, i32 0, metadata !139} ; [ DW_TAG_typedef ]
!405 = metadata !{i32 786445, metadata !400, metadata !"_M_capacity", metadata !312, i32 145, i64 64, i64 64, i64 64, i32 0, metadata !403} ; [ DW_TAG_member ]
!406 = metadata !{i32 786445, metadata !400, metadata !"_M_refcount", metadata !312, i32 146, i64 32, i64 32, i64 128, i32 0, metadata !84} ; [ DW_TAG_member ]
!407 = metadata !{i32 786478, i32 0, metadata !397, metadata !"_S_empty_rep", metadata !"_S_empty_rep", metadata !"_ZNSs4_Rep12_S_empty_repEv", metadata !312, i32 175, metadata !408, i1 false, i1 false, i32 0, i32 0, null, i32 256, i1 false, null, null, i32 0, metadata !89, i32 175} ; [ DW_TAG_subprogram ]
!408 = metadata !{i32 786453, i32 0, metadata !"", i32 0, i32 0, i64 0, i64 0, i64 0, i32 0, null, metadata !409, i32 0, i32 0} ; [ DW_TAG_subroutine_type ]
!409 = metadata !{metadata !410}
!410 = metadata !{i32 786448, null, null, null, i32 0, i64 0, i64 0, i64 0, i32 0, metadata !397} ; [ DW_TAG_reference_type ]
!411 = metadata !{i32 786478, i32 0, metadata !397, metadata !"_M_is_leaked", metadata !"_M_is_leaked", metadata !"_ZNKSs4_Rep12_M_is_leakedEv", metadata !312, i32 185, metadata !412, i1 false, i1 false, i32 0, i32 0, null, i32 256, i1 false, null, null, i32 0, metadata !89, i32 185} ; [ DW_TAG_subprogram ]
!412 = metadata !{i32 786453, i32 0, metadata !"", i32 0, i32 0, i64 0, i64 0, i64 0, i32 0, null, metadata !413, i32 0, i32 0} ; [ DW_TAG_subroutine_type ]
!413 = metadata !{metadata !238, metadata !414}
!414 = metadata !{i32 786447, i32 0, metadata !"", i32 0, i32 0, i64 64, i64 64, i64 0, i32 64, metadata !415} ; [ DW_TAG_pointer_type ]
!415 = metadata !{i32 786470, null, metadata !"", null, i32 0, i64 0, i64 0, i64 0, i32 0, metadata !397} ; [ DW_TAG_const_type ]
!416 = metadata !{i32 786478, i32 0, metadata !397, metadata !"_M_is_shared", metadata !"_M_is_shared", metadata !"_ZNKSs4_Rep12_M_is_sharedEv", metadata !312, i32 189, metadata !412, i1 false, i1 false, i32 0, i32 0, null, i32 256, i1 false, null, null, i32 0, metadata !89, i32 189} ; [ DW_TAG_subprogram ]
!417 = metadata !{i32 786478, i32 0, metadata !397, metadata !"_M_set_leaked", metadata !"_M_set_leaked", metadata !"_ZNSs4_Rep13_M_set_leakedEv", metadata !312, i32 193, metadata !418, i1 false, i1 false, i32 0, i32 0, null, i32 256, i1 false, null, null, i32 0, metadata !89, i32 193} ; [ DW_TAG_subprogram ]
!418 = metadata !{i32 786453, i32 0, metadata !"", i32 0, i32 0, i64 0, i64 0, i64 0, i32 0, null, metadata !419, i32 0, i32 0} ; [ DW_TAG_subroutine_type ]
!419 = metadata !{null, metadata !420}
!420 = metadata !{i32 786447, i32 0, metadata !"", i32 0, i32 0, i64 64, i64 64, i64 0, i32 64, metadata !397} ; [ DW_TAG_pointer_type ]
!421 = metadata !{i32 786478, i32 0, metadata !397, metadata !"_M_set_sharable", metadata !"_M_set_sharable", metadata !"_ZNSs4_Rep15_M_set_sharableEv", metadata !312, i32 197, metadata !418, i1 false, i1 false, i32 0, i32 0, null, i32 256, i1 false, null, null, i32 0, metadata !89, i32 197} ; [ DW_TAG_subprogram ]
!422 = metadata !{i32 786478, i32 0, metadata !397, metadata !"_M_set_length_and_sharable", metadata !"_M_set_length_and_sharable", metadata !"_ZNSs4_Rep26_M_set_length_and_sharableEm", metadata !312, i32 201, metadata !423, i1 false, i1 false, i32 0, i32 0, null, i32 256, i1 false, null, null, i32 0, metadata !89, i32 201} ; [ DW_TAG_subprogram ]
!423 = metadata !{i32 786453, i32 0, metadata !"", i32 0, i32 0, i64 0, i64 0, i64 0, i32 0, null, metadata !424, i32 0, i32 0} ; [ DW_TAG_subroutine_type ]
!424 = metadata !{null, metadata !420, metadata !403}
!425 = metadata !{i32 786478, i32 0, metadata !397, metadata !"_M_refdata", metadata !"_M_refdata", metadata !"_ZNSs4_Rep10_M_refdataEv", metadata !312, i32 216, metadata !426, i1 false, i1 false, i32 0, i32 0, null, i32 256, i1 false, null, null, i32 0, metadata !89, i32 216} ; [ DW_TAG_subprogram ]
!426 = metadata !{i32 786453, i32 0, metadata !"", i32 0, i32 0, i64 0, i64 0, i64 0, i32 0, null, metadata !427, i32 0, i32 0} ; [ DW_TAG_subroutine_type ]
!427 = metadata !{metadata !213, metadata !420}
!428 = metadata !{i32 786478, i32 0, metadata !397, metadata !"_M_grab", metadata !"_M_grab", metadata !"_ZNSs4_Rep7_M_grabERKSaIcES2_", metadata !312, i32 220, metadata !429, i1 false, i1 false, i32 0, i32 0, null, i32 256, i1 false, null, null, i32 0, metadata !89, i32 220} ; [ DW_TAG_subprogram ]
!429 = metadata !{i32 786453, i32 0, metadata !"", i32 0, i32 0, i64 0, i64 0, i64 0, i32 0, null, metadata !430, i32 0, i32 0} ; [ DW_TAG_subroutine_type ]
!430 = metadata !{metadata !213, metadata !420, metadata !374, metadata !374}
!431 = metadata !{i32 786478, i32 0, metadata !397, metadata !"_S_create", metadata !"_S_create", metadata !"_ZNSs4_Rep9_S_createEmmRKSaIcE", metadata !312, i32 228, metadata !432, i1 false, i1 false, i32 0, i32 0, null, i32 256, i1 false, null, null, i32 0, metadata !89, i32 228} ; [ DW_TAG_subprogram ]
!432 = metadata !{i32 786453, i32 0, metadata !"", i32 0, i32 0, i64 0, i64 0, i64 0, i32 0, null, metadata !433, i32 0, i32 0} ; [ DW_TAG_subroutine_type ]
!433 = metadata !{metadata !396, metadata !403, metadata !403, metadata !374}
!434 = metadata !{i32 786478, i32 0, metadata !397, metadata !"_M_dispose", metadata !"_M_dispose", metadata !"_ZNSs4_Rep10_M_disposeERKSaIcE", metadata !312, i32 231, metadata !435, i1 false, i1 false, i32 0, i32 0, null, i32 256, i1 false, null, null, i32 0, metadata !89, i32 231} ; [ DW_TAG_subprogram ]
!435 = metadata !{i32 786453, i32 0, metadata !"", i32 0, i32 0, i64 0, i64 0, i64 0, i32 0, null, metadata !436, i32 0, i32 0} ; [ DW_TAG_subroutine_type ]
!436 = metadata !{null, metadata !420, metadata !374}
!437 = metadata !{i32 786478, i32 0, metadata !397, metadata !"_M_destroy", metadata !"_M_destroy", metadata !"_ZNSs4_Rep10_M_destroyERKSaIcE", metadata !312, i32 249, metadata !435, i1 false, i1 false, i32 0, i32 0, null, i32 256, i1 false, null, null, i32 0, metadata !89, i32 249} ; [ DW_TAG_subprogram ]
!438 = metadata !{i32 786478, i32 0, metadata !397, metadata !"_M_refcopy", metadata !"_M_refcopy", metadata !"_ZNSs4_Rep10_M_refcopyEv", metadata !312, i32 252, metadata !426, i1 false, i1 false, i32 0, i32 0, null, i32 256, i1 false, null, null, i32 0, metadata !89, i32 252} ; [ DW_TAG_subprogram ]
!439 = metadata !{i32 786478, i32 0, metadata !397, metadata !"_M_clone", metadata !"_M_clone", metadata !"_ZNSs4_Rep8_M_cloneERKSaIcEm", metadata !312, i32 262, metadata !440, i1 false, i1 false, i32 0, i32 0, null, i32 256, i1 false, null, null, i32 0, metadata !89, i32 262} ; [ DW_TAG_subprogram ]
!440 = metadata !{i32 786453, i32 0, metadata !"", i32 0, i32 0, i64 0, i64 0, i64 0, i32 0, null, metadata !441, i32 0, i32 0} ; [ DW_TAG_subroutine_type ]
!441 = metadata !{metadata !213, metadata !420, metadata !374, metadata !403}
!442 = metadata !{i32 786478, i32 0, metadata !308, metadata !"_M_ibegin", metadata !"_M_ibegin", metadata !"_ZNKSs9_M_ibeginEv", metadata !312, i32 300, metadata !443, i1 false, i1 false, i32 0, i32 0, null, i32 257, i1 false, null, null, i32 0, metadata !89, i32 300} ; [ DW_TAG_subprogram ]
!443 = metadata !{i32 786453, i32 0, metadata !"", i32 0, i32 0, i64 0, i64 0, i64 0, i32 0, null, metadata !444, i32 0, i32 0} ; [ DW_TAG_subroutine_type ]
!444 = metadata !{metadata !445, metadata !387}
!445 = metadata !{i32 786454, metadata !308, metadata !"iterator", metadata !309, i32 121, i64 0, i64 0, i64 0, i32 0, metadata !446} ; [ DW_TAG_typedef ]
!446 = metadata !{i32 786434, null, metadata !"__normal_iterator<char *, std::basic_string<char> >", metadata !447, i32 702, i32 0, i32 0, i32 0, i32 4, null, null, i32 0} ; [ DW_TAG_class_type ]
!447 = metadata !{i32 786473, metadata !"/home/ece492fa18/Vivado/2017.4/lnx64/tools/gcc/lib/gcc/x86_64-unknown-linux-gnu/4.6.3/../../../../include/c++/4.6.3/bits/stl_iterator.h", metadata !"/home/ece492fa18/RFNoCFrameSynchHWAccel/correlatorDev", null} ; [ DW_TAG_file_type ]
!448 = metadata !{i32 786478, i32 0, metadata !308, metadata !"_M_iend", metadata !"_M_iend", metadata !"_ZNKSs7_M_iendEv", metadata !312, i32 304, metadata !443, i1 false, i1 false, i32 0, i32 0, null, i32 257, i1 false, null, null, i32 0, metadata !89, i32 304} ; [ DW_TAG_subprogram ]
!449 = metadata !{i32 786478, i32 0, metadata !308, metadata !"_M_leak", metadata !"_M_leak", metadata !"_ZNSs7_M_leakEv", metadata !312, i32 308, metadata !450, i1 false, i1 false, i32 0, i32 0, null, i32 257, i1 false, null, null, i32 0, metadata !89, i32 308} ; [ DW_TAG_subprogram ]
!450 = metadata !{i32 786453, i32 0, metadata !"", i32 0, i32 0, i64 0, i64 0, i64 0, i32 0, null, metadata !451, i32 0, i32 0} ; [ DW_TAG_subroutine_type ]
!451 = metadata !{null, metadata !392}
!452 = metadata !{i32 786478, i32 0, metadata !308, metadata !"_M_check", metadata !"_M_check", metadata !"_ZNKSs8_M_checkEmPKc", metadata !312, i32 315, metadata !453, i1 false, i1 false, i32 0, i32 0, null, i32 257, i1 false, null, null, i32 0, metadata !89, i32 315} ; [ DW_TAG_subprogram ]
!453 = metadata !{i32 786453, i32 0, metadata !"", i32 0, i32 0, i64 0, i64 0, i64 0, i32 0, null, metadata !454, i32 0, i32 0} ; [ DW_TAG_subroutine_type ]
!454 = metadata !{metadata !403, metadata !387, metadata !403, metadata !172}
!455 = metadata !{i32 786478, i32 0, metadata !308, metadata !"_M_check_length", metadata !"_M_check_length", metadata !"_ZNKSs15_M_check_lengthEmmPKc", metadata !312, i32 323, metadata !456, i1 false, i1 false, i32 0, i32 0, null, i32 257, i1 false, null, null, i32 0, metadata !89, i32 323} ; [ DW_TAG_subprogram ]
!456 = metadata !{i32 786453, i32 0, metadata !"", i32 0, i32 0, i64 0, i64 0, i64 0, i32 0, null, metadata !457, i32 0, i32 0} ; [ DW_TAG_subroutine_type ]
!457 = metadata !{null, metadata !387, metadata !403, metadata !403, metadata !172}
!458 = metadata !{i32 786478, i32 0, metadata !308, metadata !"_M_limit", metadata !"_M_limit", metadata !"_ZNKSs8_M_limitEmm", metadata !312, i32 331, metadata !459, i1 false, i1 false, i32 0, i32 0, null, i32 257, i1 false, null, null, i32 0, metadata !89, i32 331} ; [ DW_TAG_subprogram ]
!459 = metadata !{i32 786453, i32 0, metadata !"", i32 0, i32 0, i64 0, i64 0, i64 0, i32 0, null, metadata !460, i32 0, i32 0} ; [ DW_TAG_subroutine_type ]
!460 = metadata !{metadata !403, metadata !387, metadata !403, metadata !403}
!461 = metadata !{i32 786478, i32 0, metadata !308, metadata !"_M_disjunct", metadata !"_M_disjunct", metadata !"_ZNKSs11_M_disjunctEPKc", metadata !312, i32 339, metadata !462, i1 false, i1 false, i32 0, i32 0, null, i32 257, i1 false, null, null, i32 0, metadata !89, i32 339} ; [ DW_TAG_subprogram ]
!462 = metadata !{i32 786453, i32 0, metadata !"", i32 0, i32 0, i64 0, i64 0, i64 0, i32 0, null, metadata !463, i32 0, i32 0} ; [ DW_TAG_subroutine_type ]
!463 = metadata !{metadata !238, metadata !387, metadata !172}
!464 = metadata !{i32 786478, i32 0, metadata !308, metadata !"_M_copy", metadata !"_M_copy", metadata !"_ZNSs7_M_copyEPcPKcm", metadata !312, i32 348, metadata !465, i1 false, i1 false, i32 0, i32 0, null, i32 257, i1 false, null, null, i32 0, metadata !89, i32 348} ; [ DW_TAG_subprogram ]
!465 = metadata !{i32 786453, i32 0, metadata !"", i32 0, i32 0, i64 0, i64 0, i64 0, i32 0, null, metadata !466, i32 0, i32 0} ; [ DW_TAG_subroutine_type ]
!466 = metadata !{null, metadata !213, metadata !172, metadata !403}
!467 = metadata !{i32 786478, i32 0, metadata !308, metadata !"_M_move", metadata !"_M_move", metadata !"_ZNSs7_M_moveEPcPKcm", metadata !312, i32 357, metadata !465, i1 false, i1 false, i32 0, i32 0, null, i32 257, i1 false, null, null, i32 0, metadata !89, i32 357} ; [ DW_TAG_subprogram ]
!468 = metadata !{i32 786478, i32 0, metadata !308, metadata !"_M_assign", metadata !"_M_assign", metadata !"_ZNSs9_M_assignEPcmc", metadata !312, i32 366, metadata !469, i1 false, i1 false, i32 0, i32 0, null, i32 257, i1 false, null, null, i32 0, metadata !89, i32 366} ; [ DW_TAG_subprogram ]
!469 = metadata !{i32 786453, i32 0, metadata !"", i32 0, i32 0, i64 0, i64 0, i64 0, i32 0, null, metadata !470, i32 0, i32 0} ; [ DW_TAG_subroutine_type ]
!470 = metadata !{null, metadata !213, metadata !403, metadata !174}
!471 = metadata !{i32 786478, i32 0, metadata !308, metadata !"_S_copy_chars", metadata !"_S_copy_chars", metadata !"_ZNSs13_S_copy_charsEPcN9__gnu_cxx17__normal_iteratorIS_SsEES2_", metadata !312, i32 385, metadata !472, i1 false, i1 false, i32 0, i32 0, null, i32 257, i1 false, null, null, i32 0, metadata !89, i32 385} ; [ DW_TAG_subprogram ]
!472 = metadata !{i32 786453, i32 0, metadata !"", i32 0, i32 0, i64 0, i64 0, i64 0, i32 0, null, metadata !473, i32 0, i32 0} ; [ DW_TAG_subroutine_type ]
!473 = metadata !{null, metadata !213, metadata !445, metadata !445}
!474 = metadata !{i32 786478, i32 0, metadata !308, metadata !"_S_copy_chars", metadata !"_S_copy_chars", metadata !"_ZNSs13_S_copy_charsEPcN9__gnu_cxx17__normal_iteratorIPKcSsEES4_", metadata !312, i32 389, metadata !475, i1 false, i1 false, i32 0, i32 0, null, i32 257, i1 false, null, null, i32 0, metadata !89, i32 389} ; [ DW_TAG_subprogram ]
!475 = metadata !{i32 786453, i32 0, metadata !"", i32 0, i32 0, i64 0, i64 0, i64 0, i32 0, null, metadata !476, i32 0, i32 0} ; [ DW_TAG_subroutine_type ]
!476 = metadata !{null, metadata !213, metadata !477, metadata !477}
!477 = metadata !{i32 786454, metadata !308, metadata !"const_iterator", metadata !309, i32 123, i64 0, i64 0, i64 0, i32 0, metadata !478} ; [ DW_TAG_typedef ]
!478 = metadata !{i32 786434, null, metadata !"__normal_iterator<const char *, std::basic_string<char> >", metadata !447, i32 702, i32 0, i32 0, i32 0, i32 4, null, null, i32 0} ; [ DW_TAG_class_type ]
!479 = metadata !{i32 786478, i32 0, metadata !308, metadata !"_S_copy_chars", metadata !"_S_copy_chars", metadata !"_ZNSs13_S_copy_charsEPcS_S_", metadata !312, i32 393, metadata !480, i1 false, i1 false, i32 0, i32 0, null, i32 257, i1 false, null, null, i32 0, metadata !89, i32 393} ; [ DW_TAG_subprogram ]
!480 = metadata !{i32 786453, i32 0, metadata !"", i32 0, i32 0, i64 0, i64 0, i64 0, i32 0, null, metadata !481, i32 0, i32 0} ; [ DW_TAG_subroutine_type ]
!481 = metadata !{null, metadata !213, metadata !213, metadata !213}
!482 = metadata !{i32 786478, i32 0, metadata !308, metadata !"_S_copy_chars", metadata !"_S_copy_chars", metadata !"_ZNSs13_S_copy_charsEPcPKcS1_", metadata !312, i32 397, metadata !483, i1 false, i1 false, i32 0, i32 0, null, i32 257, i1 false, null, null, i32 0, metadata !89, i32 397} ; [ DW_TAG_subprogram ]
!483 = metadata !{i32 786453, i32 0, metadata !"", i32 0, i32 0, i64 0, i64 0, i64 0, i32 0, null, metadata !484, i32 0, i32 0} ; [ DW_TAG_subroutine_type ]
!484 = metadata !{null, metadata !213, metadata !172, metadata !172}
!485 = metadata !{i32 786478, i32 0, metadata !308, metadata !"_S_compare", metadata !"_S_compare", metadata !"_ZNSs10_S_compareEmm", metadata !312, i32 401, metadata !486, i1 false, i1 false, i32 0, i32 0, null, i32 257, i1 false, null, null, i32 0, metadata !89, i32 401} ; [ DW_TAG_subprogram ]
!486 = metadata !{i32 786453, i32 0, metadata !"", i32 0, i32 0, i64 0, i64 0, i64 0, i32 0, null, metadata !487, i32 0, i32 0} ; [ DW_TAG_subroutine_type ]
!487 = metadata !{metadata !56, metadata !403, metadata !403}
!488 = metadata !{i32 786478, i32 0, metadata !308, metadata !"_M_mutate", metadata !"_M_mutate", metadata !"_ZNSs9_M_mutateEmmm", metadata !312, i32 414, metadata !489, i1 false, i1 false, i32 0, i32 0, null, i32 257, i1 false, null, null, i32 0, metadata !89, i32 414} ; [ DW_TAG_subprogram ]
!489 = metadata !{i32 786453, i32 0, metadata !"", i32 0, i32 0, i64 0, i64 0, i64 0, i32 0, null, metadata !490, i32 0, i32 0} ; [ DW_TAG_subroutine_type ]
!490 = metadata !{null, metadata !392, metadata !403, metadata !403, metadata !403}
!491 = metadata !{i32 786478, i32 0, metadata !308, metadata !"_M_leak_hard", metadata !"_M_leak_hard", metadata !"_ZNSs12_M_leak_hardEv", metadata !312, i32 417, metadata !450, i1 false, i1 false, i32 0, i32 0, null, i32 257, i1 false, null, null, i32 0, metadata !89, i32 417} ; [ DW_TAG_subprogram ]
!492 = metadata !{i32 786478, i32 0, metadata !308, metadata !"_S_empty_rep", metadata !"_S_empty_rep", metadata !"_ZNSs12_S_empty_repEv", metadata !312, i32 420, metadata !408, i1 false, i1 false, i32 0, i32 0, null, i32 257, i1 false, null, null, i32 0, metadata !89, i32 420} ; [ DW_TAG_subprogram ]
!493 = metadata !{i32 786478, i32 0, metadata !308, metadata !"basic_string", metadata !"basic_string", metadata !"", metadata !312, i32 431, metadata !450, i1 false, i1 false, i32 0, i32 0, null, i32 256, i1 false, null, null, i32 0, metadata !89, i32 431} ; [ DW_TAG_subprogram ]
!494 = metadata !{i32 786478, i32 0, metadata !308, metadata !"basic_string", metadata !"basic_string", metadata !"", metadata !312, i32 442, metadata !495, i1 false, i1 false, i32 0, i32 0, null, i32 384, i1 false, null, null, i32 0, metadata !89, i32 442} ; [ DW_TAG_subprogram ]
!495 = metadata !{i32 786453, i32 0, metadata !"", i32 0, i32 0, i64 0, i64 0, i64 0, i32 0, null, metadata !496, i32 0, i32 0} ; [ DW_TAG_subroutine_type ]
!496 = metadata !{null, metadata !392, metadata !374}
!497 = metadata !{i32 786478, i32 0, metadata !308, metadata !"basic_string", metadata !"basic_string", metadata !"", metadata !312, i32 449, metadata !498, i1 false, i1 false, i32 0, i32 0, null, i32 256, i1 false, null, null, i32 0, metadata !89, i32 449} ; [ DW_TAG_subprogram ]
!498 = metadata !{i32 786453, i32 0, metadata !"", i32 0, i32 0, i64 0, i64 0, i64 0, i32 0, null, metadata !499, i32 0, i32 0} ; [ DW_TAG_subroutine_type ]
!499 = metadata !{null, metadata !392, metadata !500}
!500 = metadata !{i32 786448, null, null, null, i32 0, i64 0, i64 0, i64 0, i32 0, metadata !388} ; [ DW_TAG_reference_type ]
!501 = metadata !{i32 786478, i32 0, metadata !308, metadata !"basic_string", metadata !"basic_string", metadata !"", metadata !312, i32 456, metadata !502, i1 false, i1 false, i32 0, i32 0, null, i32 256, i1 false, null, null, i32 0, metadata !89, i32 456} ; [ DW_TAG_subprogram ]
!502 = metadata !{i32 786453, i32 0, metadata !"", i32 0, i32 0, i64 0, i64 0, i64 0, i32 0, null, metadata !503, i32 0, i32 0} ; [ DW_TAG_subroutine_type ]
!503 = metadata !{null, metadata !392, metadata !500, metadata !403, metadata !403}
!504 = metadata !{i32 786478, i32 0, metadata !308, metadata !"basic_string", metadata !"basic_string", metadata !"", metadata !312, i32 465, metadata !505, i1 false, i1 false, i32 0, i32 0, null, i32 256, i1 false, null, null, i32 0, metadata !89, i32 465} ; [ DW_TAG_subprogram ]
!505 = metadata !{i32 786453, i32 0, metadata !"", i32 0, i32 0, i64 0, i64 0, i64 0, i32 0, null, metadata !506, i32 0, i32 0} ; [ DW_TAG_subroutine_type ]
!506 = metadata !{null, metadata !392, metadata !500, metadata !403, metadata !403, metadata !374}
!507 = metadata !{i32 786478, i32 0, metadata !308, metadata !"basic_string", metadata !"basic_string", metadata !"", metadata !312, i32 477, metadata !508, i1 false, i1 false, i32 0, i32 0, null, i32 256, i1 false, null, null, i32 0, metadata !89, i32 477} ; [ DW_TAG_subprogram ]
!508 = metadata !{i32 786453, i32 0, metadata !"", i32 0, i32 0, i64 0, i64 0, i64 0, i32 0, null, metadata !509, i32 0, i32 0} ; [ DW_TAG_subroutine_type ]
!509 = metadata !{null, metadata !392, metadata !172, metadata !403, metadata !374}
!510 = metadata !{i32 786478, i32 0, metadata !308, metadata !"basic_string", metadata !"basic_string", metadata !"", metadata !312, i32 484, metadata !511, i1 false, i1 false, i32 0, i32 0, null, i32 256, i1 false, null, null, i32 0, metadata !89, i32 484} ; [ DW_TAG_subprogram ]
!511 = metadata !{i32 786453, i32 0, metadata !"", i32 0, i32 0, i64 0, i64 0, i64 0, i32 0, null, metadata !512, i32 0, i32 0} ; [ DW_TAG_subroutine_type ]
!512 = metadata !{null, metadata !392, metadata !172, metadata !374}
!513 = metadata !{i32 786478, i32 0, metadata !308, metadata !"basic_string", metadata !"basic_string", metadata !"", metadata !312, i32 491, metadata !514, i1 false, i1 false, i32 0, i32 0, null, i32 256, i1 false, null, null, i32 0, metadata !89, i32 491} ; [ DW_TAG_subprogram ]
!514 = metadata !{i32 786453, i32 0, metadata !"", i32 0, i32 0, i64 0, i64 0, i64 0, i32 0, null, metadata !515, i32 0, i32 0} ; [ DW_TAG_subroutine_type ]
!515 = metadata !{null, metadata !392, metadata !403, metadata !174, metadata !374}
!516 = metadata !{i32 786478, i32 0, metadata !308, metadata !"~basic_string", metadata !"~basic_string", metadata !"", metadata !312, i32 532, metadata !450, i1 false, i1 false, i32 0, i32 0, null, i32 256, i1 false, null, null, i32 0, metadata !89, i32 532} ; [ DW_TAG_subprogram ]
!517 = metadata !{i32 786478, i32 0, metadata !308, metadata !"operator=", metadata !"operator=", metadata !"_ZNSsaSERKSs", metadata !312, i32 540, metadata !518, i1 false, i1 false, i32 0, i32 0, null, i32 256, i1 false, null, null, i32 0, metadata !89, i32 540} ; [ DW_TAG_subprogram ]
!518 = metadata !{i32 786453, i32 0, metadata !"", i32 0, i32 0, i64 0, i64 0, i64 0, i32 0, null, metadata !519, i32 0, i32 0} ; [ DW_TAG_subroutine_type ]
!519 = metadata !{metadata !520, metadata !392, metadata !500}
!520 = metadata !{i32 786448, null, null, null, i32 0, i64 0, i64 0, i64 0, i32 0, metadata !308} ; [ DW_TAG_reference_type ]
!521 = metadata !{i32 786478, i32 0, metadata !308, metadata !"operator=", metadata !"operator=", metadata !"_ZNSsaSEPKc", metadata !312, i32 548, metadata !522, i1 false, i1 false, i32 0, i32 0, null, i32 256, i1 false, null, null, i32 0, metadata !89, i32 548} ; [ DW_TAG_subprogram ]
!522 = metadata !{i32 786453, i32 0, metadata !"", i32 0, i32 0, i64 0, i64 0, i64 0, i32 0, null, metadata !523, i32 0, i32 0} ; [ DW_TAG_subroutine_type ]
!523 = metadata !{metadata !520, metadata !392, metadata !172}
!524 = metadata !{i32 786478, i32 0, metadata !308, metadata !"operator=", metadata !"operator=", metadata !"_ZNSsaSEc", metadata !312, i32 559, metadata !525, i1 false, i1 false, i32 0, i32 0, null, i32 256, i1 false, null, null, i32 0, metadata !89, i32 559} ; [ DW_TAG_subprogram ]
!525 = metadata !{i32 786453, i32 0, metadata !"", i32 0, i32 0, i64 0, i64 0, i64 0, i32 0, null, metadata !526, i32 0, i32 0} ; [ DW_TAG_subroutine_type ]
!526 = metadata !{metadata !520, metadata !392, metadata !174}
!527 = metadata !{i32 786478, i32 0, metadata !308, metadata !"begin", metadata !"begin", metadata !"_ZNSs5beginEv", metadata !312, i32 599, metadata !528, i1 false, i1 false, i32 0, i32 0, null, i32 256, i1 false, null, null, i32 0, metadata !89, i32 599} ; [ DW_TAG_subprogram ]
!528 = metadata !{i32 786453, i32 0, metadata !"", i32 0, i32 0, i64 0, i64 0, i64 0, i32 0, null, metadata !529, i32 0, i32 0} ; [ DW_TAG_subroutine_type ]
!529 = metadata !{metadata !445, metadata !392}
!530 = metadata !{i32 786478, i32 0, metadata !308, metadata !"begin", metadata !"begin", metadata !"_ZNKSs5beginEv", metadata !312, i32 610, metadata !531, i1 false, i1 false, i32 0, i32 0, null, i32 256, i1 false, null, null, i32 0, metadata !89, i32 610} ; [ DW_TAG_subprogram ]
!531 = metadata !{i32 786453, i32 0, metadata !"", i32 0, i32 0, i64 0, i64 0, i64 0, i32 0, null, metadata !532, i32 0, i32 0} ; [ DW_TAG_subroutine_type ]
!532 = metadata !{metadata !477, metadata !387}
!533 = metadata !{i32 786478, i32 0, metadata !308, metadata !"end", metadata !"end", metadata !"_ZNSs3endEv", metadata !312, i32 618, metadata !528, i1 false, i1 false, i32 0, i32 0, null, i32 256, i1 false, null, null, i32 0, metadata !89, i32 618} ; [ DW_TAG_subprogram ]
!534 = metadata !{i32 786478, i32 0, metadata !308, metadata !"end", metadata !"end", metadata !"_ZNKSs3endEv", metadata !312, i32 629, metadata !531, i1 false, i1 false, i32 0, i32 0, null, i32 256, i1 false, null, null, i32 0, metadata !89, i32 629} ; [ DW_TAG_subprogram ]
!535 = metadata !{i32 786478, i32 0, metadata !308, metadata !"rbegin", metadata !"rbegin", metadata !"_ZNSs6rbeginEv", metadata !312, i32 638, metadata !536, i1 false, i1 false, i32 0, i32 0, null, i32 256, i1 false, null, null, i32 0, metadata !89, i32 638} ; [ DW_TAG_subprogram ]
!536 = metadata !{i32 786453, i32 0, metadata !"", i32 0, i32 0, i64 0, i64 0, i64 0, i32 0, null, metadata !537, i32 0, i32 0} ; [ DW_TAG_subroutine_type ]
!537 = metadata !{metadata !538, metadata !392}
!538 = metadata !{i32 786454, metadata !308, metadata !"reverse_iterator", metadata !309, i32 125, i64 0, i64 0, i64 0, i32 0, metadata !539} ; [ DW_TAG_typedef ]
!539 = metadata !{i32 786434, null, metadata !"reverse_iterator<__gnu_cxx::__normal_iterator<char *, std::basic_string<char> > >", metadata !447, i32 97, i32 0, i32 0, i32 0, i32 4, null, null, i32 0} ; [ DW_TAG_class_type ]
!540 = metadata !{i32 786478, i32 0, metadata !308, metadata !"rbegin", metadata !"rbegin", metadata !"_ZNKSs6rbeginEv", metadata !312, i32 647, metadata !541, i1 false, i1 false, i32 0, i32 0, null, i32 256, i1 false, null, null, i32 0, metadata !89, i32 647} ; [ DW_TAG_subprogram ]
!541 = metadata !{i32 786453, i32 0, metadata !"", i32 0, i32 0, i64 0, i64 0, i64 0, i32 0, null, metadata !542, i32 0, i32 0} ; [ DW_TAG_subroutine_type ]
!542 = metadata !{metadata !543, metadata !387}
!543 = metadata !{i32 786454, metadata !308, metadata !"const_reverse_iterator", metadata !309, i32 124, i64 0, i64 0, i64 0, i32 0, metadata !544} ; [ DW_TAG_typedef ]
!544 = metadata !{i32 786434, null, metadata !"reverse_iterator<__gnu_cxx::__normal_iterator<const char *, std::basic_string<char> > >", metadata !447, i32 97, i32 0, i32 0, i32 0, i32 4, null, null, i32 0} ; [ DW_TAG_class_type ]
!545 = metadata !{i32 786478, i32 0, metadata !308, metadata !"rend", metadata !"rend", metadata !"_ZNSs4rendEv", metadata !312, i32 656, metadata !536, i1 false, i1 false, i32 0, i32 0, null, i32 256, i1 false, null, null, i32 0, metadata !89, i32 656} ; [ DW_TAG_subprogram ]
!546 = metadata !{i32 786478, i32 0, metadata !308, metadata !"rend", metadata !"rend", metadata !"_ZNKSs4rendEv", metadata !312, i32 665, metadata !541, i1 false, i1 false, i32 0, i32 0, null, i32 256, i1 false, null, null, i32 0, metadata !89, i32 665} ; [ DW_TAG_subprogram ]
!547 = metadata !{i32 786478, i32 0, metadata !308, metadata !"size", metadata !"size", metadata !"_ZNKSs4sizeEv", metadata !312, i32 709, metadata !548, i1 false, i1 false, i32 0, i32 0, null, i32 256, i1 false, null, null, i32 0, metadata !89, i32 709} ; [ DW_TAG_subprogram ]
!548 = metadata !{i32 786453, i32 0, metadata !"", i32 0, i32 0, i64 0, i64 0, i64 0, i32 0, null, metadata !549, i32 0, i32 0} ; [ DW_TAG_subroutine_type ]
!549 = metadata !{metadata !403, metadata !387}
!550 = metadata !{i32 786478, i32 0, metadata !308, metadata !"length", metadata !"length", metadata !"_ZNKSs6lengthEv", metadata !312, i32 715, metadata !548, i1 false, i1 false, i32 0, i32 0, null, i32 256, i1 false, null, null, i32 0, metadata !89, i32 715} ; [ DW_TAG_subprogram ]
!551 = metadata !{i32 786478, i32 0, metadata !308, metadata !"max_size", metadata !"max_size", metadata !"_ZNKSs8max_sizeEv", metadata !312, i32 720, metadata !548, i1 false, i1 false, i32 0, i32 0, null, i32 256, i1 false, null, null, i32 0, metadata !89, i32 720} ; [ DW_TAG_subprogram ]
!552 = metadata !{i32 786478, i32 0, metadata !308, metadata !"resize", metadata !"resize", metadata !"_ZNSs6resizeEmc", metadata !312, i32 734, metadata !553, i1 false, i1 false, i32 0, i32 0, null, i32 256, i1 false, null, null, i32 0, metadata !89, i32 734} ; [ DW_TAG_subprogram ]
!553 = metadata !{i32 786453, i32 0, metadata !"", i32 0, i32 0, i64 0, i64 0, i64 0, i32 0, null, metadata !554, i32 0, i32 0} ; [ DW_TAG_subroutine_type ]
!554 = metadata !{null, metadata !392, metadata !403, metadata !174}
!555 = metadata !{i32 786478, i32 0, metadata !308, metadata !"resize", metadata !"resize", metadata !"_ZNSs6resizeEm", metadata !312, i32 747, metadata !556, i1 false, i1 false, i32 0, i32 0, null, i32 256, i1 false, null, null, i32 0, metadata !89, i32 747} ; [ DW_TAG_subprogram ]
!556 = metadata !{i32 786453, i32 0, metadata !"", i32 0, i32 0, i64 0, i64 0, i64 0, i32 0, null, metadata !557, i32 0, i32 0} ; [ DW_TAG_subroutine_type ]
!557 = metadata !{null, metadata !392, metadata !403}
!558 = metadata !{i32 786478, i32 0, metadata !308, metadata !"capacity", metadata !"capacity", metadata !"_ZNKSs8capacityEv", metadata !312, i32 767, metadata !548, i1 false, i1 false, i32 0, i32 0, null, i32 256, i1 false, null, null, i32 0, metadata !89, i32 767} ; [ DW_TAG_subprogram ]
!559 = metadata !{i32 786478, i32 0, metadata !308, metadata !"reserve", metadata !"reserve", metadata !"_ZNSs7reserveEm", metadata !312, i32 788, metadata !556, i1 false, i1 false, i32 0, i32 0, null, i32 256, i1 false, null, null, i32 0, metadata !89, i32 788} ; [ DW_TAG_subprogram ]
!560 = metadata !{i32 786478, i32 0, metadata !308, metadata !"clear", metadata !"clear", metadata !"_ZNSs5clearEv", metadata !312, i32 794, metadata !450, i1 false, i1 false, i32 0, i32 0, null, i32 256, i1 false, null, null, i32 0, metadata !89, i32 794} ; [ DW_TAG_subprogram ]
!561 = metadata !{i32 786478, i32 0, metadata !308, metadata !"empty", metadata !"empty", metadata !"_ZNKSs5emptyEv", metadata !312, i32 802, metadata !562, i1 false, i1 false, i32 0, i32 0, null, i32 256, i1 false, null, null, i32 0, metadata !89, i32 802} ; [ DW_TAG_subprogram ]
!562 = metadata !{i32 786453, i32 0, metadata !"", i32 0, i32 0, i64 0, i64 0, i64 0, i32 0, null, metadata !563, i32 0, i32 0} ; [ DW_TAG_subroutine_type ]
!563 = metadata !{metadata !238, metadata !387}
!564 = metadata !{i32 786478, i32 0, metadata !308, metadata !"operator[]", metadata !"operator[]", metadata !"_ZNKSsixEm", metadata !312, i32 817, metadata !565, i1 false, i1 false, i32 0, i32 0, null, i32 256, i1 false, null, null, i32 0, metadata !89, i32 817} ; [ DW_TAG_subprogram ]
!565 = metadata !{i32 786453, i32 0, metadata !"", i32 0, i32 0, i64 0, i64 0, i64 0, i32 0, null, metadata !566, i32 0, i32 0} ; [ DW_TAG_subroutine_type ]
!566 = metadata !{metadata !567, metadata !387, metadata !403}
!567 = metadata !{i32 786454, metadata !308, metadata !"const_reference", metadata !309, i32 118, i64 0, i64 0, i64 0, i32 0, metadata !568} ; [ DW_TAG_typedef ]
!568 = metadata !{i32 786454, metadata !316, metadata !"const_reference", metadata !309, i32 100, i64 0, i64 0, i64 0, i32 0, metadata !346} ; [ DW_TAG_typedef ]
!569 = metadata !{i32 786478, i32 0, metadata !308, metadata !"operator[]", metadata !"operator[]", metadata !"_ZNSsixEm", metadata !312, i32 834, metadata !570, i1 false, i1 false, i32 0, i32 0, null, i32 256, i1 false, null, null, i32 0, metadata !89, i32 834} ; [ DW_TAG_subprogram ]
!570 = metadata !{i32 786453, i32 0, metadata !"", i32 0, i32 0, i64 0, i64 0, i64 0, i32 0, null, metadata !571, i32 0, i32 0} ; [ DW_TAG_subroutine_type ]
!571 = metadata !{metadata !572, metadata !392, metadata !403}
!572 = metadata !{i32 786454, metadata !308, metadata !"reference", metadata !309, i32 117, i64 0, i64 0, i64 0, i32 0, metadata !573} ; [ DW_TAG_typedef ]
!573 = metadata !{i32 786454, metadata !316, metadata !"reference", metadata !309, i32 99, i64 0, i64 0, i64 0, i32 0, metadata !340} ; [ DW_TAG_typedef ]
!574 = metadata !{i32 786478, i32 0, metadata !308, metadata !"at", metadata !"at", metadata !"_ZNKSs2atEm", metadata !312, i32 855, metadata !565, i1 false, i1 false, i32 0, i32 0, null, i32 256, i1 false, null, null, i32 0, metadata !89, i32 855} ; [ DW_TAG_subprogram ]
!575 = metadata !{i32 786478, i32 0, metadata !308, metadata !"at", metadata !"at", metadata !"_ZNSs2atEm", metadata !312, i32 908, metadata !570, i1 false, i1 false, i32 0, i32 0, null, i32 256, i1 false, null, null, i32 0, metadata !89, i32 908} ; [ DW_TAG_subprogram ]
!576 = metadata !{i32 786478, i32 0, metadata !308, metadata !"operator+=", metadata !"operator+=", metadata !"_ZNSspLERKSs", metadata !312, i32 923, metadata !518, i1 false, i1 false, i32 0, i32 0, null, i32 256, i1 false, null, null, i32 0, metadata !89, i32 923} ; [ DW_TAG_subprogram ]
!577 = metadata !{i32 786478, i32 0, metadata !308, metadata !"operator+=", metadata !"operator+=", metadata !"_ZNSspLEPKc", metadata !312, i32 932, metadata !522, i1 false, i1 false, i32 0, i32 0, null, i32 256, i1 false, null, null, i32 0, metadata !89, i32 932} ; [ DW_TAG_subprogram ]
!578 = metadata !{i32 786478, i32 0, metadata !308, metadata !"operator+=", metadata !"operator+=", metadata !"_ZNSspLEc", metadata !312, i32 941, metadata !525, i1 false, i1 false, i32 0, i32 0, null, i32 256, i1 false, null, null, i32 0, metadata !89, i32 941} ; [ DW_TAG_subprogram ]
!579 = metadata !{i32 786478, i32 0, metadata !308, metadata !"append", metadata !"append", metadata !"_ZNSs6appendERKSs", metadata !312, i32 964, metadata !518, i1 false, i1 false, i32 0, i32 0, null, i32 256, i1 false, null, null, i32 0, metadata !89, i32 964} ; [ DW_TAG_subprogram ]
!580 = metadata !{i32 786478, i32 0, metadata !308, metadata !"append", metadata !"append", metadata !"_ZNSs6appendERKSsmm", metadata !312, i32 979, metadata !581, i1 false, i1 false, i32 0, i32 0, null, i32 256, i1 false, null, null, i32 0, metadata !89, i32 979} ; [ DW_TAG_subprogram ]
!581 = metadata !{i32 786453, i32 0, metadata !"", i32 0, i32 0, i64 0, i64 0, i64 0, i32 0, null, metadata !582, i32 0, i32 0} ; [ DW_TAG_subroutine_type ]
!582 = metadata !{metadata !520, metadata !392, metadata !500, metadata !403, metadata !403}
!583 = metadata !{i32 786478, i32 0, metadata !308, metadata !"append", metadata !"append", metadata !"_ZNSs6appendEPKcm", metadata !312, i32 988, metadata !584, i1 false, i1 false, i32 0, i32 0, null, i32 256, i1 false, null, null, i32 0, metadata !89, i32 988} ; [ DW_TAG_subprogram ]
!584 = metadata !{i32 786453, i32 0, metadata !"", i32 0, i32 0, i64 0, i64 0, i64 0, i32 0, null, metadata !585, i32 0, i32 0} ; [ DW_TAG_subroutine_type ]
!585 = metadata !{metadata !520, metadata !392, metadata !172, metadata !403}
!586 = metadata !{i32 786478, i32 0, metadata !308, metadata !"append", metadata !"append", metadata !"_ZNSs6appendEPKc", metadata !312, i32 996, metadata !522, i1 false, i1 false, i32 0, i32 0, null, i32 256, i1 false, null, null, i32 0, metadata !89, i32 996} ; [ DW_TAG_subprogram ]
!587 = metadata !{i32 786478, i32 0, metadata !308, metadata !"append", metadata !"append", metadata !"_ZNSs6appendEmc", metadata !312, i32 1011, metadata !588, i1 false, i1 false, i32 0, i32 0, null, i32 256, i1 false, null, null, i32 0, metadata !89, i32 1011} ; [ DW_TAG_subprogram ]
!588 = metadata !{i32 786453, i32 0, metadata !"", i32 0, i32 0, i64 0, i64 0, i64 0, i32 0, null, metadata !589, i32 0, i32 0} ; [ DW_TAG_subroutine_type ]
!589 = metadata !{metadata !520, metadata !392, metadata !403, metadata !174}
!590 = metadata !{i32 786478, i32 0, metadata !308, metadata !"push_back", metadata !"push_back", metadata !"_ZNSs9push_backEc", metadata !312, i32 1042, metadata !591, i1 false, i1 false, i32 0, i32 0, null, i32 256, i1 false, null, null, i32 0, metadata !89, i32 1042} ; [ DW_TAG_subprogram ]
!591 = metadata !{i32 786453, i32 0, metadata !"", i32 0, i32 0, i64 0, i64 0, i64 0, i32 0, null, metadata !592, i32 0, i32 0} ; [ DW_TAG_subroutine_type ]
!592 = metadata !{null, metadata !392, metadata !174}
!593 = metadata !{i32 786478, i32 0, metadata !308, metadata !"assign", metadata !"assign", metadata !"_ZNSs6assignERKSs", metadata !312, i32 1057, metadata !518, i1 false, i1 false, i32 0, i32 0, null, i32 256, i1 false, null, null, i32 0, metadata !89, i32 1057} ; [ DW_TAG_subprogram ]
!594 = metadata !{i32 786478, i32 0, metadata !308, metadata !"assign", metadata !"assign", metadata !"_ZNSs6assignERKSsmm", metadata !312, i32 1089, metadata !581, i1 false, i1 false, i32 0, i32 0, null, i32 256, i1 false, null, null, i32 0, metadata !89, i32 1089} ; [ DW_TAG_subprogram ]
!595 = metadata !{i32 786478, i32 0, metadata !308, metadata !"assign", metadata !"assign", metadata !"_ZNSs6assignEPKcm", metadata !312, i32 1105, metadata !584, i1 false, i1 false, i32 0, i32 0, null, i32 256, i1 false, null, null, i32 0, metadata !89, i32 1105} ; [ DW_TAG_subprogram ]
!596 = metadata !{i32 786478, i32 0, metadata !308, metadata !"assign", metadata !"assign", metadata !"_ZNSs6assignEPKc", metadata !312, i32 1117, metadata !522, i1 false, i1 false, i32 0, i32 0, null, i32 256, i1 false, null, null, i32 0, metadata !89, i32 1117} ; [ DW_TAG_subprogram ]
!597 = metadata !{i32 786478, i32 0, metadata !308, metadata !"assign", metadata !"assign", metadata !"_ZNSs6assignEmc", metadata !312, i32 1133, metadata !588, i1 false, i1 false, i32 0, i32 0, null, i32 256, i1 false, null, null, i32 0, metadata !89, i32 1133} ; [ DW_TAG_subprogram ]
!598 = metadata !{i32 786478, i32 0, metadata !308, metadata !"insert", metadata !"insert", metadata !"_ZNSs6insertEN9__gnu_cxx17__normal_iteratorIPcSsEEmc", metadata !312, i32 1173, metadata !599, i1 false, i1 false, i32 0, i32 0, null, i32 256, i1 false, null, null, i32 0, metadata !89, i32 1173} ; [ DW_TAG_subprogram ]
!599 = metadata !{i32 786453, i32 0, metadata !"", i32 0, i32 0, i64 0, i64 0, i64 0, i32 0, null, metadata !600, i32 0, i32 0} ; [ DW_TAG_subroutine_type ]
!600 = metadata !{null, metadata !392, metadata !445, metadata !403, metadata !174}
!601 = metadata !{i32 786478, i32 0, metadata !308, metadata !"insert", metadata !"insert", metadata !"_ZNSs6insertEmRKSs", metadata !312, i32 1219, metadata !602, i1 false, i1 false, i32 0, i32 0, null, i32 256, i1 false, null, null, i32 0, metadata !89, i32 1219} ; [ DW_TAG_subprogram ]
!602 = metadata !{i32 786453, i32 0, metadata !"", i32 0, i32 0, i64 0, i64 0, i64 0, i32 0, null, metadata !603, i32 0, i32 0} ; [ DW_TAG_subroutine_type ]
!603 = metadata !{metadata !520, metadata !392, metadata !403, metadata !500}
!604 = metadata !{i32 786478, i32 0, metadata !308, metadata !"insert", metadata !"insert", metadata !"_ZNSs6insertEmRKSsmm", metadata !312, i32 1241, metadata !605, i1 false, i1 false, i32 0, i32 0, null, i32 256, i1 false, null, null, i32 0, metadata !89, i32 1241} ; [ DW_TAG_subprogram ]
!605 = metadata !{i32 786453, i32 0, metadata !"", i32 0, i32 0, i64 0, i64 0, i64 0, i32 0, null, metadata !606, i32 0, i32 0} ; [ DW_TAG_subroutine_type ]
!606 = metadata !{metadata !520, metadata !392, metadata !403, metadata !500, metadata !403, metadata !403}
!607 = metadata !{i32 786478, i32 0, metadata !308, metadata !"insert", metadata !"insert", metadata !"_ZNSs6insertEmPKcm", metadata !312, i32 1264, metadata !608, i1 false, i1 false, i32 0, i32 0, null, i32 256, i1 false, null, null, i32 0, metadata !89, i32 1264} ; [ DW_TAG_subprogram ]
!608 = metadata !{i32 786453, i32 0, metadata !"", i32 0, i32 0, i64 0, i64 0, i64 0, i32 0, null, metadata !609, i32 0, i32 0} ; [ DW_TAG_subroutine_type ]
!609 = metadata !{metadata !520, metadata !392, metadata !403, metadata !172, metadata !403}
!610 = metadata !{i32 786478, i32 0, metadata !308, metadata !"insert", metadata !"insert", metadata !"_ZNSs6insertEmPKc", metadata !312, i32 1282, metadata !611, i1 false, i1 false, i32 0, i32 0, null, i32 256, i1 false, null, null, i32 0, metadata !89, i32 1282} ; [ DW_TAG_subprogram ]
!611 = metadata !{i32 786453, i32 0, metadata !"", i32 0, i32 0, i64 0, i64 0, i64 0, i32 0, null, metadata !612, i32 0, i32 0} ; [ DW_TAG_subroutine_type ]
!612 = metadata !{metadata !520, metadata !392, metadata !403, metadata !172}
!613 = metadata !{i32 786478, i32 0, metadata !308, metadata !"insert", metadata !"insert", metadata !"_ZNSs6insertEmmc", metadata !312, i32 1305, metadata !614, i1 false, i1 false, i32 0, i32 0, null, i32 256, i1 false, null, null, i32 0, metadata !89, i32 1305} ; [ DW_TAG_subprogram ]
!614 = metadata !{i32 786453, i32 0, metadata !"", i32 0, i32 0, i64 0, i64 0, i64 0, i32 0, null, metadata !615, i32 0, i32 0} ; [ DW_TAG_subroutine_type ]
!615 = metadata !{metadata !520, metadata !392, metadata !403, metadata !403, metadata !174}
!616 = metadata !{i32 786478, i32 0, metadata !308, metadata !"insert", metadata !"insert", metadata !"_ZNSs6insertEN9__gnu_cxx17__normal_iteratorIPcSsEEc", metadata !312, i32 1322, metadata !617, i1 false, i1 false, i32 0, i32 0, null, i32 256, i1 false, null, null, i32 0, metadata !89, i32 1322} ; [ DW_TAG_subprogram ]
!617 = metadata !{i32 786453, i32 0, metadata !"", i32 0, i32 0, i64 0, i64 0, i64 0, i32 0, null, metadata !618, i32 0, i32 0} ; [ DW_TAG_subroutine_type ]
!618 = metadata !{metadata !445, metadata !392, metadata !445, metadata !174}
!619 = metadata !{i32 786478, i32 0, metadata !308, metadata !"erase", metadata !"erase", metadata !"_ZNSs5eraseEmm", metadata !312, i32 1346, metadata !620, i1 false, i1 false, i32 0, i32 0, null, i32 256, i1 false, null, null, i32 0, metadata !89, i32 1346} ; [ DW_TAG_subprogram ]
!620 = metadata !{i32 786453, i32 0, metadata !"", i32 0, i32 0, i64 0, i64 0, i64 0, i32 0, null, metadata !621, i32 0, i32 0} ; [ DW_TAG_subroutine_type ]
!621 = metadata !{metadata !520, metadata !392, metadata !403, metadata !403}
!622 = metadata !{i32 786478, i32 0, metadata !308, metadata !"erase", metadata !"erase", metadata !"_ZNSs5eraseEN9__gnu_cxx17__normal_iteratorIPcSsEE", metadata !312, i32 1362, metadata !623, i1 false, i1 false, i32 0, i32 0, null, i32 256, i1 false, null, null, i32 0, metadata !89, i32 1362} ; [ DW_TAG_subprogram ]
!623 = metadata !{i32 786453, i32 0, metadata !"", i32 0, i32 0, i64 0, i64 0, i64 0, i32 0, null, metadata !624, i32 0, i32 0} ; [ DW_TAG_subroutine_type ]
!624 = metadata !{metadata !445, metadata !392, metadata !445}
!625 = metadata !{i32 786478, i32 0, metadata !308, metadata !"erase", metadata !"erase", metadata !"_ZNSs5eraseEN9__gnu_cxx17__normal_iteratorIPcSsEES2_", metadata !312, i32 1382, metadata !626, i1 false, i1 false, i32 0, i32 0, null, i32 256, i1 false, null, null, i32 0, metadata !89, i32 1382} ; [ DW_TAG_subprogram ]
!626 = metadata !{i32 786453, i32 0, metadata !"", i32 0, i32 0, i64 0, i64 0, i64 0, i32 0, null, metadata !627, i32 0, i32 0} ; [ DW_TAG_subroutine_type ]
!627 = metadata !{metadata !445, metadata !392, metadata !445, metadata !445}
!628 = metadata !{i32 786478, i32 0, metadata !308, metadata !"replace", metadata !"replace", metadata !"_ZNSs7replaceEmmRKSs", metadata !312, i32 1401, metadata !629, i1 false, i1 false, i32 0, i32 0, null, i32 256, i1 false, null, null, i32 0, metadata !89, i32 1401} ; [ DW_TAG_subprogram ]
!629 = metadata !{i32 786453, i32 0, metadata !"", i32 0, i32 0, i64 0, i64 0, i64 0, i32 0, null, metadata !630, i32 0, i32 0} ; [ DW_TAG_subroutine_type ]
!630 = metadata !{metadata !520, metadata !392, metadata !403, metadata !403, metadata !500}
!631 = metadata !{i32 786478, i32 0, metadata !308, metadata !"replace", metadata !"replace", metadata !"_ZNSs7replaceEmmRKSsmm", metadata !312, i32 1423, metadata !632, i1 false, i1 false, i32 0, i32 0, null, i32 256, i1 false, null, null, i32 0, metadata !89, i32 1423} ; [ DW_TAG_subprogram ]
!632 = metadata !{i32 786453, i32 0, metadata !"", i32 0, i32 0, i64 0, i64 0, i64 0, i32 0, null, metadata !633, i32 0, i32 0} ; [ DW_TAG_subroutine_type ]
!633 = metadata !{metadata !520, metadata !392, metadata !403, metadata !403, metadata !500, metadata !403, metadata !403}
!634 = metadata !{i32 786478, i32 0, metadata !308, metadata !"replace", metadata !"replace", metadata !"_ZNSs7replaceEmmPKcm", metadata !312, i32 1447, metadata !635, i1 false, i1 false, i32 0, i32 0, null, i32 256, i1 false, null, null, i32 0, metadata !89, i32 1447} ; [ DW_TAG_subprogram ]
!635 = metadata !{i32 786453, i32 0, metadata !"", i32 0, i32 0, i64 0, i64 0, i64 0, i32 0, null, metadata !636, i32 0, i32 0} ; [ DW_TAG_subroutine_type ]
!636 = metadata !{metadata !520, metadata !392, metadata !403, metadata !403, metadata !172, metadata !403}
!637 = metadata !{i32 786478, i32 0, metadata !308, metadata !"replace", metadata !"replace", metadata !"_ZNSs7replaceEmmPKc", metadata !312, i32 1466, metadata !638, i1 false, i1 false, i32 0, i32 0, null, i32 256, i1 false, null, null, i32 0, metadata !89, i32 1466} ; [ DW_TAG_subprogram ]
!638 = metadata !{i32 786453, i32 0, metadata !"", i32 0, i32 0, i64 0, i64 0, i64 0, i32 0, null, metadata !639, i32 0, i32 0} ; [ DW_TAG_subroutine_type ]
!639 = metadata !{metadata !520, metadata !392, metadata !403, metadata !403, metadata !172}
!640 = metadata !{i32 786478, i32 0, metadata !308, metadata !"replace", metadata !"replace", metadata !"_ZNSs7replaceEmmmc", metadata !312, i32 1489, metadata !641, i1 false, i1 false, i32 0, i32 0, null, i32 256, i1 false, null, null, i32 0, metadata !89, i32 1489} ; [ DW_TAG_subprogram ]
!641 = metadata !{i32 786453, i32 0, metadata !"", i32 0, i32 0, i64 0, i64 0, i64 0, i32 0, null, metadata !642, i32 0, i32 0} ; [ DW_TAG_subroutine_type ]
!642 = metadata !{metadata !520, metadata !392, metadata !403, metadata !403, metadata !403, metadata !174}
!643 = metadata !{i32 786478, i32 0, metadata !308, metadata !"replace", metadata !"replace", metadata !"_ZNSs7replaceEN9__gnu_cxx17__normal_iteratorIPcSsEES2_RKSs", metadata !312, i32 1507, metadata !644, i1 false, i1 false, i32 0, i32 0, null, i32 256, i1 false, null, null, i32 0, metadata !89, i32 1507} ; [ DW_TAG_subprogram ]
!644 = metadata !{i32 786453, i32 0, metadata !"", i32 0, i32 0, i64 0, i64 0, i64 0, i32 0, null, metadata !645, i32 0, i32 0} ; [ DW_TAG_subroutine_type ]
!645 = metadata !{metadata !520, metadata !392, metadata !445, metadata !445, metadata !500}
!646 = metadata !{i32 786478, i32 0, metadata !308, metadata !"replace", metadata !"replace", metadata !"_ZNSs7replaceEN9__gnu_cxx17__normal_iteratorIPcSsEES2_PKcm", metadata !312, i32 1525, metadata !647, i1 false, i1 false, i32 0, i32 0, null, i32 256, i1 false, null, null, i32 0, metadata !89, i32 1525} ; [ DW_TAG_subprogram ]
!647 = metadata !{i32 786453, i32 0, metadata !"", i32 0, i32 0, i64 0, i64 0, i64 0, i32 0, null, metadata !648, i32 0, i32 0} ; [ DW_TAG_subroutine_type ]
!648 = metadata !{metadata !520, metadata !392, metadata !445, metadata !445, metadata !172, metadata !403}
!649 = metadata !{i32 786478, i32 0, metadata !308, metadata !"replace", metadata !"replace", metadata !"_ZNSs7replaceEN9__gnu_cxx17__normal_iteratorIPcSsEES2_PKc", metadata !312, i32 1546, metadata !650, i1 false, i1 false, i32 0, i32 0, null, i32 256, i1 false, null, null, i32 0, metadata !89, i32 1546} ; [ DW_TAG_subprogram ]
!650 = metadata !{i32 786453, i32 0, metadata !"", i32 0, i32 0, i64 0, i64 0, i64 0, i32 0, null, metadata !651, i32 0, i32 0} ; [ DW_TAG_subroutine_type ]
!651 = metadata !{metadata !520, metadata !392, metadata !445, metadata !445, metadata !172}
!652 = metadata !{i32 786478, i32 0, metadata !308, metadata !"replace", metadata !"replace", metadata !"_ZNSs7replaceEN9__gnu_cxx17__normal_iteratorIPcSsEES2_mc", metadata !312, i32 1567, metadata !653, i1 false, i1 false, i32 0, i32 0, null, i32 256, i1 false, null, null, i32 0, metadata !89, i32 1567} ; [ DW_TAG_subprogram ]
!653 = metadata !{i32 786453, i32 0, metadata !"", i32 0, i32 0, i64 0, i64 0, i64 0, i32 0, null, metadata !654, i32 0, i32 0} ; [ DW_TAG_subroutine_type ]
!654 = metadata !{metadata !520, metadata !392, metadata !445, metadata !445, metadata !403, metadata !174}
!655 = metadata !{i32 786478, i32 0, metadata !308, metadata !"replace", metadata !"replace", metadata !"_ZNSs7replaceEN9__gnu_cxx17__normal_iteratorIPcSsEES2_S1_S1_", metadata !312, i32 1603, metadata !656, i1 false, i1 false, i32 0, i32 0, null, i32 256, i1 false, null, null, i32 0, metadata !89, i32 1603} ; [ DW_TAG_subprogram ]
!656 = metadata !{i32 786453, i32 0, metadata !"", i32 0, i32 0, i64 0, i64 0, i64 0, i32 0, null, metadata !657, i32 0, i32 0} ; [ DW_TAG_subroutine_type ]
!657 = metadata !{metadata !520, metadata !392, metadata !445, metadata !445, metadata !213, metadata !213}
!658 = metadata !{i32 786478, i32 0, metadata !308, metadata !"replace", metadata !"replace", metadata !"_ZNSs7replaceEN9__gnu_cxx17__normal_iteratorIPcSsEES2_PKcS4_", metadata !312, i32 1613, metadata !659, i1 false, i1 false, i32 0, i32 0, null, i32 256, i1 false, null, null, i32 0, metadata !89, i32 1613} ; [ DW_TAG_subprogram ]
!659 = metadata !{i32 786453, i32 0, metadata !"", i32 0, i32 0, i64 0, i64 0, i64 0, i32 0, null, metadata !660, i32 0, i32 0} ; [ DW_TAG_subroutine_type ]
!660 = metadata !{metadata !520, metadata !392, metadata !445, metadata !445, metadata !172, metadata !172}
!661 = metadata !{i32 786478, i32 0, metadata !308, metadata !"replace", metadata !"replace", metadata !"_ZNSs7replaceEN9__gnu_cxx17__normal_iteratorIPcSsEES2_S2_S2_", metadata !312, i32 1624, metadata !662, i1 false, i1 false, i32 0, i32 0, null, i32 256, i1 false, null, null, i32 0, metadata !89, i32 1624} ; [ DW_TAG_subprogram ]
!662 = metadata !{i32 786453, i32 0, metadata !"", i32 0, i32 0, i64 0, i64 0, i64 0, i32 0, null, metadata !663, i32 0, i32 0} ; [ DW_TAG_subroutine_type ]
!663 = metadata !{metadata !520, metadata !392, metadata !445, metadata !445, metadata !445, metadata !445}
!664 = metadata !{i32 786478, i32 0, metadata !308, metadata !"replace", metadata !"replace", metadata !"_ZNSs7replaceEN9__gnu_cxx17__normal_iteratorIPcSsEES2_NS0_IPKcSsEES5_", metadata !312, i32 1634, metadata !665, i1 false, i1 false, i32 0, i32 0, null, i32 256, i1 false, null, null, i32 0, metadata !89, i32 1634} ; [ DW_TAG_subprogram ]
!665 = metadata !{i32 786453, i32 0, metadata !"", i32 0, i32 0, i64 0, i64 0, i64 0, i32 0, null, metadata !666, i32 0, i32 0} ; [ DW_TAG_subroutine_type ]
!666 = metadata !{metadata !520, metadata !392, metadata !445, metadata !445, metadata !477, metadata !477}
!667 = metadata !{i32 786478, i32 0, metadata !308, metadata !"_M_replace_aux", metadata !"_M_replace_aux", metadata !"_ZNSs14_M_replace_auxEmmmc", metadata !312, i32 1676, metadata !641, i1 false, i1 false, i32 0, i32 0, null, i32 257, i1 false, null, null, i32 0, metadata !89, i32 1676} ; [ DW_TAG_subprogram ]
!668 = metadata !{i32 786478, i32 0, metadata !308, metadata !"_M_replace_safe", metadata !"_M_replace_safe", metadata !"_ZNSs15_M_replace_safeEmmPKcm", metadata !312, i32 1680, metadata !635, i1 false, i1 false, i32 0, i32 0, null, i32 257, i1 false, null, null, i32 0, metadata !89, i32 1680} ; [ DW_TAG_subprogram ]
!669 = metadata !{i32 786478, i32 0, metadata !308, metadata !"_S_construct_aux_2", metadata !"_S_construct_aux_2", metadata !"_ZNSs18_S_construct_aux_2EmcRKSaIcE", metadata !312, i32 1704, metadata !670, i1 false, i1 false, i32 0, i32 0, null, i32 257, i1 false, null, null, i32 0, metadata !89, i32 1704} ; [ DW_TAG_subprogram ]
!670 = metadata !{i32 786453, i32 0, metadata !"", i32 0, i32 0, i64 0, i64 0, i64 0, i32 0, null, metadata !671, i32 0, i32 0} ; [ DW_TAG_subroutine_type ]
!671 = metadata !{metadata !213, metadata !403, metadata !174, metadata !374}
!672 = metadata !{i32 786478, i32 0, metadata !308, metadata !"_S_construct", metadata !"_S_construct", metadata !"_ZNSs12_S_constructEmcRKSaIcE", metadata !312, i32 1729, metadata !670, i1 false, i1 false, i32 0, i32 0, null, i32 257, i1 false, null, null, i32 0, metadata !89, i32 1729} ; [ DW_TAG_subprogram ]
!673 = metadata !{i32 786478, i32 0, metadata !308, metadata !"copy", metadata !"copy", metadata !"_ZNKSs4copyEPcmm", metadata !312, i32 1745, metadata !674, i1 false, i1 false, i32 0, i32 0, null, i32 256, i1 false, null, null, i32 0, metadata !89, i32 1745} ; [ DW_TAG_subprogram ]
!674 = metadata !{i32 786453, i32 0, metadata !"", i32 0, i32 0, i64 0, i64 0, i64 0, i32 0, null, metadata !675, i32 0, i32 0} ; [ DW_TAG_subroutine_type ]
!675 = metadata !{metadata !403, metadata !387, metadata !213, metadata !403, metadata !403}
!676 = metadata !{i32 786478, i32 0, metadata !308, metadata !"swap", metadata !"swap", metadata !"_ZNSs4swapERSs", metadata !312, i32 1755, metadata !677, i1 false, i1 false, i32 0, i32 0, null, i32 256, i1 false, null, null, i32 0, metadata !89, i32 1755} ; [ DW_TAG_subprogram ]
!677 = metadata !{i32 786453, i32 0, metadata !"", i32 0, i32 0, i64 0, i64 0, i64 0, i32 0, null, metadata !678, i32 0, i32 0} ; [ DW_TAG_subroutine_type ]
!678 = metadata !{null, metadata !392, metadata !520}
!679 = metadata !{i32 786478, i32 0, metadata !308, metadata !"c_str", metadata !"c_str", metadata !"_ZNKSs5c_strEv", metadata !312, i32 1765, metadata !680, i1 false, i1 false, i32 0, i32 0, null, i32 256, i1 false, null, null, i32 0, metadata !89, i32 1765} ; [ DW_TAG_subprogram ]
!680 = metadata !{i32 786453, i32 0, metadata !"", i32 0, i32 0, i64 0, i64 0, i64 0, i32 0, null, metadata !681, i32 0, i32 0} ; [ DW_TAG_subroutine_type ]
!681 = metadata !{metadata !172, metadata !387}
!682 = metadata !{i32 786478, i32 0, metadata !308, metadata !"data", metadata !"data", metadata !"_ZNKSs4dataEv", metadata !312, i32 1775, metadata !680, i1 false, i1 false, i32 0, i32 0, null, i32 256, i1 false, null, null, i32 0, metadata !89, i32 1775} ; [ DW_TAG_subprogram ]
!683 = metadata !{i32 786478, i32 0, metadata !308, metadata !"get_allocator", metadata !"get_allocator", metadata !"_ZNKSs13get_allocatorEv", metadata !312, i32 1782, metadata !684, i1 false, i1 false, i32 0, i32 0, null, i32 256, i1 false, null, null, i32 0, metadata !89, i32 1782} ; [ DW_TAG_subprogram ]
!684 = metadata !{i32 786453, i32 0, metadata !"", i32 0, i32 0, i64 0, i64 0, i64 0, i32 0, null, metadata !685, i32 0, i32 0} ; [ DW_TAG_subroutine_type ]
!685 = metadata !{metadata !686, metadata !387}
!686 = metadata !{i32 786454, metadata !308, metadata !"allocator_type", metadata !309, i32 114, i64 0, i64 0, i64 0, i32 0, metadata !316} ; [ DW_TAG_typedef ]
!687 = metadata !{i32 786478, i32 0, metadata !308, metadata !"find", metadata !"find", metadata !"_ZNKSs4findEPKcmm", metadata !312, i32 1797, metadata !688, i1 false, i1 false, i32 0, i32 0, null, i32 256, i1 false, null, null, i32 0, metadata !89, i32 1797} ; [ DW_TAG_subprogram ]
!688 = metadata !{i32 786453, i32 0, metadata !"", i32 0, i32 0, i64 0, i64 0, i64 0, i32 0, null, metadata !689, i32 0, i32 0} ; [ DW_TAG_subroutine_type ]
!689 = metadata !{metadata !403, metadata !387, metadata !172, metadata !403, metadata !403}
!690 = metadata !{i32 786478, i32 0, metadata !308, metadata !"find", metadata !"find", metadata !"_ZNKSs4findERKSsm", metadata !312, i32 1810, metadata !691, i1 false, i1 false, i32 0, i32 0, null, i32 256, i1 false, null, null, i32 0, metadata !89, i32 1810} ; [ DW_TAG_subprogram ]
!691 = metadata !{i32 786453, i32 0, metadata !"", i32 0, i32 0, i64 0, i64 0, i64 0, i32 0, null, metadata !692, i32 0, i32 0} ; [ DW_TAG_subroutine_type ]
!692 = metadata !{metadata !403, metadata !387, metadata !500, metadata !403}
!693 = metadata !{i32 786478, i32 0, metadata !308, metadata !"find", metadata !"find", metadata !"_ZNKSs4findEPKcm", metadata !312, i32 1824, metadata !694, i1 false, i1 false, i32 0, i32 0, null, i32 256, i1 false, null, null, i32 0, metadata !89, i32 1824} ; [ DW_TAG_subprogram ]
!694 = metadata !{i32 786453, i32 0, metadata !"", i32 0, i32 0, i64 0, i64 0, i64 0, i32 0, null, metadata !695, i32 0, i32 0} ; [ DW_TAG_subroutine_type ]
!695 = metadata !{metadata !403, metadata !387, metadata !172, metadata !403}
!696 = metadata !{i32 786478, i32 0, metadata !308, metadata !"find", metadata !"find", metadata !"_ZNKSs4findEcm", metadata !312, i32 1841, metadata !697, i1 false, i1 false, i32 0, i32 0, null, i32 256, i1 false, null, null, i32 0, metadata !89, i32 1841} ; [ DW_TAG_subprogram ]
!697 = metadata !{i32 786453, i32 0, metadata !"", i32 0, i32 0, i64 0, i64 0, i64 0, i32 0, null, metadata !698, i32 0, i32 0} ; [ DW_TAG_subroutine_type ]
!698 = metadata !{metadata !403, metadata !387, metadata !174, metadata !403}
!699 = metadata !{i32 786478, i32 0, metadata !308, metadata !"rfind", metadata !"rfind", metadata !"_ZNKSs5rfindERKSsm", metadata !312, i32 1854, metadata !691, i1 false, i1 false, i32 0, i32 0, null, i32 256, i1 false, null, null, i32 0, metadata !89, i32 1854} ; [ DW_TAG_subprogram ]
!700 = metadata !{i32 786478, i32 0, metadata !308, metadata !"rfind", metadata !"rfind", metadata !"_ZNKSs5rfindEPKcmm", metadata !312, i32 1869, metadata !688, i1 false, i1 false, i32 0, i32 0, null, i32 256, i1 false, null, null, i32 0, metadata !89, i32 1869} ; [ DW_TAG_subprogram ]
!701 = metadata !{i32 786478, i32 0, metadata !308, metadata !"rfind", metadata !"rfind", metadata !"_ZNKSs5rfindEPKcm", metadata !312, i32 1882, metadata !694, i1 false, i1 false, i32 0, i32 0, null, i32 256, i1 false, null, null, i32 0, metadata !89, i32 1882} ; [ DW_TAG_subprogram ]
!702 = metadata !{i32 786478, i32 0, metadata !308, metadata !"rfind", metadata !"rfind", metadata !"_ZNKSs5rfindEcm", metadata !312, i32 1899, metadata !697, i1 false, i1 false, i32 0, i32 0, null, i32 256, i1 false, null, null, i32 0, metadata !89, i32 1899} ; [ DW_TAG_subprogram ]
!703 = metadata !{i32 786478, i32 0, metadata !308, metadata !"find_first_of", metadata !"find_first_of", metadata !"_ZNKSs13find_first_ofERKSsm", metadata !312, i32 1912, metadata !691, i1 false, i1 false, i32 0, i32 0, null, i32 256, i1 false, null, null, i32 0, metadata !89, i32 1912} ; [ DW_TAG_subprogram ]
!704 = metadata !{i32 786478, i32 0, metadata !308, metadata !"find_first_of", metadata !"find_first_of", metadata !"_ZNKSs13find_first_ofEPKcmm", metadata !312, i32 1927, metadata !688, i1 false, i1 false, i32 0, i32 0, null, i32 256, i1 false, null, null, i32 0, metadata !89, i32 1927} ; [ DW_TAG_subprogram ]
!705 = metadata !{i32 786478, i32 0, metadata !308, metadata !"find_first_of", metadata !"find_first_of", metadata !"_ZNKSs13find_first_ofEPKcm", metadata !312, i32 1940, metadata !694, i1 false, i1 false, i32 0, i32 0, null, i32 256, i1 false, null, null, i32 0, metadata !89, i32 1940} ; [ DW_TAG_subprogram ]
!706 = metadata !{i32 786478, i32 0, metadata !308, metadata !"find_first_of", metadata !"find_first_of", metadata !"_ZNKSs13find_first_ofEcm", metadata !312, i32 1959, metadata !697, i1 false, i1 false, i32 0, i32 0, null, i32 256, i1 false, null, null, i32 0, metadata !89, i32 1959} ; [ DW_TAG_subprogram ]
!707 = metadata !{i32 786478, i32 0, metadata !308, metadata !"find_last_of", metadata !"find_last_of", metadata !"_ZNKSs12find_last_ofERKSsm", metadata !312, i32 1973, metadata !691, i1 false, i1 false, i32 0, i32 0, null, i32 256, i1 false, null, null, i32 0, metadata !89, i32 1973} ; [ DW_TAG_subprogram ]
!708 = metadata !{i32 786478, i32 0, metadata !308, metadata !"find_last_of", metadata !"find_last_of", metadata !"_ZNKSs12find_last_ofEPKcmm", metadata !312, i32 1988, metadata !688, i1 false, i1 false, i32 0, i32 0, null, i32 256, i1 false, null, null, i32 0, metadata !89, i32 1988} ; [ DW_TAG_subprogram ]
!709 = metadata !{i32 786478, i32 0, metadata !308, metadata !"find_last_of", metadata !"find_last_of", metadata !"_ZNKSs12find_last_ofEPKcm", metadata !312, i32 2001, metadata !694, i1 false, i1 false, i32 0, i32 0, null, i32 256, i1 false, null, null, i32 0, metadata !89, i32 2001} ; [ DW_TAG_subprogram ]
!710 = metadata !{i32 786478, i32 0, metadata !308, metadata !"find_last_of", metadata !"find_last_of", metadata !"_ZNKSs12find_last_ofEcm", metadata !312, i32 2020, metadata !697, i1 false, i1 false, i32 0, i32 0, null, i32 256, i1 false, null, null, i32 0, metadata !89, i32 2020} ; [ DW_TAG_subprogram ]
!711 = metadata !{i32 786478, i32 0, metadata !308, metadata !"find_first_not_of", metadata !"find_first_not_of", metadata !"_ZNKSs17find_first_not_ofERKSsm", metadata !312, i32 2034, metadata !691, i1 false, i1 false, i32 0, i32 0, null, i32 256, i1 false, null, null, i32 0, metadata !89, i32 2034} ; [ DW_TAG_subprogram ]
!712 = metadata !{i32 786478, i32 0, metadata !308, metadata !"find_first_not_of", metadata !"find_first_not_of", metadata !"_ZNKSs17find_first_not_ofEPKcmm", metadata !312, i32 2049, metadata !688, i1 false, i1 false, i32 0, i32 0, null, i32 256, i1 false, null, null, i32 0, metadata !89, i32 2049} ; [ DW_TAG_subprogram ]
!713 = metadata !{i32 786478, i32 0, metadata !308, metadata !"find_first_not_of", metadata !"find_first_not_of", metadata !"_ZNKSs17find_first_not_ofEPKcm", metadata !312, i32 2063, metadata !694, i1 false, i1 false, i32 0, i32 0, null, i32 256, i1 false, null, null, i32 0, metadata !89, i32 2063} ; [ DW_TAG_subprogram ]
!714 = metadata !{i32 786478, i32 0, metadata !308, metadata !"find_first_not_of", metadata !"find_first_not_of", metadata !"_ZNKSs17find_first_not_ofEcm", metadata !312, i32 2080, metadata !697, i1 false, i1 false, i32 0, i32 0, null, i32 256, i1 false, null, null, i32 0, metadata !89, i32 2080} ; [ DW_TAG_subprogram ]
!715 = metadata !{i32 786478, i32 0, metadata !308, metadata !"find_last_not_of", metadata !"find_last_not_of", metadata !"_ZNKSs16find_last_not_ofERKSsm", metadata !312, i32 2093, metadata !691, i1 false, i1 false, i32 0, i32 0, null, i32 256, i1 false, null, null, i32 0, metadata !89, i32 2093} ; [ DW_TAG_subprogram ]
!716 = metadata !{i32 786478, i32 0, metadata !308, metadata !"find_last_not_of", metadata !"find_last_not_of", metadata !"_ZNKSs16find_last_not_ofEPKcmm", metadata !312, i32 2109, metadata !688, i1 false, i1 false, i32 0, i32 0, null, i32 256, i1 false, null, null, i32 0, metadata !89, i32 2109} ; [ DW_TAG_subprogram ]
!717 = metadata !{i32 786478, i32 0, metadata !308, metadata !"find_last_not_of", metadata !"find_last_not_of", metadata !"_ZNKSs16find_last_not_ofEPKcm", metadata !312, i32 2122, metadata !694, i1 false, i1 false, i32 0, i32 0, null, i32 256, i1 false, null, null, i32 0, metadata !89, i32 2122} ; [ DW_TAG_subprogram ]
!718 = metadata !{i32 786478, i32 0, metadata !308, metadata !"find_last_not_of", metadata !"find_last_not_of", metadata !"_ZNKSs16find_last_not_ofEcm", metadata !312, i32 2139, metadata !697, i1 false, i1 false, i32 0, i32 0, null, i32 256, i1 false, null, null, i32 0, metadata !89, i32 2139} ; [ DW_TAG_subprogram ]
!719 = metadata !{i32 786478, i32 0, metadata !308, metadata !"substr", metadata !"substr", metadata !"_ZNKSs6substrEmm", metadata !312, i32 2154, metadata !720, i1 false, i1 false, i32 0, i32 0, null, i32 256, i1 false, null, null, i32 0, metadata !89, i32 2154} ; [ DW_TAG_subprogram ]
!720 = metadata !{i32 786453, i32 0, metadata !"", i32 0, i32 0, i64 0, i64 0, i64 0, i32 0, null, metadata !721, i32 0, i32 0} ; [ DW_TAG_subroutine_type ]
!721 = metadata !{metadata !308, metadata !387, metadata !403, metadata !403}
!722 = metadata !{i32 786478, i32 0, metadata !308, metadata !"compare", metadata !"compare", metadata !"_ZNKSs7compareERKSs", metadata !312, i32 2172, metadata !723, i1 false, i1 false, i32 0, i32 0, null, i32 256, i1 false, null, null, i32 0, metadata !89, i32 2172} ; [ DW_TAG_subprogram ]
!723 = metadata !{i32 786453, i32 0, metadata !"", i32 0, i32 0, i64 0, i64 0, i64 0, i32 0, null, metadata !724, i32 0, i32 0} ; [ DW_TAG_subroutine_type ]
!724 = metadata !{metadata !56, metadata !387, metadata !500}
!725 = metadata !{i32 786478, i32 0, metadata !308, metadata !"compare", metadata !"compare", metadata !"_ZNKSs7compareEmmRKSs", metadata !312, i32 2202, metadata !726, i1 false, i1 false, i32 0, i32 0, null, i32 256, i1 false, null, null, i32 0, metadata !89, i32 2202} ; [ DW_TAG_subprogram ]
!726 = metadata !{i32 786453, i32 0, metadata !"", i32 0, i32 0, i64 0, i64 0, i64 0, i32 0, null, metadata !727, i32 0, i32 0} ; [ DW_TAG_subroutine_type ]
!727 = metadata !{metadata !56, metadata !387, metadata !403, metadata !403, metadata !500}
!728 = metadata !{i32 786478, i32 0, metadata !308, metadata !"compare", metadata !"compare", metadata !"_ZNKSs7compareEmmRKSsmm", metadata !312, i32 2226, metadata !729, i1 false, i1 false, i32 0, i32 0, null, i32 256, i1 false, null, null, i32 0, metadata !89, i32 2226} ; [ DW_TAG_subprogram ]
!729 = metadata !{i32 786453, i32 0, metadata !"", i32 0, i32 0, i64 0, i64 0, i64 0, i32 0, null, metadata !730, i32 0, i32 0} ; [ DW_TAG_subroutine_type ]
!730 = metadata !{metadata !56, metadata !387, metadata !403, metadata !403, metadata !500, metadata !403, metadata !403}
!731 = metadata !{i32 786478, i32 0, metadata !308, metadata !"compare", metadata !"compare", metadata !"_ZNKSs7compareEPKc", metadata !312, i32 2244, metadata !732, i1 false, i1 false, i32 0, i32 0, null, i32 256, i1 false, null, null, i32 0, metadata !89, i32 2244} ; [ DW_TAG_subprogram ]
!732 = metadata !{i32 786453, i32 0, metadata !"", i32 0, i32 0, i64 0, i64 0, i64 0, i32 0, null, metadata !733, i32 0, i32 0} ; [ DW_TAG_subroutine_type ]
!733 = metadata !{metadata !56, metadata !387, metadata !172}
!734 = metadata !{i32 786478, i32 0, metadata !308, metadata !"compare", metadata !"compare", metadata !"_ZNKSs7compareEmmPKc", metadata !312, i32 2267, metadata !735, i1 false, i1 false, i32 0, i32 0, null, i32 256, i1 false, null, null, i32 0, metadata !89, i32 2267} ; [ DW_TAG_subprogram ]
!735 = metadata !{i32 786453, i32 0, metadata !"", i32 0, i32 0, i64 0, i64 0, i64 0, i32 0, null, metadata !736, i32 0, i32 0} ; [ DW_TAG_subroutine_type ]
!736 = metadata !{metadata !56, metadata !387, metadata !403, metadata !403, metadata !172}
!737 = metadata !{i32 786478, i32 0, metadata !308, metadata !"compare", metadata !"compare", metadata !"_ZNKSs7compareEmmPKcm", metadata !312, i32 2292, metadata !738, i1 false, i1 false, i32 0, i32 0, null, i32 256, i1 false, null, null, i32 0, metadata !89, i32 2292} ; [ DW_TAG_subprogram ]
!738 = metadata !{i32 786453, i32 0, metadata !"", i32 0, i32 0, i64 0, i64 0, i64 0, i32 0, null, metadata !739, i32 0, i32 0} ; [ DW_TAG_subroutine_type ]
!739 = metadata !{metadata !56, metadata !387, metadata !403, metadata !403, metadata !172, metadata !403}
!740 = metadata !{metadata !741, metadata !742, metadata !795}
!741 = metadata !{i32 786479, null, metadata !"_CharT", metadata !174, null, i32 0, i32 0} ; [ DW_TAG_template_type_parameter ]
!742 = metadata !{i32 786479, null, metadata !"_Traits", metadata !743, null, i32 0, i32 0} ; [ DW_TAG_template_type_parameter ]
!743 = metadata !{i32 786434, metadata !744, metadata !"char_traits<char>", metadata !745, i32 234, i64 8, i64 8, i32 0, i32 0, null, metadata !746, i32 0, null, metadata !794} ; [ DW_TAG_class_type ]
!744 = metadata !{i32 786489, null, metadata !"std", metadata !745, i32 210} ; [ DW_TAG_namespace ]
!745 = metadata !{i32 786473, metadata !"/home/ece492fa18/Vivado/2017.4/lnx64/tools/gcc/lib/gcc/x86_64-unknown-linux-gnu/4.6.3/../../../../include/c++/4.6.3/bits/char_traits.h", metadata !"/home/ece492fa18/RFNoCFrameSynchHWAccel/correlatorDev", null} ; [ DW_TAG_file_type ]
!746 = metadata !{metadata !747, metadata !754, metadata !757, metadata !758, metadata !762, metadata !765, metadata !768, metadata !772, metadata !773, metadata !776, metadata !782, metadata !785, metadata !788, metadata !791}
!747 = metadata !{i32 786478, i32 0, metadata !743, metadata !"assign", metadata !"assign", metadata !"_ZNSt11char_traitsIcE6assignERcRKc", metadata !745, i32 243, metadata !748, i1 false, i1 false, i32 0, i32 0, null, i32 256, i1 false, null, null, i32 0, metadata !89, i32 243} ; [ DW_TAG_subprogram ]
!748 = metadata !{i32 786453, i32 0, metadata !"", i32 0, i32 0, i64 0, i64 0, i64 0, i32 0, null, metadata !749, i32 0, i32 0} ; [ DW_TAG_subroutine_type ]
!749 = metadata !{null, metadata !750, metadata !752}
!750 = metadata !{i32 786448, null, null, null, i32 0, i64 0, i64 0, i64 0, i32 0, metadata !751} ; [ DW_TAG_reference_type ]
!751 = metadata !{i32 786454, metadata !743, metadata !"char_type", metadata !745, i32 236, i64 0, i64 0, i64 0, i32 0, metadata !174} ; [ DW_TAG_typedef ]
!752 = metadata !{i32 786448, null, null, null, i32 0, i64 0, i64 0, i64 0, i32 0, metadata !753} ; [ DW_TAG_reference_type ]
!753 = metadata !{i32 786470, null, metadata !"", null, i32 0, i64 0, i64 0, i64 0, i32 0, metadata !751} ; [ DW_TAG_const_type ]
!754 = metadata !{i32 786478, i32 0, metadata !743, metadata !"eq", metadata !"eq", metadata !"_ZNSt11char_traitsIcE2eqERKcS2_", metadata !745, i32 247, metadata !755, i1 false, i1 false, i32 0, i32 0, null, i32 256, i1 false, null, null, i32 0, metadata !89, i32 247} ; [ DW_TAG_subprogram ]
!755 = metadata !{i32 786453, i32 0, metadata !"", i32 0, i32 0, i64 0, i64 0, i64 0, i32 0, null, metadata !756, i32 0, i32 0} ; [ DW_TAG_subroutine_type ]
!756 = metadata !{metadata !238, metadata !752, metadata !752}
!757 = metadata !{i32 786478, i32 0, metadata !743, metadata !"lt", metadata !"lt", metadata !"_ZNSt11char_traitsIcE2ltERKcS2_", metadata !745, i32 251, metadata !755, i1 false, i1 false, i32 0, i32 0, null, i32 256, i1 false, null, null, i32 0, metadata !89, i32 251} ; [ DW_TAG_subprogram ]
!758 = metadata !{i32 786478, i32 0, metadata !743, metadata !"compare", metadata !"compare", metadata !"_ZNSt11char_traitsIcE7compareEPKcS2_m", metadata !745, i32 255, metadata !759, i1 false, i1 false, i32 0, i32 0, null, i32 256, i1 false, null, null, i32 0, metadata !89, i32 255} ; [ DW_TAG_subprogram ]
!759 = metadata !{i32 786453, i32 0, metadata !"", i32 0, i32 0, i64 0, i64 0, i64 0, i32 0, null, metadata !760, i32 0, i32 0} ; [ DW_TAG_subroutine_type ]
!760 = metadata !{metadata !56, metadata !761, metadata !761, metadata !139}
!761 = metadata !{i32 786447, null, metadata !"", null, i32 0, i64 64, i64 64, i64 0, i32 0, metadata !753} ; [ DW_TAG_pointer_type ]
!762 = metadata !{i32 786478, i32 0, metadata !743, metadata !"length", metadata !"length", metadata !"_ZNSt11char_traitsIcE6lengthEPKc", metadata !745, i32 259, metadata !763, i1 false, i1 false, i32 0, i32 0, null, i32 256, i1 false, null, null, i32 0, metadata !89, i32 259} ; [ DW_TAG_subprogram ]
!763 = metadata !{i32 786453, i32 0, metadata !"", i32 0, i32 0, i64 0, i64 0, i64 0, i32 0, null, metadata !764, i32 0, i32 0} ; [ DW_TAG_subroutine_type ]
!764 = metadata !{metadata !139, metadata !761}
!765 = metadata !{i32 786478, i32 0, metadata !743, metadata !"find", metadata !"find", metadata !"_ZNSt11char_traitsIcE4findEPKcmRS1_", metadata !745, i32 263, metadata !766, i1 false, i1 false, i32 0, i32 0, null, i32 256, i1 false, null, null, i32 0, metadata !89, i32 263} ; [ DW_TAG_subprogram ]
!766 = metadata !{i32 786453, i32 0, metadata !"", i32 0, i32 0, i64 0, i64 0, i64 0, i32 0, null, metadata !767, i32 0, i32 0} ; [ DW_TAG_subroutine_type ]
!767 = metadata !{metadata !761, metadata !761, metadata !139, metadata !752}
!768 = metadata !{i32 786478, i32 0, metadata !743, metadata !"move", metadata !"move", metadata !"_ZNSt11char_traitsIcE4moveEPcPKcm", metadata !745, i32 267, metadata !769, i1 false, i1 false, i32 0, i32 0, null, i32 256, i1 false, null, null, i32 0, metadata !89, i32 267} ; [ DW_TAG_subprogram ]
!769 = metadata !{i32 786453, i32 0, metadata !"", i32 0, i32 0, i64 0, i64 0, i64 0, i32 0, null, metadata !770, i32 0, i32 0} ; [ DW_TAG_subroutine_type ]
!770 = metadata !{metadata !771, metadata !771, metadata !761, metadata !139}
!771 = metadata !{i32 786447, null, metadata !"", null, i32 0, i64 64, i64 64, i64 0, i32 0, metadata !751} ; [ DW_TAG_pointer_type ]
!772 = metadata !{i32 786478, i32 0, metadata !743, metadata !"copy", metadata !"copy", metadata !"_ZNSt11char_traitsIcE4copyEPcPKcm", metadata !745, i32 271, metadata !769, i1 false, i1 false, i32 0, i32 0, null, i32 256, i1 false, null, null, i32 0, metadata !89, i32 271} ; [ DW_TAG_subprogram ]
!773 = metadata !{i32 786478, i32 0, metadata !743, metadata !"assign", metadata !"assign", metadata !"_ZNSt11char_traitsIcE6assignEPcmc", metadata !745, i32 275, metadata !774, i1 false, i1 false, i32 0, i32 0, null, i32 256, i1 false, null, null, i32 0, metadata !89, i32 275} ; [ DW_TAG_subprogram ]
!774 = metadata !{i32 786453, i32 0, metadata !"", i32 0, i32 0, i64 0, i64 0, i64 0, i32 0, null, metadata !775, i32 0, i32 0} ; [ DW_TAG_subroutine_type ]
!775 = metadata !{metadata !771, metadata !771, metadata !139, metadata !751}
!776 = metadata !{i32 786478, i32 0, metadata !743, metadata !"to_char_type", metadata !"to_char_type", metadata !"_ZNSt11char_traitsIcE12to_char_typeERKi", metadata !745, i32 279, metadata !777, i1 false, i1 false, i32 0, i32 0, null, i32 256, i1 false, null, null, i32 0, metadata !89, i32 279} ; [ DW_TAG_subprogram ]
!777 = metadata !{i32 786453, i32 0, metadata !"", i32 0, i32 0, i64 0, i64 0, i64 0, i32 0, null, metadata !778, i32 0, i32 0} ; [ DW_TAG_subroutine_type ]
!778 = metadata !{metadata !751, metadata !779}
!779 = metadata !{i32 786448, null, null, null, i32 0, i64 0, i64 0, i64 0, i32 0, metadata !780} ; [ DW_TAG_reference_type ]
!780 = metadata !{i32 786470, null, metadata !"", null, i32 0, i64 0, i64 0, i64 0, i32 0, metadata !781} ; [ DW_TAG_const_type ]
!781 = metadata !{i32 786454, metadata !743, metadata !"int_type", metadata !745, i32 237, i64 0, i64 0, i64 0, i32 0, metadata !56} ; [ DW_TAG_typedef ]
!782 = metadata !{i32 786478, i32 0, metadata !743, metadata !"to_int_type", metadata !"to_int_type", metadata !"_ZNSt11char_traitsIcE11to_int_typeERKc", metadata !745, i32 285, metadata !783, i1 false, i1 false, i32 0, i32 0, null, i32 256, i1 false, null, null, i32 0, metadata !89, i32 285} ; [ DW_TAG_subprogram ]
!783 = metadata !{i32 786453, i32 0, metadata !"", i32 0, i32 0, i64 0, i64 0, i64 0, i32 0, null, metadata !784, i32 0, i32 0} ; [ DW_TAG_subroutine_type ]
!784 = metadata !{metadata !781, metadata !752}
!785 = metadata !{i32 786478, i32 0, metadata !743, metadata !"eq_int_type", metadata !"eq_int_type", metadata !"_ZNSt11char_traitsIcE11eq_int_typeERKiS2_", metadata !745, i32 289, metadata !786, i1 false, i1 false, i32 0, i32 0, null, i32 256, i1 false, null, null, i32 0, metadata !89, i32 289} ; [ DW_TAG_subprogram ]
!786 = metadata !{i32 786453, i32 0, metadata !"", i32 0, i32 0, i64 0, i64 0, i64 0, i32 0, null, metadata !787, i32 0, i32 0} ; [ DW_TAG_subroutine_type ]
!787 = metadata !{metadata !238, metadata !779, metadata !779}
!788 = metadata !{i32 786478, i32 0, metadata !743, metadata !"eof", metadata !"eof", metadata !"_ZNSt11char_traitsIcE3eofEv", metadata !745, i32 293, metadata !789, i1 false, i1 false, i32 0, i32 0, null, i32 256, i1 false, null, null, i32 0, metadata !89, i32 293} ; [ DW_TAG_subprogram ]
!789 = metadata !{i32 786453, i32 0, metadata !"", i32 0, i32 0, i64 0, i64 0, i64 0, i32 0, null, metadata !790, i32 0, i32 0} ; [ DW_TAG_subroutine_type ]
!790 = metadata !{metadata !781}
!791 = metadata !{i32 786478, i32 0, metadata !743, metadata !"not_eof", metadata !"not_eof", metadata !"_ZNSt11char_traitsIcE7not_eofERKi", metadata !745, i32 297, metadata !792, i1 false, i1 false, i32 0, i32 0, null, i32 256, i1 false, null, null, i32 0, metadata !89, i32 297} ; [ DW_TAG_subprogram ]
!792 = metadata !{i32 786453, i32 0, metadata !"", i32 0, i32 0, i64 0, i64 0, i64 0, i32 0, null, metadata !793, i32 0, i32 0} ; [ DW_TAG_subroutine_type ]
!793 = metadata !{metadata !781, metadata !779}
!794 = metadata !{metadata !741}
!795 = metadata !{i32 786479, null, metadata !"_Alloc", metadata !316, null, i32 0, i32 0} ; [ DW_TAG_template_type_parameter ]
!796 = metadata !{i32 786447, i32 0, metadata !"", i32 0, i32 0, i64 64, i64 64, i64 0, i32 64, metadata !288} ; [ DW_TAG_pointer_type ]
!797 = metadata !{i32 786478, i32 0, metadata !115, metadata !"operator==", metadata !"operator==", metadata !"_ZNKSt6localeeqERKS_", metadata !117, i32 226, metadata !798, i1 false, i1 false, i32 0, i32 0, null, i32 256, i1 false, null, null, i32 0, metadata !89, i32 226} ; [ DW_TAG_subprogram ]
!798 = metadata !{i32 786453, i32 0, metadata !"", i32 0, i32 0, i64 0, i64 0, i64 0, i32 0, null, metadata !799, i32 0, i32 0} ; [ DW_TAG_subroutine_type ]
!799 = metadata !{metadata !238, metadata !796, metadata !287}
!800 = metadata !{i32 786478, i32 0, metadata !115, metadata !"operator!=", metadata !"operator!=", metadata !"_ZNKSt6localeneERKS_", metadata !117, i32 235, metadata !798, i1 false, i1 false, i32 0, i32 0, null, i32 256, i1 false, null, null, i32 0, metadata !89, i32 235} ; [ DW_TAG_subprogram ]
!801 = metadata !{i32 786478, i32 0, metadata !115, metadata !"global", metadata !"global", metadata !"_ZNSt6locale6globalERKS_", metadata !117, i32 270, metadata !802, i1 false, i1 false, i32 0, i32 0, null, i32 256, i1 false, null, null, i32 0, metadata !89, i32 270} ; [ DW_TAG_subprogram ]
!802 = metadata !{i32 786453, i32 0, metadata !"", i32 0, i32 0, i64 0, i64 0, i64 0, i32 0, null, metadata !803, i32 0, i32 0} ; [ DW_TAG_subroutine_type ]
!803 = metadata !{metadata !115, metadata !287}
!804 = metadata !{i32 786478, i32 0, metadata !115, metadata !"classic", metadata !"classic", metadata !"_ZNSt6locale7classicEv", metadata !117, i32 276, metadata !805, i1 false, i1 false, i32 0, i32 0, null, i32 256, i1 false, null, null, i32 0, metadata !89, i32 276} ; [ DW_TAG_subprogram ]
!805 = metadata !{i32 786453, i32 0, metadata !"", i32 0, i32 0, i64 0, i64 0, i64 0, i32 0, null, metadata !806, i32 0, i32 0} ; [ DW_TAG_subroutine_type ]
!806 = metadata !{metadata !287}
!807 = metadata !{i32 786478, i32 0, metadata !115, metadata !"locale", metadata !"locale", metadata !"", metadata !117, i32 311, metadata !808, i1 false, i1 false, i32 0, i32 0, null, i32 385, i1 false, null, null, i32 0, metadata !89, i32 311} ; [ DW_TAG_subprogram ]
!808 = metadata !{i32 786453, i32 0, metadata !"", i32 0, i32 0, i64 0, i64 0, i64 0, i32 0, null, metadata !809, i32 0, i32 0} ; [ DW_TAG_subroutine_type ]
!809 = metadata !{null, metadata !283, metadata !120}
!810 = metadata !{i32 786478, i32 0, metadata !115, metadata !"_S_initialize", metadata !"_S_initialize", metadata !"_ZNSt6locale13_S_initializeEv", metadata !117, i32 314, metadata !133, i1 false, i1 false, i32 0, i32 0, null, i32 257, i1 false, null, null, i32 0, metadata !89, i32 314} ; [ DW_TAG_subprogram ]
!811 = metadata !{i32 786478, i32 0, metadata !115, metadata !"_S_initialize_once", metadata !"_S_initialize_once", metadata !"_ZNSt6locale18_S_initialize_onceEv", metadata !117, i32 317, metadata !133, i1 false, i1 false, i32 0, i32 0, null, i32 257, i1 false, null, null, i32 0, metadata !89, i32 317} ; [ DW_TAG_subprogram ]
!812 = metadata !{i32 786478, i32 0, metadata !115, metadata !"_S_normalize_category", metadata !"_S_normalize_category", metadata !"_ZNSt6locale21_S_normalize_categoryEi", metadata !117, i32 320, metadata !813, i1 false, i1 false, i32 0, i32 0, null, i32 257, i1 false, null, null, i32 0, metadata !89, i32 320} ; [ DW_TAG_subprogram ]
!813 = metadata !{i32 786453, i32 0, metadata !"", i32 0, i32 0, i64 0, i64 0, i64 0, i32 0, null, metadata !814, i32 0, i32 0} ; [ DW_TAG_subroutine_type ]
!814 = metadata !{metadata !243, metadata !243}
!815 = metadata !{i32 786478, i32 0, metadata !115, metadata !"_M_coalesce", metadata !"_M_coalesce", metadata !"_ZNSt6locale11_M_coalesceERKS_S1_i", metadata !117, i32 323, metadata !296, i1 false, i1 false, i32 0, i32 0, null, i32 257, i1 false, null, null, i32 0, metadata !89, i32 323} ; [ DW_TAG_subprogram ]
!816 = metadata !{i32 786474, metadata !115, null, metadata !117, i32 0, i64 0, i64 0, i64 0, i32 0, metadata !121} ; [ DW_TAG_friend ]
!817 = metadata !{i32 786474, metadata !115, null, metadata !117, i32 0, i64 0, i64 0, i64 0, i32 0, metadata !128} ; [ DW_TAG_friend ]
!818 = metadata !{i32 786478, i32 0, metadata !49, metadata !"register_callback", metadata !"register_callback", metadata !"_ZNSt8ios_base17register_callbackEPFvNS_5eventERS_iEi", metadata !5, i32 450, metadata !819, i1 false, i1 false, i32 0, i32 0, null, i32 256, i1 false, null, null, i32 0, metadata !89, i32 450} ; [ DW_TAG_subprogram ]
!819 = metadata !{i32 786453, i32 0, metadata !"", i32 0, i32 0, i64 0, i64 0, i64 0, i32 0, null, metadata !820, i32 0, i32 0} ; [ DW_TAG_subroutine_type ]
!820 = metadata !{null, metadata !821, metadata !77, metadata !56}
!821 = metadata !{i32 786447, i32 0, metadata !"", i32 0, i32 0, i64 64, i64 64, i64 0, i32 64, metadata !49} ; [ DW_TAG_pointer_type ]
!822 = metadata !{i32 786478, i32 0, metadata !49, metadata !"_M_call_callbacks", metadata !"_M_call_callbacks", metadata !"_ZNSt8ios_base17_M_call_callbacksENS_5eventE", metadata !5, i32 494, metadata !823, i1 false, i1 false, i32 0, i32 0, null, i32 258, i1 false, null, null, i32 0, metadata !89, i32 494} ; [ DW_TAG_subprogram ]
!823 = metadata !{i32 786453, i32 0, metadata !"", i32 0, i32 0, i64 0, i64 0, i64 0, i32 0, null, metadata !824, i32 0, i32 0} ; [ DW_TAG_subroutine_type ]
!824 = metadata !{null, metadata !821, metadata !48}
!825 = metadata !{i32 786478, i32 0, metadata !49, metadata !"_M_dispose_callbacks", metadata !"_M_dispose_callbacks", metadata !"_ZNSt8ios_base20_M_dispose_callbacksEv", metadata !5, i32 497, metadata !826, i1 false, i1 false, i32 0, i32 0, null, i32 258, i1 false, null, null, i32 0, metadata !89, i32 497} ; [ DW_TAG_subprogram ]
!826 = metadata !{i32 786453, i32 0, metadata !"", i32 0, i32 0, i64 0, i64 0, i64 0, i32 0, null, metadata !827, i32 0, i32 0} ; [ DW_TAG_subroutine_type ]
!827 = metadata !{null, metadata !821}
!828 = metadata !{i32 786478, i32 0, metadata !49, metadata !"_M_grow_words", metadata !"_M_grow_words", metadata !"_ZNSt8ios_base13_M_grow_wordsEib", metadata !5, i32 520, metadata !829, i1 false, i1 false, i32 0, i32 0, null, i32 258, i1 false, null, null, i32 0, metadata !89, i32 520} ; [ DW_TAG_subprogram ]
!829 = metadata !{i32 786453, i32 0, metadata !"", i32 0, i32 0, i64 0, i64 0, i64 0, i32 0, null, metadata !830, i32 0, i32 0} ; [ DW_TAG_subroutine_type ]
!830 = metadata !{metadata !831, metadata !821, metadata !56, metadata !238}
!831 = metadata !{i32 786448, null, null, null, i32 0, i64 0, i64 0, i64 0, i32 0, metadata !98} ; [ DW_TAG_reference_type ]
!832 = metadata !{i32 786478, i32 0, metadata !49, metadata !"_M_init", metadata !"_M_init", metadata !"_ZNSt8ios_base7_M_initEv", metadata !5, i32 526, metadata !826, i1 false, i1 false, i32 0, i32 0, null, i32 258, i1 false, null, null, i32 0, metadata !89, i32 526} ; [ DW_TAG_subprogram ]
!833 = metadata !{i32 786478, i32 0, metadata !49, metadata !"flags", metadata !"flags", metadata !"_ZNKSt8ios_base5flagsEv", metadata !5, i32 552, metadata !834, i1 false, i1 false, i32 0, i32 0, null, i32 256, i1 false, null, null, i32 0, metadata !89, i32 552} ; [ DW_TAG_subprogram ]
!834 = metadata !{i32 786453, i32 0, metadata !"", i32 0, i32 0, i64 0, i64 0, i64 0, i32 0, null, metadata !835, i32 0, i32 0} ; [ DW_TAG_subroutine_type ]
!835 = metadata !{metadata !67, metadata !836}
!836 = metadata !{i32 786447, i32 0, metadata !"", i32 0, i32 0, i64 64, i64 64, i64 0, i32 64, metadata !837} ; [ DW_TAG_pointer_type ]
!837 = metadata !{i32 786470, null, metadata !"", null, i32 0, i64 0, i64 0, i64 0, i32 0, metadata !49} ; [ DW_TAG_const_type ]
!838 = metadata !{i32 786478, i32 0, metadata !49, metadata !"flags", metadata !"flags", metadata !"_ZNSt8ios_base5flagsESt13_Ios_Fmtflags", metadata !5, i32 563, metadata !839, i1 false, i1 false, i32 0, i32 0, null, i32 256, i1 false, null, null, i32 0, metadata !89, i32 563} ; [ DW_TAG_subprogram ]
!839 = metadata !{i32 786453, i32 0, metadata !"", i32 0, i32 0, i64 0, i64 0, i64 0, i32 0, null, metadata !840, i32 0, i32 0} ; [ DW_TAG_subroutine_type ]
!840 = metadata !{metadata !67, metadata !821, metadata !67}
!841 = metadata !{i32 786478, i32 0, metadata !49, metadata !"setf", metadata !"setf", metadata !"_ZNSt8ios_base4setfESt13_Ios_Fmtflags", metadata !5, i32 579, metadata !839, i1 false, i1 false, i32 0, i32 0, null, i32 256, i1 false, null, null, i32 0, metadata !89, i32 579} ; [ DW_TAG_subprogram ]
!842 = metadata !{i32 786478, i32 0, metadata !49, metadata !"setf", metadata !"setf", metadata !"_ZNSt8ios_base4setfESt13_Ios_FmtflagsS0_", metadata !5, i32 596, metadata !843, i1 false, i1 false, i32 0, i32 0, null, i32 256, i1 false, null, null, i32 0, metadata !89, i32 596} ; [ DW_TAG_subprogram ]
!843 = metadata !{i32 786453, i32 0, metadata !"", i32 0, i32 0, i64 0, i64 0, i64 0, i32 0, null, metadata !844, i32 0, i32 0} ; [ DW_TAG_subroutine_type ]
!844 = metadata !{metadata !67, metadata !821, metadata !67, metadata !67}
!845 = metadata !{i32 786478, i32 0, metadata !49, metadata !"unsetf", metadata !"unsetf", metadata !"_ZNSt8ios_base6unsetfESt13_Ios_Fmtflags", metadata !5, i32 611, metadata !846, i1 false, i1 false, i32 0, i32 0, null, i32 256, i1 false, null, null, i32 0, metadata !89, i32 611} ; [ DW_TAG_subprogram ]
!846 = metadata !{i32 786453, i32 0, metadata !"", i32 0, i32 0, i64 0, i64 0, i64 0, i32 0, null, metadata !847, i32 0, i32 0} ; [ DW_TAG_subroutine_type ]
!847 = metadata !{null, metadata !821, metadata !67}
!848 = metadata !{i32 786478, i32 0, metadata !49, metadata !"precision", metadata !"precision", metadata !"_ZNKSt8ios_base9precisionEv", metadata !5, i32 622, metadata !849, i1 false, i1 false, i32 0, i32 0, null, i32 256, i1 false, null, null, i32 0, metadata !89, i32 622} ; [ DW_TAG_subprogram ]
!849 = metadata !{i32 786453, i32 0, metadata !"", i32 0, i32 0, i64 0, i64 0, i64 0, i32 0, null, metadata !850, i32 0, i32 0} ; [ DW_TAG_subroutine_type ]
!850 = metadata !{metadata !58, metadata !836}
!851 = metadata !{i32 786478, i32 0, metadata !49, metadata !"precision", metadata !"precision", metadata !"_ZNSt8ios_base9precisionEl", metadata !5, i32 631, metadata !852, i1 false, i1 false, i32 0, i32 0, null, i32 256, i1 false, null, null, i32 0, metadata !89, i32 631} ; [ DW_TAG_subprogram ]
!852 = metadata !{i32 786453, i32 0, metadata !"", i32 0, i32 0, i64 0, i64 0, i64 0, i32 0, null, metadata !853, i32 0, i32 0} ; [ DW_TAG_subroutine_type ]
!853 = metadata !{metadata !58, metadata !821, metadata !58}
!854 = metadata !{i32 786478, i32 0, metadata !49, metadata !"width", metadata !"width", metadata !"_ZNKSt8ios_base5widthEv", metadata !5, i32 645, metadata !849, i1 false, i1 false, i32 0, i32 0, null, i32 256, i1 false, null, null, i32 0, metadata !89, i32 645} ; [ DW_TAG_subprogram ]
!855 = metadata !{i32 786478, i32 0, metadata !49, metadata !"width", metadata !"width", metadata !"_ZNSt8ios_base5widthEl", metadata !5, i32 654, metadata !852, i1 false, i1 false, i32 0, i32 0, null, i32 256, i1 false, null, null, i32 0, metadata !89, i32 654} ; [ DW_TAG_subprogram ]
!856 = metadata !{i32 786478, i32 0, metadata !49, metadata !"sync_with_stdio", metadata !"sync_with_stdio", metadata !"_ZNSt8ios_base15sync_with_stdioEb", metadata !5, i32 673, metadata !857, i1 false, i1 false, i32 0, i32 0, null, i32 256, i1 false, null, null, i32 0, metadata !89, i32 673} ; [ DW_TAG_subprogram ]
!857 = metadata !{i32 786453, i32 0, metadata !"", i32 0, i32 0, i64 0, i64 0, i64 0, i32 0, null, metadata !858, i32 0, i32 0} ; [ DW_TAG_subroutine_type ]
!858 = metadata !{metadata !238, metadata !238}
!859 = metadata !{i32 786478, i32 0, metadata !49, metadata !"imbue", metadata !"imbue", metadata !"_ZNSt8ios_base5imbueERKSt6locale", metadata !5, i32 685, metadata !860, i1 false, i1 false, i32 0, i32 0, null, i32 256, i1 false, null, null, i32 0, metadata !89, i32 685} ; [ DW_TAG_subprogram ]
!860 = metadata !{i32 786453, i32 0, metadata !"", i32 0, i32 0, i64 0, i64 0, i64 0, i32 0, null, metadata !861, i32 0, i32 0} ; [ DW_TAG_subroutine_type ]
!861 = metadata !{metadata !115, metadata !821, metadata !287}
!862 = metadata !{i32 786478, i32 0, metadata !49, metadata !"getloc", metadata !"getloc", metadata !"_ZNKSt8ios_base6getlocEv", metadata !5, i32 696, metadata !863, i1 false, i1 false, i32 0, i32 0, null, i32 256, i1 false, null, null, i32 0, metadata !89, i32 696} ; [ DW_TAG_subprogram ]
!863 = metadata !{i32 786453, i32 0, metadata !"", i32 0, i32 0, i64 0, i64 0, i64 0, i32 0, null, metadata !864, i32 0, i32 0} ; [ DW_TAG_subroutine_type ]
!864 = metadata !{metadata !115, metadata !836}
!865 = metadata !{i32 786478, i32 0, metadata !49, metadata !"_M_getloc", metadata !"_M_getloc", metadata !"_ZNKSt8ios_base9_M_getlocEv", metadata !5, i32 707, metadata !866, i1 false, i1 false, i32 0, i32 0, null, i32 256, i1 false, null, null, i32 0, metadata !89, i32 707} ; [ DW_TAG_subprogram ]
!866 = metadata !{i32 786453, i32 0, metadata !"", i32 0, i32 0, i64 0, i64 0, i64 0, i32 0, null, metadata !867, i32 0, i32 0} ; [ DW_TAG_subroutine_type ]
!867 = metadata !{metadata !287, metadata !836}
!868 = metadata !{i32 786478, i32 0, metadata !49, metadata !"xalloc", metadata !"xalloc", metadata !"_ZNSt8ios_base6xallocEv", metadata !5, i32 726, metadata !54, i1 false, i1 false, i32 0, i32 0, null, i32 256, i1 false, null, null, i32 0, metadata !89, i32 726} ; [ DW_TAG_subprogram ]
!869 = metadata !{i32 786478, i32 0, metadata !49, metadata !"iword", metadata !"iword", metadata !"_ZNSt8ios_base5iwordEi", metadata !5, i32 742, metadata !870, i1 false, i1 false, i32 0, i32 0, null, i32 256, i1 false, null, null, i32 0, metadata !89, i32 742} ; [ DW_TAG_subprogram ]
!870 = metadata !{i32 786453, i32 0, metadata !"", i32 0, i32 0, i64 0, i64 0, i64 0, i32 0, null, metadata !871, i32 0, i32 0} ; [ DW_TAG_subroutine_type ]
!871 = metadata !{metadata !872, metadata !821, metadata !56}
!872 = metadata !{i32 786448, null, null, null, i32 0, i64 0, i64 0, i64 0, i32 0, metadata !64} ; [ DW_TAG_reference_type ]
!873 = metadata !{i32 786478, i32 0, metadata !49, metadata !"pword", metadata !"pword", metadata !"_ZNSt8ios_base5pwordEi", metadata !5, i32 763, metadata !874, i1 false, i1 false, i32 0, i32 0, null, i32 256, i1 false, null, null, i32 0, metadata !89, i32 763} ; [ DW_TAG_subprogram ]
!874 = metadata !{i32 786453, i32 0, metadata !"", i32 0, i32 0, i64 0, i64 0, i64 0, i32 0, null, metadata !875, i32 0, i32 0} ; [ DW_TAG_subroutine_type ]
!875 = metadata !{metadata !876, metadata !821, metadata !56}
!876 = metadata !{i32 786448, null, null, null, i32 0, i64 0, i64 0, i64 0, i32 0, metadata !101} ; [ DW_TAG_reference_type ]
!877 = metadata !{i32 786478, i32 0, metadata !49, metadata !"~ios_base", metadata !"~ios_base", metadata !"", metadata !5, i32 779, metadata !826, i1 false, i1 false, i32 1, i32 0, metadata !49, i32 256, i1 false, null, null, i32 0, metadata !89, i32 779} ; [ DW_TAG_subprogram ]
!878 = metadata !{i32 786478, i32 0, metadata !49, metadata !"ios_base", metadata !"ios_base", metadata !"", metadata !5, i32 782, metadata !826, i1 false, i1 false, i32 0, i32 0, null, i32 258, i1 false, null, null, i32 0, metadata !89, i32 782} ; [ DW_TAG_subprogram ]
!879 = metadata !{i32 786478, i32 0, metadata !49, metadata !"ios_base", metadata !"ios_base", metadata !"", metadata !5, i32 787, metadata !880, i1 false, i1 false, i32 0, i32 0, null, i32 257, i1 false, null, null, i32 0, metadata !89, i32 787} ; [ DW_TAG_subprogram ]
!880 = metadata !{i32 786453, i32 0, metadata !"", i32 0, i32 0, i64 0, i64 0, i64 0, i32 0, null, metadata !881, i32 0, i32 0} ; [ DW_TAG_subroutine_type ]
!881 = metadata !{null, metadata !821, metadata !882}
!882 = metadata !{i32 786448, null, null, null, i32 0, i64 0, i64 0, i64 0, i32 0, metadata !837} ; [ DW_TAG_reference_type ]
!883 = metadata !{i32 786478, i32 0, metadata !49, metadata !"operator=", metadata !"operator=", metadata !"_ZNSt8ios_baseaSERKS_", metadata !5, i32 790, metadata !884, i1 false, i1 false, i32 0, i32 0, null, i32 257, i1 false, null, null, i32 0, metadata !89, i32 790} ; [ DW_TAG_subprogram ]
!884 = metadata !{i32 786453, i32 0, metadata !"", i32 0, i32 0, i64 0, i64 0, i64 0, i32 0, null, metadata !885, i32 0, i32 0} ; [ DW_TAG_subroutine_type ]
!885 = metadata !{metadata !81, metadata !821, metadata !882}
!886 = metadata !{metadata !887, metadata !888, metadata !889}
!887 = metadata !{i32 786472, metadata !"erase_event", i64 0} ; [ DW_TAG_enumerator ]
!888 = metadata !{i32 786472, metadata !"imbue_event", i64 1} ; [ DW_TAG_enumerator ]
!889 = metadata !{i32 786472, metadata !"copyfmt_event", i64 2} ; [ DW_TAG_enumerator ]
!890 = metadata !{i32 786436, null, metadata !"BaseMode", metadata !891, i32 603, i64 5, i64 8, i32 0, i32 0, null, metadata !892, i32 0, i32 0} ; [ DW_TAG_enumeration_type ]
!891 = metadata !{i32 786473, metadata !"/home/ece492fa18/Vivado/2017.4/common/technology/autopilot/ap_int_syn.h", metadata !"/home/ece492fa18/RFNoCFrameSynchHWAccel/correlatorDev", null} ; [ DW_TAG_file_type ]
!892 = metadata !{metadata !893, metadata !894, metadata !895, metadata !896}
!893 = metadata !{i32 786472, metadata !"SC_BIN", i64 2} ; [ DW_TAG_enumerator ]
!894 = metadata !{i32 786472, metadata !"SC_OCT", i64 8} ; [ DW_TAG_enumerator ]
!895 = metadata !{i32 786472, metadata !"SC_DEC", i64 10} ; [ DW_TAG_enumerator ]
!896 = metadata !{i32 786472, metadata !"SC_HEX", i64 16} ; [ DW_TAG_enumerator ]
!897 = metadata !{i32 786436, null, metadata !"ap_q_mode", metadata !891, i32 658, i64 3, i64 4, i32 0, i32 0, null, metadata !898, i32 0, i32 0} ; [ DW_TAG_enumeration_type ]
!898 = metadata !{metadata !899, metadata !900, metadata !901, metadata !902, metadata !903, metadata !904, metadata !905}
!899 = metadata !{i32 786472, metadata !"SC_RND", i64 0} ; [ DW_TAG_enumerator ]
!900 = metadata !{i32 786472, metadata !"SC_RND_ZERO", i64 1} ; [ DW_TAG_enumerator ]
!901 = metadata !{i32 786472, metadata !"SC_RND_MIN_INF", i64 2} ; [ DW_TAG_enumerator ]
!902 = metadata !{i32 786472, metadata !"SC_RND_INF", i64 3} ; [ DW_TAG_enumerator ]
!903 = metadata !{i32 786472, metadata !"SC_RND_CONV", i64 4} ; [ DW_TAG_enumerator ]
!904 = metadata !{i32 786472, metadata !"SC_TRN", i64 5} ; [ DW_TAG_enumerator ]
!905 = metadata !{i32 786472, metadata !"SC_TRN_ZERO", i64 6} ; [ DW_TAG_enumerator ]
!906 = metadata !{i32 786436, null, metadata !"ap_o_mode", metadata !891, i32 668, i64 3, i64 4, i32 0, i32 0, null, metadata !907, i32 0, i32 0} ; [ DW_TAG_enumeration_type ]
!907 = metadata !{metadata !908, metadata !909, metadata !910, metadata !911, metadata !912}
!908 = metadata !{i32 786472, metadata !"SC_SAT", i64 0} ; [ DW_TAG_enumerator ]
!909 = metadata !{i32 786472, metadata !"SC_SAT_ZERO", i64 1} ; [ DW_TAG_enumerator ]
!910 = metadata !{i32 786472, metadata !"SC_SAT_SYM", i64 2} ; [ DW_TAG_enumerator ]
!911 = metadata !{i32 786472, metadata !"SC_WRAP", i64 3} ; [ DW_TAG_enumerator ]
!912 = metadata !{i32 786472, metadata !"SC_WRAP_SM", i64 4} ; [ DW_TAG_enumerator ]
!913 = metadata !{i32 786436, metadata !914, metadata !"loadState", metadata !915, i32 67, i64 1, i64 1, i32 0, i32 0, null, metadata !2588, i32 0, i32 0} ; [ DW_TAG_enumeration_type ]
!914 = metadata !{i32 786478, i32 0, metadata !915, metadata !"correlateTop", metadata !"correlateTop", metadata !"_Z12correlateTopN3hls6streamI10rfnoc_axisEES2_", metadata !915, i32 10, metadata !916, i1 false, i1 true, i32 0, i32 0, null, i32 256, i1 false, void (%"class.hls::stream.19"*, %"class.hls::stream.19"*)* @correlateTop, null, null, metadata !89, i32 10} ; [ DW_TAG_subprogram ]
!915 = metadata !{i32 786473, metadata !"correlator.cpp", metadata !"/home/ece492fa18/RFNoCFrameSynchHWAccel/correlatorDev", null} ; [ DW_TAG_file_type ]
!916 = metadata !{i32 786453, i32 0, metadata !"", i32 0, i32 0, i64 0, i64 0, i64 0, i32 0, null, metadata !917, i32 0, i32 0} ; [ DW_TAG_subroutine_type ]
!917 = metadata !{null, metadata !918, metadata !918}
!918 = metadata !{i32 786434, metadata !919, metadata !"stream<rfnoc_axis>", metadata !920, i32 79, i64 64, i64 32, i32 0, i32 0, null, metadata !921, i32 0, null, metadata !2586} ; [ DW_TAG_class_type ]
!919 = metadata !{i32 786489, null, metadata !"hls", metadata !920, i32 69} ; [ DW_TAG_namespace ]
!920 = metadata !{i32 786473, metadata !"/home/ece492fa18/Vivado/2017.4/common/technology/autopilot/hls_stream.h", metadata !"/home/ece492fa18/RFNoCFrameSynchHWAccel/correlatorDev", null} ; [ DW_TAG_file_type ]
!921 = metadata !{metadata !922, metadata !2542, metadata !2546, metadata !2549, metadata !2554, metadata !2558, metadata !2562, metadata !2567, metadata !2571, metadata !2572, metadata !2573, metadata !2576, metadata !2579, metadata !2580, metadata !2583}
!922 = metadata !{i32 786445, metadata !918, metadata !"V", metadata !920, i32 163, i64 64, i64 32, i64 0, i32 0, metadata !923} ; [ DW_TAG_member ]
!923 = metadata !{i32 786434, null, metadata !"rfnoc_axis", metadata !924, i32 6, i64 64, i64 32, i32 0, i32 0, null, metadata !925, i32 0, null, null} ; [ DW_TAG_class_type ]
!924 = metadata !{i32 786473, metadata !"./correlator.h", metadata !"/home/ece492fa18/RFNoCFrameSynchHWAccel/correlatorDev", null} ; [ DW_TAG_file_type ]
!925 = metadata !{metadata !926, metadata !1941, metadata !2538}
!926 = metadata !{i32 786445, metadata !923, metadata !"data", metadata !924, i32 7, i64 32, i64 32, i64 0, i32 0, metadata !927} ; [ DW_TAG_member ]
!927 = metadata !{i32 786434, null, metadata !"ap_int<32>", metadata !928, i32 74, i64 32, i64 32, i32 0, i32 0, null, metadata !929, i32 0, null, metadata !1940} ; [ DW_TAG_class_type ]
!928 = metadata !{i32 786473, metadata !"/home/ece492fa18/Vivado/2017.4/common/technology/autopilot/ap_int.h", metadata !"/home/ece492fa18/RFNoCFrameSynchHWAccel/correlatorDev", null} ; [ DW_TAG_file_type ]
!929 = metadata !{metadata !930, metadata !1855, metadata !1859, metadata !1865, metadata !1871, metadata !1874, metadata !1877, metadata !1880, metadata !1883, metadata !1886, metadata !1889, metadata !1892, metadata !1895, metadata !1898, metadata !1901, metadata !1904, metadata !1907, metadata !1910, metadata !1913, metadata !1916, metadata !1919, metadata !1922, metadata !1925, metadata !1929, metadata !1932, metadata !1936, metadata !1939}
!930 = metadata !{i32 786460, metadata !927, null, metadata !928, i32 0, i64 0, i64 0, i64 0, i32 0, metadata !931} ; [ DW_TAG_inheritance ]
!931 = metadata !{i32 786434, null, metadata !"ap_int_base<32, true, true>", metadata !891, i32 1453, i64 32, i64 32, i32 0, i32 0, null, metadata !932, i32 0, null, metadata !1854} ; [ DW_TAG_class_type ]
!932 = metadata !{metadata !933, metadata !951, metadata !955, metadata !963, metadata !969, metadata !972, metadata !976, metadata !980, metadata !984, metadata !987, metadata !990, metadata !994, metadata !997, metadata !1000, metadata !1005, metadata !1010, metadata !1015, metadata !1019, metadata !1023, metadata !1026, metadata !1029, metadata !1033, metadata !1036, metadata !1039, metadata !1040, metadata !1044, metadata !1047, metadata !1050, metadata !1053, metadata !1056, metadata !1059, metadata !1062, metadata !1065, metadata !1068, metadata !1071, metadata !1074, metadata !1077, metadata !1087, metadata !1090, metadata !1093, metadata !1096, metadata !1099, metadata !1102, metadata !1105, metadata !1108, metadata !1111, metadata !1114, metadata !1117, metadata !1120, metadata !1123, metadata !1124, metadata !1128, metadata !1131, metadata !1132, metadata !1133, metadata !1134, metadata !1135, metadata !1136, metadata !1139, metadata !1140, metadata !1143, metadata !1144, metadata !1145, metadata !1146, metadata !1147, metadata !1148, metadata !1151, metadata !1152, metadata !1153, metadata !1156, metadata !1157, metadata !1160, metadata !1161, metadata !1454, metadata !1819, metadata !1820, metadata !1823, metadata !1824, metadata !1828, metadata !1829, metadata !1830, metadata !1831, metadata !1834, metadata !1835, metadata !1836, metadata !1837, metadata !1838, metadata !1839, metadata !1840, metadata !1841, metadata !1842, metadata !1843, metadata !1844, metadata !1845, metadata !1848, metadata !1851}
!933 = metadata !{i32 786460, metadata !931, null, metadata !891, i32 0, i64 0, i64 0, i64 0, i32 0, metadata !934} ; [ DW_TAG_inheritance ]
!934 = metadata !{i32 786434, null, metadata !"ssdm_int<32 + 1024 * 0, true>", metadata !935, i32 34, i64 32, i64 32, i32 0, i32 0, null, metadata !936, i32 0, null, metadata !948} ; [ DW_TAG_class_type ]
!935 = metadata !{i32 786473, metadata !"/home/ece492fa18/Vivado/2017.4/common/technology/autopilot/etc/autopilot_dt.def", metadata !"/home/ece492fa18/RFNoCFrameSynchHWAccel/correlatorDev", null} ; [ DW_TAG_file_type ]
!936 = metadata !{metadata !937, metadata !939, metadata !943}
!937 = metadata !{i32 786445, metadata !934, metadata !"V", metadata !935, i32 34, i64 32, i64 32, i64 0, i32 0, metadata !938} ; [ DW_TAG_member ]
!938 = metadata !{i32 786468, null, metadata !"int32", null, i32 0, i64 32, i64 32, i64 0, i32 0, i32 5} ; [ DW_TAG_base_type ]
!939 = metadata !{i32 786478, i32 0, metadata !934, metadata !"ssdm_int", metadata !"ssdm_int", metadata !"", metadata !935, i32 34, metadata !940, i1 false, i1 false, i32 0, i32 0, null, i32 256, i1 false, null, null, i32 0, metadata !89, i32 34} ; [ DW_TAG_subprogram ]
!940 = metadata !{i32 786453, i32 0, metadata !"", i32 0, i32 0, i64 0, i64 0, i64 0, i32 0, null, metadata !941, i32 0, i32 0} ; [ DW_TAG_subroutine_type ]
!941 = metadata !{null, metadata !942}
!942 = metadata !{i32 786447, i32 0, metadata !"", i32 0, i32 0, i64 64, i64 64, i64 0, i32 64, metadata !934} ; [ DW_TAG_pointer_type ]
!943 = metadata !{i32 786478, i32 0, metadata !934, metadata !"ssdm_int", metadata !"ssdm_int", metadata !"", metadata !935, i32 34, metadata !944, i1 false, i1 false, i32 0, i32 0, null, i32 320, i1 false, null, null, i32 0, metadata !89, i32 34} ; [ DW_TAG_subprogram ]
!944 = metadata !{i32 786453, i32 0, metadata !"", i32 0, i32 0, i64 0, i64 0, i64 0, i32 0, null, metadata !945, i32 0, i32 0} ; [ DW_TAG_subroutine_type ]
!945 = metadata !{null, metadata !942, metadata !946}
!946 = metadata !{i32 786448, null, null, null, i32 0, i64 0, i64 0, i64 0, i32 0, metadata !947} ; [ DW_TAG_reference_type ]
!947 = metadata !{i32 786470, null, metadata !"", null, i32 0, i64 0, i64 0, i64 0, i32 0, metadata !934} ; [ DW_TAG_const_type ]
!948 = metadata !{metadata !949, metadata !950}
!949 = metadata !{i32 786480, null, metadata !"_AP_N", metadata !56, i64 32, null, i32 0, i32 0} ; [ DW_TAG_template_value_parameter ]
!950 = metadata !{i32 786480, null, metadata !"_AP_S", metadata !238, i64 1, null, i32 0, i32 0} ; [ DW_TAG_template_value_parameter ]
!951 = metadata !{i32 786478, i32 0, metadata !931, metadata !"ap_int_base", metadata !"ap_int_base", metadata !"", metadata !891, i32 1494, metadata !952, i1 false, i1 false, i32 0, i32 0, null, i32 256, i1 false, null, null, i32 0, metadata !89, i32 1494} ; [ DW_TAG_subprogram ]
!952 = metadata !{i32 786453, i32 0, metadata !"", i32 0, i32 0, i64 0, i64 0, i64 0, i32 0, null, metadata !953, i32 0, i32 0} ; [ DW_TAG_subroutine_type ]
!953 = metadata !{null, metadata !954}
!954 = metadata !{i32 786447, i32 0, metadata !"", i32 0, i32 0, i64 64, i64 64, i64 0, i32 64, metadata !931} ; [ DW_TAG_pointer_type ]
!955 = metadata !{i32 786478, i32 0, metadata !931, metadata !"ap_int_base<32, true>", metadata !"ap_int_base<32, true>", metadata !"", metadata !891, i32 1506, metadata !956, i1 false, i1 false, i32 0, i32 0, null, i32 256, i1 false, null, metadata !960, i32 0, metadata !89, i32 1506} ; [ DW_TAG_subprogram ]
!956 = metadata !{i32 786453, i32 0, metadata !"", i32 0, i32 0, i64 0, i64 0, i64 0, i32 0, null, metadata !957, i32 0, i32 0} ; [ DW_TAG_subroutine_type ]
!957 = metadata !{null, metadata !954, metadata !958}
!958 = metadata !{i32 786448, null, null, null, i32 0, i64 0, i64 0, i64 0, i32 0, metadata !959} ; [ DW_TAG_reference_type ]
!959 = metadata !{i32 786470, null, metadata !"", null, i32 0, i64 0, i64 0, i64 0, i32 0, metadata !931} ; [ DW_TAG_const_type ]
!960 = metadata !{metadata !961, metadata !962}
!961 = metadata !{i32 786480, null, metadata !"_AP_W2", metadata !56, i64 32, null, i32 0, i32 0} ; [ DW_TAG_template_value_parameter ]
!962 = metadata !{i32 786480, null, metadata !"_AP_S2", metadata !238, i64 1, null, i32 0, i32 0} ; [ DW_TAG_template_value_parameter ]
!963 = metadata !{i32 786478, i32 0, metadata !931, metadata !"ap_int_base<32, true>", metadata !"ap_int_base<32, true>", metadata !"", metadata !891, i32 1509, metadata !964, i1 false, i1 false, i32 0, i32 0, null, i32 256, i1 false, null, metadata !960, i32 0, metadata !89, i32 1509} ; [ DW_TAG_subprogram ]
!964 = metadata !{i32 786453, i32 0, metadata !"", i32 0, i32 0, i64 0, i64 0, i64 0, i32 0, null, metadata !965, i32 0, i32 0} ; [ DW_TAG_subroutine_type ]
!965 = metadata !{null, metadata !954, metadata !966}
!966 = metadata !{i32 786448, null, null, null, i32 0, i64 0, i64 0, i64 0, i32 0, metadata !967} ; [ DW_TAG_reference_type ]
!967 = metadata !{i32 786470, null, metadata !"", null, i32 0, i64 0, i64 0, i64 0, i32 0, metadata !968} ; [ DW_TAG_const_type ]
!968 = metadata !{i32 786485, null, metadata !"", null, i32 0, i64 0, i64 0, i64 0, i32 0, metadata !931} ; [ DW_TAG_volatile_type ]
!969 = metadata !{i32 786478, i32 0, metadata !931, metadata !"ap_int_base", metadata !"ap_int_base", metadata !"", metadata !891, i32 1516, metadata !970, i1 false, i1 false, i32 0, i32 0, null, i32 384, i1 false, null, null, i32 0, metadata !89, i32 1516} ; [ DW_TAG_subprogram ]
!970 = metadata !{i32 786453, i32 0, metadata !"", i32 0, i32 0, i64 0, i64 0, i64 0, i32 0, null, metadata !971, i32 0, i32 0} ; [ DW_TAG_subroutine_type ]
!971 = metadata !{null, metadata !954, metadata !238}
!972 = metadata !{i32 786478, i32 0, metadata !931, metadata !"ap_int_base", metadata !"ap_int_base", metadata !"", metadata !891, i32 1517, metadata !973, i1 false, i1 false, i32 0, i32 0, null, i32 384, i1 false, null, null, i32 0, metadata !89, i32 1517} ; [ DW_TAG_subprogram ]
!973 = metadata !{i32 786453, i32 0, metadata !"", i32 0, i32 0, i64 0, i64 0, i64 0, i32 0, null, metadata !974, i32 0, i32 0} ; [ DW_TAG_subroutine_type ]
!974 = metadata !{null, metadata !954, metadata !975}
!975 = metadata !{i32 786468, null, metadata !"signed char", null, i32 0, i64 8, i64 8, i64 0, i32 0, i32 6} ; [ DW_TAG_base_type ]
!976 = metadata !{i32 786478, i32 0, metadata !931, metadata !"ap_int_base", metadata !"ap_int_base", metadata !"", metadata !891, i32 1518, metadata !977, i1 false, i1 false, i32 0, i32 0, null, i32 384, i1 false, null, null, i32 0, metadata !89, i32 1518} ; [ DW_TAG_subprogram ]
!977 = metadata !{i32 786453, i32 0, metadata !"", i32 0, i32 0, i64 0, i64 0, i64 0, i32 0, null, metadata !978, i32 0, i32 0} ; [ DW_TAG_subroutine_type ]
!978 = metadata !{null, metadata !954, metadata !979}
!979 = metadata !{i32 786468, null, metadata !"unsigned char", null, i32 0, i64 8, i64 8, i64 0, i32 0, i32 8} ; [ DW_TAG_base_type ]
!980 = metadata !{i32 786478, i32 0, metadata !931, metadata !"ap_int_base", metadata !"ap_int_base", metadata !"", metadata !891, i32 1519, metadata !981, i1 false, i1 false, i32 0, i32 0, null, i32 384, i1 false, null, null, i32 0, metadata !89, i32 1519} ; [ DW_TAG_subprogram ]
!981 = metadata !{i32 786453, i32 0, metadata !"", i32 0, i32 0, i64 0, i64 0, i64 0, i32 0, null, metadata !982, i32 0, i32 0} ; [ DW_TAG_subroutine_type ]
!982 = metadata !{null, metadata !954, metadata !983}
!983 = metadata !{i32 786468, null, metadata !"short", null, i32 0, i64 16, i64 16, i64 0, i32 0, i32 5} ; [ DW_TAG_base_type ]
!984 = metadata !{i32 786478, i32 0, metadata !931, metadata !"ap_int_base", metadata !"ap_int_base", metadata !"", metadata !891, i32 1520, metadata !985, i1 false, i1 false, i32 0, i32 0, null, i32 384, i1 false, null, null, i32 0, metadata !89, i32 1520} ; [ DW_TAG_subprogram ]
!985 = metadata !{i32 786453, i32 0, metadata !"", i32 0, i32 0, i64 0, i64 0, i64 0, i32 0, null, metadata !986, i32 0, i32 0} ; [ DW_TAG_subroutine_type ]
!986 = metadata !{null, metadata !954, metadata !165}
!987 = metadata !{i32 786478, i32 0, metadata !931, metadata !"ap_int_base", metadata !"ap_int_base", metadata !"", metadata !891, i32 1521, metadata !988, i1 false, i1 false, i32 0, i32 0, null, i32 384, i1 false, null, null, i32 0, metadata !89, i32 1521} ; [ DW_TAG_subprogram ]
!988 = metadata !{i32 786453, i32 0, metadata !"", i32 0, i32 0, i64 0, i64 0, i64 0, i32 0, null, metadata !989, i32 0, i32 0} ; [ DW_TAG_subroutine_type ]
!989 = metadata !{null, metadata !954, metadata !56}
!990 = metadata !{i32 786478, i32 0, metadata !931, metadata !"ap_int_base", metadata !"ap_int_base", metadata !"", metadata !891, i32 1522, metadata !991, i1 false, i1 false, i32 0, i32 0, null, i32 384, i1 false, null, null, i32 0, metadata !89, i32 1522} ; [ DW_TAG_subprogram ]
!991 = metadata !{i32 786453, i32 0, metadata !"", i32 0, i32 0, i64 0, i64 0, i64 0, i32 0, null, metadata !992, i32 0, i32 0} ; [ DW_TAG_subroutine_type ]
!992 = metadata !{null, metadata !954, metadata !993}
!993 = metadata !{i32 786468, null, metadata !"unsigned int", null, i32 0, i64 32, i64 32, i64 0, i32 0, i32 7} ; [ DW_TAG_base_type ]
!994 = metadata !{i32 786478, i32 0, metadata !931, metadata !"ap_int_base", metadata !"ap_int_base", metadata !"", metadata !891, i32 1523, metadata !995, i1 false, i1 false, i32 0, i32 0, null, i32 384, i1 false, null, null, i32 0, metadata !89, i32 1523} ; [ DW_TAG_subprogram ]
!995 = metadata !{i32 786453, i32 0, metadata !"", i32 0, i32 0, i64 0, i64 0, i64 0, i32 0, null, metadata !996, i32 0, i32 0} ; [ DW_TAG_subroutine_type ]
!996 = metadata !{null, metadata !954, metadata !64}
!997 = metadata !{i32 786478, i32 0, metadata !931, metadata !"ap_int_base", metadata !"ap_int_base", metadata !"", metadata !891, i32 1524, metadata !998, i1 false, i1 false, i32 0, i32 0, null, i32 384, i1 false, null, null, i32 0, metadata !89, i32 1524} ; [ DW_TAG_subprogram ]
!998 = metadata !{i32 786453, i32 0, metadata !"", i32 0, i32 0, i64 0, i64 0, i64 0, i32 0, null, metadata !999, i32 0, i32 0} ; [ DW_TAG_subroutine_type ]
!999 = metadata !{null, metadata !954, metadata !140}
!1000 = metadata !{i32 786478, i32 0, metadata !931, metadata !"ap_int_base", metadata !"ap_int_base", metadata !"", metadata !891, i32 1525, metadata !1001, i1 false, i1 false, i32 0, i32 0, null, i32 384, i1 false, null, null, i32 0, metadata !89, i32 1525} ; [ DW_TAG_subprogram ]
!1001 = metadata !{i32 786453, i32 0, metadata !"", i32 0, i32 0, i64 0, i64 0, i64 0, i32 0, null, metadata !1002, i32 0, i32 0} ; [ DW_TAG_subroutine_type ]
!1002 = metadata !{null, metadata !954, metadata !1003}
!1003 = metadata !{i32 786454, null, metadata !"ap_slong", metadata !891, i32 112, i64 0, i64 0, i64 0, i32 0, metadata !1004} ; [ DW_TAG_typedef ]
!1004 = metadata !{i32 786468, null, metadata !"long long int", null, i32 0, i64 64, i64 64, i64 0, i32 0, i32 5} ; [ DW_TAG_base_type ]
!1005 = metadata !{i32 786478, i32 0, metadata !931, metadata !"ap_int_base", metadata !"ap_int_base", metadata !"", metadata !891, i32 1526, metadata !1006, i1 false, i1 false, i32 0, i32 0, null, i32 384, i1 false, null, null, i32 0, metadata !89, i32 1526} ; [ DW_TAG_subprogram ]
!1006 = metadata !{i32 786453, i32 0, metadata !"", i32 0, i32 0, i64 0, i64 0, i64 0, i32 0, null, metadata !1007, i32 0, i32 0} ; [ DW_TAG_subroutine_type ]
!1007 = metadata !{null, metadata !954, metadata !1008}
!1008 = metadata !{i32 786454, null, metadata !"ap_ulong", metadata !891, i32 111, i64 0, i64 0, i64 0, i32 0, metadata !1009} ; [ DW_TAG_typedef ]
!1009 = metadata !{i32 786468, null, metadata !"long long unsigned int", null, i32 0, i64 64, i64 64, i64 0, i32 0, i32 7} ; [ DW_TAG_base_type ]
!1010 = metadata !{i32 786478, i32 0, metadata !931, metadata !"ap_int_base", metadata !"ap_int_base", metadata !"", metadata !891, i32 1527, metadata !1011, i1 false, i1 false, i32 0, i32 0, null, i32 384, i1 false, null, null, i32 0, metadata !89, i32 1527} ; [ DW_TAG_subprogram ]
!1011 = metadata !{i32 786453, i32 0, metadata !"", i32 0, i32 0, i64 0, i64 0, i64 0, i32 0, null, metadata !1012, i32 0, i32 0} ; [ DW_TAG_subroutine_type ]
!1012 = metadata !{null, metadata !954, metadata !1013}
!1013 = metadata !{i32 786454, null, metadata !"half", metadata !891, i32 54, i64 0, i64 0, i64 0, i32 0, metadata !1014} ; [ DW_TAG_typedef ]
!1014 = metadata !{i32 786468, null, metadata !"half", null, i32 0, i64 16, i64 16, i64 0, i32 0, i32 4} ; [ DW_TAG_base_type ]
!1015 = metadata !{i32 786478, i32 0, metadata !931, metadata !"ap_int_base", metadata !"ap_int_base", metadata !"", metadata !891, i32 1528, metadata !1016, i1 false, i1 false, i32 0, i32 0, null, i32 384, i1 false, null, null, i32 0, metadata !89, i32 1528} ; [ DW_TAG_subprogram ]
!1016 = metadata !{i32 786453, i32 0, metadata !"", i32 0, i32 0, i64 0, i64 0, i64 0, i32 0, null, metadata !1017, i32 0, i32 0} ; [ DW_TAG_subroutine_type ]
!1017 = metadata !{null, metadata !954, metadata !1018}
!1018 = metadata !{i32 786468, null, metadata !"float", null, i32 0, i64 32, i64 32, i64 0, i32 0, i32 4} ; [ DW_TAG_base_type ]
!1019 = metadata !{i32 786478, i32 0, metadata !931, metadata !"ap_int_base", metadata !"ap_int_base", metadata !"", metadata !891, i32 1529, metadata !1020, i1 false, i1 false, i32 0, i32 0, null, i32 384, i1 false, null, null, i32 0, metadata !89, i32 1529} ; [ DW_TAG_subprogram ]
!1020 = metadata !{i32 786453, i32 0, metadata !"", i32 0, i32 0, i64 0, i64 0, i64 0, i32 0, null, metadata !1021, i32 0, i32 0} ; [ DW_TAG_subroutine_type ]
!1021 = metadata !{null, metadata !954, metadata !1022}
!1022 = metadata !{i32 786468, null, metadata !"double", null, i32 0, i64 64, i64 64, i64 0, i32 0, i32 4} ; [ DW_TAG_base_type ]
!1023 = metadata !{i32 786478, i32 0, metadata !931, metadata !"ap_int_base", metadata !"ap_int_base", metadata !"", metadata !891, i32 1556, metadata !1024, i1 false, i1 false, i32 0, i32 0, null, i32 256, i1 false, null, null, i32 0, metadata !89, i32 1556} ; [ DW_TAG_subprogram ]
!1024 = metadata !{i32 786453, i32 0, metadata !"", i32 0, i32 0, i64 0, i64 0, i64 0, i32 0, null, metadata !1025, i32 0, i32 0} ; [ DW_TAG_subroutine_type ]
!1025 = metadata !{null, metadata !954, metadata !172}
!1026 = metadata !{i32 786478, i32 0, metadata !931, metadata !"ap_int_base", metadata !"ap_int_base", metadata !"", metadata !891, i32 1563, metadata !1027, i1 false, i1 false, i32 0, i32 0, null, i32 256, i1 false, null, null, i32 0, metadata !89, i32 1563} ; [ DW_TAG_subprogram ]
!1027 = metadata !{i32 786453, i32 0, metadata !"", i32 0, i32 0, i64 0, i64 0, i64 0, i32 0, null, metadata !1028, i32 0, i32 0} ; [ DW_TAG_subroutine_type ]
!1028 = metadata !{null, metadata !954, metadata !172, metadata !975}
!1029 = metadata !{i32 786478, i32 0, metadata !931, metadata !"read", metadata !"read", metadata !"_ZNV11ap_int_baseILi32ELb1ELb1EE4readEv", metadata !891, i32 1584, metadata !1030, i1 false, i1 false, i32 0, i32 0, null, i32 256, i1 false, null, null, i32 0, metadata !89, i32 1584} ; [ DW_TAG_subprogram ]
!1030 = metadata !{i32 786453, i32 0, metadata !"", i32 0, i32 0, i64 0, i64 0, i64 0, i32 0, null, metadata !1031, i32 0, i32 0} ; [ DW_TAG_subroutine_type ]
!1031 = metadata !{metadata !931, metadata !1032}
!1032 = metadata !{i32 786447, i32 0, metadata !"", i32 0, i32 0, i64 64, i64 64, i64 0, i32 64, metadata !968} ; [ DW_TAG_pointer_type ]
!1033 = metadata !{i32 786478, i32 0, metadata !931, metadata !"write", metadata !"write", metadata !"_ZNV11ap_int_baseILi32ELb1ELb1EE5writeERKS0_", metadata !891, i32 1590, metadata !1034, i1 false, i1 false, i32 0, i32 0, null, i32 256, i1 false, null, null, i32 0, metadata !89, i32 1590} ; [ DW_TAG_subprogram ]
!1034 = metadata !{i32 786453, i32 0, metadata !"", i32 0, i32 0, i64 0, i64 0, i64 0, i32 0, null, metadata !1035, i32 0, i32 0} ; [ DW_TAG_subroutine_type ]
!1035 = metadata !{null, metadata !1032, metadata !958}
!1036 = metadata !{i32 786478, i32 0, metadata !931, metadata !"operator=", metadata !"operator=", metadata !"_ZNV11ap_int_baseILi32ELb1ELb1EEaSERVKS0_", metadata !891, i32 1602, metadata !1037, i1 false, i1 false, i32 0, i32 0, null, i32 256, i1 false, null, null, i32 0, metadata !89, i32 1602} ; [ DW_TAG_subprogram ]
!1037 = metadata !{i32 786453, i32 0, metadata !"", i32 0, i32 0, i64 0, i64 0, i64 0, i32 0, null, metadata !1038, i32 0, i32 0} ; [ DW_TAG_subroutine_type ]
!1038 = metadata !{null, metadata !1032, metadata !966}
!1039 = metadata !{i32 786478, i32 0, metadata !931, metadata !"operator=", metadata !"operator=", metadata !"_ZNV11ap_int_baseILi32ELb1ELb1EEaSERKS0_", metadata !891, i32 1611, metadata !1034, i1 false, i1 false, i32 0, i32 0, null, i32 256, i1 false, null, null, i32 0, metadata !89, i32 1611} ; [ DW_TAG_subprogram ]
!1040 = metadata !{i32 786478, i32 0, metadata !931, metadata !"operator=", metadata !"operator=", metadata !"_ZN11ap_int_baseILi32ELb1ELb1EEaSERVKS0_", metadata !891, i32 1634, metadata !1041, i1 false, i1 false, i32 0, i32 0, null, i32 256, i1 false, null, null, i32 0, metadata !89, i32 1634} ; [ DW_TAG_subprogram ]
!1041 = metadata !{i32 786453, i32 0, metadata !"", i32 0, i32 0, i64 0, i64 0, i64 0, i32 0, null, metadata !1042, i32 0, i32 0} ; [ DW_TAG_subroutine_type ]
!1042 = metadata !{metadata !1043, metadata !954, metadata !966}
!1043 = metadata !{i32 786448, null, null, null, i32 0, i64 0, i64 0, i64 0, i32 0, metadata !931} ; [ DW_TAG_reference_type ]
!1044 = metadata !{i32 786478, i32 0, metadata !931, metadata !"operator=", metadata !"operator=", metadata !"_ZN11ap_int_baseILi32ELb1ELb1EEaSERKS0_", metadata !891, i32 1639, metadata !1045, i1 false, i1 false, i32 0, i32 0, null, i32 256, i1 false, null, null, i32 0, metadata !89, i32 1639} ; [ DW_TAG_subprogram ]
!1045 = metadata !{i32 786453, i32 0, metadata !"", i32 0, i32 0, i64 0, i64 0, i64 0, i32 0, null, metadata !1046, i32 0, i32 0} ; [ DW_TAG_subroutine_type ]
!1046 = metadata !{metadata !1043, metadata !954, metadata !958}
!1047 = metadata !{i32 786478, i32 0, metadata !931, metadata !"operator=", metadata !"operator=", metadata !"_ZN11ap_int_baseILi32ELb1ELb1EEaSEPKc", metadata !891, i32 1643, metadata !1048, i1 false, i1 false, i32 0, i32 0, null, i32 256, i1 false, null, null, i32 0, metadata !89, i32 1643} ; [ DW_TAG_subprogram ]
!1048 = metadata !{i32 786453, i32 0, metadata !"", i32 0, i32 0, i64 0, i64 0, i64 0, i32 0, null, metadata !1049, i32 0, i32 0} ; [ DW_TAG_subroutine_type ]
!1049 = metadata !{metadata !1043, metadata !954, metadata !172}
!1050 = metadata !{i32 786478, i32 0, metadata !931, metadata !"set", metadata !"set", metadata !"_ZN11ap_int_baseILi32ELb1ELb1EE3setEPKca", metadata !891, i32 1651, metadata !1051, i1 false, i1 false, i32 0, i32 0, null, i32 256, i1 false, null, null, i32 0, metadata !89, i32 1651} ; [ DW_TAG_subprogram ]
!1051 = metadata !{i32 786453, i32 0, metadata !"", i32 0, i32 0, i64 0, i64 0, i64 0, i32 0, null, metadata !1052, i32 0, i32 0} ; [ DW_TAG_subroutine_type ]
!1052 = metadata !{metadata !1043, metadata !954, metadata !172, metadata !975}
!1053 = metadata !{i32 786478, i32 0, metadata !931, metadata !"operator=", metadata !"operator=", metadata !"_ZN11ap_int_baseILi32ELb1ELb1EEaSEa", metadata !891, i32 1665, metadata !1054, i1 false, i1 false, i32 0, i32 0, null, i32 256, i1 false, null, null, i32 0, metadata !89, i32 1665} ; [ DW_TAG_subprogram ]
!1054 = metadata !{i32 786453, i32 0, metadata !"", i32 0, i32 0, i64 0, i64 0, i64 0, i32 0, null, metadata !1055, i32 0, i32 0} ; [ DW_TAG_subroutine_type ]
!1055 = metadata !{metadata !1043, metadata !954, metadata !975}
!1056 = metadata !{i32 786478, i32 0, metadata !931, metadata !"operator=", metadata !"operator=", metadata !"_ZN11ap_int_baseILi32ELb1ELb1EEaSEh", metadata !891, i32 1666, metadata !1057, i1 false, i1 false, i32 0, i32 0, null, i32 256, i1 false, null, null, i32 0, metadata !89, i32 1666} ; [ DW_TAG_subprogram ]
!1057 = metadata !{i32 786453, i32 0, metadata !"", i32 0, i32 0, i64 0, i64 0, i64 0, i32 0, null, metadata !1058, i32 0, i32 0} ; [ DW_TAG_subroutine_type ]
!1058 = metadata !{metadata !1043, metadata !954, metadata !979}
!1059 = metadata !{i32 786478, i32 0, metadata !931, metadata !"operator=", metadata !"operator=", metadata !"_ZN11ap_int_baseILi32ELb1ELb1EEaSEs", metadata !891, i32 1667, metadata !1060, i1 false, i1 false, i32 0, i32 0, null, i32 256, i1 false, null, null, i32 0, metadata !89, i32 1667} ; [ DW_TAG_subprogram ]
!1060 = metadata !{i32 786453, i32 0, metadata !"", i32 0, i32 0, i64 0, i64 0, i64 0, i32 0, null, metadata !1061, i32 0, i32 0} ; [ DW_TAG_subroutine_type ]
!1061 = metadata !{metadata !1043, metadata !954, metadata !983}
!1062 = metadata !{i32 786478, i32 0, metadata !931, metadata !"operator=", metadata !"operator=", metadata !"_ZN11ap_int_baseILi32ELb1ELb1EEaSEt", metadata !891, i32 1668, metadata !1063, i1 false, i1 false, i32 0, i32 0, null, i32 256, i1 false, null, null, i32 0, metadata !89, i32 1668} ; [ DW_TAG_subprogram ]
!1063 = metadata !{i32 786453, i32 0, metadata !"", i32 0, i32 0, i64 0, i64 0, i64 0, i32 0, null, metadata !1064, i32 0, i32 0} ; [ DW_TAG_subroutine_type ]
!1064 = metadata !{metadata !1043, metadata !954, metadata !165}
!1065 = metadata !{i32 786478, i32 0, metadata !931, metadata !"operator=", metadata !"operator=", metadata !"_ZN11ap_int_baseILi32ELb1ELb1EEaSEi", metadata !891, i32 1669, metadata !1066, i1 false, i1 false, i32 0, i32 0, null, i32 256, i1 false, null, null, i32 0, metadata !89, i32 1669} ; [ DW_TAG_subprogram ]
!1066 = metadata !{i32 786453, i32 0, metadata !"", i32 0, i32 0, i64 0, i64 0, i64 0, i32 0, null, metadata !1067, i32 0, i32 0} ; [ DW_TAG_subroutine_type ]
!1067 = metadata !{metadata !1043, metadata !954, metadata !56}
!1068 = metadata !{i32 786478, i32 0, metadata !931, metadata !"operator=", metadata !"operator=", metadata !"_ZN11ap_int_baseILi32ELb1ELb1EEaSEj", metadata !891, i32 1670, metadata !1069, i1 false, i1 false, i32 0, i32 0, null, i32 256, i1 false, null, null, i32 0, metadata !89, i32 1670} ; [ DW_TAG_subprogram ]
!1069 = metadata !{i32 786453, i32 0, metadata !"", i32 0, i32 0, i64 0, i64 0, i64 0, i32 0, null, metadata !1070, i32 0, i32 0} ; [ DW_TAG_subroutine_type ]
!1070 = metadata !{metadata !1043, metadata !954, metadata !993}
!1071 = metadata !{i32 786478, i32 0, metadata !931, metadata !"operator=", metadata !"operator=", metadata !"_ZN11ap_int_baseILi32ELb1ELb1EEaSEx", metadata !891, i32 1671, metadata !1072, i1 false, i1 false, i32 0, i32 0, null, i32 256, i1 false, null, null, i32 0, metadata !89, i32 1671} ; [ DW_TAG_subprogram ]
!1072 = metadata !{i32 786453, i32 0, metadata !"", i32 0, i32 0, i64 0, i64 0, i64 0, i32 0, null, metadata !1073, i32 0, i32 0} ; [ DW_TAG_subroutine_type ]
!1073 = metadata !{metadata !1043, metadata !954, metadata !1003}
!1074 = metadata !{i32 786478, i32 0, metadata !931, metadata !"operator=", metadata !"operator=", metadata !"_ZN11ap_int_baseILi32ELb1ELb1EEaSEy", metadata !891, i32 1672, metadata !1075, i1 false, i1 false, i32 0, i32 0, null, i32 256, i1 false, null, null, i32 0, metadata !89, i32 1672} ; [ DW_TAG_subprogram ]
!1075 = metadata !{i32 786453, i32 0, metadata !"", i32 0, i32 0, i64 0, i64 0, i64 0, i32 0, null, metadata !1076, i32 0, i32 0} ; [ DW_TAG_subroutine_type ]
!1076 = metadata !{metadata !1043, metadata !954, metadata !1008}
!1077 = metadata !{i32 786478, i32 0, metadata !931, metadata !"operator int", metadata !"operator int", metadata !"_ZNK11ap_int_baseILi32ELb1ELb1EEcviEv", metadata !891, i32 1710, metadata !1078, i1 false, i1 false, i32 0, i32 0, null, i32 256, i1 false, null, null, i32 0, metadata !89, i32 1710} ; [ DW_TAG_subprogram ]
!1078 = metadata !{i32 786453, i32 0, metadata !"", i32 0, i32 0, i64 0, i64 0, i64 0, i32 0, null, metadata !1079, i32 0, i32 0} ; [ DW_TAG_subroutine_type ]
!1079 = metadata !{metadata !1080, metadata !1086}
!1080 = metadata !{i32 786454, metadata !931, metadata !"RetType", metadata !891, i32 1458, i64 0, i64 0, i64 0, i32 0, metadata !1081} ; [ DW_TAG_typedef ]
!1081 = metadata !{i32 786454, metadata !1082, metadata !"Type", metadata !891, i32 1441, i64 0, i64 0, i64 0, i32 0, metadata !56} ; [ DW_TAG_typedef ]
!1082 = metadata !{i32 786434, null, metadata !"retval<4, true>", metadata !891, i32 1440, i64 8, i64 8, i32 0, i32 0, null, metadata !1083, i32 0, null, metadata !1084} ; [ DW_TAG_class_type ]
!1083 = metadata !{i32 0}
!1084 = metadata !{metadata !1085, metadata !950}
!1085 = metadata !{i32 786480, null, metadata !"_AP_N", metadata !56, i64 4, null, i32 0, i32 0} ; [ DW_TAG_template_value_parameter ]
!1086 = metadata !{i32 786447, i32 0, metadata !"", i32 0, i32 0, i64 64, i64 64, i64 0, i32 64, metadata !959} ; [ DW_TAG_pointer_type ]
!1087 = metadata !{i32 786478, i32 0, metadata !931, metadata !"to_bool", metadata !"to_bool", metadata !"_ZNK11ap_int_baseILi32ELb1ELb1EE7to_boolEv", metadata !891, i32 1716, metadata !1088, i1 false, i1 false, i32 0, i32 0, null, i32 256, i1 false, null, null, i32 0, metadata !89, i32 1716} ; [ DW_TAG_subprogram ]
!1088 = metadata !{i32 786453, i32 0, metadata !"", i32 0, i32 0, i64 0, i64 0, i64 0, i32 0, null, metadata !1089, i32 0, i32 0} ; [ DW_TAG_subroutine_type ]
!1089 = metadata !{metadata !238, metadata !1086}
!1090 = metadata !{i32 786478, i32 0, metadata !931, metadata !"to_uchar", metadata !"to_uchar", metadata !"_ZNK11ap_int_baseILi32ELb1ELb1EE8to_ucharEv", metadata !891, i32 1717, metadata !1091, i1 false, i1 false, i32 0, i32 0, null, i32 256, i1 false, null, null, i32 0, metadata !89, i32 1717} ; [ DW_TAG_subprogram ]
!1091 = metadata !{i32 786453, i32 0, metadata !"", i32 0, i32 0, i64 0, i64 0, i64 0, i32 0, null, metadata !1092, i32 0, i32 0} ; [ DW_TAG_subroutine_type ]
!1092 = metadata !{metadata !979, metadata !1086}
!1093 = metadata !{i32 786478, i32 0, metadata !931, metadata !"to_char", metadata !"to_char", metadata !"_ZNK11ap_int_baseILi32ELb1ELb1EE7to_charEv", metadata !891, i32 1718, metadata !1094, i1 false, i1 false, i32 0, i32 0, null, i32 256, i1 false, null, null, i32 0, metadata !89, i32 1718} ; [ DW_TAG_subprogram ]
!1094 = metadata !{i32 786453, i32 0, metadata !"", i32 0, i32 0, i64 0, i64 0, i64 0, i32 0, null, metadata !1095, i32 0, i32 0} ; [ DW_TAG_subroutine_type ]
!1095 = metadata !{metadata !975, metadata !1086}
!1096 = metadata !{i32 786478, i32 0, metadata !931, metadata !"to_ushort", metadata !"to_ushort", metadata !"_ZNK11ap_int_baseILi32ELb1ELb1EE9to_ushortEv", metadata !891, i32 1719, metadata !1097, i1 false, i1 false, i32 0, i32 0, null, i32 256, i1 false, null, null, i32 0, metadata !89, i32 1719} ; [ DW_TAG_subprogram ]
!1097 = metadata !{i32 786453, i32 0, metadata !"", i32 0, i32 0, i64 0, i64 0, i64 0, i32 0, null, metadata !1098, i32 0, i32 0} ; [ DW_TAG_subroutine_type ]
!1098 = metadata !{metadata !165, metadata !1086}
!1099 = metadata !{i32 786478, i32 0, metadata !931, metadata !"to_short", metadata !"to_short", metadata !"_ZNK11ap_int_baseILi32ELb1ELb1EE8to_shortEv", metadata !891, i32 1720, metadata !1100, i1 false, i1 false, i32 0, i32 0, null, i32 256, i1 false, null, null, i32 0, metadata !89, i32 1720} ; [ DW_TAG_subprogram ]
!1100 = metadata !{i32 786453, i32 0, metadata !"", i32 0, i32 0, i64 0, i64 0, i64 0, i32 0, null, metadata !1101, i32 0, i32 0} ; [ DW_TAG_subroutine_type ]
!1101 = metadata !{metadata !983, metadata !1086}
!1102 = metadata !{i32 786478, i32 0, metadata !931, metadata !"to_int", metadata !"to_int", metadata !"_ZNK11ap_int_baseILi32ELb1ELb1EE6to_intEv", metadata !891, i32 1721, metadata !1103, i1 false, i1 false, i32 0, i32 0, null, i32 256, i1 false, null, null, i32 0, metadata !89, i32 1721} ; [ DW_TAG_subprogram ]
!1103 = metadata !{i32 786453, i32 0, metadata !"", i32 0, i32 0, i64 0, i64 0, i64 0, i32 0, null, metadata !1104, i32 0, i32 0} ; [ DW_TAG_subroutine_type ]
!1104 = metadata !{metadata !56, metadata !1086}
!1105 = metadata !{i32 786478, i32 0, metadata !931, metadata !"to_uint", metadata !"to_uint", metadata !"_ZNK11ap_int_baseILi32ELb1ELb1EE7to_uintEv", metadata !891, i32 1722, metadata !1106, i1 false, i1 false, i32 0, i32 0, null, i32 256, i1 false, null, null, i32 0, metadata !89, i32 1722} ; [ DW_TAG_subprogram ]
!1106 = metadata !{i32 786453, i32 0, metadata !"", i32 0, i32 0, i64 0, i64 0, i64 0, i32 0, null, metadata !1107, i32 0, i32 0} ; [ DW_TAG_subroutine_type ]
!1107 = metadata !{metadata !993, metadata !1086}
!1108 = metadata !{i32 786478, i32 0, metadata !931, metadata !"to_long", metadata !"to_long", metadata !"_ZNK11ap_int_baseILi32ELb1ELb1EE7to_longEv", metadata !891, i32 1723, metadata !1109, i1 false, i1 false, i32 0, i32 0, null, i32 256, i1 false, null, null, i32 0, metadata !89, i32 1723} ; [ DW_TAG_subprogram ]
!1109 = metadata !{i32 786453, i32 0, metadata !"", i32 0, i32 0, i64 0, i64 0, i64 0, i32 0, null, metadata !1110, i32 0, i32 0} ; [ DW_TAG_subroutine_type ]
!1110 = metadata !{metadata !64, metadata !1086}
!1111 = metadata !{i32 786478, i32 0, metadata !931, metadata !"to_ulong", metadata !"to_ulong", metadata !"_ZNK11ap_int_baseILi32ELb1ELb1EE8to_ulongEv", metadata !891, i32 1724, metadata !1112, i1 false, i1 false, i32 0, i32 0, null, i32 256, i1 false, null, null, i32 0, metadata !89, i32 1724} ; [ DW_TAG_subprogram ]
!1112 = metadata !{i32 786453, i32 0, metadata !"", i32 0, i32 0, i64 0, i64 0, i64 0, i32 0, null, metadata !1113, i32 0, i32 0} ; [ DW_TAG_subroutine_type ]
!1113 = metadata !{metadata !140, metadata !1086}
!1114 = metadata !{i32 786478, i32 0, metadata !931, metadata !"to_int64", metadata !"to_int64", metadata !"_ZNK11ap_int_baseILi32ELb1ELb1EE8to_int64Ev", metadata !891, i32 1725, metadata !1115, i1 false, i1 false, i32 0, i32 0, null, i32 256, i1 false, null, null, i32 0, metadata !89, i32 1725} ; [ DW_TAG_subprogram ]
!1115 = metadata !{i32 786453, i32 0, metadata !"", i32 0, i32 0, i64 0, i64 0, i64 0, i32 0, null, metadata !1116, i32 0, i32 0} ; [ DW_TAG_subroutine_type ]
!1116 = metadata !{metadata !1003, metadata !1086}
!1117 = metadata !{i32 786478, i32 0, metadata !931, metadata !"to_uint64", metadata !"to_uint64", metadata !"_ZNK11ap_int_baseILi32ELb1ELb1EE9to_uint64Ev", metadata !891, i32 1726, metadata !1118, i1 false, i1 false, i32 0, i32 0, null, i32 256, i1 false, null, null, i32 0, metadata !89, i32 1726} ; [ DW_TAG_subprogram ]
!1118 = metadata !{i32 786453, i32 0, metadata !"", i32 0, i32 0, i64 0, i64 0, i64 0, i32 0, null, metadata !1119, i32 0, i32 0} ; [ DW_TAG_subroutine_type ]
!1119 = metadata !{metadata !1008, metadata !1086}
!1120 = metadata !{i32 786478, i32 0, metadata !931, metadata !"to_double", metadata !"to_double", metadata !"_ZNK11ap_int_baseILi32ELb1ELb1EE9to_doubleEv", metadata !891, i32 1727, metadata !1121, i1 false, i1 false, i32 0, i32 0, null, i32 256, i1 false, null, null, i32 0, metadata !89, i32 1727} ; [ DW_TAG_subprogram ]
!1121 = metadata !{i32 786453, i32 0, metadata !"", i32 0, i32 0, i64 0, i64 0, i64 0, i32 0, null, metadata !1122, i32 0, i32 0} ; [ DW_TAG_subroutine_type ]
!1122 = metadata !{metadata !1022, metadata !1086}
!1123 = metadata !{i32 786478, i32 0, metadata !931, metadata !"length", metadata !"length", metadata !"_ZNK11ap_int_baseILi32ELb1ELb1EE6lengthEv", metadata !891, i32 1741, metadata !1103, i1 false, i1 false, i32 0, i32 0, null, i32 256, i1 false, null, null, i32 0, metadata !89, i32 1741} ; [ DW_TAG_subprogram ]
!1124 = metadata !{i32 786478, i32 0, metadata !931, metadata !"length", metadata !"length", metadata !"_ZNVK11ap_int_baseILi32ELb1ELb1EE6lengthEv", metadata !891, i32 1742, metadata !1125, i1 false, i1 false, i32 0, i32 0, null, i32 256, i1 false, null, null, i32 0, metadata !89, i32 1742} ; [ DW_TAG_subprogram ]
!1125 = metadata !{i32 786453, i32 0, metadata !"", i32 0, i32 0, i64 0, i64 0, i64 0, i32 0, null, metadata !1126, i32 0, i32 0} ; [ DW_TAG_subroutine_type ]
!1126 = metadata !{metadata !56, metadata !1127}
!1127 = metadata !{i32 786447, i32 0, metadata !"", i32 0, i32 0, i64 64, i64 64, i64 0, i32 64, metadata !967} ; [ DW_TAG_pointer_type ]
!1128 = metadata !{i32 786478, i32 0, metadata !931, metadata !"reverse", metadata !"reverse", metadata !"_ZN11ap_int_baseILi32ELb1ELb1EE7reverseEv", metadata !891, i32 1747, metadata !1129, i1 false, i1 false, i32 0, i32 0, null, i32 256, i1 false, null, null, i32 0, metadata !89, i32 1747} ; [ DW_TAG_subprogram ]
!1129 = metadata !{i32 786453, i32 0, metadata !"", i32 0, i32 0, i64 0, i64 0, i64 0, i32 0, null, metadata !1130, i32 0, i32 0} ; [ DW_TAG_subroutine_type ]
!1130 = metadata !{metadata !1043, metadata !954}
!1131 = metadata !{i32 786478, i32 0, metadata !931, metadata !"iszero", metadata !"iszero", metadata !"_ZNK11ap_int_baseILi32ELb1ELb1EE6iszeroEv", metadata !891, i32 1753, metadata !1088, i1 false, i1 false, i32 0, i32 0, null, i32 256, i1 false, null, null, i32 0, metadata !89, i32 1753} ; [ DW_TAG_subprogram ]
!1132 = metadata !{i32 786478, i32 0, metadata !931, metadata !"is_zero", metadata !"is_zero", metadata !"_ZNK11ap_int_baseILi32ELb1ELb1EE7is_zeroEv", metadata !891, i32 1758, metadata !1088, i1 false, i1 false, i32 0, i32 0, null, i32 256, i1 false, null, null, i32 0, metadata !89, i32 1758} ; [ DW_TAG_subprogram ]
!1133 = metadata !{i32 786478, i32 0, metadata !931, metadata !"sign", metadata !"sign", metadata !"_ZNK11ap_int_baseILi32ELb1ELb1EE4signEv", metadata !891, i32 1763, metadata !1088, i1 false, i1 false, i32 0, i32 0, null, i32 256, i1 false, null, null, i32 0, metadata !89, i32 1763} ; [ DW_TAG_subprogram ]
!1134 = metadata !{i32 786478, i32 0, metadata !931, metadata !"clear", metadata !"clear", metadata !"_ZN11ap_int_baseILi32ELb1ELb1EE5clearEi", metadata !891, i32 1771, metadata !988, i1 false, i1 false, i32 0, i32 0, null, i32 256, i1 false, null, null, i32 0, metadata !89, i32 1771} ; [ DW_TAG_subprogram ]
