; ModuleID = '/home/alex/Documents/RFNoCFrameSynchHWAccel/correlatorDev/correlator/solution1/.autopilot/db/a.o.bc'
target datalayout = "e-p:64:64:64-i1:8:8-i8:8:8-i16:16:16-i32:32:32-i64:64:64-f32:32:32-f64:64:64-v64:64:64-v128:128:128-a0:0:64-s0:64:64-f80:128:128-n8:16:32:64-S128"
target triple = "x86_64-unknown-linux-gnu"

%struct.ap_fixed = type { %struct.ap_fixed_base }
%struct.ap_fixed_base = type { %struct.ssdm_int.5 }
%struct.ssdm_int.5 = type { i16 }
%struct.ap_fixed.6 = type { %struct.ap_fixed_base.7 }
%struct.ap_fixed_base.7 = type { %struct.ssdm_int }
%struct.ssdm_int = type { i32 }
%struct.ap_uint = type { %struct.ap_int_base.0 }
%struct.ap_int_base.0 = type { %struct.ssdm_int.1 }
%struct.ssdm_int.1 = type { i1 }
%struct.ap_uint.8 = type { %struct.ap_int_base.9 }
%struct.ap_int_base.9 = type { %struct.ssdm_int.10 }
%struct.ssdm_int.10 = type { i10 }
%"class.hls::stream" = type { %struct.rfnoc_axis }
%struct.rfnoc_axis = type { %struct.ap_fixed.6, %struct.ap_uint }
%struct.ap_uint.2 = type { %struct.ap_int_base.3 }
%struct.ap_int_base.3 = type { %struct.ssdm_int.4 }
%struct.ssdm_int.4 = type { i4 }
%struct.ap_range_ref = type { %struct.ap_fixed_base.7*, i32, i32 }
%struct.ap_int_base.14 = type { %struct.ssdm_int.15 }
%struct.ssdm_int.15 = type { i33 }

@.str = private unnamed_addr constant [1 x i8] zeroinitializer, align 1 ; [#uses=1 type=[1 x i8]*]
@.str1 = private unnamed_addr constant [13 x i8] c"ap_ctrl_none\00", align 1 ; [#uses=1 type=[13 x i8]*]
@.str2 = private unnamed_addr constant [5 x i8] c"axis\00", align 1 ; [#uses=1 type=[5 x i8]*]
@.str3 = private unnamed_addr constant [5 x i8] c"both\00", align 1 ; [#uses=1 type=[5 x i8]*]
@_ZZ10correlatorN3hls6streamI10rfnoc_axisEES2_7ap_uintILi1EES3_ILi4EEE11phaseClass0 = internal global [16 x %struct.ap_fixed] zeroinitializer, align 16 ; [#uses=6 type=[16 x %struct.ap_fixed]*]
@_ZGVZ10correlatorN3hls6streamI10rfnoc_axisEES2_7ap_uintILi1EES3_ILi4EEE11phaseClass0 = internal global i8 0 ; [#uses=2 type=i8*]
@.str4 = private unnamed_addr constant [9 x i8] c"COMPLETE\00", align 1 ; [#uses=1 type=[9 x i8]*]
@_ZZ10correlatorN3hls6streamI10rfnoc_axisEES2_7ap_uintILi1EES3_ILi4EEE9resPhase0 = internal global [16 x %struct.ap_fixed.6] zeroinitializer, align 16 ; [#uses=2 type=[16 x %struct.ap_fixed.6]*]
@_ZGVZ10correlatorN3hls6streamI10rfnoc_axisEES2_7ap_uintILi1EES3_ILi4EEE9resPhase0 = internal global i8 0 ; [#uses=2 type=i8*]
@_ZZ10correlatorN3hls6streamI10rfnoc_axisEES2_7ap_uintILi1EES3_ILi4EEE6Phase0 = internal global [16 x %struct.ap_fixed.6] zeroinitializer, align 16 ; [#uses=5 type=[16 x %struct.ap_fixed.6]*]
@_ZGVZ10correlatorN3hls6streamI10rfnoc_axisEES2_7ap_uintILi1EES3_ILi4EEE6Phase0 = internal global i8 0 ; [#uses=2 type=i8*]
@_ZZ10correlatorN3hls6streamI10rfnoc_axisEES2_7ap_uintILi1EES3_ILi4EEE11phaseClass1 = internal global [16 x %struct.ap_fixed] zeroinitializer, align 16 ; [#uses=6 type=[16 x %struct.ap_fixed]*]
@_ZGVZ10correlatorN3hls6streamI10rfnoc_axisEES2_7ap_uintILi1EES3_ILi4EEE11phaseClass1 = internal global i8 0 ; [#uses=2 type=i8*]
@_ZZ10correlatorN3hls6streamI10rfnoc_axisEES2_7ap_uintILi1EES3_ILi4EEE9resPhase1 = internal global [16 x %struct.ap_fixed.6] zeroinitializer, align 16 ; [#uses=2 type=[16 x %struct.ap_fixed.6]*]
@_ZGVZ10correlatorN3hls6streamI10rfnoc_axisEES2_7ap_uintILi1EES3_ILi4EEE9resPhase1 = internal global i8 0 ; [#uses=2 type=i8*]
@_ZZ10correlatorN3hls6streamI10rfnoc_axisEES2_7ap_uintILi1EES3_ILi4EEE6Phase1 = internal global [16 x %struct.ap_fixed.6] zeroinitializer, align 16 ; [#uses=5 type=[16 x %struct.ap_fixed.6]*]
@_ZGVZ10correlatorN3hls6streamI10rfnoc_axisEES2_7ap_uintILi1EES3_ILi4EEE6Phase1 = internal global i8 0 ; [#uses=2 type=i8*]
@_ZZ10correlatorN3hls6streamI10rfnoc_axisEES2_7ap_uintILi1EES3_ILi4EEE11phaseClass2 = internal global [16 x %struct.ap_fixed] zeroinitializer, align 16 ; [#uses=6 type=[16 x %struct.ap_fixed]*]
@_ZGVZ10correlatorN3hls6streamI10rfnoc_axisEES2_7ap_uintILi1EES3_ILi4EEE11phaseClass2 = internal global i8 0 ; [#uses=2 type=i8*]
@_ZZ10correlatorN3hls6streamI10rfnoc_axisEES2_7ap_uintILi1EES3_ILi4EEE9resPhase2 = internal global [16 x %struct.ap_fixed.6] zeroinitializer, align 16 ; [#uses=2 type=[16 x %struct.ap_fixed.6]*]
@_ZGVZ10correlatorN3hls6streamI10rfnoc_axisEES2_7ap_uintILi1EES3_ILi4EEE9resPhase2 = internal global i8 0 ; [#uses=2 type=i8*]
@_ZZ10correlatorN3hls6streamI10rfnoc_axisEES2_7ap_uintILi1EES3_ILi4EEE6Phase2 = internal global [16 x %struct.ap_fixed.6] zeroinitializer, align 16 ; [#uses=5 type=[16 x %struct.ap_fixed.6]*]
@_ZGVZ10correlatorN3hls6streamI10rfnoc_axisEES2_7ap_uintILi1EES3_ILi4EEE6Phase2 = internal global i8 0 ; [#uses=2 type=i8*]
@_ZZ10correlatorN3hls6streamI10rfnoc_axisEES2_7ap_uintILi1EES3_ILi4EEE11phaseClass3 = internal global [16 x %struct.ap_fixed] zeroinitializer, align 16 ; [#uses=6 type=[16 x %struct.ap_fixed]*]
@_ZGVZ10correlatorN3hls6streamI10rfnoc_axisEES2_7ap_uintILi1EES3_ILi4EEE11phaseClass3 = internal global i8 0 ; [#uses=2 type=i8*]
@_ZZ10correlatorN3hls6streamI10rfnoc_axisEES2_7ap_uintILi1EES3_ILi4EEE9resPhase3 = internal global [16 x %struct.ap_fixed.6] zeroinitializer, align 16 ; [#uses=2 type=[16 x %struct.ap_fixed.6]*]
@_ZGVZ10correlatorN3hls6streamI10rfnoc_axisEES2_7ap_uintILi1EES3_ILi4EEE9resPhase3 = internal global i8 0 ; [#uses=2 type=i8*]
@_ZZ10correlatorN3hls6streamI10rfnoc_axisEES2_7ap_uintILi1EES3_ILi4EEE6Phase3 = internal global [16 x %struct.ap_fixed.6] zeroinitializer, align 16 ; [#uses=5 type=[16 x %struct.ap_fixed.6]*]
@_ZGVZ10correlatorN3hls6streamI10rfnoc_axisEES2_7ap_uintILi1EES3_ILi4EEE6Phase3 = internal global i8 0 ; [#uses=2 type=i8*]
@_ZZ10correlatorN3hls6streamI10rfnoc_axisEES2_7ap_uintILi1EES3_ILi4EEE11phaseClass4 = internal global [16 x %struct.ap_fixed] zeroinitializer, align 16 ; [#uses=6 type=[16 x %struct.ap_fixed]*]
@_ZGVZ10correlatorN3hls6streamI10rfnoc_axisEES2_7ap_uintILi1EES3_ILi4EEE11phaseClass4 = internal global i8 0 ; [#uses=2 type=i8*]
@_ZZ10correlatorN3hls6streamI10rfnoc_axisEES2_7ap_uintILi1EES3_ILi4EEE9resPhase4 = internal global [16 x %struct.ap_fixed.6] zeroinitializer, align 16 ; [#uses=2 type=[16 x %struct.ap_fixed.6]*]
@_ZGVZ10correlatorN3hls6streamI10rfnoc_axisEES2_7ap_uintILi1EES3_ILi4EEE9resPhase4 = internal global i8 0 ; [#uses=2 type=i8*]
@_ZZ10correlatorN3hls6streamI10rfnoc_axisEES2_7ap_uintILi1EES3_ILi4EEE6Phase4 = internal global [16 x %struct.ap_fixed.6] zeroinitializer, align 16 ; [#uses=5 type=[16 x %struct.ap_fixed.6]*]
@_ZGVZ10correlatorN3hls6streamI10rfnoc_axisEES2_7ap_uintILi1EES3_ILi4EEE6Phase4 = internal global i8 0 ; [#uses=2 type=i8*]
@_ZZ10correlatorN3hls6streamI10rfnoc_axisEES2_7ap_uintILi1EES3_ILi4EEE11phaseClass5 = internal global [16 x %struct.ap_fixed] zeroinitializer, align 16 ; [#uses=6 type=[16 x %struct.ap_fixed]*]
@_ZGVZ10correlatorN3hls6streamI10rfnoc_axisEES2_7ap_uintILi1EES3_ILi4EEE11phaseClass5 = internal global i8 0 ; [#uses=2 type=i8*]
@_ZZ10correlatorN3hls6streamI10rfnoc_axisEES2_7ap_uintILi1EES3_ILi4EEE9resPhase5 = internal global [16 x %struct.ap_fixed.6] zeroinitializer, align 16 ; [#uses=2 type=[16 x %struct.ap_fixed.6]*]
@_ZGVZ10correlatorN3hls6streamI10rfnoc_axisEES2_7ap_uintILi1EES3_ILi4EEE9resPhase5 = internal global i8 0 ; [#uses=2 type=i8*]
@_ZZ10correlatorN3hls6streamI10rfnoc_axisEES2_7ap_uintILi1EES3_ILi4EEE6Phase5 = internal global [16 x %struct.ap_fixed.6] zeroinitializer, align 16 ; [#uses=5 type=[16 x %struct.ap_fixed.6]*]
@_ZGVZ10correlatorN3hls6streamI10rfnoc_axisEES2_7ap_uintILi1EES3_ILi4EEE6Phase5 = internal global i8 0 ; [#uses=2 type=i8*]
@_ZZ10correlatorN3hls6streamI10rfnoc_axisEES2_7ap_uintILi1EES3_ILi4EEE11phaseClass6 = internal global [16 x %struct.ap_fixed] zeroinitializer, align 16 ; [#uses=6 type=[16 x %struct.ap_fixed]*]
@_ZGVZ10correlatorN3hls6streamI10rfnoc_axisEES2_7ap_uintILi1EES3_ILi4EEE11phaseClass6 = internal global i8 0 ; [#uses=2 type=i8*]
@_ZZ10correlatorN3hls6streamI10rfnoc_axisEES2_7ap_uintILi1EES3_ILi4EEE9resPhase6 = internal global [16 x %struct.ap_fixed.6] zeroinitializer, align 16 ; [#uses=2 type=[16 x %struct.ap_fixed.6]*]
@_ZGVZ10correlatorN3hls6streamI10rfnoc_axisEES2_7ap_uintILi1EES3_ILi4EEE9resPhase6 = internal global i8 0 ; [#uses=2 type=i8*]
@_ZZ10correlatorN3hls6streamI10rfnoc_axisEES2_7ap_uintILi1EES3_ILi4EEE6Phase6 = internal global [16 x %struct.ap_fixed.6] zeroinitializer, align 16 ; [#uses=5 type=[16 x %struct.ap_fixed.6]*]
@_ZGVZ10correlatorN3hls6streamI10rfnoc_axisEES2_7ap_uintILi1EES3_ILi4EEE6Phase6 = internal global i8 0 ; [#uses=2 type=i8*]
@_ZZ10correlatorN3hls6streamI10rfnoc_axisEES2_7ap_uintILi1EES3_ILi4EEE11phaseClass7 = internal global [16 x %struct.ap_fixed] zeroinitializer, align 16 ; [#uses=6 type=[16 x %struct.ap_fixed]*]
@_ZGVZ10correlatorN3hls6streamI10rfnoc_axisEES2_7ap_uintILi1EES3_ILi4EEE11phaseClass7 = internal global i8 0 ; [#uses=2 type=i8*]
@_ZZ10correlatorN3hls6streamI10rfnoc_axisEES2_7ap_uintILi1EES3_ILi4EEE9resPhase7 = internal global [16 x %struct.ap_fixed.6] zeroinitializer, align 16 ; [#uses=2 type=[16 x %struct.ap_fixed.6]*]
@_ZGVZ10correlatorN3hls6streamI10rfnoc_axisEES2_7ap_uintILi1EES3_ILi4EEE9resPhase7 = internal global i8 0 ; [#uses=2 type=i8*]
@_ZZ10correlatorN3hls6streamI10rfnoc_axisEES2_7ap_uintILi1EES3_ILi4EEE6Phase7 = internal global [16 x %struct.ap_fixed.6] zeroinitializer, align 16 ; [#uses=5 type=[16 x %struct.ap_fixed.6]*]
@_ZGVZ10correlatorN3hls6streamI10rfnoc_axisEES2_7ap_uintILi1EES3_ILi4EEE6Phase7 = internal global i8 0 ; [#uses=2 type=i8*]
@_ZZ10correlatorN3hls6streamI10rfnoc_axisEES2_7ap_uintILi1EES3_ILi4EEE11phaseClass8 = internal global [16 x %struct.ap_fixed] zeroinitializer, align 16 ; [#uses=6 type=[16 x %struct.ap_fixed]*]
@_ZGVZ10correlatorN3hls6streamI10rfnoc_axisEES2_7ap_uintILi1EES3_ILi4EEE11phaseClass8 = internal global i8 0 ; [#uses=2 type=i8*]
@_ZZ10correlatorN3hls6streamI10rfnoc_axisEES2_7ap_uintILi1EES3_ILi4EEE9resPhase8 = internal global [16 x %struct.ap_fixed.6] zeroinitializer, align 16 ; [#uses=2 type=[16 x %struct.ap_fixed.6]*]
@_ZGVZ10correlatorN3hls6streamI10rfnoc_axisEES2_7ap_uintILi1EES3_ILi4EEE9resPhase8 = internal global i8 0 ; [#uses=2 type=i8*]
@_ZZ10correlatorN3hls6streamI10rfnoc_axisEES2_7ap_uintILi1EES3_ILi4EEE6Phase8 = internal global [16 x %struct.ap_fixed.6] zeroinitializer, align 16 ; [#uses=5 type=[16 x %struct.ap_fixed.6]*]
@_ZGVZ10correlatorN3hls6streamI10rfnoc_axisEES2_7ap_uintILi1EES3_ILi4EEE6Phase8 = internal global i8 0 ; [#uses=2 type=i8*]
@_ZZ10correlatorN3hls6streamI10rfnoc_axisEES2_7ap_uintILi1EES3_ILi4EEE11phaseClass9 = internal global [16 x %struct.ap_fixed] zeroinitializer, align 16 ; [#uses=6 type=[16 x %struct.ap_fixed]*]
@_ZGVZ10correlatorN3hls6streamI10rfnoc_axisEES2_7ap_uintILi1EES3_ILi4EEE11phaseClass9 = internal global i8 0 ; [#uses=2 type=i8*]
@_ZZ10correlatorN3hls6streamI10rfnoc_axisEES2_7ap_uintILi1EES3_ILi4EEE9resPhase9 = internal global [16 x %struct.ap_fixed.6] zeroinitializer, align 16 ; [#uses=2 type=[16 x %struct.ap_fixed.6]*]
@_ZGVZ10correlatorN3hls6streamI10rfnoc_axisEES2_7ap_uintILi1EES3_ILi4EEE9resPhase9 = internal global i8 0 ; [#uses=2 type=i8*]
@_ZZ10correlatorN3hls6streamI10rfnoc_axisEES2_7ap_uintILi1EES3_ILi4EEE6Phase9 = internal global [16 x %struct.ap_fixed.6] zeroinitializer, align 16 ; [#uses=5 type=[16 x %struct.ap_fixed.6]*]
@_ZGVZ10correlatorN3hls6streamI10rfnoc_axisEES2_7ap_uintILi1EES3_ILi4EEE6Phase9 = internal global i8 0 ; [#uses=2 type=i8*]
@_ZZ10correlatorN3hls6streamI10rfnoc_axisEES2_7ap_uintILi1EES3_ILi4EEE12phaseClass10 = internal global [16 x %struct.ap_fixed] zeroinitializer, align 16 ; [#uses=6 type=[16 x %struct.ap_fixed]*]
@_ZGVZ10correlatorN3hls6streamI10rfnoc_axisEES2_7ap_uintILi1EES3_ILi4EEE12phaseClass10 = internal global i8 0 ; [#uses=2 type=i8*]
@_ZZ10correlatorN3hls6streamI10rfnoc_axisEES2_7ap_uintILi1EES3_ILi4EEE10resPhase10 = internal global [16 x %struct.ap_fixed.6] zeroinitializer, align 16 ; [#uses=2 type=[16 x %struct.ap_fixed.6]*]
@_ZGVZ10correlatorN3hls6streamI10rfnoc_axisEES2_7ap_uintILi1EES3_ILi4EEE10resPhase10 = internal global i8 0 ; [#uses=2 type=i8*]
@_ZZ10correlatorN3hls6streamI10rfnoc_axisEES2_7ap_uintILi1EES3_ILi4EEE7Phase10 = internal global [16 x %struct.ap_fixed.6] zeroinitializer, align 16 ; [#uses=5 type=[16 x %struct.ap_fixed.6]*]
@_ZGVZ10correlatorN3hls6streamI10rfnoc_axisEES2_7ap_uintILi1EES3_ILi4EEE7Phase10 = internal global i8 0 ; [#uses=2 type=i8*]
@_ZZ10correlatorN3hls6streamI10rfnoc_axisEES2_7ap_uintILi1EES3_ILi4EEE12phaseClass11 = internal global [16 x %struct.ap_fixed] zeroinitializer, align 16 ; [#uses=6 type=[16 x %struct.ap_fixed]*]
@_ZGVZ10correlatorN3hls6streamI10rfnoc_axisEES2_7ap_uintILi1EES3_ILi4EEE12phaseClass11 = internal global i8 0 ; [#uses=2 type=i8*]
@_ZZ10correlatorN3hls6streamI10rfnoc_axisEES2_7ap_uintILi1EES3_ILi4EEE10resPhase11 = internal global [16 x %struct.ap_fixed.6] zeroinitializer, align 16 ; [#uses=2 type=[16 x %struct.ap_fixed.6]*]
@_ZGVZ10correlatorN3hls6streamI10rfnoc_axisEES2_7ap_uintILi1EES3_ILi4EEE10resPhase11 = internal global i8 0 ; [#uses=2 type=i8*]
@_ZZ10correlatorN3hls6streamI10rfnoc_axisEES2_7ap_uintILi1EES3_ILi4EEE7Phase11 = internal global [16 x %struct.ap_fixed.6] zeroinitializer, align 16 ; [#uses=5 type=[16 x %struct.ap_fixed.6]*]
@_ZGVZ10correlatorN3hls6streamI10rfnoc_axisEES2_7ap_uintILi1EES3_ILi4EEE7Phase11 = internal global i8 0 ; [#uses=2 type=i8*]
@_ZZ10correlatorN3hls6streamI10rfnoc_axisEES2_7ap_uintILi1EES3_ILi4EEE12phaseClass12 = internal global [16 x %struct.ap_fixed] zeroinitializer, align 16 ; [#uses=6 type=[16 x %struct.ap_fixed]*]
@_ZGVZ10correlatorN3hls6streamI10rfnoc_axisEES2_7ap_uintILi1EES3_ILi4EEE12phaseClass12 = internal global i8 0 ; [#uses=2 type=i8*]
@_ZZ10correlatorN3hls6streamI10rfnoc_axisEES2_7ap_uintILi1EES3_ILi4EEE10resPhase12 = internal global [16 x %struct.ap_fixed.6] zeroinitializer, align 16 ; [#uses=2 type=[16 x %struct.ap_fixed.6]*]
@_ZGVZ10correlatorN3hls6streamI10rfnoc_axisEES2_7ap_uintILi1EES3_ILi4EEE10resPhase12 = internal global i8 0 ; [#uses=2 type=i8*]
@_ZZ10correlatorN3hls6streamI10rfnoc_axisEES2_7ap_uintILi1EES3_ILi4EEE7Phase12 = internal global [16 x %struct.ap_fixed.6] zeroinitializer, align 16 ; [#uses=5 type=[16 x %struct.ap_fixed.6]*]
@_ZGVZ10correlatorN3hls6streamI10rfnoc_axisEES2_7ap_uintILi1EES3_ILi4EEE7Phase12 = internal global i8 0 ; [#uses=2 type=i8*]
@_ZZ10correlatorN3hls6streamI10rfnoc_axisEES2_7ap_uintILi1EES3_ILi4EEE12phaseClass13 = internal global [16 x %struct.ap_fixed] zeroinitializer, align 16 ; [#uses=6 type=[16 x %struct.ap_fixed]*]
@_ZGVZ10correlatorN3hls6streamI10rfnoc_axisEES2_7ap_uintILi1EES3_ILi4EEE12phaseClass13 = internal global i8 0 ; [#uses=2 type=i8*]
@_ZZ10correlatorN3hls6streamI10rfnoc_axisEES2_7ap_uintILi1EES3_ILi4EEE10resPhase13 = internal global [16 x %struct.ap_fixed.6] zeroinitializer, align 16 ; [#uses=2 type=[16 x %struct.ap_fixed.6]*]
@_ZGVZ10correlatorN3hls6streamI10rfnoc_axisEES2_7ap_uintILi1EES3_ILi4EEE10resPhase13 = internal global i8 0 ; [#uses=2 type=i8*]
@_ZZ10correlatorN3hls6streamI10rfnoc_axisEES2_7ap_uintILi1EES3_ILi4EEE7Phase13 = internal global [16 x %struct.ap_fixed.6] zeroinitializer, align 16 ; [#uses=5 type=[16 x %struct.ap_fixed.6]*]
@_ZGVZ10correlatorN3hls6streamI10rfnoc_axisEES2_7ap_uintILi1EES3_ILi4EEE7Phase13 = internal global i8 0 ; [#uses=2 type=i8*]
@_ZZ10correlatorN3hls6streamI10rfnoc_axisEES2_7ap_uintILi1EES3_ILi4EEE12phaseClass14 = internal global [16 x %struct.ap_fixed] zeroinitializer, align 16 ; [#uses=6 type=[16 x %struct.ap_fixed]*]
@_ZGVZ10correlatorN3hls6streamI10rfnoc_axisEES2_7ap_uintILi1EES3_ILi4EEE12phaseClass14 = internal global i8 0 ; [#uses=2 type=i8*]
@_ZZ10correlatorN3hls6streamI10rfnoc_axisEES2_7ap_uintILi1EES3_ILi4EEE10resPhase14 = internal global [16 x %struct.ap_fixed.6] zeroinitializer, align 16 ; [#uses=2 type=[16 x %struct.ap_fixed.6]*]
@_ZGVZ10correlatorN3hls6streamI10rfnoc_axisEES2_7ap_uintILi1EES3_ILi4EEE10resPhase14 = internal global i8 0 ; [#uses=2 type=i8*]
@_ZZ10correlatorN3hls6streamI10rfnoc_axisEES2_7ap_uintILi1EES3_ILi4EEE7Phase14 = internal global [16 x %struct.ap_fixed.6] zeroinitializer, align 16 ; [#uses=5 type=[16 x %struct.ap_fixed.6]*]
@_ZGVZ10correlatorN3hls6streamI10rfnoc_axisEES2_7ap_uintILi1EES3_ILi4EEE7Phase14 = internal global i8 0 ; [#uses=2 type=i8*]
@_ZZ10correlatorN3hls6streamI10rfnoc_axisEES2_7ap_uintILi1EES3_ILi4EEE12phaseClass15 = internal global [16 x %struct.ap_fixed] zeroinitializer, align 16 ; [#uses=6 type=[16 x %struct.ap_fixed]*]
@_ZGVZ10correlatorN3hls6streamI10rfnoc_axisEES2_7ap_uintILi1EES3_ILi4EEE12phaseClass15 = internal global i8 0 ; [#uses=2 type=i8*]
@_ZZ10correlatorN3hls6streamI10rfnoc_axisEES2_7ap_uintILi1EES3_ILi4EEE10resPhase15 = internal global [16 x %struct.ap_fixed.6] zeroinitializer, align 16 ; [#uses=2 type=[16 x %struct.ap_fixed.6]*]
@_ZGVZ10correlatorN3hls6streamI10rfnoc_axisEES2_7ap_uintILi1EES3_ILi4EEE10resPhase15 = internal global i8 0 ; [#uses=2 type=i8*]
@_ZZ10correlatorN3hls6streamI10rfnoc_axisEES2_7ap_uintILi1EES3_ILi4EEE7Phase15 = internal global [16 x %struct.ap_fixed.6] zeroinitializer, align 16 ; [#uses=5 type=[16 x %struct.ap_fixed.6]*]
@_ZGVZ10correlatorN3hls6streamI10rfnoc_axisEES2_7ap_uintILi1EES3_ILi4EEE7Phase15 = internal global i8 0 ; [#uses=2 type=i8*]
@_ZZ10correlatorN3hls6streamI10rfnoc_axisEES2_7ap_uintILi1EES3_ILi4EEE6newVal = internal global %struct.ap_fixed zeroinitializer, align 2 ; [#uses=19 type=%struct.ap_fixed*]
@_ZGVZ10correlatorN3hls6streamI10rfnoc_axisEES2_7ap_uintILi1EES3_ILi4EEE6newVal = internal global i8 0 ; [#uses=2 type=i8*]
@_ZZ10correlatorN3hls6streamI10rfnoc_axisEES2_7ap_uintILi1EES3_ILi4EEE15phaseClassValid = internal global [16 x %struct.ap_uint] zeroinitializer, align 16 ; [#uses=18 type=[16 x %struct.ap_uint]*]
@_ZGVZ10correlatorN3hls6streamI10rfnoc_axisEES2_7ap_uintILi1EES3_ILi4EEE15phaseClassValid = internal global i8 0 ; [#uses=2 type=i8*]
@_ZZ10correlatorN3hls6streamI10rfnoc_axisEES2_7ap_uintILi1EES3_ILi4EEE7corrSeq = internal global [16 x %struct.ap_uint] zeroinitializer, align 16 ; [#uses=33 type=[16 x %struct.ap_uint]*]
@_ZGVZ10correlatorN3hls6streamI10rfnoc_axisEES2_7ap_uintILi1EES3_ILi4EEE7corrSeq = internal global i8 0 ; [#uses=2 type=i8*]
@_ZZ10correlatorN3hls6streamI10rfnoc_axisEES2_7ap_uintILi1EES3_ILi4EEE14out_sample_cnt = internal global %struct.ap_uint.8 zeroinitializer, align 2 ; [#uses=2 type=%struct.ap_uint.8*]
@_ZGVZ10correlatorN3hls6streamI10rfnoc_axisEES2_7ap_uintILi1EES3_ILi4EEE14out_sample_cnt = internal global i8 0 ; [#uses=2 type=i8*]
@_ZZ10correlatorN3hls6streamI10rfnoc_axisEES2_7ap_uintILi1EES3_ILi4EEE9loadCount = internal global %struct.ap_fixed.6 zeroinitializer, align 4 ; [#uses=4 type=%struct.ap_fixed.6*]
@_ZGVZ10correlatorN3hls6streamI10rfnoc_axisEES2_7ap_uintILi1EES3_ILi4EEE9loadCount = internal global i8 0 ; [#uses=2 type=i8*]
@_ZZ10correlatorN3hls6streamI10rfnoc_axisEES2_7ap_uintILi1EES3_ILi4EEE12readResCount = internal global %struct.ap_fixed.6 zeroinitializer, align 4 ; [#uses=2 type=%struct.ap_fixed.6*]
@_ZGVZ10correlatorN3hls6streamI10rfnoc_axisEES2_7ap_uintILi1EES3_ILi4EEE12readResCount = internal global i8 0 ; [#uses=2 type=i8*]
@_ZZ10correlatorN3hls6streamI10rfnoc_axisEES2_7ap_uintILi1EES3_ILi4EEE8corState = internal global i1 false, align 1 ; [#uses=4 type=i1*]
@_ZZ10correlatorN3hls6streamI10rfnoc_axisEES2_7ap_uintILi1EES3_ILi4EEE10corHelperI = internal global %struct.ap_fixed.6 zeroinitializer, align 4 ; [#uses=35 type=%struct.ap_fixed.6*]
@_ZGVZ10correlatorN3hls6streamI10rfnoc_axisEES2_7ap_uintILi1EES3_ILi4EEE10corHelperI = internal global i8 0 ; [#uses=2 type=i8*]
@_ZZ10correlatorN3hls6streamI10rfnoc_axisEES2_7ap_uintILi1EES3_ILi4EEE10corHelperQ = internal global %struct.ap_fixed.6 zeroinitializer, align 4 ; [#uses=2 type=%struct.ap_fixed.6*]
@_ZGVZ10correlatorN3hls6streamI10rfnoc_axisEES2_7ap_uintILi1EES3_ILi4EEE10corHelperQ = internal global i8 0 ; [#uses=2 type=i8*]
@_ZZ10correlatorN3hls6streamI10rfnoc_axisEES2_7ap_uintILi1EES3_ILi4EEE12currentState = internal global i1 false, align 1 ; [#uses=4 type=i1*]
@.str5 = private unnamed_addr constant [12 x i8] c"SHIFT_DATA0\00", align 1 ; [#uses=1 type=[12 x i8]*]
@.str6 = private unnamed_addr constant [12 x i8] c"SHIFT_DATA1\00", align 1 ; [#uses=1 type=[12 x i8]*]
@.str7 = private unnamed_addr constant [12 x i8] c"SHIFT_DATA2\00", align 1 ; [#uses=1 type=[12 x i8]*]
@.str8 = private unnamed_addr constant [12 x i8] c"SHIFT_DATA3\00", align 1 ; [#uses=1 type=[12 x i8]*]
@.str9 = private unnamed_addr constant [12 x i8] c"SHIFT_DATA4\00", align 1 ; [#uses=1 type=[12 x i8]*]
@.str10 = private unnamed_addr constant [12 x i8] c"SHIFT_DATA5\00", align 1 ; [#uses=1 type=[12 x i8]*]
@.str11 = private unnamed_addr constant [12 x i8] c"SHIFT_DATA6\00", align 1 ; [#uses=1 type=[12 x i8]*]
@.str12 = private unnamed_addr constant [12 x i8] c"SHIFT_DATA7\00", align 1 ; [#uses=1 type=[12 x i8]*]
@.str13 = private unnamed_addr constant [12 x i8] c"SHIFT_DATA8\00", align 1 ; [#uses=1 type=[12 x i8]*]
@.str14 = private unnamed_addr constant [12 x i8] c"SHIFT_DATA9\00", align 1 ; [#uses=1 type=[12 x i8]*]
@.str15 = private unnamed_addr constant [13 x i8] c"SHIFT_DATA10\00", align 1 ; [#uses=1 type=[13 x i8]*]
@.str16 = private unnamed_addr constant [13 x i8] c"SHIFT_DATA11\00", align 1 ; [#uses=1 type=[13 x i8]*]
@.str17 = private unnamed_addr constant [13 x i8] c"SHIFT_DATA12\00", align 1 ; [#uses=1 type=[13 x i8]*]
@.str18 = private unnamed_addr constant [13 x i8] c"SHIFT_DATA13\00", align 1 ; [#uses=1 type=[13 x i8]*]
@.str19 = private unnamed_addr constant [13 x i8] c"SHIFT_DATA14\00", align 1 ; [#uses=1 type=[13 x i8]*]
@.str20 = private unnamed_addr constant [13 x i8] c"SHIFT_DATA15\00", align 1 ; [#uses=1 type=[13 x i8]*]
@.str21 = private unnamed_addr constant [15 x i8] c"correlateData0\00", align 1 ; [#uses=1 type=[15 x i8]*]
@.str22 = private unnamed_addr constant [15 x i8] c"correlateData1\00", align 1 ; [#uses=1 type=[15 x i8]*]
@.str23 = private unnamed_addr constant [15 x i8] c"correlateData2\00", align 1 ; [#uses=1 type=[15 x i8]*]
@.str24 = private unnamed_addr constant [15 x i8] c"correlateData3\00", align 1 ; [#uses=1 type=[15 x i8]*]
@.str25 = private unnamed_addr constant [15 x i8] c"correlateData4\00", align 1 ; [#uses=1 type=[15 x i8]*]
@.str26 = private unnamed_addr constant [15 x i8] c"correlateData5\00", align 1 ; [#uses=1 type=[15 x i8]*]
@.str27 = private unnamed_addr constant [15 x i8] c"correlateData6\00", align 1 ; [#uses=1 type=[15 x i8]*]
@.str28 = private unnamed_addr constant [15 x i8] c"correlateData7\00", align 1 ; [#uses=1 type=[15 x i8]*]
@.str29 = private unnamed_addr constant [15 x i8] c"correlateData8\00", align 1 ; [#uses=1 type=[15 x i8]*]
@.str30 = private unnamed_addr constant [15 x i8] c"correlateData9\00", align 1 ; [#uses=1 type=[15 x i8]*]
@.str31 = private unnamed_addr constant [16 x i8] c"correlateData10\00", align 1 ; [#uses=1 type=[16 x i8]*]
@.str32 = private unnamed_addr constant [16 x i8] c"correlateData11\00", align 1 ; [#uses=1 type=[16 x i8]*]
@.str33 = private unnamed_addr constant [16 x i8] c"correlateData12\00", align 1 ; [#uses=1 type=[16 x i8]*]
@.str34 = private unnamed_addr constant [16 x i8] c"correlateData13\00", align 1 ; [#uses=1 type=[16 x i8]*]
@.str35 = private unnamed_addr constant [16 x i8] c"correlateData14\00", align 1 ; [#uses=1 type=[16 x i8]*]
@.str36 = private unnamed_addr constant [16 x i8] c"correlateData15\00", align 1 ; [#uses=1 type=[16 x i8]*]
@llvm.global_ctors = appending global [0 x { i32, void ()* }] zeroinitializer ; [#uses=0 type=[0 x { i32, void ()* }]*]

; [#uses=0]
define void @_Z10correlatorN3hls6streamI10rfnoc_axisEES2_7ap_uintILi1EES3_ILi4EE(%"class.hls::stream"* %i_data, %"class.hls::stream"* %o_data, %struct.ap_uint* byval align 8 %start, %struct.ap_uint.2* byval align 8 %phaseClass) nounwind uwtable {
  %classType = alloca %struct.rfnoc_axis, align 4 ; [#uses=1 type=%struct.rfnoc_axis*]
  %out_sample = alloca %struct.rfnoc_axis, align 4 ; [#uses=4 type=%struct.rfnoc_axis*]
  %tmp_data = alloca %struct.rfnoc_axis, align 4  ; [#uses=3 type=%struct.rfnoc_axis*]
  %1 = alloca %struct.ap_range_ref, align 8       ; [#uses=2 type=%struct.ap_range_ref*]
  %a = alloca i32, align 4                        ; [#uses=6 type=i32*]
  %2 = alloca %struct.ap_uint, align 1            ; [#uses=2 type=%struct.ap_uint*]
  %a1 = alloca i32, align 4                       ; [#uses=6 type=i32*]
  %3 = alloca %struct.ap_uint, align 1            ; [#uses=2 type=%struct.ap_uint*]
  %a2 = alloca i32, align 4                       ; [#uses=6 type=i32*]
  %4 = alloca %struct.ap_uint, align 1            ; [#uses=2 type=%struct.ap_uint*]
  %a3 = alloca i32, align 4                       ; [#uses=6 type=i32*]
  %5 = alloca %struct.ap_uint, align 1            ; [#uses=2 type=%struct.ap_uint*]
  %a4 = alloca i32, align 4                       ; [#uses=6 type=i32*]
  %6 = alloca %struct.ap_uint, align 1            ; [#uses=2 type=%struct.ap_uint*]
  %a5 = alloca i32, align 4                       ; [#uses=6 type=i32*]
  %7 = alloca %struct.ap_uint, align 1            ; [#uses=2 type=%struct.ap_uint*]
  %a6 = alloca i32, align 4                       ; [#uses=6 type=i32*]
  %8 = alloca %struct.ap_uint, align 1            ; [#uses=2 type=%struct.ap_uint*]
  %a7 = alloca i32, align 4                       ; [#uses=6 type=i32*]
  %9 = alloca %struct.ap_uint, align 1            ; [#uses=2 type=%struct.ap_uint*]
  %a8 = alloca i32, align 4                       ; [#uses=6 type=i32*]
  %10 = alloca %struct.ap_uint, align 1           ; [#uses=2 type=%struct.ap_uint*]
  %a9 = alloca i32, align 4                       ; [#uses=6 type=i32*]
  %11 = alloca %struct.ap_uint, align 1           ; [#uses=2 type=%struct.ap_uint*]
  %a10 = alloca i32, align 4                      ; [#uses=6 type=i32*]
  %12 = alloca %struct.ap_uint, align 1           ; [#uses=2 type=%struct.ap_uint*]
  %a11 = alloca i32, align 4                      ; [#uses=6 type=i32*]
  %13 = alloca %struct.ap_uint, align 1           ; [#uses=2 type=%struct.ap_uint*]
  %a12 = alloca i32, align 4                      ; [#uses=6 type=i32*]
  %14 = alloca %struct.ap_uint, align 1           ; [#uses=2 type=%struct.ap_uint*]
  %a13 = alloca i32, align 4                      ; [#uses=6 type=i32*]
  %15 = alloca %struct.ap_uint, align 1           ; [#uses=2 type=%struct.ap_uint*]
  %a14 = alloca i32, align 4                      ; [#uses=6 type=i32*]
  %16 = alloca %struct.ap_uint, align 1           ; [#uses=2 type=%struct.ap_uint*]
  %a15 = alloca i32, align 4                      ; [#uses=6 type=i32*]
  %17 = alloca %struct.ap_uint, align 1           ; [#uses=2 type=%struct.ap_uint*]
  %18 = alloca %struct.ap_fixed.6, align 4        ; [#uses=2 type=%struct.ap_fixed.6*]
  %19 = alloca %struct.ap_int_base.14, align 8    ; [#uses=2 type=%struct.ap_int_base.14*]
  %20 = alloca %struct.ap_fixed.6, align 4        ; [#uses=2 type=%struct.ap_fixed.6*]
  %21 = alloca %struct.ap_uint, align 1           ; [#uses=2 type=%struct.ap_uint*]
  %a16 = alloca i32, align 4                      ; [#uses=9 type=i32*]
  %22 = alloca %struct.ap_fixed.6, align 4        ; [#uses=2 type=%struct.ap_fixed.6*]
  %23 = alloca %struct.ap_int_base.14, align 8    ; [#uses=2 type=%struct.ap_int_base.14*]
  %a17 = alloca i32, align 4                      ; [#uses=9 type=i32*]
  %24 = alloca %struct.ap_fixed.6, align 4        ; [#uses=2 type=%struct.ap_fixed.6*]
  %25 = alloca %struct.ap_int_base.14, align 8    ; [#uses=2 type=%struct.ap_int_base.14*]
  %a18 = alloca i32, align 4                      ; [#uses=9 type=i32*]
  %26 = alloca %struct.ap_fixed.6, align 4        ; [#uses=2 type=%struct.ap_fixed.6*]
  %27 = alloca %struct.ap_int_base.14, align 8    ; [#uses=2 type=%struct.ap_int_base.14*]
  %a19 = alloca i32, align 4                      ; [#uses=9 type=i32*]
  %28 = alloca %struct.ap_fixed.6, align 4        ; [#uses=2 type=%struct.ap_fixed.6*]
  %29 = alloca %struct.ap_int_base.14, align 8    ; [#uses=2 type=%struct.ap_int_base.14*]
  %a20 = alloca i32, align 4                      ; [#uses=9 type=i32*]
  %30 = alloca %struct.ap_fixed.6, align 4        ; [#uses=2 type=%struct.ap_fixed.6*]
  %31 = alloca %struct.ap_int_base.14, align 8    ; [#uses=2 type=%struct.ap_int_base.14*]
  %a21 = alloca i32, align 4                      ; [#uses=9 type=i32*]
  %32 = alloca %struct.ap_fixed.6, align 4        ; [#uses=2 type=%struct.ap_fixed.6*]
  %33 = alloca %struct.ap_int_base.14, align 8    ; [#uses=2 type=%struct.ap_int_base.14*]
  %a22 = alloca i32, align 4                      ; [#uses=9 type=i32*]
  %34 = alloca %struct.ap_fixed.6, align 4        ; [#uses=2 type=%struct.ap_fixed.6*]
  %35 = alloca %struct.ap_int_base.14, align 8    ; [#uses=2 type=%struct.ap_int_base.14*]
  %a23 = alloca i32, align 4                      ; [#uses=9 type=i32*]
  %36 = alloca %struct.ap_fixed.6, align 4        ; [#uses=2 type=%struct.ap_fixed.6*]
  %37 = alloca %struct.ap_int_base.14, align 8    ; [#uses=2 type=%struct.ap_int_base.14*]
  %a24 = alloca i32, align 4                      ; [#uses=9 type=i32*]
  %38 = alloca %struct.ap_fixed.6, align 4        ; [#uses=2 type=%struct.ap_fixed.6*]
  %39 = alloca %struct.ap_int_base.14, align 8    ; [#uses=2 type=%struct.ap_int_base.14*]
  %a25 = alloca i32, align 4                      ; [#uses=9 type=i32*]
  %40 = alloca %struct.ap_fixed.6, align 4        ; [#uses=2 type=%struct.ap_fixed.6*]
  %41 = alloca %struct.ap_int_base.14, align 8    ; [#uses=2 type=%struct.ap_int_base.14*]
  %a26 = alloca i32, align 4                      ; [#uses=9 type=i32*]
  %42 = alloca %struct.ap_fixed.6, align 4        ; [#uses=2 type=%struct.ap_fixed.6*]
  %43 = alloca %struct.ap_int_base.14, align 8    ; [#uses=2 type=%struct.ap_int_base.14*]
  %a27 = alloca i32, align 4                      ; [#uses=9 type=i32*]
  %44 = alloca %struct.ap_fixed.6, align 4        ; [#uses=2 type=%struct.ap_fixed.6*]
  %45 = alloca %struct.ap_int_base.14, align 8    ; [#uses=2 type=%struct.ap_int_base.14*]
  %a28 = alloca i32, align 4                      ; [#uses=9 type=i32*]
  %46 = alloca %struct.ap_fixed.6, align 4        ; [#uses=2 type=%struct.ap_fixed.6*]
  %47 = alloca %struct.ap_int_base.14, align 8    ; [#uses=2 type=%struct.ap_int_base.14*]
  %a29 = alloca i32, align 4                      ; [#uses=9 type=i32*]
  %48 = alloca %struct.ap_fixed.6, align 4        ; [#uses=2 type=%struct.ap_fixed.6*]
  %49 = alloca %struct.ap_int_base.14, align 8    ; [#uses=2 type=%struct.ap_int_base.14*]
  %a30 = alloca i32, align 4                      ; [#uses=9 type=i32*]
  %50 = alloca %struct.ap_fixed.6, align 4        ; [#uses=2 type=%struct.ap_fixed.6*]
  %51 = alloca %struct.ap_int_base.14, align 8    ; [#uses=2 type=%struct.ap_int_base.14*]
  %a31 = alloca i32, align 4                      ; [#uses=9 type=i32*]
  %52 = alloca %struct.ap_fixed.6, align 4        ; [#uses=2 type=%struct.ap_fixed.6*]
  %53 = alloca %struct.ap_int_base.14, align 8    ; [#uses=2 type=%struct.ap_int_base.14*]
  call void @llvm.dbg.declare(metadata !{%"class.hls::stream"* %i_data}, metadata !6817), !dbg !6818 ; [debug line = 9:42] [debug variable = i_data]
  call void @llvm.dbg.declare(metadata !{%"class.hls::stream"* %o_data}, metadata !6819), !dbg !6820 ; [debug line = 9:74] [debug variable = o_data]
  call void @llvm.dbg.declare(metadata !{%struct.ap_uint* %start}, metadata !6821), !dbg !6822 ; [debug line = 9:93] [debug variable = start]
  call void @llvm.dbg.declare(metadata !{%struct.ap_uint.2* %phaseClass}, metadata !6823), !dbg !6824 ; [debug line = 9:111] [debug variable = phaseClass]
  call void (...)* @_ssdm_op_SpecResource(%"class.hls::stream"* %o_data, i8* getelementptr inbounds ([1 x i8]* @.str, i32 0, i32 0), i8* getelementptr inbounds ([1 x i8]* @.str, i32 0, i32 0), i8* getelementptr inbounds ([1 x i8]* @.str, i32 0, i32 0), i32 1, i8* getelementptr inbounds ([1 x i8]* @.str, i32 0, i32 0), i8* getelementptr inbounds ([1 x i8]* @.str, i32 0, i32 0), i8* getelementptr inbounds ([1 x i8]* @.str, i32 0, i32 0), i8* getelementptr inbounds ([1 x i8]* @.str, i32 0, i32 0), i8* getelementptr inbounds ([1 x i8]* @.str, i32 0, i32 0)) nounwind, !dbg !6825 ; [debug line = 12:1]
  call void (...)* @_ssdm_op_SpecInterface(i32 0, i8* getelementptr inbounds ([13 x i8]* @.str1, i32 0, i32 0), i32 0, i32 0, i8* getelementptr inbounds ([1 x i8]* @.str, i32 0, i32 0), i32 0, i32 0, i8* getelementptr inbounds ([1 x i8]* @.str, i32 0, i32 0), i8* getelementptr inbounds ([1 x i8]* @.str, i32 0, i32 0), i8* getelementptr inbounds ([1 x i8]* @.str, i32 0, i32 0), i32 0, i32 0, i32 0, i32 0, i8* getelementptr inbounds ([1 x i8]* @.str, i32 0, i32 0), i8* getelementptr inbounds ([1 x i8]* @.str, i32 0, i32 0)) nounwind, !dbg !6827 ; [debug line = 14:1]
  call void (...)* @_ssdm_op_SpecInterface(%"class.hls::stream"* %o_data, i8* getelementptr inbounds ([5 x i8]* @.str2, i32 0, i32 0), i32 1, i32 1, i8* getelementptr inbounds ([5 x i8]* @.str3, i32 0, i32 0), i32 0, i32 0, i8* getelementptr inbounds ([1 x i8]* @.str, i32 0, i32 0), i8* getelementptr inbounds ([1 x i8]* @.str, i32 0, i32 0), i8* getelementptr inbounds ([1 x i8]* @.str, i32 0, i32 0), i32 0, i32 0, i32 0, i32 0, i8* getelementptr inbounds ([1 x i8]* @.str, i32 0, i32 0), i8* getelementptr inbounds ([1 x i8]* @.str, i32 0, i32 0)) nounwind, !dbg !6828 ; [debug line = 15:1]
  call void (...)* @_ssdm_op_SpecInterface(%"class.hls::stream"* %i_data, i8* getelementptr inbounds ([5 x i8]* @.str2, i32 0, i32 0), i32 1, i32 1, i8* getelementptr inbounds ([5 x i8]* @.str3, i32 0, i32 0), i32 0, i32 0, i8* getelementptr inbounds ([1 x i8]* @.str, i32 0, i32 0), i8* getelementptr inbounds ([1 x i8]* @.str, i32 0, i32 0), i8* getelementptr inbounds ([1 x i8]* @.str, i32 0, i32 0), i32 0, i32 0, i32 0, i32 0, i8* getelementptr inbounds ([1 x i8]* @.str, i32 0, i32 0), i8* getelementptr inbounds ([1 x i8]* @.str, i32 0, i32 0)) nounwind, !dbg !6829 ; [debug line = 16:1]
  call void (...)* @_ssdm_op_SpecPipeline(i32 1, i32 1, i32 1, i32 0, i8* getelementptr inbounds ([1 x i8]* @.str, i32 0, i32 0)) nounwind, !dbg !6830 ; [debug line = 18:1]
  %54 = load i8* @_ZGVZ10correlatorN3hls6streamI10rfnoc_axisEES2_7ap_uintILi1EES3_ILi4EEE11phaseClass0, align 1, !dbg !6831 ; [#uses=1 type=i8] [debug line = 20:39]
  %55 = icmp eq i8 %54, 0, !dbg !6831             ; [#uses=1 type=i1] [debug line = 20:39]
  br i1 %55, label %56, label %62, !dbg !6831     ; [debug line = 20:39]

; <label>:56                                      ; preds = %0
  br label %57, !dbg !6831                        ; [debug line = 20:39]

; <label>:57                                      ; preds = %57, %56
  %58 = phi %struct.ap_fixed* [ getelementptr inbounds ([16 x %struct.ap_fixed]* @_ZZ10correlatorN3hls6streamI10rfnoc_axisEES2_7ap_uintILi1EES3_ILi4EEE11phaseClass0, i32 0, i32 0), %56 ], [ %59, %57 ], !dbg !6831 ; [#uses=2 type=%struct.ap_fixed*] [debug line = 20:39]
  call void @_ZN8ap_fixedILi16ELi11EL9ap_q_mode5EL9ap_o_mode3ELi0EEC1Ev(%struct.ap_fixed* %58), !dbg !6831 ; [debug line = 20:39]
  %59 = getelementptr inbounds %struct.ap_fixed* %58, i64 1, !dbg !6831 ; [#uses=2 type=%struct.ap_fixed*] [debug line = 20:39]
  %60 = icmp eq %struct.ap_fixed* %59, getelementptr inbounds ([16 x %struct.ap_fixed]* @_ZZ10correlatorN3hls6streamI10rfnoc_axisEES2_7ap_uintILi1EES3_ILi4EEE11phaseClass0, i64 1, i64 0), !dbg !6831 ; [#uses=1 type=i1] [debug line = 20:39]
  br i1 %60, label %61, label %57, !dbg !6831     ; [debug line = 20:39]

; <label>:61                                      ; preds = %57
  store i8 1, i8* @_ZGVZ10correlatorN3hls6streamI10rfnoc_axisEES2_7ap_uintILi1EES3_ILi4EEE11phaseClass0, !dbg !6831 ; [debug line = 20:39]
  br label %62, !dbg !6831                        ; [debug line = 20:39]

; <label>:62                                      ; preds = %61, %0
  call void (...)* @_ssdm_SpecArrayPartition(%struct.ap_fixed* getelementptr inbounds ([16 x %struct.ap_fixed]* @_ZZ10correlatorN3hls6streamI10rfnoc_axisEES2_7ap_uintILi1EES3_ILi4EEE11phaseClass0, i32 0, i32 0), i32 1, i8* getelementptr inbounds ([9 x i8]* @.str4, i32 0, i32 0), i32 0, i8* getelementptr inbounds ([1 x i8]* @.str, i32 0, i32 0)) nounwind, !dbg !6832 ; [debug line = 21:1]
  %63 = load i8* @_ZGVZ10correlatorN3hls6streamI10rfnoc_axisEES2_7ap_uintILi1EES3_ILi4EEE9resPhase0, align 1, !dbg !6833 ; [#uses=1 type=i8] [debug line = 23:37]
  %64 = icmp eq i8 %63, 0, !dbg !6833             ; [#uses=1 type=i1] [debug line = 23:37]
  br i1 %64, label %65, label %71, !dbg !6833     ; [debug line = 23:37]

; <label>:65                                      ; preds = %62
  br label %66, !dbg !6833                        ; [debug line = 23:37]

; <label>:66                                      ; preds = %66, %65
  %67 = phi %struct.ap_fixed.6* [ getelementptr inbounds ([16 x %struct.ap_fixed.6]* @_ZZ10correlatorN3hls6streamI10rfnoc_axisEES2_7ap_uintILi1EES3_ILi4EEE9resPhase0, i32 0, i32 0), %65 ], [ %68, %66 ], !dbg !6833 ; [#uses=2 type=%struct.ap_fixed.6*] [debug line = 23:37]
  call void @_ZN8ap_fixedILi32ELi22EL9ap_q_mode5EL9ap_o_mode3ELi0EEC1Ev(%struct.ap_fixed.6* %67), !dbg !6833 ; [debug line = 23:37]
  %68 = getelementptr inbounds %struct.ap_fixed.6* %67, i64 1, !dbg !6833 ; [#uses=2 type=%struct.ap_fixed.6*] [debug line = 23:37]
  %69 = icmp eq %struct.ap_fixed.6* %68, getelementptr inbounds ([16 x %struct.ap_fixed.6]* @_ZZ10correlatorN3hls6streamI10rfnoc_axisEES2_7ap_uintILi1EES3_ILi4EEE9resPhase0, i64 1, i64 0), !dbg !6833 ; [#uses=1 type=i1] [debug line = 23:37]
  br i1 %69, label %70, label %66, !dbg !6833     ; [debug line = 23:37]

; <label>:70                                      ; preds = %66
  store i8 1, i8* @_ZGVZ10correlatorN3hls6streamI10rfnoc_axisEES2_7ap_uintILi1EES3_ILi4EEE9resPhase0, !dbg !6833 ; [debug line = 23:37]
  br label %71, !dbg !6833                        ; [debug line = 23:37]

; <label>:71                                      ; preds = %70, %62
  call void (...)* @_ssdm_SpecArrayPartition(%struct.ap_fixed.6* getelementptr inbounds ([16 x %struct.ap_fixed.6]* @_ZZ10correlatorN3hls6streamI10rfnoc_axisEES2_7ap_uintILi1EES3_ILi4EEE9resPhase0, i32 0, i32 0), i32 1, i8* getelementptr inbounds ([9 x i8]* @.str4, i32 0, i32 0), i32 0, i8* getelementptr inbounds ([1 x i8]* @.str, i32 0, i32 0)) nounwind, !dbg !6834 ; [debug line = 24:1]
  %72 = load i8* @_ZGVZ10correlatorN3hls6streamI10rfnoc_axisEES2_7ap_uintILi1EES3_ILi4EEE6Phase0, align 1, !dbg !6835 ; [#uses=1 type=i8] [debug line = 26:34]
  %73 = icmp eq i8 %72, 0, !dbg !6835             ; [#uses=1 type=i1] [debug line = 26:34]
  br i1 %73, label %74, label %80, !dbg !6835     ; [debug line = 26:34]

; <label>:74                                      ; preds = %71
  br label %75, !dbg !6835                        ; [debug line = 26:34]

; <label>:75                                      ; preds = %75, %74
  %76 = phi %struct.ap_fixed.6* [ getelementptr inbounds ([16 x %struct.ap_fixed.6]* @_ZZ10correlatorN3hls6streamI10rfnoc_axisEES2_7ap_uintILi1EES3_ILi4EEE6Phase0, i32 0, i32 0), %74 ], [ %77, %75 ], !dbg !6835 ; [#uses=2 type=%struct.ap_fixed.6*] [debug line = 26:34]
  call void @_ZN8ap_fixedILi32ELi22EL9ap_q_mode5EL9ap_o_mode3ELi0EEC1Ev(%struct.ap_fixed.6* %76), !dbg !6835 ; [debug line = 26:34]
  %77 = getelementptr inbounds %struct.ap_fixed.6* %76, i64 1, !dbg !6835 ; [#uses=2 type=%struct.ap_fixed.6*] [debug line = 26:34]
  %78 = icmp eq %struct.ap_fixed.6* %77, getelementptr inbounds ([16 x %struct.ap_fixed.6]* @_ZZ10correlatorN3hls6streamI10rfnoc_axisEES2_7ap_uintILi1EES3_ILi4EEE6Phase0, i64 1, i64 0), !dbg !6835 ; [#uses=1 type=i1] [debug line = 26:34]
  br i1 %78, label %79, label %75, !dbg !6835     ; [debug line = 26:34]

; <label>:79                                      ; preds = %75
  store i8 1, i8* @_ZGVZ10correlatorN3hls6streamI10rfnoc_axisEES2_7ap_uintILi1EES3_ILi4EEE6Phase0, !dbg !6835 ; [debug line = 26:34]
  br label %80, !dbg !6835                        ; [debug line = 26:34]

; <label>:80                                      ; preds = %79, %71
  call void (...)* @_ssdm_SpecArrayPartition(%struct.ap_fixed.6* getelementptr inbounds ([16 x %struct.ap_fixed.6]* @_ZZ10correlatorN3hls6streamI10rfnoc_axisEES2_7ap_uintILi1EES3_ILi4EEE6Phase0, i32 0, i32 0), i32 1, i8* getelementptr inbounds ([9 x i8]* @.str4, i32 0, i32 0), i32 0, i8* getelementptr inbounds ([1 x i8]* @.str, i32 0, i32 0)) nounwind, !dbg !6836 ; [debug line = 27:1]
  %81 = load i8* @_ZGVZ10correlatorN3hls6streamI10rfnoc_axisEES2_7ap_uintILi1EES3_ILi4EEE11phaseClass1, align 1, !dbg !6837 ; [#uses=1 type=i8] [debug line = 29:39]
  %82 = icmp eq i8 %81, 0, !dbg !6837             ; [#uses=1 type=i1] [debug line = 29:39]
  br i1 %82, label %83, label %89, !dbg !6837     ; [debug line = 29:39]

; <label>:83                                      ; preds = %80
  br label %84, !dbg !6837                        ; [debug line = 29:39]

; <label>:84                                      ; preds = %84, %83
  %85 = phi %struct.ap_fixed* [ getelementptr inbounds ([16 x %struct.ap_fixed]* @_ZZ10correlatorN3hls6streamI10rfnoc_axisEES2_7ap_uintILi1EES3_ILi4EEE11phaseClass1, i32 0, i32 0), %83 ], [ %86, %84 ], !dbg !6837 ; [#uses=2 type=%struct.ap_fixed*] [debug line = 29:39]
  call void @_ZN8ap_fixedILi16ELi11EL9ap_q_mode5EL9ap_o_mode3ELi0EEC1Ev(%struct.ap_fixed* %85), !dbg !6837 ; [debug line = 29:39]
  %86 = getelementptr inbounds %struct.ap_fixed* %85, i64 1, !dbg !6837 ; [#uses=2 type=%struct.ap_fixed*] [debug line = 29:39]
  %87 = icmp eq %struct.ap_fixed* %86, getelementptr inbounds ([16 x %struct.ap_fixed]* @_ZZ10correlatorN3hls6streamI10rfnoc_axisEES2_7ap_uintILi1EES3_ILi4EEE11phaseClass1, i64 1, i64 0), !dbg !6837 ; [#uses=1 type=i1] [debug line = 29:39]
  br i1 %87, label %88, label %84, !dbg !6837     ; [debug line = 29:39]

; <label>:88                                      ; preds = %84
  store i8 1, i8* @_ZGVZ10correlatorN3hls6streamI10rfnoc_axisEES2_7ap_uintILi1EES3_ILi4EEE11phaseClass1, !dbg !6837 ; [debug line = 29:39]
  br label %89, !dbg !6837                        ; [debug line = 29:39]

; <label>:89                                      ; preds = %88, %80
  call void (...)* @_ssdm_SpecArrayPartition(%struct.ap_fixed* getelementptr inbounds ([16 x %struct.ap_fixed]* @_ZZ10correlatorN3hls6streamI10rfnoc_axisEES2_7ap_uintILi1EES3_ILi4EEE11phaseClass1, i32 0, i32 0), i32 1, i8* getelementptr inbounds ([9 x i8]* @.str4, i32 0, i32 0), i32 0, i8* getelementptr inbounds ([1 x i8]* @.str, i32 0, i32 0)) nounwind, !dbg !6838 ; [debug line = 30:1]
  %90 = load i8* @_ZGVZ10correlatorN3hls6streamI10rfnoc_axisEES2_7ap_uintILi1EES3_ILi4EEE9resPhase1, align 1, !dbg !6839 ; [#uses=1 type=i8] [debug line = 32:37]
  %91 = icmp eq i8 %90, 0, !dbg !6839             ; [#uses=1 type=i1] [debug line = 32:37]
  br i1 %91, label %92, label %98, !dbg !6839     ; [debug line = 32:37]

; <label>:92                                      ; preds = %89
  br label %93, !dbg !6839                        ; [debug line = 32:37]

; <label>:93                                      ; preds = %93, %92
  %94 = phi %struct.ap_fixed.6* [ getelementptr inbounds ([16 x %struct.ap_fixed.6]* @_ZZ10correlatorN3hls6streamI10rfnoc_axisEES2_7ap_uintILi1EES3_ILi4EEE9resPhase1, i32 0, i32 0), %92 ], [ %95, %93 ], !dbg !6839 ; [#uses=2 type=%struct.ap_fixed.6*] [debug line = 32:37]
  call void @_ZN8ap_fixedILi32ELi22EL9ap_q_mode5EL9ap_o_mode3ELi0EEC1Ev(%struct.ap_fixed.6* %94), !dbg !6839 ; [debug line = 32:37]
  %95 = getelementptr inbounds %struct.ap_fixed.6* %94, i64 1, !dbg !6839 ; [#uses=2 type=%struct.ap_fixed.6*] [debug line = 32:37]
  %96 = icmp eq %struct.ap_fixed.6* %95, getelementptr inbounds ([16 x %struct.ap_fixed.6]* @_ZZ10correlatorN3hls6streamI10rfnoc_axisEES2_7ap_uintILi1EES3_ILi4EEE9resPhase1, i64 1, i64 0), !dbg !6839 ; [#uses=1 type=i1] [debug line = 32:37]
  br i1 %96, label %97, label %93, !dbg !6839     ; [debug line = 32:37]

; <label>:97                                      ; preds = %93
  store i8 1, i8* @_ZGVZ10correlatorN3hls6streamI10rfnoc_axisEES2_7ap_uintILi1EES3_ILi4EEE9resPhase1, !dbg !6839 ; [debug line = 32:37]
  br label %98, !dbg !6839                        ; [debug line = 32:37]

; <label>:98                                      ; preds = %97, %89
  call void (...)* @_ssdm_SpecArrayPartition(%struct.ap_fixed.6* getelementptr inbounds ([16 x %struct.ap_fixed.6]* @_ZZ10correlatorN3hls6streamI10rfnoc_axisEES2_7ap_uintILi1EES3_ILi4EEE9resPhase1, i32 0, i32 0), i32 1, i8* getelementptr inbounds ([9 x i8]* @.str4, i32 0, i32 0), i32 0, i8* getelementptr inbounds ([1 x i8]* @.str, i32 0, i32 0)) nounwind, !dbg !6840 ; [debug line = 33:1]
  %99 = load i8* @_ZGVZ10correlatorN3hls6streamI10rfnoc_axisEES2_7ap_uintILi1EES3_ILi4EEE6Phase1, align 1, !dbg !6841 ; [#uses=1 type=i8] [debug line = 35:34]
  %100 = icmp eq i8 %99, 0, !dbg !6841            ; [#uses=1 type=i1] [debug line = 35:34]
  br i1 %100, label %101, label %107, !dbg !6841  ; [debug line = 35:34]

; <label>:101                                     ; preds = %98
  br label %102, !dbg !6841                       ; [debug line = 35:34]

; <label>:102                                     ; preds = %102, %101
  %103 = phi %struct.ap_fixed.6* [ getelementptr inbounds ([16 x %struct.ap_fixed.6]* @_ZZ10correlatorN3hls6streamI10rfnoc_axisEES2_7ap_uintILi1EES3_ILi4EEE6Phase1, i32 0, i32 0), %101 ], [ %104, %102 ], !dbg !6841 ; [#uses=2 type=%struct.ap_fixed.6*] [debug line = 35:34]
  call void @_ZN8ap_fixedILi32ELi22EL9ap_q_mode5EL9ap_o_mode3ELi0EEC1Ev(%struct.ap_fixed.6* %103), !dbg !6841 ; [debug line = 35:34]
  %104 = getelementptr inbounds %struct.ap_fixed.6* %103, i64 1, !dbg !6841 ; [#uses=2 type=%struct.ap_fixed.6*] [debug line = 35:34]
  %105 = icmp eq %struct.ap_fixed.6* %104, getelementptr inbounds ([16 x %struct.ap_fixed.6]* @_ZZ10correlatorN3hls6streamI10rfnoc_axisEES2_7ap_uintILi1EES3_ILi4EEE6Phase1, i64 1, i64 0), !dbg !6841 ; [#uses=1 type=i1] [debug line = 35:34]
  br i1 %105, label %106, label %102, !dbg !6841  ; [debug line = 35:34]

; <label>:106                                     ; preds = %102
  store i8 1, i8* @_ZGVZ10correlatorN3hls6streamI10rfnoc_axisEES2_7ap_uintILi1EES3_ILi4EEE6Phase1, !dbg !6841 ; [debug line = 35:34]
  br label %107, !dbg !6841                       ; [debug line = 35:34]

; <label>:107                                     ; preds = %106, %98
  call void (...)* @_ssdm_SpecArrayPartition(%struct.ap_fixed.6* getelementptr inbounds ([16 x %struct.ap_fixed.6]* @_ZZ10correlatorN3hls6streamI10rfnoc_axisEES2_7ap_uintILi1EES3_ILi4EEE6Phase1, i32 0, i32 0), i32 1, i8* getelementptr inbounds ([9 x i8]* @.str4, i32 0, i32 0), i32 0, i8* getelementptr inbounds ([1 x i8]* @.str, i32 0, i32 0)) nounwind, !dbg !6842 ; [debug line = 36:1]
  %108 = load i8* @_ZGVZ10correlatorN3hls6streamI10rfnoc_axisEES2_7ap_uintILi1EES3_ILi4EEE11phaseClass2, align 1, !dbg !6843 ; [#uses=1 type=i8] [debug line = 38:39]
  %109 = icmp eq i8 %108, 0, !dbg !6843           ; [#uses=1 type=i1] [debug line = 38:39]
  br i1 %109, label %110, label %116, !dbg !6843  ; [debug line = 38:39]

; <label>:110                                     ; preds = %107
  br label %111, !dbg !6843                       ; [debug line = 38:39]

; <label>:111                                     ; preds = %111, %110
  %112 = phi %struct.ap_fixed* [ getelementptr inbounds ([16 x %struct.ap_fixed]* @_ZZ10correlatorN3hls6streamI10rfnoc_axisEES2_7ap_uintILi1EES3_ILi4EEE11phaseClass2, i32 0, i32 0), %110 ], [ %113, %111 ], !dbg !6843 ; [#uses=2 type=%struct.ap_fixed*] [debug line = 38:39]
  call void @_ZN8ap_fixedILi16ELi11EL9ap_q_mode5EL9ap_o_mode3ELi0EEC1Ev(%struct.ap_fixed* %112), !dbg !6843 ; [debug line = 38:39]
  %113 = getelementptr inbounds %struct.ap_fixed* %112, i64 1, !dbg !6843 ; [#uses=2 type=%struct.ap_fixed*] [debug line = 38:39]
  %114 = icmp eq %struct.ap_fixed* %113, getelementptr inbounds ([16 x %struct.ap_fixed]* @_ZZ10correlatorN3hls6streamI10rfnoc_axisEES2_7ap_uintILi1EES3_ILi4EEE11phaseClass2, i64 1, i64 0), !dbg !6843 ; [#uses=1 type=i1] [debug line = 38:39]
  br i1 %114, label %115, label %111, !dbg !6843  ; [debug line = 38:39]

; <label>:115                                     ; preds = %111
  store i8 1, i8* @_ZGVZ10correlatorN3hls6streamI10rfnoc_axisEES2_7ap_uintILi1EES3_ILi4EEE11phaseClass2, !dbg !6843 ; [debug line = 38:39]
  br label %116, !dbg !6843                       ; [debug line = 38:39]

; <label>:116                                     ; preds = %115, %107
  call void (...)* @_ssdm_SpecArrayPartition(%struct.ap_fixed* getelementptr inbounds ([16 x %struct.ap_fixed]* @_ZZ10correlatorN3hls6streamI10rfnoc_axisEES2_7ap_uintILi1EES3_ILi4EEE11phaseClass2, i32 0, i32 0), i32 1, i8* getelementptr inbounds ([9 x i8]* @.str4, i32 0, i32 0), i32 0, i8* getelementptr inbounds ([1 x i8]* @.str, i32 0, i32 0)) nounwind, !dbg !6844 ; [debug line = 39:1]
  %117 = load i8* @_ZGVZ10correlatorN3hls6streamI10rfnoc_axisEES2_7ap_uintILi1EES3_ILi4EEE9resPhase2, align 1, !dbg !6845 ; [#uses=1 type=i8] [debug line = 41:37]
  %118 = icmp eq i8 %117, 0, !dbg !6845           ; [#uses=1 type=i1] [debug line = 41:37]
  br i1 %118, label %119, label %125, !dbg !6845  ; [debug line = 41:37]

; <label>:119                                     ; preds = %116
  br label %120, !dbg !6845                       ; [debug line = 41:37]

; <label>:120                                     ; preds = %120, %119
  %121 = phi %struct.ap_fixed.6* [ getelementptr inbounds ([16 x %struct.ap_fixed.6]* @_ZZ10correlatorN3hls6streamI10rfnoc_axisEES2_7ap_uintILi1EES3_ILi4EEE9resPhase2, i32 0, i32 0), %119 ], [ %122, %120 ], !dbg !6845 ; [#uses=2 type=%struct.ap_fixed.6*] [debug line = 41:37]
  call void @_ZN8ap_fixedILi32ELi22EL9ap_q_mode5EL9ap_o_mode3ELi0EEC1Ev(%struct.ap_fixed.6* %121), !dbg !6845 ; [debug line = 41:37]
  %122 = getelementptr inbounds %struct.ap_fixed.6* %121, i64 1, !dbg !6845 ; [#uses=2 type=%struct.ap_fixed.6*] [debug line = 41:37]
  %123 = icmp eq %struct.ap_fixed.6* %122, getelementptr inbounds ([16 x %struct.ap_fixed.6]* @_ZZ10correlatorN3hls6streamI10rfnoc_axisEES2_7ap_uintILi1EES3_ILi4EEE9resPhase2, i64 1, i64 0), !dbg !6845 ; [#uses=1 type=i1] [debug line = 41:37]
  br i1 %123, label %124, label %120, !dbg !6845  ; [debug line = 41:37]

; <label>:124                                     ; preds = %120
  store i8 1, i8* @_ZGVZ10correlatorN3hls6streamI10rfnoc_axisEES2_7ap_uintILi1EES3_ILi4EEE9resPhase2, !dbg !6845 ; [debug line = 41:37]
  br label %125, !dbg !6845                       ; [debug line = 41:37]

; <label>:125                                     ; preds = %124, %116
  call void (...)* @_ssdm_SpecArrayPartition(%struct.ap_fixed.6* getelementptr inbounds ([16 x %struct.ap_fixed.6]* @_ZZ10correlatorN3hls6streamI10rfnoc_axisEES2_7ap_uintILi1EES3_ILi4EEE9resPhase2, i32 0, i32 0), i32 1, i8* getelementptr inbounds ([9 x i8]* @.str4, i32 0, i32 0), i32 0, i8* getelementptr inbounds ([1 x i8]* @.str, i32 0, i32 0)) nounwind, !dbg !6846 ; [debug line = 42:1]
  %126 = load i8* @_ZGVZ10correlatorN3hls6streamI10rfnoc_axisEES2_7ap_uintILi1EES3_ILi4EEE6Phase2, align 1, !dbg !6847 ; [#uses=1 type=i8] [debug line = 44:34]
  %127 = icmp eq i8 %126, 0, !dbg !6847           ; [#uses=1 type=i1] [debug line = 44:34]
  br i1 %127, label %128, label %134, !dbg !6847  ; [debug line = 44:34]

; <label>:128                                     ; preds = %125
  br label %129, !dbg !6847                       ; [debug line = 44:34]

; <label>:129                                     ; preds = %129, %128
  %130 = phi %struct.ap_fixed.6* [ getelementptr inbounds ([16 x %struct.ap_fixed.6]* @_ZZ10correlatorN3hls6streamI10rfnoc_axisEES2_7ap_uintILi1EES3_ILi4EEE6Phase2, i32 0, i32 0), %128 ], [ %131, %129 ], !dbg !6847 ; [#uses=2 type=%struct.ap_fixed.6*] [debug line = 44:34]
  call void @_ZN8ap_fixedILi32ELi22EL9ap_q_mode5EL9ap_o_mode3ELi0EEC1Ev(%struct.ap_fixed.6* %130), !dbg !6847 ; [debug line = 44:34]
  %131 = getelementptr inbounds %struct.ap_fixed.6* %130, i64 1, !dbg !6847 ; [#uses=2 type=%struct.ap_fixed.6*] [debug line = 44:34]
  %132 = icmp eq %struct.ap_fixed.6* %131, getelementptr inbounds ([16 x %struct.ap_fixed.6]* @_ZZ10correlatorN3hls6streamI10rfnoc_axisEES2_7ap_uintILi1EES3_ILi4EEE6Phase2, i64 1, i64 0), !dbg !6847 ; [#uses=1 type=i1] [debug line = 44:34]
  br i1 %132, label %133, label %129, !dbg !6847  ; [debug line = 44:34]

; <label>:133                                     ; preds = %129
  store i8 1, i8* @_ZGVZ10correlatorN3hls6streamI10rfnoc_axisEES2_7ap_uintILi1EES3_ILi4EEE6Phase2, !dbg !6847 ; [debug line = 44:34]
  br label %134, !dbg !6847                       ; [debug line = 44:34]

; <label>:134                                     ; preds = %133, %125
  call void (...)* @_ssdm_SpecArrayPartition(%struct.ap_fixed.6* getelementptr inbounds ([16 x %struct.ap_fixed.6]* @_ZZ10correlatorN3hls6streamI10rfnoc_axisEES2_7ap_uintILi1EES3_ILi4EEE6Phase2, i32 0, i32 0), i32 1, i8* getelementptr inbounds ([9 x i8]* @.str4, i32 0, i32 0), i32 0, i8* getelementptr inbounds ([1 x i8]* @.str, i32 0, i32 0)) nounwind, !dbg !6848 ; [debug line = 45:1]
  %135 = load i8* @_ZGVZ10correlatorN3hls6streamI10rfnoc_axisEES2_7ap_uintILi1EES3_ILi4EEE11phaseClass3, align 1, !dbg !6849 ; [#uses=1 type=i8] [debug line = 47:39]
  %136 = icmp eq i8 %135, 0, !dbg !6849           ; [#uses=1 type=i1] [debug line = 47:39]
  br i1 %136, label %137, label %143, !dbg !6849  ; [debug line = 47:39]

; <label>:137                                     ; preds = %134
  br label %138, !dbg !6849                       ; [debug line = 47:39]

; <label>:138                                     ; preds = %138, %137
  %139 = phi %struct.ap_fixed* [ getelementptr inbounds ([16 x %struct.ap_fixed]* @_ZZ10correlatorN3hls6streamI10rfnoc_axisEES2_7ap_uintILi1EES3_ILi4EEE11phaseClass3, i32 0, i32 0), %137 ], [ %140, %138 ], !dbg !6849 ; [#uses=2 type=%struct.ap_fixed*] [debug line = 47:39]
  call void @_ZN8ap_fixedILi16ELi11EL9ap_q_mode5EL9ap_o_mode3ELi0EEC1Ev(%struct.ap_fixed* %139), !dbg !6849 ; [debug line = 47:39]
  %140 = getelementptr inbounds %struct.ap_fixed* %139, i64 1, !dbg !6849 ; [#uses=2 type=%struct.ap_fixed*] [debug line = 47:39]
  %141 = icmp eq %struct.ap_fixed* %140, getelementptr inbounds ([16 x %struct.ap_fixed]* @_ZZ10correlatorN3hls6streamI10rfnoc_axisEES2_7ap_uintILi1EES3_ILi4EEE11phaseClass3, i64 1, i64 0), !dbg !6849 ; [#uses=1 type=i1] [debug line = 47:39]
  br i1 %141, label %142, label %138, !dbg !6849  ; [debug line = 47:39]

; <label>:142                                     ; preds = %138
  store i8 1, i8* @_ZGVZ10correlatorN3hls6streamI10rfnoc_axisEES2_7ap_uintILi1EES3_ILi4EEE11phaseClass3, !dbg !6849 ; [debug line = 47:39]
  br label %143, !dbg !6849                       ; [debug line = 47:39]

; <label>:143                                     ; preds = %142, %134
  call void (...)* @_ssdm_SpecArrayPartition(%struct.ap_fixed* getelementptr inbounds ([16 x %struct.ap_fixed]* @_ZZ10correlatorN3hls6streamI10rfnoc_axisEES2_7ap_uintILi1EES3_ILi4EEE11phaseClass3, i32 0, i32 0), i32 1, i8* getelementptr inbounds ([9 x i8]* @.str4, i32 0, i32 0), i32 0, i8* getelementptr inbounds ([1 x i8]* @.str, i32 0, i32 0)) nounwind, !dbg !6850 ; [debug line = 48:1]
  %144 = load i8* @_ZGVZ10correlatorN3hls6streamI10rfnoc_axisEES2_7ap_uintILi1EES3_ILi4EEE9resPhase3, align 1, !dbg !6851 ; [#uses=1 type=i8] [debug line = 50:37]
  %145 = icmp eq i8 %144, 0, !dbg !6851           ; [#uses=1 type=i1] [debug line = 50:37]
  br i1 %145, label %146, label %152, !dbg !6851  ; [debug line = 50:37]

; <label>:146                                     ; preds = %143
  br label %147, !dbg !6851                       ; [debug line = 50:37]

; <label>:147                                     ; preds = %147, %146
  %148 = phi %struct.ap_fixed.6* [ getelementptr inbounds ([16 x %struct.ap_fixed.6]* @_ZZ10correlatorN3hls6streamI10rfnoc_axisEES2_7ap_uintILi1EES3_ILi4EEE9resPhase3, i32 0, i32 0), %146 ], [ %149, %147 ], !dbg !6851 ; [#uses=2 type=%struct.ap_fixed.6*] [debug line = 50:37]
  call void @_ZN8ap_fixedILi32ELi22EL9ap_q_mode5EL9ap_o_mode3ELi0EEC1Ev(%struct.ap_fixed.6* %148), !dbg !6851 ; [debug line = 50:37]
  %149 = getelementptr inbounds %struct.ap_fixed.6* %148, i64 1, !dbg !6851 ; [#uses=2 type=%struct.ap_fixed.6*] [debug line = 50:37]
  %150 = icmp eq %struct.ap_fixed.6* %149, getelementptr inbounds ([16 x %struct.ap_fixed.6]* @_ZZ10correlatorN3hls6streamI10rfnoc_axisEES2_7ap_uintILi1EES3_ILi4EEE9resPhase3, i64 1, i64 0), !dbg !6851 ; [#uses=1 type=i1] [debug line = 50:37]
  br i1 %150, label %151, label %147, !dbg !6851  ; [debug line = 50:37]

; <label>:151                                     ; preds = %147
  store i8 1, i8* @_ZGVZ10correlatorN3hls6streamI10rfnoc_axisEES2_7ap_uintILi1EES3_ILi4EEE9resPhase3, !dbg !6851 ; [debug line = 50:37]
  br label %152, !dbg !6851                       ; [debug line = 50:37]

; <label>:152                                     ; preds = %151, %143
  call void (...)* @_ssdm_SpecArrayPartition(%struct.ap_fixed.6* getelementptr inbounds ([16 x %struct.ap_fixed.6]* @_ZZ10correlatorN3hls6streamI10rfnoc_axisEES2_7ap_uintILi1EES3_ILi4EEE9resPhase3, i32 0, i32 0), i32 1, i8* getelementptr inbounds ([9 x i8]* @.str4, i32 0, i32 0), i32 0, i8* getelementptr inbounds ([1 x i8]* @.str, i32 0, i32 0)) nounwind, !dbg !6852 ; [debug line = 51:1]
  %153 = load i8* @_ZGVZ10correlatorN3hls6streamI10rfnoc_axisEES2_7ap_uintILi1EES3_ILi4EEE6Phase3, align 1, !dbg !6853 ; [#uses=1 type=i8] [debug line = 53:34]
  %154 = icmp eq i8 %153, 0, !dbg !6853           ; [#uses=1 type=i1] [debug line = 53:34]
  br i1 %154, label %155, label %161, !dbg !6853  ; [debug line = 53:34]

; <label>:155                                     ; preds = %152
  br label %156, !dbg !6853                       ; [debug line = 53:34]

; <label>:156                                     ; preds = %156, %155
  %157 = phi %struct.ap_fixed.6* [ getelementptr inbounds ([16 x %struct.ap_fixed.6]* @_ZZ10correlatorN3hls6streamI10rfnoc_axisEES2_7ap_uintILi1EES3_ILi4EEE6Phase3, i32 0, i32 0), %155 ], [ %158, %156 ], !dbg !6853 ; [#uses=2 type=%struct.ap_fixed.6*] [debug line = 53:34]
  call void @_ZN8ap_fixedILi32ELi22EL9ap_q_mode5EL9ap_o_mode3ELi0EEC1Ev(%struct.ap_fixed.6* %157), !dbg !6853 ; [debug line = 53:34]
  %158 = getelementptr inbounds %struct.ap_fixed.6* %157, i64 1, !dbg !6853 ; [#uses=2 type=%struct.ap_fixed.6*] [debug line = 53:34]
  %159 = icmp eq %struct.ap_fixed.6* %158, getelementptr inbounds ([16 x %struct.ap_fixed.6]* @_ZZ10correlatorN3hls6streamI10rfnoc_axisEES2_7ap_uintILi1EES3_ILi4EEE6Phase3, i64 1, i64 0), !dbg !6853 ; [#uses=1 type=i1] [debug line = 53:34]
  br i1 %159, label %160, label %156, !dbg !6853  ; [debug line = 53:34]

; <label>:160                                     ; preds = %156
  store i8 1, i8* @_ZGVZ10correlatorN3hls6streamI10rfnoc_axisEES2_7ap_uintILi1EES3_ILi4EEE6Phase3, !dbg !6853 ; [debug line = 53:34]
  br label %161, !dbg !6853                       ; [debug line = 53:34]

; <label>:161                                     ; preds = %160, %152
  call void (...)* @_ssdm_SpecArrayPartition(%struct.ap_fixed.6* getelementptr inbounds ([16 x %struct.ap_fixed.6]* @_ZZ10correlatorN3hls6streamI10rfnoc_axisEES2_7ap_uintILi1EES3_ILi4EEE6Phase3, i32 0, i32 0), i32 1, i8* getelementptr inbounds ([9 x i8]* @.str4, i32 0, i32 0), i32 0, i8* getelementptr inbounds ([1 x i8]* @.str, i32 0, i32 0)) nounwind, !dbg !6854 ; [debug line = 54:1]
  %162 = load i8* @_ZGVZ10correlatorN3hls6streamI10rfnoc_axisEES2_7ap_uintILi1EES3_ILi4EEE11phaseClass4, align 1, !dbg !6855 ; [#uses=1 type=i8] [debug line = 56:39]
  %163 = icmp eq i8 %162, 0, !dbg !6855           ; [#uses=1 type=i1] [debug line = 56:39]
  br i1 %163, label %164, label %170, !dbg !6855  ; [debug line = 56:39]

; <label>:164                                     ; preds = %161
  br label %165, !dbg !6855                       ; [debug line = 56:39]

; <label>:165                                     ; preds = %165, %164
  %166 = phi %struct.ap_fixed* [ getelementptr inbounds ([16 x %struct.ap_fixed]* @_ZZ10correlatorN3hls6streamI10rfnoc_axisEES2_7ap_uintILi1EES3_ILi4EEE11phaseClass4, i32 0, i32 0), %164 ], [ %167, %165 ], !dbg !6855 ; [#uses=2 type=%struct.ap_fixed*] [debug line = 56:39]
  call void @_ZN8ap_fixedILi16ELi11EL9ap_q_mode5EL9ap_o_mode3ELi0EEC1Ev(%struct.ap_fixed* %166), !dbg !6855 ; [debug line = 56:39]
  %167 = getelementptr inbounds %struct.ap_fixed* %166, i64 1, !dbg !6855 ; [#uses=2 type=%struct.ap_fixed*] [debug line = 56:39]
  %168 = icmp eq %struct.ap_fixed* %167, getelementptr inbounds ([16 x %struct.ap_fixed]* @_ZZ10correlatorN3hls6streamI10rfnoc_axisEES2_7ap_uintILi1EES3_ILi4EEE11phaseClass4, i64 1, i64 0), !dbg !6855 ; [#uses=1 type=i1] [debug line = 56:39]
  br i1 %168, label %169, label %165, !dbg !6855  ; [debug line = 56:39]

; <label>:169                                     ; preds = %165
  store i8 1, i8* @_ZGVZ10correlatorN3hls6streamI10rfnoc_axisEES2_7ap_uintILi1EES3_ILi4EEE11phaseClass4, !dbg !6855 ; [debug line = 56:39]
  br label %170, !dbg !6855                       ; [debug line = 56:39]

; <label>:170                                     ; preds = %169, %161
  call void (...)* @_ssdm_SpecArrayPartition(%struct.ap_fixed* getelementptr inbounds ([16 x %struct.ap_fixed]* @_ZZ10correlatorN3hls6streamI10rfnoc_axisEES2_7ap_uintILi1EES3_ILi4EEE11phaseClass4, i32 0, i32 0), i32 1, i8* getelementptr inbounds ([9 x i8]* @.str4, i32 0, i32 0), i32 0, i8* getelementptr inbounds ([1 x i8]* @.str, i32 0, i32 0)) nounwind, !dbg !6856 ; [debug line = 57:1]
  %171 = load i8* @_ZGVZ10correlatorN3hls6streamI10rfnoc_axisEES2_7ap_uintILi1EES3_ILi4EEE9resPhase4, align 1, !dbg !6857 ; [#uses=1 type=i8] [debug line = 59:37]
  %172 = icmp eq i8 %171, 0, !dbg !6857           ; [#uses=1 type=i1] [debug line = 59:37]
  br i1 %172, label %173, label %179, !dbg !6857  ; [debug line = 59:37]

; <label>:173                                     ; preds = %170
  br label %174, !dbg !6857                       ; [debug line = 59:37]

; <label>:174                                     ; preds = %174, %173
  %175 = phi %struct.ap_fixed.6* [ getelementptr inbounds ([16 x %struct.ap_fixed.6]* @_ZZ10correlatorN3hls6streamI10rfnoc_axisEES2_7ap_uintILi1EES3_ILi4EEE9resPhase4, i32 0, i32 0), %173 ], [ %176, %174 ], !dbg !6857 ; [#uses=2 type=%struct.ap_fixed.6*] [debug line = 59:37]
  call void @_ZN8ap_fixedILi32ELi22EL9ap_q_mode5EL9ap_o_mode3ELi0EEC1Ev(%struct.ap_fixed.6* %175), !dbg !6857 ; [debug line = 59:37]
  %176 = getelementptr inbounds %struct.ap_fixed.6* %175, i64 1, !dbg !6857 ; [#uses=2 type=%struct.ap_fixed.6*] [debug line = 59:37]
  %177 = icmp eq %struct.ap_fixed.6* %176, getelementptr inbounds ([16 x %struct.ap_fixed.6]* @_ZZ10correlatorN3hls6streamI10rfnoc_axisEES2_7ap_uintILi1EES3_ILi4EEE9resPhase4, i64 1, i64 0), !dbg !6857 ; [#uses=1 type=i1] [debug line = 59:37]
  br i1 %177, label %178, label %174, !dbg !6857  ; [debug line = 59:37]

; <label>:178                                     ; preds = %174
  store i8 1, i8* @_ZGVZ10correlatorN3hls6streamI10rfnoc_axisEES2_7ap_uintILi1EES3_ILi4EEE9resPhase4, !dbg !6857 ; [debug line = 59:37]
  br label %179, !dbg !6857                       ; [debug line = 59:37]

; <label>:179                                     ; preds = %178, %170
  call void (...)* @_ssdm_SpecArrayPartition(%struct.ap_fixed.6* getelementptr inbounds ([16 x %struct.ap_fixed.6]* @_ZZ10correlatorN3hls6streamI10rfnoc_axisEES2_7ap_uintILi1EES3_ILi4EEE9resPhase4, i32 0, i32 0), i32 1, i8* getelementptr inbounds ([9 x i8]* @.str4, i32 0, i32 0), i32 0, i8* getelementptr inbounds ([1 x i8]* @.str, i32 0, i32 0)) nounwind, !dbg !6858 ; [debug line = 60:1]
  %180 = load i8* @_ZGVZ10correlatorN3hls6streamI10rfnoc_axisEES2_7ap_uintILi1EES3_ILi4EEE6Phase4, align 1, !dbg !6859 ; [#uses=1 type=i8] [debug line = 62:34]
  %181 = icmp eq i8 %180, 0, !dbg !6859           ; [#uses=1 type=i1] [debug line = 62:34]
  br i1 %181, label %182, label %188, !dbg !6859  ; [debug line = 62:34]

; <label>:182                                     ; preds = %179
  br label %183, !dbg !6859                       ; [debug line = 62:34]

; <label>:183                                     ; preds = %183, %182
  %184 = phi %struct.ap_fixed.6* [ getelementptr inbounds ([16 x %struct.ap_fixed.6]* @_ZZ10correlatorN3hls6streamI10rfnoc_axisEES2_7ap_uintILi1EES3_ILi4EEE6Phase4, i32 0, i32 0), %182 ], [ %185, %183 ], !dbg !6859 ; [#uses=2 type=%struct.ap_fixed.6*] [debug line = 62:34]
  call void @_ZN8ap_fixedILi32ELi22EL9ap_q_mode5EL9ap_o_mode3ELi0EEC1Ev(%struct.ap_fixed.6* %184), !dbg !6859 ; [debug line = 62:34]
  %185 = getelementptr inbounds %struct.ap_fixed.6* %184, i64 1, !dbg !6859 ; [#uses=2 type=%struct.ap_fixed.6*] [debug line = 62:34]
  %186 = icmp eq %struct.ap_fixed.6* %185, getelementptr inbounds ([16 x %struct.ap_fixed.6]* @_ZZ10correlatorN3hls6streamI10rfnoc_axisEES2_7ap_uintILi1EES3_ILi4EEE6Phase4, i64 1, i64 0), !dbg !6859 ; [#uses=1 type=i1] [debug line = 62:34]
  br i1 %186, label %187, label %183, !dbg !6859  ; [debug line = 62:34]

; <label>:187                                     ; preds = %183
  store i8 1, i8* @_ZGVZ10correlatorN3hls6streamI10rfnoc_axisEES2_7ap_uintILi1EES3_ILi4EEE6Phase4, !dbg !6859 ; [debug line = 62:34]
  br label %188, !dbg !6859                       ; [debug line = 62:34]

; <label>:188                                     ; preds = %187, %179
  call void (...)* @_ssdm_SpecArrayPartition(%struct.ap_fixed.6* getelementptr inbounds ([16 x %struct.ap_fixed.6]* @_ZZ10correlatorN3hls6streamI10rfnoc_axisEES2_7ap_uintILi1EES3_ILi4EEE6Phase4, i32 0, i32 0), i32 1, i8* getelementptr inbounds ([9 x i8]* @.str4, i32 0, i32 0), i32 0, i8* getelementptr inbounds ([1 x i8]* @.str, i32 0, i32 0)) nounwind, !dbg !6860 ; [debug line = 63:1]
  %189 = load i8* @_ZGVZ10correlatorN3hls6streamI10rfnoc_axisEES2_7ap_uintILi1EES3_ILi4EEE11phaseClass5, align 1, !dbg !6861 ; [#uses=1 type=i8] [debug line = 65:39]
  %190 = icmp eq i8 %189, 0, !dbg !6861           ; [#uses=1 type=i1] [debug line = 65:39]
  br i1 %190, label %191, label %197, !dbg !6861  ; [debug line = 65:39]

; <label>:191                                     ; preds = %188
  br label %192, !dbg !6861                       ; [debug line = 65:39]

; <label>:192                                     ; preds = %192, %191
  %193 = phi %struct.ap_fixed* [ getelementptr inbounds ([16 x %struct.ap_fixed]* @_ZZ10correlatorN3hls6streamI10rfnoc_axisEES2_7ap_uintILi1EES3_ILi4EEE11phaseClass5, i32 0, i32 0), %191 ], [ %194, %192 ], !dbg !6861 ; [#uses=2 type=%struct.ap_fixed*] [debug line = 65:39]
  call void @_ZN8ap_fixedILi16ELi11EL9ap_q_mode5EL9ap_o_mode3ELi0EEC1Ev(%struct.ap_fixed* %193), !dbg !6861 ; [debug line = 65:39]
  %194 = getelementptr inbounds %struct.ap_fixed* %193, i64 1, !dbg !6861 ; [#uses=2 type=%struct.ap_fixed*] [debug line = 65:39]
  %195 = icmp eq %struct.ap_fixed* %194, getelementptr inbounds ([16 x %struct.ap_fixed]* @_ZZ10correlatorN3hls6streamI10rfnoc_axisEES2_7ap_uintILi1EES3_ILi4EEE11phaseClass5, i64 1, i64 0), !dbg !6861 ; [#uses=1 type=i1] [debug line = 65:39]
  br i1 %195, label %196, label %192, !dbg !6861  ; [debug line = 65:39]

; <label>:196                                     ; preds = %192
  store i8 1, i8* @_ZGVZ10correlatorN3hls6streamI10rfnoc_axisEES2_7ap_uintILi1EES3_ILi4EEE11phaseClass5, !dbg !6861 ; [debug line = 65:39]
  br label %197, !dbg !6861                       ; [debug line = 65:39]

; <label>:197                                     ; preds = %196, %188
  call void (...)* @_ssdm_SpecArrayPartition(%struct.ap_fixed* getelementptr inbounds ([16 x %struct.ap_fixed]* @_ZZ10correlatorN3hls6streamI10rfnoc_axisEES2_7ap_uintILi1EES3_ILi4EEE11phaseClass5, i32 0, i32 0), i32 1, i8* getelementptr inbounds ([9 x i8]* @.str4, i32 0, i32 0), i32 0, i8* getelementptr inbounds ([1 x i8]* @.str, i32 0, i32 0)) nounwind, !dbg !6862 ; [debug line = 66:1]
  %198 = load i8* @_ZGVZ10correlatorN3hls6streamI10rfnoc_axisEES2_7ap_uintILi1EES3_ILi4EEE9resPhase5, align 1, !dbg !6863 ; [#uses=1 type=i8] [debug line = 68:37]
  %199 = icmp eq i8 %198, 0, !dbg !6863           ; [#uses=1 type=i1] [debug line = 68:37]
  br i1 %199, label %200, label %206, !dbg !6863  ; [debug line = 68:37]

; <label>:200                                     ; preds = %197
  br label %201, !dbg !6863                       ; [debug line = 68:37]

; <label>:201                                     ; preds = %201, %200
  %202 = phi %struct.ap_fixed.6* [ getelementptr inbounds ([16 x %struct.ap_fixed.6]* @_ZZ10correlatorN3hls6streamI10rfnoc_axisEES2_7ap_uintILi1EES3_ILi4EEE9resPhase5, i32 0, i32 0), %200 ], [ %203, %201 ], !dbg !6863 ; [#uses=2 type=%struct.ap_fixed.6*] [debug line = 68:37]
  call void @_ZN8ap_fixedILi32ELi22EL9ap_q_mode5EL9ap_o_mode3ELi0EEC1Ev(%struct.ap_fixed.6* %202), !dbg !6863 ; [debug line = 68:37]
  %203 = getelementptr inbounds %struct.ap_fixed.6* %202, i64 1, !dbg !6863 ; [#uses=2 type=%struct.ap_fixed.6*] [debug line = 68:37]
  %204 = icmp eq %struct.ap_fixed.6* %203, getelementptr inbounds ([16 x %struct.ap_fixed.6]* @_ZZ10correlatorN3hls6streamI10rfnoc_axisEES2_7ap_uintILi1EES3_ILi4EEE9resPhase5, i64 1, i64 0), !dbg !6863 ; [#uses=1 type=i1] [debug line = 68:37]
  br i1 %204, label %205, label %201, !dbg !6863  ; [debug line = 68:37]

; <label>:205                                     ; preds = %201
  store i8 1, i8* @_ZGVZ10correlatorN3hls6streamI10rfnoc_axisEES2_7ap_uintILi1EES3_ILi4EEE9resPhase5, !dbg !6863 ; [debug line = 68:37]
  br label %206, !dbg !6863                       ; [debug line = 68:37]

; <label>:206                                     ; preds = %205, %197
  call void (...)* @_ssdm_SpecArrayPartition(%struct.ap_fixed.6* getelementptr inbounds ([16 x %struct.ap_fixed.6]* @_ZZ10correlatorN3hls6streamI10rfnoc_axisEES2_7ap_uintILi1EES3_ILi4EEE9resPhase5, i32 0, i32 0), i32 1, i8* getelementptr inbounds ([9 x i8]* @.str4, i32 0, i32 0), i32 0, i8* getelementptr inbounds ([1 x i8]* @.str, i32 0, i32 0)) nounwind, !dbg !6864 ; [debug line = 69:1]
  %207 = load i8* @_ZGVZ10correlatorN3hls6streamI10rfnoc_axisEES2_7ap_uintILi1EES3_ILi4EEE6Phase5, align 1, !dbg !6865 ; [#uses=1 type=i8] [debug line = 71:34]
  %208 = icmp eq i8 %207, 0, !dbg !6865           ; [#uses=1 type=i1] [debug line = 71:34]
  br i1 %208, label %209, label %215, !dbg !6865  ; [debug line = 71:34]

; <label>:209                                     ; preds = %206
  br label %210, !dbg !6865                       ; [debug line = 71:34]

; <label>:210                                     ; preds = %210, %209
  %211 = phi %struct.ap_fixed.6* [ getelementptr inbounds ([16 x %struct.ap_fixed.6]* @_ZZ10correlatorN3hls6streamI10rfnoc_axisEES2_7ap_uintILi1EES3_ILi4EEE6Phase5, i32 0, i32 0), %209 ], [ %212, %210 ], !dbg !6865 ; [#uses=2 type=%struct.ap_fixed.6*] [debug line = 71:34]
  call void @_ZN8ap_fixedILi32ELi22EL9ap_q_mode5EL9ap_o_mode3ELi0EEC1Ev(%struct.ap_fixed.6* %211), !dbg !6865 ; [debug line = 71:34]
  %212 = getelementptr inbounds %struct.ap_fixed.6* %211, i64 1, !dbg !6865 ; [#uses=2 type=%struct.ap_fixed.6*] [debug line = 71:34]
  %213 = icmp eq %struct.ap_fixed.6* %212, getelementptr inbounds ([16 x %struct.ap_fixed.6]* @_ZZ10correlatorN3hls6streamI10rfnoc_axisEES2_7ap_uintILi1EES3_ILi4EEE6Phase5, i64 1, i64 0), !dbg !6865 ; [#uses=1 type=i1] [debug line = 71:34]
  br i1 %213, label %214, label %210, !dbg !6865  ; [debug line = 71:34]

; <label>:214                                     ; preds = %210
  store i8 1, i8* @_ZGVZ10correlatorN3hls6streamI10rfnoc_axisEES2_7ap_uintILi1EES3_ILi4EEE6Phase5, !dbg !6865 ; [debug line = 71:34]
  br label %215, !dbg !6865                       ; [debug line = 71:34]

; <label>:215                                     ; preds = %214, %206
  call void (...)* @_ssdm_SpecArrayPartition(%struct.ap_fixed.6* getelementptr inbounds ([16 x %struct.ap_fixed.6]* @_ZZ10correlatorN3hls6streamI10rfnoc_axisEES2_7ap_uintILi1EES3_ILi4EEE6Phase5, i32 0, i32 0), i32 1, i8* getelementptr inbounds ([9 x i8]* @.str4, i32 0, i32 0), i32 0, i8* getelementptr inbounds ([1 x i8]* @.str, i32 0, i32 0)) nounwind, !dbg !6866 ; [debug line = 72:1]
  %216 = load i8* @_ZGVZ10correlatorN3hls6streamI10rfnoc_axisEES2_7ap_uintILi1EES3_ILi4EEE11phaseClass6, align 1, !dbg !6867 ; [#uses=1 type=i8] [debug line = 74:39]
  %217 = icmp eq i8 %216, 0, !dbg !6867           ; [#uses=1 type=i1] [debug line = 74:39]
  br i1 %217, label %218, label %224, !dbg !6867  ; [debug line = 74:39]

; <label>:218                                     ; preds = %215
  br label %219, !dbg !6867                       ; [debug line = 74:39]

; <label>:219                                     ; preds = %219, %218
  %220 = phi %struct.ap_fixed* [ getelementptr inbounds ([16 x %struct.ap_fixed]* @_ZZ10correlatorN3hls6streamI10rfnoc_axisEES2_7ap_uintILi1EES3_ILi4EEE11phaseClass6, i32 0, i32 0), %218 ], [ %221, %219 ], !dbg !6867 ; [#uses=2 type=%struct.ap_fixed*] [debug line = 74:39]
  call void @_ZN8ap_fixedILi16ELi11EL9ap_q_mode5EL9ap_o_mode3ELi0EEC1Ev(%struct.ap_fixed* %220), !dbg !6867 ; [debug line = 74:39]
  %221 = getelementptr inbounds %struct.ap_fixed* %220, i64 1, !dbg !6867 ; [#uses=2 type=%struct.ap_fixed*] [debug line = 74:39]
  %222 = icmp eq %struct.ap_fixed* %221, getelementptr inbounds ([16 x %struct.ap_fixed]* @_ZZ10correlatorN3hls6streamI10rfnoc_axisEES2_7ap_uintILi1EES3_ILi4EEE11phaseClass6, i64 1, i64 0), !dbg !6867 ; [#uses=1 type=i1] [debug line = 74:39]
  br i1 %222, label %223, label %219, !dbg !6867  ; [debug line = 74:39]

; <label>:223                                     ; preds = %219
  store i8 1, i8* @_ZGVZ10correlatorN3hls6streamI10rfnoc_axisEES2_7ap_uintILi1EES3_ILi4EEE11phaseClass6, !dbg !6867 ; [debug line = 74:39]
  br label %224, !dbg !6867                       ; [debug line = 74:39]

; <label>:224                                     ; preds = %223, %215
  call void (...)* @_ssdm_SpecArrayPartition(%struct.ap_fixed* getelementptr inbounds ([16 x %struct.ap_fixed]* @_ZZ10correlatorN3hls6streamI10rfnoc_axisEES2_7ap_uintILi1EES3_ILi4EEE11phaseClass6, i32 0, i32 0), i32 1, i8* getelementptr inbounds ([9 x i8]* @.str4, i32 0, i32 0), i32 0, i8* getelementptr inbounds ([1 x i8]* @.str, i32 0, i32 0)) nounwind, !dbg !6868 ; [debug line = 75:1]
  %225 = load i8* @_ZGVZ10correlatorN3hls6streamI10rfnoc_axisEES2_7ap_uintILi1EES3_ILi4EEE9resPhase6, align 1, !dbg !6869 ; [#uses=1 type=i8] [debug line = 77:37]
  %226 = icmp eq i8 %225, 0, !dbg !6869           ; [#uses=1 type=i1] [debug line = 77:37]
  br i1 %226, label %227, label %233, !dbg !6869  ; [debug line = 77:37]

; <label>:227                                     ; preds = %224
  br label %228, !dbg !6869                       ; [debug line = 77:37]

; <label>:228                                     ; preds = %228, %227
  %229 = phi %struct.ap_fixed.6* [ getelementptr inbounds ([16 x %struct.ap_fixed.6]* @_ZZ10correlatorN3hls6streamI10rfnoc_axisEES2_7ap_uintILi1EES3_ILi4EEE9resPhase6, i32 0, i32 0), %227 ], [ %230, %228 ], !dbg !6869 ; [#uses=2 type=%struct.ap_fixed.6*] [debug line = 77:37]
  call void @_ZN8ap_fixedILi32ELi22EL9ap_q_mode5EL9ap_o_mode3ELi0EEC1Ev(%struct.ap_fixed.6* %229), !dbg !6869 ; [debug line = 77:37]
  %230 = getelementptr inbounds %struct.ap_fixed.6* %229, i64 1, !dbg !6869 ; [#uses=2 type=%struct.ap_fixed.6*] [debug line = 77:37]
  %231 = icmp eq %struct.ap_fixed.6* %230, getelementptr inbounds ([16 x %struct.ap_fixed.6]* @_ZZ10correlatorN3hls6streamI10rfnoc_axisEES2_7ap_uintILi1EES3_ILi4EEE9resPhase6, i64 1, i64 0), !dbg !6869 ; [#uses=1 type=i1] [debug line = 77:37]
  br i1 %231, label %232, label %228, !dbg !6869  ; [debug line = 77:37]

; <label>:232                                     ; preds = %228
  store i8 1, i8* @_ZGVZ10correlatorN3hls6streamI10rfnoc_axisEES2_7ap_uintILi1EES3_ILi4EEE9resPhase6, !dbg !6869 ; [debug line = 77:37]
  br label %233, !dbg !6869                       ; [debug line = 77:37]

; <label>:233                                     ; preds = %232, %224
  call void (...)* @_ssdm_SpecArrayPartition(%struct.ap_fixed.6* getelementptr inbounds ([16 x %struct.ap_fixed.6]* @_ZZ10correlatorN3hls6streamI10rfnoc_axisEES2_7ap_uintILi1EES3_ILi4EEE9resPhase6, i32 0, i32 0), i32 1, i8* getelementptr inbounds ([9 x i8]* @.str4, i32 0, i32 0), i32 0, i8* getelementptr inbounds ([1 x i8]* @.str, i32 0, i32 0)) nounwind, !dbg !6870 ; [debug line = 78:1]
  %234 = load i8* @_ZGVZ10correlatorN3hls6streamI10rfnoc_axisEES2_7ap_uintILi1EES3_ILi4EEE6Phase6, align 1, !dbg !6871 ; [#uses=1 type=i8] [debug line = 80:34]
  %235 = icmp eq i8 %234, 0, !dbg !6871           ; [#uses=1 type=i1] [debug line = 80:34]
  br i1 %235, label %236, label %242, !dbg !6871  ; [debug line = 80:34]

; <label>:236                                     ; preds = %233
  br label %237, !dbg !6871                       ; [debug line = 80:34]

; <label>:237                                     ; preds = %237, %236
  %238 = phi %struct.ap_fixed.6* [ getelementptr inbounds ([16 x %struct.ap_fixed.6]* @_ZZ10correlatorN3hls6streamI10rfnoc_axisEES2_7ap_uintILi1EES3_ILi4EEE6Phase6, i32 0, i32 0), %236 ], [ %239, %237 ], !dbg !6871 ; [#uses=2 type=%struct.ap_fixed.6*] [debug line = 80:34]
  call void @_ZN8ap_fixedILi32ELi22EL9ap_q_mode5EL9ap_o_mode3ELi0EEC1Ev(%struct.ap_fixed.6* %238), !dbg !6871 ; [debug line = 80:34]
  %239 = getelementptr inbounds %struct.ap_fixed.6* %238, i64 1, !dbg !6871 ; [#uses=2 type=%struct.ap_fixed.6*] [debug line = 80:34]
  %240 = icmp eq %struct.ap_fixed.6* %239, getelementptr inbounds ([16 x %struct.ap_fixed.6]* @_ZZ10correlatorN3hls6streamI10rfnoc_axisEES2_7ap_uintILi1EES3_ILi4EEE6Phase6, i64 1, i64 0), !dbg !6871 ; [#uses=1 type=i1] [debug line = 80:34]
  br i1 %240, label %241, label %237, !dbg !6871  ; [debug line = 80:34]

; <label>:241                                     ; preds = %237
  store i8 1, i8* @_ZGVZ10correlatorN3hls6streamI10rfnoc_axisEES2_7ap_uintILi1EES3_ILi4EEE6Phase6, !dbg !6871 ; [debug line = 80:34]
  br label %242, !dbg !6871                       ; [debug line = 80:34]

; <label>:242                                     ; preds = %241, %233
  call void (...)* @_ssdm_SpecArrayPartition(%struct.ap_fixed.6* getelementptr inbounds ([16 x %struct.ap_fixed.6]* @_ZZ10correlatorN3hls6streamI10rfnoc_axisEES2_7ap_uintILi1EES3_ILi4EEE6Phase6, i32 0, i32 0), i32 1, i8* getelementptr inbounds ([9 x i8]* @.str4, i32 0, i32 0), i32 0, i8* getelementptr inbounds ([1 x i8]* @.str, i32 0, i32 0)) nounwind, !dbg !6872 ; [debug line = 81:1]
  %243 = load i8* @_ZGVZ10correlatorN3hls6streamI10rfnoc_axisEES2_7ap_uintILi1EES3_ILi4EEE11phaseClass7, align 1, !dbg !6873 ; [#uses=1 type=i8] [debug line = 83:39]
  %244 = icmp eq i8 %243, 0, !dbg !6873           ; [#uses=1 type=i1] [debug line = 83:39]
  br i1 %244, label %245, label %251, !dbg !6873  ; [debug line = 83:39]

; <label>:245                                     ; preds = %242
  br label %246, !dbg !6873                       ; [debug line = 83:39]

; <label>:246                                     ; preds = %246, %245
  %247 = phi %struct.ap_fixed* [ getelementptr inbounds ([16 x %struct.ap_fixed]* @_ZZ10correlatorN3hls6streamI10rfnoc_axisEES2_7ap_uintILi1EES3_ILi4EEE11phaseClass7, i32 0, i32 0), %245 ], [ %248, %246 ], !dbg !6873 ; [#uses=2 type=%struct.ap_fixed*] [debug line = 83:39]
  call void @_ZN8ap_fixedILi16ELi11EL9ap_q_mode5EL9ap_o_mode3ELi0EEC1Ev(%struct.ap_fixed* %247), !dbg !6873 ; [debug line = 83:39]
  %248 = getelementptr inbounds %struct.ap_fixed* %247, i64 1, !dbg !6873 ; [#uses=2 type=%struct.ap_fixed*] [debug line = 83:39]
  %249 = icmp eq %struct.ap_fixed* %248, getelementptr inbounds ([16 x %struct.ap_fixed]* @_ZZ10correlatorN3hls6streamI10rfnoc_axisEES2_7ap_uintILi1EES3_ILi4EEE11phaseClass7, i64 1, i64 0), !dbg !6873 ; [#uses=1 type=i1] [debug line = 83:39]
  br i1 %249, label %250, label %246, !dbg !6873  ; [debug line = 83:39]

; <label>:250                                     ; preds = %246
  store i8 1, i8* @_ZGVZ10correlatorN3hls6streamI10rfnoc_axisEES2_7ap_uintILi1EES3_ILi4EEE11phaseClass7, !dbg !6873 ; [debug line = 83:39]
  br label %251, !dbg !6873                       ; [debug line = 83:39]

; <label>:251                                     ; preds = %250, %242
  call void (...)* @_ssdm_SpecArrayPartition(%struct.ap_fixed* getelementptr inbounds ([16 x %struct.ap_fixed]* @_ZZ10correlatorN3hls6streamI10rfnoc_axisEES2_7ap_uintILi1EES3_ILi4EEE11phaseClass7, i32 0, i32 0), i32 1, i8* getelementptr inbounds ([9 x i8]* @.str4, i32 0, i32 0), i32 0, i8* getelementptr inbounds ([1 x i8]* @.str, i32 0, i32 0)) nounwind, !dbg !6874 ; [debug line = 84:1]
  %252 = load i8* @_ZGVZ10correlatorN3hls6streamI10rfnoc_axisEES2_7ap_uintILi1EES3_ILi4EEE9resPhase7, align 1, !dbg !6875 ; [#uses=1 type=i8] [debug line = 86:37]
  %253 = icmp eq i8 %252, 0, !dbg !6875           ; [#uses=1 type=i1] [debug line = 86:37]
  br i1 %253, label %254, label %260, !dbg !6875  ; [debug line = 86:37]

; <label>:254                                     ; preds = %251
  br label %255, !dbg !6875                       ; [debug line = 86:37]

; <label>:255                                     ; preds = %255, %254
  %256 = phi %struct.ap_fixed.6* [ getelementptr inbounds ([16 x %struct.ap_fixed.6]* @_ZZ10correlatorN3hls6streamI10rfnoc_axisEES2_7ap_uintILi1EES3_ILi4EEE9resPhase7, i32 0, i32 0), %254 ], [ %257, %255 ], !dbg !6875 ; [#uses=2 type=%struct.ap_fixed.6*] [debug line = 86:37]
  call void @_ZN8ap_fixedILi32ELi22EL9ap_q_mode5EL9ap_o_mode3ELi0EEC1Ev(%struct.ap_fixed.6* %256), !dbg !6875 ; [debug line = 86:37]
  %257 = getelementptr inbounds %struct.ap_fixed.6* %256, i64 1, !dbg !6875 ; [#uses=2 type=%struct.ap_fixed.6*] [debug line = 86:37]
  %258 = icmp eq %struct.ap_fixed.6* %257, getelementptr inbounds ([16 x %struct.ap_fixed.6]* @_ZZ10correlatorN3hls6streamI10rfnoc_axisEES2_7ap_uintILi1EES3_ILi4EEE9resPhase7, i64 1, i64 0), !dbg !6875 ; [#uses=1 type=i1] [debug line = 86:37]
  br i1 %258, label %259, label %255, !dbg !6875  ; [debug line = 86:37]

; <label>:259                                     ; preds = %255
  store i8 1, i8* @_ZGVZ10correlatorN3hls6streamI10rfnoc_axisEES2_7ap_uintILi1EES3_ILi4EEE9resPhase7, !dbg !6875 ; [debug line = 86:37]
  br label %260, !dbg !6875                       ; [debug line = 86:37]

; <label>:260                                     ; preds = %259, %251
  call void (...)* @_ssdm_SpecArrayPartition(%struct.ap_fixed.6* getelementptr inbounds ([16 x %struct.ap_fixed.6]* @_ZZ10correlatorN3hls6streamI10rfnoc_axisEES2_7ap_uintILi1EES3_ILi4EEE9resPhase7, i32 0, i32 0), i32 1, i8* getelementptr inbounds ([9 x i8]* @.str4, i32 0, i32 0), i32 0, i8* getelementptr inbounds ([1 x i8]* @.str, i32 0, i32 0)) nounwind, !dbg !6876 ; [debug line = 87:1]
  %261 = load i8* @_ZGVZ10correlatorN3hls6streamI10rfnoc_axisEES2_7ap_uintILi1EES3_ILi4EEE6Phase7, align 1, !dbg !6877 ; [#uses=1 type=i8] [debug line = 89:34]
  %262 = icmp eq i8 %261, 0, !dbg !6877           ; [#uses=1 type=i1] [debug line = 89:34]
  br i1 %262, label %263, label %269, !dbg !6877  ; [debug line = 89:34]

; <label>:263                                     ; preds = %260
  br label %264, !dbg !6877                       ; [debug line = 89:34]

; <label>:264                                     ; preds = %264, %263
  %265 = phi %struct.ap_fixed.6* [ getelementptr inbounds ([16 x %struct.ap_fixed.6]* @_ZZ10correlatorN3hls6streamI10rfnoc_axisEES2_7ap_uintILi1EES3_ILi4EEE6Phase7, i32 0, i32 0), %263 ], [ %266, %264 ], !dbg !6877 ; [#uses=2 type=%struct.ap_fixed.6*] [debug line = 89:34]
  call void @_ZN8ap_fixedILi32ELi22EL9ap_q_mode5EL9ap_o_mode3ELi0EEC1Ev(%struct.ap_fixed.6* %265), !dbg !6877 ; [debug line = 89:34]
  %266 = getelementptr inbounds %struct.ap_fixed.6* %265, i64 1, !dbg !6877 ; [#uses=2 type=%struct.ap_fixed.6*] [debug line = 89:34]
  %267 = icmp eq %struct.ap_fixed.6* %266, getelementptr inbounds ([16 x %struct.ap_fixed.6]* @_ZZ10correlatorN3hls6streamI10rfnoc_axisEES2_7ap_uintILi1EES3_ILi4EEE6Phase7, i64 1, i64 0), !dbg !6877 ; [#uses=1 type=i1] [debug line = 89:34]
  br i1 %267, label %268, label %264, !dbg !6877  ; [debug line = 89:34]

; <label>:268                                     ; preds = %264
  store i8 1, i8* @_ZGVZ10correlatorN3hls6streamI10rfnoc_axisEES2_7ap_uintILi1EES3_ILi4EEE6Phase7, !dbg !6877 ; [debug line = 89:34]
  br label %269, !dbg !6877                       ; [debug line = 89:34]

; <label>:269                                     ; preds = %268, %260
  call void (...)* @_ssdm_SpecArrayPartition(%struct.ap_fixed.6* getelementptr inbounds ([16 x %struct.ap_fixed.6]* @_ZZ10correlatorN3hls6streamI10rfnoc_axisEES2_7ap_uintILi1EES3_ILi4EEE6Phase7, i32 0, i32 0), i32 1, i8* getelementptr inbounds ([9 x i8]* @.str4, i32 0, i32 0), i32 0, i8* getelementptr inbounds ([1 x i8]* @.str, i32 0, i32 0)) nounwind, !dbg !6878 ; [debug line = 90:1]
  %270 = load i8* @_ZGVZ10correlatorN3hls6streamI10rfnoc_axisEES2_7ap_uintILi1EES3_ILi4EEE11phaseClass8, align 1, !dbg !6879 ; [#uses=1 type=i8] [debug line = 92:39]
  %271 = icmp eq i8 %270, 0, !dbg !6879           ; [#uses=1 type=i1] [debug line = 92:39]
  br i1 %271, label %272, label %278, !dbg !6879  ; [debug line = 92:39]

; <label>:272                                     ; preds = %269
  br label %273, !dbg !6879                       ; [debug line = 92:39]

; <label>:273                                     ; preds = %273, %272
  %274 = phi %struct.ap_fixed* [ getelementptr inbounds ([16 x %struct.ap_fixed]* @_ZZ10correlatorN3hls6streamI10rfnoc_axisEES2_7ap_uintILi1EES3_ILi4EEE11phaseClass8, i32 0, i32 0), %272 ], [ %275, %273 ], !dbg !6879 ; [#uses=2 type=%struct.ap_fixed*] [debug line = 92:39]
  call void @_ZN8ap_fixedILi16ELi11EL9ap_q_mode5EL9ap_o_mode3ELi0EEC1Ev(%struct.ap_fixed* %274), !dbg !6879 ; [debug line = 92:39]
  %275 = getelementptr inbounds %struct.ap_fixed* %274, i64 1, !dbg !6879 ; [#uses=2 type=%struct.ap_fixed*] [debug line = 92:39]
  %276 = icmp eq %struct.ap_fixed* %275, getelementptr inbounds ([16 x %struct.ap_fixed]* @_ZZ10correlatorN3hls6streamI10rfnoc_axisEES2_7ap_uintILi1EES3_ILi4EEE11phaseClass8, i64 1, i64 0), !dbg !6879 ; [#uses=1 type=i1] [debug line = 92:39]
  br i1 %276, label %277, label %273, !dbg !6879  ; [debug line = 92:39]

; <label>:277                                     ; preds = %273
  store i8 1, i8* @_ZGVZ10correlatorN3hls6streamI10rfnoc_axisEES2_7ap_uintILi1EES3_ILi4EEE11phaseClass8, !dbg !6879 ; [debug line = 92:39]
  br label %278, !dbg !6879                       ; [debug line = 92:39]

; <label>:278                                     ; preds = %277, %269
  call void (...)* @_ssdm_SpecArrayPartition(%struct.ap_fixed* getelementptr inbounds ([16 x %struct.ap_fixed]* @_ZZ10correlatorN3hls6streamI10rfnoc_axisEES2_7ap_uintILi1EES3_ILi4EEE11phaseClass8, i32 0, i32 0), i32 1, i8* getelementptr inbounds ([9 x i8]* @.str4, i32 0, i32 0), i32 0, i8* getelementptr inbounds ([1 x i8]* @.str, i32 0, i32 0)) nounwind, !dbg !6880 ; [debug line = 93:1]
  %279 = load i8* @_ZGVZ10correlatorN3hls6streamI10rfnoc_axisEES2_7ap_uintILi1EES3_ILi4EEE9resPhase8, align 1, !dbg !6881 ; [#uses=1 type=i8] [debug line = 95:37]
  %280 = icmp eq i8 %279, 0, !dbg !6881           ; [#uses=1 type=i1] [debug line = 95:37]
  br i1 %280, label %281, label %287, !dbg !6881  ; [debug line = 95:37]

; <label>:281                                     ; preds = %278
  br label %282, !dbg !6881                       ; [debug line = 95:37]

; <label>:282                                     ; preds = %282, %281
  %283 = phi %struct.ap_fixed.6* [ getelementptr inbounds ([16 x %struct.ap_fixed.6]* @_ZZ10correlatorN3hls6streamI10rfnoc_axisEES2_7ap_uintILi1EES3_ILi4EEE9resPhase8, i32 0, i32 0), %281 ], [ %284, %282 ], !dbg !6881 ; [#uses=2 type=%struct.ap_fixed.6*] [debug line = 95:37]
  call void @_ZN8ap_fixedILi32ELi22EL9ap_q_mode5EL9ap_o_mode3ELi0EEC1Ev(%struct.ap_fixed.6* %283), !dbg !6881 ; [debug line = 95:37]
  %284 = getelementptr inbounds %struct.ap_fixed.6* %283, i64 1, !dbg !6881 ; [#uses=2 type=%struct.ap_fixed.6*] [debug line = 95:37]
  %285 = icmp eq %struct.ap_fixed.6* %284, getelementptr inbounds ([16 x %struct.ap_fixed.6]* @_ZZ10correlatorN3hls6streamI10rfnoc_axisEES2_7ap_uintILi1EES3_ILi4EEE9resPhase8, i64 1, i64 0), !dbg !6881 ; [#uses=1 type=i1] [debug line = 95:37]
  br i1 %285, label %286, label %282, !dbg !6881  ; [debug line = 95:37]

; <label>:286                                     ; preds = %282
  store i8 1, i8* @_ZGVZ10correlatorN3hls6streamI10rfnoc_axisEES2_7ap_uintILi1EES3_ILi4EEE9resPhase8, !dbg !6881 ; [debug line = 95:37]
  br label %287, !dbg !6881                       ; [debug line = 95:37]

; <label>:287                                     ; preds = %286, %278
  call void (...)* @_ssdm_SpecArrayPartition(%struct.ap_fixed.6* getelementptr inbounds ([16 x %struct.ap_fixed.6]* @_ZZ10correlatorN3hls6streamI10rfnoc_axisEES2_7ap_uintILi1EES3_ILi4EEE9resPhase8, i32 0, i32 0), i32 1, i8* getelementptr inbounds ([9 x i8]* @.str4, i32 0, i32 0), i32 0, i8* getelementptr inbounds ([1 x i8]* @.str, i32 0, i32 0)) nounwind, !dbg !6882 ; [debug line = 96:1]
  %288 = load i8* @_ZGVZ10correlatorN3hls6streamI10rfnoc_axisEES2_7ap_uintILi1EES3_ILi4EEE6Phase8, align 1, !dbg !6883 ; [#uses=1 type=i8] [debug line = 98:34]
  %289 = icmp eq i8 %288, 0, !dbg !6883           ; [#uses=1 type=i1] [debug line = 98:34]
  br i1 %289, label %290, label %296, !dbg !6883  ; [debug line = 98:34]

; <label>:290                                     ; preds = %287
  br label %291, !dbg !6883                       ; [debug line = 98:34]

; <label>:291                                     ; preds = %291, %290
  %292 = phi %struct.ap_fixed.6* [ getelementptr inbounds ([16 x %struct.ap_fixed.6]* @_ZZ10correlatorN3hls6streamI10rfnoc_axisEES2_7ap_uintILi1EES3_ILi4EEE6Phase8, i32 0, i32 0), %290 ], [ %293, %291 ], !dbg !6883 ; [#uses=2 type=%struct.ap_fixed.6*] [debug line = 98:34]
  call void @_ZN8ap_fixedILi32ELi22EL9ap_q_mode5EL9ap_o_mode3ELi0EEC1Ev(%struct.ap_fixed.6* %292), !dbg !6883 ; [debug line = 98:34]
  %293 = getelementptr inbounds %struct.ap_fixed.6* %292, i64 1, !dbg !6883 ; [#uses=2 type=%struct.ap_fixed.6*] [debug line = 98:34]
  %294 = icmp eq %struct.ap_fixed.6* %293, getelementptr inbounds ([16 x %struct.ap_fixed.6]* @_ZZ10correlatorN3hls6streamI10rfnoc_axisEES2_7ap_uintILi1EES3_ILi4EEE6Phase8, i64 1, i64 0), !dbg !6883 ; [#uses=1 type=i1] [debug line = 98:34]
  br i1 %294, label %295, label %291, !dbg !6883  ; [debug line = 98:34]

; <label>:295                                     ; preds = %291
  store i8 1, i8* @_ZGVZ10correlatorN3hls6streamI10rfnoc_axisEES2_7ap_uintILi1EES3_ILi4EEE6Phase8, !dbg !6883 ; [debug line = 98:34]
  br label %296, !dbg !6883                       ; [debug line = 98:34]

; <label>:296                                     ; preds = %295, %287
  call void (...)* @_ssdm_SpecArrayPartition(%struct.ap_fixed.6* getelementptr inbounds ([16 x %struct.ap_fixed.6]* @_ZZ10correlatorN3hls6streamI10rfnoc_axisEES2_7ap_uintILi1EES3_ILi4EEE6Phase8, i32 0, i32 0), i32 1, i8* getelementptr inbounds ([9 x i8]* @.str4, i32 0, i32 0), i32 0, i8* getelementptr inbounds ([1 x i8]* @.str, i32 0, i32 0)) nounwind, !dbg !6884 ; [debug line = 99:1]
  %297 = load i8* @_ZGVZ10correlatorN3hls6streamI10rfnoc_axisEES2_7ap_uintILi1EES3_ILi4EEE11phaseClass9, align 1, !dbg !6885 ; [#uses=1 type=i8] [debug line = 101:39]
  %298 = icmp eq i8 %297, 0, !dbg !6885           ; [#uses=1 type=i1] [debug line = 101:39]
  br i1 %298, label %299, label %305, !dbg !6885  ; [debug line = 101:39]

; <label>:299                                     ; preds = %296
  br label %300, !dbg !6885                       ; [debug line = 101:39]

; <label>:300                                     ; preds = %300, %299
  %301 = phi %struct.ap_fixed* [ getelementptr inbounds ([16 x %struct.ap_fixed]* @_ZZ10correlatorN3hls6streamI10rfnoc_axisEES2_7ap_uintILi1EES3_ILi4EEE11phaseClass9, i32 0, i32 0), %299 ], [ %302, %300 ], !dbg !6885 ; [#uses=2 type=%struct.ap_fixed*] [debug line = 101:39]
  call void @_ZN8ap_fixedILi16ELi11EL9ap_q_mode5EL9ap_o_mode3ELi0EEC1Ev(%struct.ap_fixed* %301), !dbg !6885 ; [debug line = 101:39]
  %302 = getelementptr inbounds %struct.ap_fixed* %301, i64 1, !dbg !6885 ; [#uses=2 type=%struct.ap_fixed*] [debug line = 101:39]
  %303 = icmp eq %struct.ap_fixed* %302, getelementptr inbounds ([16 x %struct.ap_fixed]* @_ZZ10correlatorN3hls6streamI10rfnoc_axisEES2_7ap_uintILi1EES3_ILi4EEE11phaseClass9, i64 1, i64 0), !dbg !6885 ; [#uses=1 type=i1] [debug line = 101:39]
  br i1 %303, label %304, label %300, !dbg !6885  ; [debug line = 101:39]

; <label>:304                                     ; preds = %300
  store i8 1, i8* @_ZGVZ10correlatorN3hls6streamI10rfnoc_axisEES2_7ap_uintILi1EES3_ILi4EEE11phaseClass9, !dbg !6885 ; [debug line = 101:39]
  br label %305, !dbg !6885                       ; [debug line = 101:39]

; <label>:305                                     ; preds = %304, %296
  call void (...)* @_ssdm_SpecArrayPartition(%struct.ap_fixed* getelementptr inbounds ([16 x %struct.ap_fixed]* @_ZZ10correlatorN3hls6streamI10rfnoc_axisEES2_7ap_uintILi1EES3_ILi4EEE11phaseClass9, i32 0, i32 0), i32 1, i8* getelementptr inbounds ([9 x i8]* @.str4, i32 0, i32 0), i32 0, i8* getelementptr inbounds ([1 x i8]* @.str, i32 0, i32 0)) nounwind, !dbg !6886 ; [debug line = 102:1]
  %306 = load i8* @_ZGVZ10correlatorN3hls6streamI10rfnoc_axisEES2_7ap_uintILi1EES3_ILi4EEE9resPhase9, align 1, !dbg !6887 ; [#uses=1 type=i8] [debug line = 104:37]
  %307 = icmp eq i8 %306, 0, !dbg !6887           ; [#uses=1 type=i1] [debug line = 104:37]
  br i1 %307, label %308, label %314, !dbg !6887  ; [debug line = 104:37]

; <label>:308                                     ; preds = %305
  br label %309, !dbg !6887                       ; [debug line = 104:37]

; <label>:309                                     ; preds = %309, %308
  %310 = phi %struct.ap_fixed.6* [ getelementptr inbounds ([16 x %struct.ap_fixed.6]* @_ZZ10correlatorN3hls6streamI10rfnoc_axisEES2_7ap_uintILi1EES3_ILi4EEE9resPhase9, i32 0, i32 0), %308 ], [ %311, %309 ], !dbg !6887 ; [#uses=2 type=%struct.ap_fixed.6*] [debug line = 104:37]
  call void @_ZN8ap_fixedILi32ELi22EL9ap_q_mode5EL9ap_o_mode3ELi0EEC1Ev(%struct.ap_fixed.6* %310), !dbg !6887 ; [debug line = 104:37]
  %311 = getelementptr inbounds %struct.ap_fixed.6* %310, i64 1, !dbg !6887 ; [#uses=2 type=%struct.ap_fixed.6*] [debug line = 104:37]
  %312 = icmp eq %struct.ap_fixed.6* %311, getelementptr inbounds ([16 x %struct.ap_fixed.6]* @_ZZ10correlatorN3hls6streamI10rfnoc_axisEES2_7ap_uintILi1EES3_ILi4EEE9resPhase9, i64 1, i64 0), !dbg !6887 ; [#uses=1 type=i1] [debug line = 104:37]
  br i1 %312, label %313, label %309, !dbg !6887  ; [debug line = 104:37]

; <label>:313                                     ; preds = %309
  store i8 1, i8* @_ZGVZ10correlatorN3hls6streamI10rfnoc_axisEES2_7ap_uintILi1EES3_ILi4EEE9resPhase9, !dbg !6887 ; [debug line = 104:37]
  br label %314, !dbg !6887                       ; [debug line = 104:37]

; <label>:314                                     ; preds = %313, %305
  call void (...)* @_ssdm_SpecArrayPartition(%struct.ap_fixed.6* getelementptr inbounds ([16 x %struct.ap_fixed.6]* @_ZZ10correlatorN3hls6streamI10rfnoc_axisEES2_7ap_uintILi1EES3_ILi4EEE9resPhase9, i32 0, i32 0), i32 1, i8* getelementptr inbounds ([9 x i8]* @.str4, i32 0, i32 0), i32 0, i8* getelementptr inbounds ([1 x i8]* @.str, i32 0, i32 0)) nounwind, !dbg !6888 ; [debug line = 105:1]
  %315 = load i8* @_ZGVZ10correlatorN3hls6streamI10rfnoc_axisEES2_7ap_uintILi1EES3_ILi4EEE6Phase9, align 1, !dbg !6889 ; [#uses=1 type=i8] [debug line = 107:34]
  %316 = icmp eq i8 %315, 0, !dbg !6889           ; [#uses=1 type=i1] [debug line = 107:34]
  br i1 %316, label %317, label %323, !dbg !6889  ; [debug line = 107:34]

; <label>:317                                     ; preds = %314
  br label %318, !dbg !6889                       ; [debug line = 107:34]

; <label>:318                                     ; preds = %318, %317
  %319 = phi %struct.ap_fixed.6* [ getelementptr inbounds ([16 x %struct.ap_fixed.6]* @_ZZ10correlatorN3hls6streamI10rfnoc_axisEES2_7ap_uintILi1EES3_ILi4EEE6Phase9, i32 0, i32 0), %317 ], [ %320, %318 ], !dbg !6889 ; [#uses=2 type=%struct.ap_fixed.6*] [debug line = 107:34]
  call void @_ZN8ap_fixedILi32ELi22EL9ap_q_mode5EL9ap_o_mode3ELi0EEC1Ev(%struct.ap_fixed.6* %319), !dbg !6889 ; [debug line = 107:34]
  %320 = getelementptr inbounds %struct.ap_fixed.6* %319, i64 1, !dbg !6889 ; [#uses=2 type=%struct.ap_fixed.6*] [debug line = 107:34]
  %321 = icmp eq %struct.ap_fixed.6* %320, getelementptr inbounds ([16 x %struct.ap_fixed.6]* @_ZZ10correlatorN3hls6streamI10rfnoc_axisEES2_7ap_uintILi1EES3_ILi4EEE6Phase9, i64 1, i64 0), !dbg !6889 ; [#uses=1 type=i1] [debug line = 107:34]
  br i1 %321, label %322, label %318, !dbg !6889  ; [debug line = 107:34]

; <label>:322                                     ; preds = %318
  store i8 1, i8* @_ZGVZ10correlatorN3hls6streamI10rfnoc_axisEES2_7ap_uintILi1EES3_ILi4EEE6Phase9, !dbg !6889 ; [debug line = 107:34]
  br label %323, !dbg !6889                       ; [debug line = 107:34]

; <label>:323                                     ; preds = %322, %314
  call void (...)* @_ssdm_SpecArrayPartition(%struct.ap_fixed.6* getelementptr inbounds ([16 x %struct.ap_fixed.6]* @_ZZ10correlatorN3hls6streamI10rfnoc_axisEES2_7ap_uintILi1EES3_ILi4EEE6Phase9, i32 0, i32 0), i32 1, i8* getelementptr inbounds ([9 x i8]* @.str4, i32 0, i32 0), i32 0, i8* getelementptr inbounds ([1 x i8]* @.str, i32 0, i32 0)) nounwind, !dbg !6890 ; [debug line = 108:1]
  %324 = load i8* @_ZGVZ10correlatorN3hls6streamI10rfnoc_axisEES2_7ap_uintILi1EES3_ILi4EEE12phaseClass10, align 1, !dbg !6891 ; [#uses=1 type=i8] [debug line = 110:40]
  %325 = icmp eq i8 %324, 0, !dbg !6891           ; [#uses=1 type=i1] [debug line = 110:40]
  br i1 %325, label %326, label %332, !dbg !6891  ; [debug line = 110:40]

; <label>:326                                     ; preds = %323
  br label %327, !dbg !6891                       ; [debug line = 110:40]

; <label>:327                                     ; preds = %327, %326
  %328 = phi %struct.ap_fixed* [ getelementptr inbounds ([16 x %struct.ap_fixed]* @_ZZ10correlatorN3hls6streamI10rfnoc_axisEES2_7ap_uintILi1EES3_ILi4EEE12phaseClass10, i32 0, i32 0), %326 ], [ %329, %327 ], !dbg !6891 ; [#uses=2 type=%struct.ap_fixed*] [debug line = 110:40]
  call void @_ZN8ap_fixedILi16ELi11EL9ap_q_mode5EL9ap_o_mode3ELi0EEC1Ev(%struct.ap_fixed* %328), !dbg !6891 ; [debug line = 110:40]
  %329 = getelementptr inbounds %struct.ap_fixed* %328, i64 1, !dbg !6891 ; [#uses=2 type=%struct.ap_fixed*] [debug line = 110:40]
  %330 = icmp eq %struct.ap_fixed* %329, getelementptr inbounds ([16 x %struct.ap_fixed]* @_ZZ10correlatorN3hls6streamI10rfnoc_axisEES2_7ap_uintILi1EES3_ILi4EEE12phaseClass10, i64 1, i64 0), !dbg !6891 ; [#uses=1 type=i1] [debug line = 110:40]
  br i1 %330, label %331, label %327, !dbg !6891  ; [debug line = 110:40]

; <label>:331                                     ; preds = %327
  store i8 1, i8* @_ZGVZ10correlatorN3hls6streamI10rfnoc_axisEES2_7ap_uintILi1EES3_ILi4EEE12phaseClass10, !dbg !6891 ; [debug line = 110:40]
  br label %332, !dbg !6891                       ; [debug line = 110:40]

; <label>:332                                     ; preds = %331, %323
  call void (...)* @_ssdm_SpecArrayPartition(%struct.ap_fixed* getelementptr inbounds ([16 x %struct.ap_fixed]* @_ZZ10correlatorN3hls6streamI10rfnoc_axisEES2_7ap_uintILi1EES3_ILi4EEE12phaseClass10, i32 0, i32 0), i32 1, i8* getelementptr inbounds ([9 x i8]* @.str4, i32 0, i32 0), i32 0, i8* getelementptr inbounds ([1 x i8]* @.str, i32 0, i32 0)) nounwind, !dbg !6892 ; [debug line = 111:1]
  %333 = load i8* @_ZGVZ10correlatorN3hls6streamI10rfnoc_axisEES2_7ap_uintILi1EES3_ILi4EEE10resPhase10, align 1, !dbg !6893 ; [#uses=1 type=i8] [debug line = 113:38]
  %334 = icmp eq i8 %333, 0, !dbg !6893           ; [#uses=1 type=i1] [debug line = 113:38]
  br i1 %334, label %335, label %341, !dbg !6893  ; [debug line = 113:38]

; <label>:335                                     ; preds = %332
  br label %336, !dbg !6893                       ; [debug line = 113:38]

; <label>:336                                     ; preds = %336, %335
  %337 = phi %struct.ap_fixed.6* [ getelementptr inbounds ([16 x %struct.ap_fixed.6]* @_ZZ10correlatorN3hls6streamI10rfnoc_axisEES2_7ap_uintILi1EES3_ILi4EEE10resPhase10, i32 0, i32 0), %335 ], [ %338, %336 ], !dbg !6893 ; [#uses=2 type=%struct.ap_fixed.6*] [debug line = 113:38]
  call void @_ZN8ap_fixedILi32ELi22EL9ap_q_mode5EL9ap_o_mode3ELi0EEC1Ev(%struct.ap_fixed.6* %337), !dbg !6893 ; [debug line = 113:38]
  %338 = getelementptr inbounds %struct.ap_fixed.6* %337, i64 1, !dbg !6893 ; [#uses=2 type=%struct.ap_fixed.6*] [debug line = 113:38]
  %339 = icmp eq %struct.ap_fixed.6* %338, getelementptr inbounds ([16 x %struct.ap_fixed.6]* @_ZZ10correlatorN3hls6streamI10rfnoc_axisEES2_7ap_uintILi1EES3_ILi4EEE10resPhase10, i64 1, i64 0), !dbg !6893 ; [#uses=1 type=i1] [debug line = 113:38]
  br i1 %339, label %340, label %336, !dbg !6893  ; [debug line = 113:38]

; <label>:340                                     ; preds = %336
  store i8 1, i8* @_ZGVZ10correlatorN3hls6streamI10rfnoc_axisEES2_7ap_uintILi1EES3_ILi4EEE10resPhase10, !dbg !6893 ; [debug line = 113:38]
  br label %341, !dbg !6893                       ; [debug line = 113:38]

; <label>:341                                     ; preds = %340, %332
  call void (...)* @_ssdm_SpecArrayPartition(%struct.ap_fixed.6* getelementptr inbounds ([16 x %struct.ap_fixed.6]* @_ZZ10correlatorN3hls6streamI10rfnoc_axisEES2_7ap_uintILi1EES3_ILi4EEE10resPhase10, i32 0, i32 0), i32 1, i8* getelementptr inbounds ([9 x i8]* @.str4, i32 0, i32 0), i32 0, i8* getelementptr inbounds ([1 x i8]* @.str, i32 0, i32 0)) nounwind, !dbg !6894 ; [debug line = 114:1]
  %342 = load i8* @_ZGVZ10correlatorN3hls6streamI10rfnoc_axisEES2_7ap_uintILi1EES3_ILi4EEE7Phase10, align 1, !dbg !6895 ; [#uses=1 type=i8] [debug line = 116:35]
  %343 = icmp eq i8 %342, 0, !dbg !6895           ; [#uses=1 type=i1] [debug line = 116:35]
  br i1 %343, label %344, label %350, !dbg !6895  ; [debug line = 116:35]

; <label>:344                                     ; preds = %341
  br label %345, !dbg !6895                       ; [debug line = 116:35]

; <label>:345                                     ; preds = %345, %344
  %346 = phi %struct.ap_fixed.6* [ getelementptr inbounds ([16 x %struct.ap_fixed.6]* @_ZZ10correlatorN3hls6streamI10rfnoc_axisEES2_7ap_uintILi1EES3_ILi4EEE7Phase10, i32 0, i32 0), %344 ], [ %347, %345 ], !dbg !6895 ; [#uses=2 type=%struct.ap_fixed.6*] [debug line = 116:35]
  call void @_ZN8ap_fixedILi32ELi22EL9ap_q_mode5EL9ap_o_mode3ELi0EEC1Ev(%struct.ap_fixed.6* %346), !dbg !6895 ; [debug line = 116:35]
  %347 = getelementptr inbounds %struct.ap_fixed.6* %346, i64 1, !dbg !6895 ; [#uses=2 type=%struct.ap_fixed.6*] [debug line = 116:35]
  %348 = icmp eq %struct.ap_fixed.6* %347, getelementptr inbounds ([16 x %struct.ap_fixed.6]* @_ZZ10correlatorN3hls6streamI10rfnoc_axisEES2_7ap_uintILi1EES3_ILi4EEE7Phase10, i64 1, i64 0), !dbg !6895 ; [#uses=1 type=i1] [debug line = 116:35]
  br i1 %348, label %349, label %345, !dbg !6895  ; [debug line = 116:35]

; <label>:349                                     ; preds = %345
  store i8 1, i8* @_ZGVZ10correlatorN3hls6streamI10rfnoc_axisEES2_7ap_uintILi1EES3_ILi4EEE7Phase10, !dbg !6895 ; [debug line = 116:35]
  br label %350, !dbg !6895                       ; [debug line = 116:35]

; <label>:350                                     ; preds = %349, %341
  call void (...)* @_ssdm_SpecArrayPartition(%struct.ap_fixed.6* getelementptr inbounds ([16 x %struct.ap_fixed.6]* @_ZZ10correlatorN3hls6streamI10rfnoc_axisEES2_7ap_uintILi1EES3_ILi4EEE7Phase10, i32 0, i32 0), i32 1, i8* getelementptr inbounds ([9 x i8]* @.str4, i32 0, i32 0), i32 0, i8* getelementptr inbounds ([1 x i8]* @.str, i32 0, i32 0)) nounwind, !dbg !6896 ; [debug line = 117:1]
  %351 = load i8* @_ZGVZ10correlatorN3hls6streamI10rfnoc_axisEES2_7ap_uintILi1EES3_ILi4EEE12phaseClass11, align 1, !dbg !6897 ; [#uses=1 type=i8] [debug line = 119:40]
  %352 = icmp eq i8 %351, 0, !dbg !6897           ; [#uses=1 type=i1] [debug line = 119:40]
  br i1 %352, label %353, label %359, !dbg !6897  ; [debug line = 119:40]

; <label>:353                                     ; preds = %350
  br label %354, !dbg !6897                       ; [debug line = 119:40]

; <label>:354                                     ; preds = %354, %353
  %355 = phi %struct.ap_fixed* [ getelementptr inbounds ([16 x %struct.ap_fixed]* @_ZZ10correlatorN3hls6streamI10rfnoc_axisEES2_7ap_uintILi1EES3_ILi4EEE12phaseClass11, i32 0, i32 0), %353 ], [ %356, %354 ], !dbg !6897 ; [#uses=2 type=%struct.ap_fixed*] [debug line = 119:40]
  call void @_ZN8ap_fixedILi16ELi11EL9ap_q_mode5EL9ap_o_mode3ELi0EEC1Ev(%struct.ap_fixed* %355), !dbg !6897 ; [debug line = 119:40]
  %356 = getelementptr inbounds %struct.ap_fixed* %355, i64 1, !dbg !6897 ; [#uses=2 type=%struct.ap_fixed*] [debug line = 119:40]
  %357 = icmp eq %struct.ap_fixed* %356, getelementptr inbounds ([16 x %struct.ap_fixed]* @_ZZ10correlatorN3hls6streamI10rfnoc_axisEES2_7ap_uintILi1EES3_ILi4EEE12phaseClass11, i64 1, i64 0), !dbg !6897 ; [#uses=1 type=i1] [debug line = 119:40]
  br i1 %357, label %358, label %354, !dbg !6897  ; [debug line = 119:40]

; <label>:358                                     ; preds = %354
  store i8 1, i8* @_ZGVZ10correlatorN3hls6streamI10rfnoc_axisEES2_7ap_uintILi1EES3_ILi4EEE12phaseClass11, !dbg !6897 ; [debug line = 119:40]
  br label %359, !dbg !6897                       ; [debug line = 119:40]

; <label>:359                                     ; preds = %358, %350
  call void (...)* @_ssdm_SpecArrayPartition(%struct.ap_fixed* getelementptr inbounds ([16 x %struct.ap_fixed]* @_ZZ10correlatorN3hls6streamI10rfnoc_axisEES2_7ap_uintILi1EES3_ILi4EEE12phaseClass11, i32 0, i32 0), i32 1, i8* getelementptr inbounds ([9 x i8]* @.str4, i32 0, i32 0), i32 0, i8* getelementptr inbounds ([1 x i8]* @.str, i32 0, i32 0)) nounwind, !dbg !6898 ; [debug line = 120:1]
  %360 = load i8* @_ZGVZ10correlatorN3hls6streamI10rfnoc_axisEES2_7ap_uintILi1EES3_ILi4EEE10resPhase11, align 1, !dbg !6899 ; [#uses=1 type=i8] [debug line = 122:38]
  %361 = icmp eq i8 %360, 0, !dbg !6899           ; [#uses=1 type=i1] [debug line = 122:38]
  br i1 %361, label %362, label %368, !dbg !6899  ; [debug line = 122:38]

; <label>:362                                     ; preds = %359
  br label %363, !dbg !6899                       ; [debug line = 122:38]

; <label>:363                                     ; preds = %363, %362
  %364 = phi %struct.ap_fixed.6* [ getelementptr inbounds ([16 x %struct.ap_fixed.6]* @_ZZ10correlatorN3hls6streamI10rfnoc_axisEES2_7ap_uintILi1EES3_ILi4EEE10resPhase11, i32 0, i32 0), %362 ], [ %365, %363 ], !dbg !6899 ; [#uses=2 type=%struct.ap_fixed.6*] [debug line = 122:38]
  call void @_ZN8ap_fixedILi32ELi22EL9ap_q_mode5EL9ap_o_mode3ELi0EEC1Ev(%struct.ap_fixed.6* %364), !dbg !6899 ; [debug line = 122:38]
  %365 = getelementptr inbounds %struct.ap_fixed.6* %364, i64 1, !dbg !6899 ; [#uses=2 type=%struct.ap_fixed.6*] [debug line = 122:38]
  %366 = icmp eq %struct.ap_fixed.6* %365, getelementptr inbounds ([16 x %struct.ap_fixed.6]* @_ZZ10correlatorN3hls6streamI10rfnoc_axisEES2_7ap_uintILi1EES3_ILi4EEE10resPhase11, i64 1, i64 0), !dbg !6899 ; [#uses=1 type=i1] [debug line = 122:38]
  br i1 %366, label %367, label %363, !dbg !6899  ; [debug line = 122:38]

; <label>:367                                     ; preds = %363
  store i8 1, i8* @_ZGVZ10correlatorN3hls6streamI10rfnoc_axisEES2_7ap_uintILi1EES3_ILi4EEE10resPhase11, !dbg !6899 ; [debug line = 122:38]
  br label %368, !dbg !6899                       ; [debug line = 122:38]

; <label>:368                                     ; preds = %367, %359
  call void (...)* @_ssdm_SpecArrayPartition(%struct.ap_fixed.6* getelementptr inbounds ([16 x %struct.ap_fixed.6]* @_ZZ10correlatorN3hls6streamI10rfnoc_axisEES2_7ap_uintILi1EES3_ILi4EEE10resPhase11, i32 0, i32 0), i32 1, i8* getelementptr inbounds ([9 x i8]* @.str4, i32 0, i32 0), i32 0, i8* getelementptr inbounds ([1 x i8]* @.str, i32 0, i32 0)) nounwind, !dbg !6900 ; [debug line = 123:1]
  %369 = load i8* @_ZGVZ10correlatorN3hls6streamI10rfnoc_axisEES2_7ap_uintILi1EES3_ILi4EEE7Phase11, align 1, !dbg !6901 ; [#uses=1 type=i8] [debug line = 125:35]
  %370 = icmp eq i8 %369, 0, !dbg !6901           ; [#uses=1 type=i1] [debug line = 125:35]
  br i1 %370, label %371, label %377, !dbg !6901  ; [debug line = 125:35]

; <label>:371                                     ; preds = %368
  br label %372, !dbg !6901                       ; [debug line = 125:35]

; <label>:372                                     ; preds = %372, %371
  %373 = phi %struct.ap_fixed.6* [ getelementptr inbounds ([16 x %struct.ap_fixed.6]* @_ZZ10correlatorN3hls6streamI10rfnoc_axisEES2_7ap_uintILi1EES3_ILi4EEE7Phase11, i32 0, i32 0), %371 ], [ %374, %372 ], !dbg !6901 ; [#uses=2 type=%struct.ap_fixed.6*] [debug line = 125:35]
  call void @_ZN8ap_fixedILi32ELi22EL9ap_q_mode5EL9ap_o_mode3ELi0EEC1Ev(%struct.ap_fixed.6* %373), !dbg !6901 ; [debug line = 125:35]
  %374 = getelementptr inbounds %struct.ap_fixed.6* %373, i64 1, !dbg !6901 ; [#uses=2 type=%struct.ap_fixed.6*] [debug line = 125:35]
  %375 = icmp eq %struct.ap_fixed.6* %374, getelementptr inbounds ([16 x %struct.ap_fixed.6]* @_ZZ10correlatorN3hls6streamI10rfnoc_axisEES2_7ap_uintILi1EES3_ILi4EEE7Phase11, i64 1, i64 0), !dbg !6901 ; [#uses=1 type=i1] [debug line = 125:35]
  br i1 %375, label %376, label %372, !dbg !6901  ; [debug line = 125:35]

; <label>:376                                     ; preds = %372
  store i8 1, i8* @_ZGVZ10correlatorN3hls6streamI10rfnoc_axisEES2_7ap_uintILi1EES3_ILi4EEE7Phase11, !dbg !6901 ; [debug line = 125:35]
  br label %377, !dbg !6901                       ; [debug line = 125:35]

; <label>:377                                     ; preds = %376, %368
  call void (...)* @_ssdm_SpecArrayPartition(%struct.ap_fixed.6* getelementptr inbounds ([16 x %struct.ap_fixed.6]* @_ZZ10correlatorN3hls6streamI10rfnoc_axisEES2_7ap_uintILi1EES3_ILi4EEE7Phase11, i32 0, i32 0), i32 1, i8* getelementptr inbounds ([9 x i8]* @.str4, i32 0, i32 0), i32 0, i8* getelementptr inbounds ([1 x i8]* @.str, i32 0, i32 0)) nounwind, !dbg !6902 ; [debug line = 126:1]
  %378 = load i8* @_ZGVZ10correlatorN3hls6streamI10rfnoc_axisEES2_7ap_uintILi1EES3_ILi4EEE12phaseClass12, align 1, !dbg !6903 ; [#uses=1 type=i8] [debug line = 128:40]
  %379 = icmp eq i8 %378, 0, !dbg !6903           ; [#uses=1 type=i1] [debug line = 128:40]
  br i1 %379, label %380, label %386, !dbg !6903  ; [debug line = 128:40]

; <label>:380                                     ; preds = %377
  br label %381, !dbg !6903                       ; [debug line = 128:40]

; <label>:381                                     ; preds = %381, %380
  %382 = phi %struct.ap_fixed* [ getelementptr inbounds ([16 x %struct.ap_fixed]* @_ZZ10correlatorN3hls6streamI10rfnoc_axisEES2_7ap_uintILi1EES3_ILi4EEE12phaseClass12, i32 0, i32 0), %380 ], [ %383, %381 ], !dbg !6903 ; [#uses=2 type=%struct.ap_fixed*] [debug line = 128:40]
  call void @_ZN8ap_fixedILi16ELi11EL9ap_q_mode5EL9ap_o_mode3ELi0EEC1Ev(%struct.ap_fixed* %382), !dbg !6903 ; [debug line = 128:40]
  %383 = getelementptr inbounds %struct.ap_fixed* %382, i64 1, !dbg !6903 ; [#uses=2 type=%struct.ap_fixed*] [debug line = 128:40]
  %384 = icmp eq %struct.ap_fixed* %383, getelementptr inbounds ([16 x %struct.ap_fixed]* @_ZZ10correlatorN3hls6streamI10rfnoc_axisEES2_7ap_uintILi1EES3_ILi4EEE12phaseClass12, i64 1, i64 0), !dbg !6903 ; [#uses=1 type=i1] [debug line = 128:40]
  br i1 %384, label %385, label %381, !dbg !6903  ; [debug line = 128:40]

; <label>:385                                     ; preds = %381
  store i8 1, i8* @_ZGVZ10correlatorN3hls6streamI10rfnoc_axisEES2_7ap_uintILi1EES3_ILi4EEE12phaseClass12, !dbg !6903 ; [debug line = 128:40]
  br label %386, !dbg !6903                       ; [debug line = 128:40]

; <label>:386                                     ; preds = %385, %377
  call void (...)* @_ssdm_SpecArrayPartition(%struct.ap_fixed* getelementptr inbounds ([16 x %struct.ap_fixed]* @_ZZ10correlatorN3hls6streamI10rfnoc_axisEES2_7ap_uintILi1EES3_ILi4EEE12phaseClass12, i32 0, i32 0), i32 1, i8* getelementptr inbounds ([9 x i8]* @.str4, i32 0, i32 0), i32 0, i8* getelementptr inbounds ([1 x i8]* @.str, i32 0, i32 0)) nounwind, !dbg !6904 ; [debug line = 129:1]
  %387 = load i8* @_ZGVZ10correlatorN3hls6streamI10rfnoc_axisEES2_7ap_uintILi1EES3_ILi4EEE10resPhase12, align 1, !dbg !6905 ; [#uses=1 type=i8] [debug line = 131:38]
  %388 = icmp eq i8 %387, 0, !dbg !6905           ; [#uses=1 type=i1] [debug line = 131:38]
  br i1 %388, label %389, label %395, !dbg !6905  ; [debug line = 131:38]

; <label>:389                                     ; preds = %386
  br label %390, !dbg !6905                       ; [debug line = 131:38]

; <label>:390                                     ; preds = %390, %389
  %391 = phi %struct.ap_fixed.6* [ getelementptr inbounds ([16 x %struct.ap_fixed.6]* @_ZZ10correlatorN3hls6streamI10rfnoc_axisEES2_7ap_uintILi1EES3_ILi4EEE10resPhase12, i32 0, i32 0), %389 ], [ %392, %390 ], !dbg !6905 ; [#uses=2 type=%struct.ap_fixed.6*] [debug line = 131:38]
  call void @_ZN8ap_fixedILi32ELi22EL9ap_q_mode5EL9ap_o_mode3ELi0EEC1Ev(%struct.ap_fixed.6* %391), !dbg !6905 ; [debug line = 131:38]
  %392 = getelementptr inbounds %struct.ap_fixed.6* %391, i64 1, !dbg !6905 ; [#uses=2 type=%struct.ap_fixed.6*] [debug line = 131:38]
  %393 = icmp eq %struct.ap_fixed.6* %392, getelementptr inbounds ([16 x %struct.ap_fixed.6]* @_ZZ10correlatorN3hls6streamI10rfnoc_axisEES2_7ap_uintILi1EES3_ILi4EEE10resPhase12, i64 1, i64 0), !dbg !6905 ; [#uses=1 type=i1] [debug line = 131:38]
  br i1 %393, label %394, label %390, !dbg !6905  ; [debug line = 131:38]

; <label>:394                                     ; preds = %390
  store i8 1, i8* @_ZGVZ10correlatorN3hls6streamI10rfnoc_axisEES2_7ap_uintILi1EES3_ILi4EEE10resPhase12, !dbg !6905 ; [debug line = 131:38]
  br label %395, !dbg !6905                       ; [debug line = 131:38]

; <label>:395                                     ; preds = %394, %386
  call void (...)* @_ssdm_SpecArrayPartition(%struct.ap_fixed.6* getelementptr inbounds ([16 x %struct.ap_fixed.6]* @_ZZ10correlatorN3hls6streamI10rfnoc_axisEES2_7ap_uintILi1EES3_ILi4EEE10resPhase12, i32 0, i32 0), i32 1, i8* getelementptr inbounds ([9 x i8]* @.str4, i32 0, i32 0), i32 0, i8* getelementptr inbounds ([1 x i8]* @.str, i32 0, i32 0)) nounwind, !dbg !6906 ; [debug line = 132:1]
  %396 = load i8* @_ZGVZ10correlatorN3hls6streamI10rfnoc_axisEES2_7ap_uintILi1EES3_ILi4EEE7Phase12, align 1, !dbg !6907 ; [#uses=1 type=i8] [debug line = 134:35]
  %397 = icmp eq i8 %396, 0, !dbg !6907           ; [#uses=1 type=i1] [debug line = 134:35]
  br i1 %397, label %398, label %404, !dbg !6907  ; [debug line = 134:35]

; <label>:398                                     ; preds = %395
  br label %399, !dbg !6907                       ; [debug line = 134:35]

; <label>:399                                     ; preds = %399, %398
  %400 = phi %struct.ap_fixed.6* [ getelementptr inbounds ([16 x %struct.ap_fixed.6]* @_ZZ10correlatorN3hls6streamI10rfnoc_axisEES2_7ap_uintILi1EES3_ILi4EEE7Phase12, i32 0, i32 0), %398 ], [ %401, %399 ], !dbg !6907 ; [#uses=2 type=%struct.ap_fixed.6*] [debug line = 134:35]
  call void @_ZN8ap_fixedILi32ELi22EL9ap_q_mode5EL9ap_o_mode3ELi0EEC1Ev(%struct.ap_fixed.6* %400), !dbg !6907 ; [debug line = 134:35]
  %401 = getelementptr inbounds %struct.ap_fixed.6* %400, i64 1, !dbg !6907 ; [#uses=2 type=%struct.ap_fixed.6*] [debug line = 134:35]
  %402 = icmp eq %struct.ap_fixed.6* %401, getelementptr inbounds ([16 x %struct.ap_fixed.6]* @_ZZ10correlatorN3hls6streamI10rfnoc_axisEES2_7ap_uintILi1EES3_ILi4EEE7Phase12, i64 1, i64 0), !dbg !6907 ; [#uses=1 type=i1] [debug line = 134:35]
  br i1 %402, label %403, label %399, !dbg !6907  ; [debug line = 134:35]

; <label>:403                                     ; preds = %399
  store i8 1, i8* @_ZGVZ10correlatorN3hls6streamI10rfnoc_axisEES2_7ap_uintILi1EES3_ILi4EEE7Phase12, !dbg !6907 ; [debug line = 134:35]
  br label %404, !dbg !6907                       ; [debug line = 134:35]

; <label>:404                                     ; preds = %403, %395
  call void (...)* @_ssdm_SpecArrayPartition(%struct.ap_fixed.6* getelementptr inbounds ([16 x %struct.ap_fixed.6]* @_ZZ10correlatorN3hls6streamI10rfnoc_axisEES2_7ap_uintILi1EES3_ILi4EEE7Phase12, i32 0, i32 0), i32 1, i8* getelementptr inbounds ([9 x i8]* @.str4, i32 0, i32 0), i32 0, i8* getelementptr inbounds ([1 x i8]* @.str, i32 0, i32 0)) nounwind, !dbg !6908 ; [debug line = 135:1]
  %405 = load i8* @_ZGVZ10correlatorN3hls6streamI10rfnoc_axisEES2_7ap_uintILi1EES3_ILi4EEE12phaseClass13, align 1, !dbg !6909 ; [#uses=1 type=i8] [debug line = 137:40]
  %406 = icmp eq i8 %405, 0, !dbg !6909           ; [#uses=1 type=i1] [debug line = 137:40]
  br i1 %406, label %407, label %413, !dbg !6909  ; [debug line = 137:40]

; <label>:407                                     ; preds = %404
  br label %408, !dbg !6909                       ; [debug line = 137:40]

; <label>:408                                     ; preds = %408, %407
  %409 = phi %struct.ap_fixed* [ getelementptr inbounds ([16 x %struct.ap_fixed]* @_ZZ10correlatorN3hls6streamI10rfnoc_axisEES2_7ap_uintILi1EES3_ILi4EEE12phaseClass13, i32 0, i32 0), %407 ], [ %410, %408 ], !dbg !6909 ; [#uses=2 type=%struct.ap_fixed*] [debug line = 137:40]
  call void @_ZN8ap_fixedILi16ELi11EL9ap_q_mode5EL9ap_o_mode3ELi0EEC1Ev(%struct.ap_fixed* %409), !dbg !6909 ; [debug line = 137:40]
  %410 = getelementptr inbounds %struct.ap_fixed* %409, i64 1, !dbg !6909 ; [#uses=2 type=%struct.ap_fixed*] [debug line = 137:40]
  %411 = icmp eq %struct.ap_fixed* %410, getelementptr inbounds ([16 x %struct.ap_fixed]* @_ZZ10correlatorN3hls6streamI10rfnoc_axisEES2_7ap_uintILi1EES3_ILi4EEE12phaseClass13, i64 1, i64 0), !dbg !6909 ; [#uses=1 type=i1] [debug line = 137:40]
  br i1 %411, label %412, label %408, !dbg !6909  ; [debug line = 137:40]

; <label>:412                                     ; preds = %408
  store i8 1, i8* @_ZGVZ10correlatorN3hls6streamI10rfnoc_axisEES2_7ap_uintILi1EES3_ILi4EEE12phaseClass13, !dbg !6909 ; [debug line = 137:40]
  br label %413, !dbg !6909                       ; [debug line = 137:40]

; <label>:413                                     ; preds = %412, %404
  call void (...)* @_ssdm_SpecArrayPartition(%struct.ap_fixed* getelementptr inbounds ([16 x %struct.ap_fixed]* @_ZZ10correlatorN3hls6streamI10rfnoc_axisEES2_7ap_uintILi1EES3_ILi4EEE12phaseClass13, i32 0, i32 0), i32 1, i8* getelementptr inbounds ([9 x i8]* @.str4, i32 0, i32 0), i32 0, i8* getelementptr inbounds ([1 x i8]* @.str, i32 0, i32 0)) nounwind, !dbg !6910 ; [debug line = 138:1]
  %414 = load i8* @_ZGVZ10correlatorN3hls6streamI10rfnoc_axisEES2_7ap_uintILi1EES3_ILi4EEE10resPhase13, align 1, !dbg !6911 ; [#uses=1 type=i8] [debug line = 140:38]
  %415 = icmp eq i8 %414, 0, !dbg !6911           ; [#uses=1 type=i1] [debug line = 140:38]
  br i1 %415, label %416, label %422, !dbg !6911  ; [debug line = 140:38]

; <label>:416                                     ; preds = %413
  br label %417, !dbg !6911                       ; [debug line = 140:38]

; <label>:417                                     ; preds = %417, %416
  %418 = phi %struct.ap_fixed.6* [ getelementptr inbounds ([16 x %struct.ap_fixed.6]* @_ZZ10correlatorN3hls6streamI10rfnoc_axisEES2_7ap_uintILi1EES3_ILi4EEE10resPhase13, i32 0, i32 0), %416 ], [ %419, %417 ], !dbg !6911 ; [#uses=2 type=%struct.ap_fixed.6*] [debug line = 140:38]
  call void @_ZN8ap_fixedILi32ELi22EL9ap_q_mode5EL9ap_o_mode3ELi0EEC1Ev(%struct.ap_fixed.6* %418), !dbg !6911 ; [debug line = 140:38]
  %419 = getelementptr inbounds %struct.ap_fixed.6* %418, i64 1, !dbg !6911 ; [#uses=2 type=%struct.ap_fixed.6*] [debug line = 140:38]
  %420 = icmp eq %struct.ap_fixed.6* %419, getelementptr inbounds ([16 x %struct.ap_fixed.6]* @_ZZ10correlatorN3hls6streamI10rfnoc_axisEES2_7ap_uintILi1EES3_ILi4EEE10resPhase13, i64 1, i64 0), !dbg !6911 ; [#uses=1 type=i1] [debug line = 140:38]
  br i1 %420, label %421, label %417, !dbg !6911  ; [debug line = 140:38]

; <label>:421                                     ; preds = %417
  store i8 1, i8* @_ZGVZ10correlatorN3hls6streamI10rfnoc_axisEES2_7ap_uintILi1EES3_ILi4EEE10resPhase13, !dbg !6911 ; [debug line = 140:38]
  br label %422, !dbg !6911                       ; [debug line = 140:38]

; <label>:422                                     ; preds = %421, %413
  call void (...)* @_ssdm_SpecArrayPartition(%struct.ap_fixed.6* getelementptr inbounds ([16 x %struct.ap_fixed.6]* @_ZZ10correlatorN3hls6streamI10rfnoc_axisEES2_7ap_uintILi1EES3_ILi4EEE10resPhase13, i32 0, i32 0), i32 1, i8* getelementptr inbounds ([9 x i8]* @.str4, i32 0, i32 0), i32 0, i8* getelementptr inbounds ([1 x i8]* @.str, i32 0, i32 0)) nounwind, !dbg !6912 ; [debug line = 141:1]
  %423 = load i8* @_ZGVZ10correlatorN3hls6streamI10rfnoc_axisEES2_7ap_uintILi1EES3_ILi4EEE7Phase13, align 1, !dbg !6913 ; [#uses=1 type=i8] [debug line = 143:35]
  %424 = icmp eq i8 %423, 0, !dbg !6913           ; [#uses=1 type=i1] [debug line = 143:35]
  br i1 %424, label %425, label %431, !dbg !6913  ; [debug line = 143:35]

; <label>:425                                     ; preds = %422
  br label %426, !dbg !6913                       ; [debug line = 143:35]

; <label>:426                                     ; preds = %426, %425
  %427 = phi %struct.ap_fixed.6* [ getelementptr inbounds ([16 x %struct.ap_fixed.6]* @_ZZ10correlatorN3hls6streamI10rfnoc_axisEES2_7ap_uintILi1EES3_ILi4EEE7Phase13, i32 0, i32 0), %425 ], [ %428, %426 ], !dbg !6913 ; [#uses=2 type=%struct.ap_fixed.6*] [debug line = 143:35]
  call void @_ZN8ap_fixedILi32ELi22EL9ap_q_mode5EL9ap_o_mode3ELi0EEC1Ev(%struct.ap_fixed.6* %427), !dbg !6913 ; [debug line = 143:35]
  %428 = getelementptr inbounds %struct.ap_fixed.6* %427, i64 1, !dbg !6913 ; [#uses=2 type=%struct.ap_fixed.6*] [debug line = 143:35]
  %429 = icmp eq %struct.ap_fixed.6* %428, getelementptr inbounds ([16 x %struct.ap_fixed.6]* @_ZZ10correlatorN3hls6streamI10rfnoc_axisEES2_7ap_uintILi1EES3_ILi4EEE7Phase13, i64 1, i64 0), !dbg !6913 ; [#uses=1 type=i1] [debug line = 143:35]
  br i1 %429, label %430, label %426, !dbg !6913  ; [debug line = 143:35]

; <label>:430                                     ; preds = %426
  store i8 1, i8* @_ZGVZ10correlatorN3hls6streamI10rfnoc_axisEES2_7ap_uintILi1EES3_ILi4EEE7Phase13, !dbg !6913 ; [debug line = 143:35]
  br label %431, !dbg !6913                       ; [debug line = 143:35]

; <label>:431                                     ; preds = %430, %422
  call void (...)* @_ssdm_SpecArrayPartition(%struct.ap_fixed.6* getelementptr inbounds ([16 x %struct.ap_fixed.6]* @_ZZ10correlatorN3hls6streamI10rfnoc_axisEES2_7ap_uintILi1EES3_ILi4EEE7Phase13, i32 0, i32 0), i32 1, i8* getelementptr inbounds ([9 x i8]* @.str4, i32 0, i32 0), i32 0, i8* getelementptr inbounds ([1 x i8]* @.str, i32 0, i32 0)) nounwind, !dbg !6914 ; [debug line = 144:1]
  %432 = load i8* @_ZGVZ10correlatorN3hls6streamI10rfnoc_axisEES2_7ap_uintILi1EES3_ILi4EEE12phaseClass14, align 1, !dbg !6915 ; [#uses=1 type=i8] [debug line = 146:40]
  %433 = icmp eq i8 %432, 0, !dbg !6915           ; [#uses=1 type=i1] [debug line = 146:40]
  br i1 %433, label %434, label %440, !dbg !6915  ; [debug line = 146:40]

; <label>:434                                     ; preds = %431
  br label %435, !dbg !6915                       ; [debug line = 146:40]

; <label>:435                                     ; preds = %435, %434
  %436 = phi %struct.ap_fixed* [ getelementptr inbounds ([16 x %struct.ap_fixed]* @_ZZ10correlatorN3hls6streamI10rfnoc_axisEES2_7ap_uintILi1EES3_ILi4EEE12phaseClass14, i32 0, i32 0), %434 ], [ %437, %435 ], !dbg !6915 ; [#uses=2 type=%struct.ap_fixed*] [debug line = 146:40]
  call void @_ZN8ap_fixedILi16ELi11EL9ap_q_mode5EL9ap_o_mode3ELi0EEC1Ev(%struct.ap_fixed* %436), !dbg !6915 ; [debug line = 146:40]
  %437 = getelementptr inbounds %struct.ap_fixed* %436, i64 1, !dbg !6915 ; [#uses=2 type=%struct.ap_fixed*] [debug line = 146:40]
  %438 = icmp eq %struct.ap_fixed* %437, getelementptr inbounds ([16 x %struct.ap_fixed]* @_ZZ10correlatorN3hls6streamI10rfnoc_axisEES2_7ap_uintILi1EES3_ILi4EEE12phaseClass14, i64 1, i64 0), !dbg !6915 ; [#uses=1 type=i1] [debug line = 146:40]
  br i1 %438, label %439, label %435, !dbg !6915  ; [debug line = 146:40]

; <label>:439                                     ; preds = %435
  store i8 1, i8* @_ZGVZ10correlatorN3hls6streamI10rfnoc_axisEES2_7ap_uintILi1EES3_ILi4EEE12phaseClass14, !dbg !6915 ; [debug line = 146:40]
  br label %440, !dbg !6915                       ; [debug line = 146:40]

; <label>:440                                     ; preds = %439, %431
  call void (...)* @_ssdm_SpecArrayPartition(%struct.ap_fixed* getelementptr inbounds ([16 x %struct.ap_fixed]* @_ZZ10correlatorN3hls6streamI10rfnoc_axisEES2_7ap_uintILi1EES3_ILi4EEE12phaseClass14, i32 0, i32 0), i32 1, i8* getelementptr inbounds ([9 x i8]* @.str4, i32 0, i32 0), i32 0, i8* getelementptr inbounds ([1 x i8]* @.str, i32 0, i32 0)) nounwind, !dbg !6916 ; [debug line = 147:1]
  %441 = load i8* @_ZGVZ10correlatorN3hls6streamI10rfnoc_axisEES2_7ap_uintILi1EES3_ILi4EEE10resPhase14, align 1, !dbg !6917 ; [#uses=1 type=i8] [debug line = 149:38]
  %442 = icmp eq i8 %441, 0, !dbg !6917           ; [#uses=1 type=i1] [debug line = 149:38]
  br i1 %442, label %443, label %449, !dbg !6917  ; [debug line = 149:38]

; <label>:443                                     ; preds = %440
  br label %444, !dbg !6917                       ; [debug line = 149:38]

; <label>:444                                     ; preds = %444, %443
  %445 = phi %struct.ap_fixed.6* [ getelementptr inbounds ([16 x %struct.ap_fixed.6]* @_ZZ10correlatorN3hls6streamI10rfnoc_axisEES2_7ap_uintILi1EES3_ILi4EEE10resPhase14, i32 0, i32 0), %443 ], [ %446, %444 ], !dbg !6917 ; [#uses=2 type=%struct.ap_fixed.6*] [debug line = 149:38]
  call void @_ZN8ap_fixedILi32ELi22EL9ap_q_mode5EL9ap_o_mode3ELi0EEC1Ev(%struct.ap_fixed.6* %445), !dbg !6917 ; [debug line = 149:38]
  %446 = getelementptr inbounds %struct.ap_fixed.6* %445, i64 1, !dbg !6917 ; [#uses=2 type=%struct.ap_fixed.6*] [debug line = 149:38]
  %447 = icmp eq %struct.ap_fixed.6* %446, getelementptr inbounds ([16 x %struct.ap_fixed.6]* @_ZZ10correlatorN3hls6streamI10rfnoc_axisEES2_7ap_uintILi1EES3_ILi4EEE10resPhase14, i64 1, i64 0), !dbg !6917 ; [#uses=1 type=i1] [debug line = 149:38]
  br i1 %447, label %448, label %444, !dbg !6917  ; [debug line = 149:38]

; <label>:448                                     ; preds = %444
  store i8 1, i8* @_ZGVZ10correlatorN3hls6streamI10rfnoc_axisEES2_7ap_uintILi1EES3_ILi4EEE10resPhase14, !dbg !6917 ; [debug line = 149:38]
  br label %449, !dbg !6917                       ; [debug line = 149:38]

; <label>:449                                     ; preds = %448, %440
  call void (...)* @_ssdm_SpecArrayPartition(%struct.ap_fixed.6* getelementptr inbounds ([16 x %struct.ap_fixed.6]* @_ZZ10correlatorN3hls6streamI10rfnoc_axisEES2_7ap_uintILi1EES3_ILi4EEE10resPhase14, i32 0, i32 0), i32 1, i8* getelementptr inbounds ([9 x i8]* @.str4, i32 0, i32 0), i32 0, i8* getelementptr inbounds ([1 x i8]* @.str, i32 0, i32 0)) nounwind, !dbg !6918 ; [debug line = 150:1]
  %450 = load i8* @_ZGVZ10correlatorN3hls6streamI10rfnoc_axisEES2_7ap_uintILi1EES3_ILi4EEE7Phase14, align 1, !dbg !6919 ; [#uses=1 type=i8] [debug line = 152:35]
  %451 = icmp eq i8 %450, 0, !dbg !6919           ; [#uses=1 type=i1] [debug line = 152:35]
  br i1 %451, label %452, label %458, !dbg !6919  ; [debug line = 152:35]

; <label>:452                                     ; preds = %449
  br label %453, !dbg !6919                       ; [debug line = 152:35]

; <label>:453                                     ; preds = %453, %452
  %454 = phi %struct.ap_fixed.6* [ getelementptr inbounds ([16 x %struct.ap_fixed.6]* @_ZZ10correlatorN3hls6streamI10rfnoc_axisEES2_7ap_uintILi1EES3_ILi4EEE7Phase14, i32 0, i32 0), %452 ], [ %455, %453 ], !dbg !6919 ; [#uses=2 type=%struct.ap_fixed.6*] [debug line = 152:35]
  call void @_ZN8ap_fixedILi32ELi22EL9ap_q_mode5EL9ap_o_mode3ELi0EEC1Ev(%struct.ap_fixed.6* %454), !dbg !6919 ; [debug line = 152:35]
  %455 = getelementptr inbounds %struct.ap_fixed.6* %454, i64 1, !dbg !6919 ; [#uses=2 type=%struct.ap_fixed.6*] [debug line = 152:35]
  %456 = icmp eq %struct.ap_fixed.6* %455, getelementptr inbounds ([16 x %struct.ap_fixed.6]* @_ZZ10correlatorN3hls6streamI10rfnoc_axisEES2_7ap_uintILi1EES3_ILi4EEE7Phase14, i64 1, i64 0), !dbg !6919 ; [#uses=1 type=i1] [debug line = 152:35]
  br i1 %456, label %457, label %453, !dbg !6919  ; [debug line = 152:35]

; <label>:457                                     ; preds = %453
  store i8 1, i8* @_ZGVZ10correlatorN3hls6streamI10rfnoc_axisEES2_7ap_uintILi1EES3_ILi4EEE7Phase14, !dbg !6919 ; [debug line = 152:35]
  br label %458, !dbg !6919                       ; [debug line = 152:35]

; <label>:458                                     ; preds = %457, %449
  call void (...)* @_ssdm_SpecArrayPartition(%struct.ap_fixed.6* getelementptr inbounds ([16 x %struct.ap_fixed.6]* @_ZZ10correlatorN3hls6streamI10rfnoc_axisEES2_7ap_uintILi1EES3_ILi4EEE7Phase14, i32 0, i32 0), i32 1, i8* getelementptr inbounds ([9 x i8]* @.str4, i32 0, i32 0), i32 0, i8* getelementptr inbounds ([1 x i8]* @.str, i32 0, i32 0)) nounwind, !dbg !6920 ; [debug line = 153:1]
  %459 = load i8* @_ZGVZ10correlatorN3hls6streamI10rfnoc_axisEES2_7ap_uintILi1EES3_ILi4EEE12phaseClass15, align 1, !dbg !6921 ; [#uses=1 type=i8] [debug line = 155:40]
  %460 = icmp eq i8 %459, 0, !dbg !6921           ; [#uses=1 type=i1] [debug line = 155:40]
  br i1 %460, label %461, label %467, !dbg !6921  ; [debug line = 155:40]

; <label>:461                                     ; preds = %458
  br label %462, !dbg !6921                       ; [debug line = 155:40]

; <label>:462                                     ; preds = %462, %461
  %463 = phi %struct.ap_fixed* [ getelementptr inbounds ([16 x %struct.ap_fixed]* @_ZZ10correlatorN3hls6streamI10rfnoc_axisEES2_7ap_uintILi1EES3_ILi4EEE12phaseClass15, i32 0, i32 0), %461 ], [ %464, %462 ], !dbg !6921 ; [#uses=2 type=%struct.ap_fixed*] [debug line = 155:40]
  call void @_ZN8ap_fixedILi16ELi11EL9ap_q_mode5EL9ap_o_mode3ELi0EEC1Ev(%struct.ap_fixed* %463), !dbg !6921 ; [debug line = 155:40]
  %464 = getelementptr inbounds %struct.ap_fixed* %463, i64 1, !dbg !6921 ; [#uses=2 type=%struct.ap_fixed*] [debug line = 155:40]
  %465 = icmp eq %struct.ap_fixed* %464, getelementptr inbounds ([16 x %struct.ap_fixed]* @_ZZ10correlatorN3hls6streamI10rfnoc_axisEES2_7ap_uintILi1EES3_ILi4EEE12phaseClass15, i64 1, i64 0), !dbg !6921 ; [#uses=1 type=i1] [debug line = 155:40]
  br i1 %465, label %466, label %462, !dbg !6921  ; [debug line = 155:40]

; <label>:466                                     ; preds = %462
  store i8 1, i8* @_ZGVZ10correlatorN3hls6streamI10rfnoc_axisEES2_7ap_uintILi1EES3_ILi4EEE12phaseClass15, !dbg !6921 ; [debug line = 155:40]
  br label %467, !dbg !6921                       ; [debug line = 155:40]

; <label>:467                                     ; preds = %466, %458
  call void (...)* @_ssdm_SpecArrayPartition(%struct.ap_fixed* getelementptr inbounds ([16 x %struct.ap_fixed]* @_ZZ10correlatorN3hls6streamI10rfnoc_axisEES2_7ap_uintILi1EES3_ILi4EEE12phaseClass15, i32 0, i32 0), i32 1, i8* getelementptr inbounds ([9 x i8]* @.str4, i32 0, i32 0), i32 0, i8* getelementptr inbounds ([1 x i8]* @.str, i32 0, i32 0)) nounwind, !dbg !6922 ; [debug line = 156:1]
  %468 = load i8* @_ZGVZ10correlatorN3hls6streamI10rfnoc_axisEES2_7ap_uintILi1EES3_ILi4EEE10resPhase15, align 1, !dbg !6923 ; [#uses=1 type=i8] [debug line = 158:38]
  %469 = icmp eq i8 %468, 0, !dbg !6923           ; [#uses=1 type=i1] [debug line = 158:38]
  br i1 %469, label %470, label %476, !dbg !6923  ; [debug line = 158:38]

; <label>:470                                     ; preds = %467
  br label %471, !dbg !6923                       ; [debug line = 158:38]

; <label>:471                                     ; preds = %471, %470
  %472 = phi %struct.ap_fixed.6* [ getelementptr inbounds ([16 x %struct.ap_fixed.6]* @_ZZ10correlatorN3hls6streamI10rfnoc_axisEES2_7ap_uintILi1EES3_ILi4EEE10resPhase15, i32 0, i32 0), %470 ], [ %473, %471 ], !dbg !6923 ; [#uses=2 type=%struct.ap_fixed.6*] [debug line = 158:38]
  call void @_ZN8ap_fixedILi32ELi22EL9ap_q_mode5EL9ap_o_mode3ELi0EEC1Ev(%struct.ap_fixed.6* %472), !dbg !6923 ; [debug line = 158:38]
  %473 = getelementptr inbounds %struct.ap_fixed.6* %472, i64 1, !dbg !6923 ; [#uses=2 type=%struct.ap_fixed.6*] [debug line = 158:38]
  %474 = icmp eq %struct.ap_fixed.6* %473, getelementptr inbounds ([16 x %struct.ap_fixed.6]* @_ZZ10correlatorN3hls6streamI10rfnoc_axisEES2_7ap_uintILi1EES3_ILi4EEE10resPhase15, i64 1, i64 0), !dbg !6923 ; [#uses=1 type=i1] [debug line = 158:38]
  br i1 %474, label %475, label %471, !dbg !6923  ; [debug line = 158:38]

; <label>:475                                     ; preds = %471
  store i8 1, i8* @_ZGVZ10correlatorN3hls6streamI10rfnoc_axisEES2_7ap_uintILi1EES3_ILi4EEE10resPhase15, !dbg !6923 ; [debug line = 158:38]
  br label %476, !dbg !6923                       ; [debug line = 158:38]

; <label>:476                                     ; preds = %475, %467
  call void (...)* @_ssdm_SpecArrayPartition(%struct.ap_fixed.6* getelementptr inbounds ([16 x %struct.ap_fixed.6]* @_ZZ10correlatorN3hls6streamI10rfnoc_axisEES2_7ap_uintILi1EES3_ILi4EEE10resPhase15, i32 0, i32 0), i32 1, i8* getelementptr inbounds ([9 x i8]* @.str4, i32 0, i32 0), i32 0, i8* getelementptr inbounds ([1 x i8]* @.str, i32 0, i32 0)) nounwind, !dbg !6924 ; [debug line = 159:1]
  %477 = load i8* @_ZGVZ10correlatorN3hls6streamI10rfnoc_axisEES2_7ap_uintILi1EES3_ILi4EEE7Phase15, align 1, !dbg !6925 ; [#uses=1 type=i8] [debug line = 161:35]
  %478 = icmp eq i8 %477, 0, !dbg !6925           ; [#uses=1 type=i1] [debug line = 161:35]
  br i1 %478, label %479, label %485, !dbg !6925  ; [debug line = 161:35]

; <label>:479                                     ; preds = %476
  br label %480, !dbg !6925                       ; [debug line = 161:35]

; <label>:480                                     ; preds = %480, %479
  %481 = phi %struct.ap_fixed.6* [ getelementptr inbounds ([16 x %struct.ap_fixed.6]* @_ZZ10correlatorN3hls6streamI10rfnoc_axisEES2_7ap_uintILi1EES3_ILi4EEE7Phase15, i32 0, i32 0), %479 ], [ %482, %480 ], !dbg !6925 ; [#uses=2 type=%struct.ap_fixed.6*] [debug line = 161:35]
  call void @_ZN8ap_fixedILi32ELi22EL9ap_q_mode5EL9ap_o_mode3ELi0EEC1Ev(%struct.ap_fixed.6* %481), !dbg !6925 ; [debug line = 161:35]
  %482 = getelementptr inbounds %struct.ap_fixed.6* %481, i64 1, !dbg !6925 ; [#uses=2 type=%struct.ap_fixed.6*] [debug line = 161:35]
  %483 = icmp eq %struct.ap_fixed.6* %482, getelementptr inbounds ([16 x %struct.ap_fixed.6]* @_ZZ10correlatorN3hls6streamI10rfnoc_axisEES2_7ap_uintILi1EES3_ILi4EEE7Phase15, i64 1, i64 0), !dbg !6925 ; [#uses=1 type=i1] [debug line = 161:35]
  br i1 %483, label %484, label %480, !dbg !6925  ; [debug line = 161:35]

; <label>:484                                     ; preds = %480
  store i8 1, i8* @_ZGVZ10correlatorN3hls6streamI10rfnoc_axisEES2_7ap_uintILi1EES3_ILi4EEE7Phase15, !dbg !6925 ; [debug line = 161:35]
  br label %485, !dbg !6925                       ; [debug line = 161:35]

; <label>:485                                     ; preds = %484, %476
  call void (...)* @_ssdm_SpecArrayPartition(%struct.ap_fixed.6* getelementptr inbounds ([16 x %struct.ap_fixed.6]* @_ZZ10correlatorN3hls6streamI10rfnoc_axisEES2_7ap_uintILi1EES3_ILi4EEE7Phase15, i32 0, i32 0), i32 1, i8* getelementptr inbounds ([9 x i8]* @.str4, i32 0, i32 0), i32 0, i8* getelementptr inbounds ([1 x i8]* @.str, i32 0, i32 0)) nounwind, !dbg !6926 ; [debug line = 162:1]
  %486 = load i8* @_ZGVZ10correlatorN3hls6streamI10rfnoc_axisEES2_7ap_uintILi1EES3_ILi4EEE6newVal, align 1, !dbg !6927 ; [#uses=1 type=i8] [debug line = 164:30]
  %487 = icmp eq i8 %486, 0, !dbg !6927           ; [#uses=1 type=i1] [debug line = 164:30]
  br i1 %487, label %488, label %489, !dbg !6927  ; [debug line = 164:30]

; <label>:488                                     ; preds = %485
  call void @_ZN8ap_fixedILi16ELi11EL9ap_q_mode5EL9ap_o_mode3ELi0EEC1Ev(%struct.ap_fixed* @_ZZ10correlatorN3hls6streamI10rfnoc_axisEES2_7ap_uintILi1EES3_ILi4EEE6newVal), !dbg !6927 ; [debug line = 164:30]
  store i8 1, i8* @_ZGVZ10correlatorN3hls6streamI10rfnoc_axisEES2_7ap_uintILi1EES3_ILi4EEE6newVal, !dbg !6927 ; [debug line = 164:30]
  br label %489, !dbg !6927                       ; [debug line = 164:30]

; <label>:489                                     ; preds = %488, %485
  call void (...)* @_ssdm_op_SpecReset(%struct.ap_fixed* @_ZZ10correlatorN3hls6streamI10rfnoc_axisEES2_7ap_uintILi1EES3_ILi4EEE6newVal, i32 1, i8* getelementptr inbounds ([1 x i8]* @.str, i32 0, i32 0)) nounwind, !dbg !6928 ; [debug line = 165:1]
  %490 = load i8* @_ZGVZ10correlatorN3hls6streamI10rfnoc_axisEES2_7ap_uintILi1EES3_ILi4EEE15phaseClassValid, align 1, !dbg !6929 ; [#uses=1 type=i8] [debug line = 170:38]
  %491 = icmp eq i8 %490, 0, !dbg !6929           ; [#uses=1 type=i1] [debug line = 170:38]
  br i1 %491, label %492, label %498, !dbg !6929  ; [debug line = 170:38]

; <label>:492                                     ; preds = %489
  br label %493, !dbg !6929                       ; [debug line = 170:38]

; <label>:493                                     ; preds = %493, %492
  %494 = phi %struct.ap_uint* [ getelementptr inbounds ([16 x %struct.ap_uint]* @_ZZ10correlatorN3hls6streamI10rfnoc_axisEES2_7ap_uintILi1EES3_ILi4EEE15phaseClassValid, i32 0, i32 0), %492 ], [ %495, %493 ], !dbg !6929 ; [#uses=2 type=%struct.ap_uint*] [debug line = 170:38]
  call void @_ZN7ap_uintILi1EEC1Ev(%struct.ap_uint* %494), !dbg !6929 ; [debug line = 170:38]
  %495 = getelementptr inbounds %struct.ap_uint* %494, i64 1, !dbg !6929 ; [#uses=2 type=%struct.ap_uint*] [debug line = 170:38]
  %496 = icmp eq %struct.ap_uint* %495, getelementptr inbounds ([16 x %struct.ap_uint]* @_ZZ10correlatorN3hls6streamI10rfnoc_axisEES2_7ap_uintILi1EES3_ILi4EEE15phaseClassValid, i64 1, i64 0), !dbg !6929 ; [#uses=1 type=i1] [debug line = 170:38]
  br i1 %496, label %497, label %493, !dbg !6929  ; [debug line = 170:38]

; <label>:497                                     ; preds = %493
  store i8 1, i8* @_ZGVZ10correlatorN3hls6streamI10rfnoc_axisEES2_7ap_uintILi1EES3_ILi4EEE15phaseClassValid, !dbg !6929 ; [debug line = 170:38]
  br label %498, !dbg !6929                       ; [debug line = 170:38]

; <label>:498                                     ; preds = %497, %489
  call void (...)* @_ssdm_SpecArrayPartition(%struct.ap_uint* getelementptr inbounds ([16 x %struct.ap_uint]* @_ZZ10correlatorN3hls6streamI10rfnoc_axisEES2_7ap_uintILi1EES3_ILi4EEE15phaseClassValid, i32 0, i32 0), i32 1, i8* getelementptr inbounds ([9 x i8]* @.str4, i32 0, i32 0), i32 0, i8* getelementptr inbounds ([1 x i8]* @.str, i32 0, i32 0)) nounwind, !dbg !6930 ; [debug line = 171:1]
  call void (...)* @_ssdm_op_SpecReset(%struct.ap_uint* getelementptr inbounds ([16 x %struct.ap_uint]* @_ZZ10correlatorN3hls6streamI10rfnoc_axisEES2_7ap_uintILi1EES3_ILi4EEE15phaseClassValid, i32 0, i32 0), i32 1, i8* getelementptr inbounds ([1 x i8]* @.str, i32 0, i32 0)) nounwind, !dbg !6931 ; [debug line = 172:1]
  %499 = load i8* @_ZGVZ10correlatorN3hls6streamI10rfnoc_axisEES2_7ap_uintILi1EES3_ILi4EEE7corrSeq, align 1, !dbg !6932 ; [#uses=1 type=i8] [debug line = 174:81]
  %500 = icmp eq i8 %499, 0, !dbg !6932           ; [#uses=1 type=i1] [debug line = 174:81]
  br i1 %500, label %501, label %502, !dbg !6932  ; [debug line = 174:81]

; <label>:501                                     ; preds = %498
  call void @_ZN7ap_uintILi1EEC1Ei(%struct.ap_uint* getelementptr inbounds ([16 x %struct.ap_uint]* @_ZZ10correlatorN3hls6streamI10rfnoc_axisEES2_7ap_uintILi1EES3_ILi4EEE7corrSeq, i64 0, i64 0), i32 1), !dbg !6932 ; [debug line = 174:81]
  call void @_ZN7ap_uintILi1EEC1Ei(%struct.ap_uint* getelementptr inbounds ([16 x %struct.ap_uint]* @_ZZ10correlatorN3hls6streamI10rfnoc_axisEES2_7ap_uintILi1EES3_ILi4EEE7corrSeq, i64 0, i64 1), i32 1), !dbg !6932 ; [debug line = 174:81]
  call void @_ZN7ap_uintILi1EEC1Ei(%struct.ap_uint* getelementptr inbounds ([16 x %struct.ap_uint]* @_ZZ10correlatorN3hls6streamI10rfnoc_axisEES2_7ap_uintILi1EES3_ILi4EEE7corrSeq, i64 0, i64 2), i32 1), !dbg !6932 ; [debug line = 174:81]
  call void @_ZN7ap_uintILi1EEC1Ei(%struct.ap_uint* getelementptr inbounds ([16 x %struct.ap_uint]* @_ZZ10correlatorN3hls6streamI10rfnoc_axisEES2_7ap_uintILi1EES3_ILi4EEE7corrSeq, i64 0, i64 3), i32 1), !dbg !6932 ; [debug line = 174:81]
  call void @_ZN7ap_uintILi1EEC1Ei(%struct.ap_uint* getelementptr inbounds ([16 x %struct.ap_uint]* @_ZZ10correlatorN3hls6streamI10rfnoc_axisEES2_7ap_uintILi1EES3_ILi4EEE7corrSeq, i64 0, i64 4), i32 0), !dbg !6932 ; [debug line = 174:81]
  call void @_ZN7ap_uintILi1EEC1Ei(%struct.ap_uint* getelementptr inbounds ([16 x %struct.ap_uint]* @_ZZ10correlatorN3hls6streamI10rfnoc_axisEES2_7ap_uintILi1EES3_ILi4EEE7corrSeq, i64 0, i64 5), i32 0), !dbg !6932 ; [debug line = 174:81]
  call void @_ZN7ap_uintILi1EEC1Ei(%struct.ap_uint* getelementptr inbounds ([16 x %struct.ap_uint]* @_ZZ10correlatorN3hls6streamI10rfnoc_axisEES2_7ap_uintILi1EES3_ILi4EEE7corrSeq, i64 0, i64 6), i32 0), !dbg !6932 ; [debug line = 174:81]
  call void @_ZN7ap_uintILi1EEC1Ei(%struct.ap_uint* getelementptr inbounds ([16 x %struct.ap_uint]* @_ZZ10correlatorN3hls6streamI10rfnoc_axisEES2_7ap_uintILi1EES3_ILi4EEE7corrSeq, i64 0, i64 7), i32 0), !dbg !6932 ; [debug line = 174:81]
  call void @_ZN7ap_uintILi1EEC1Ei(%struct.ap_uint* getelementptr inbounds ([16 x %struct.ap_uint]* @_ZZ10correlatorN3hls6streamI10rfnoc_axisEES2_7ap_uintILi1EES3_ILi4EEE7corrSeq, i64 0, i64 8), i32 1), !dbg !6932 ; [debug line = 174:81]
  call void @_ZN7ap_uintILi1EEC1Ei(%struct.ap_uint* getelementptr inbounds ([16 x %struct.ap_uint]* @_ZZ10correlatorN3hls6streamI10rfnoc_axisEES2_7ap_uintILi1EES3_ILi4EEE7corrSeq, i64 0, i64 9), i32 0), !dbg !6932 ; [debug line = 174:81]
  call void @_ZN7ap_uintILi1EEC1Ei(%struct.ap_uint* getelementptr inbounds ([16 x %struct.ap_uint]* @_ZZ10correlatorN3hls6streamI10rfnoc_axisEES2_7ap_uintILi1EES3_ILi4EEE7corrSeq, i64 0, i64 10), i32 1), !dbg !6932 ; [debug line = 174:81]
  call void @_ZN7ap_uintILi1EEC1Ei(%struct.ap_uint* getelementptr inbounds ([16 x %struct.ap_uint]* @_ZZ10correlatorN3hls6streamI10rfnoc_axisEES2_7ap_uintILi1EES3_ILi4EEE7corrSeq, i64 0, i64 11), i32 0), !dbg !6932 ; [debug line = 174:81]
  call void @_ZN7ap_uintILi1EEC1Ei(%struct.ap_uint* getelementptr inbounds ([16 x %struct.ap_uint]* @_ZZ10correlatorN3hls6streamI10rfnoc_axisEES2_7ap_uintILi1EES3_ILi4EEE7corrSeq, i64 0, i64 12), i32 0), !dbg !6932 ; [debug line = 174:81]
  call void @_ZN7ap_uintILi1EEC1Ei(%struct.ap_uint* getelementptr inbounds ([16 x %struct.ap_uint]* @_ZZ10correlatorN3hls6streamI10rfnoc_axisEES2_7ap_uintILi1EES3_ILi4EEE7corrSeq, i64 0, i64 13), i32 1), !dbg !6932 ; [debug line = 174:81]
  call void @_ZN7ap_uintILi1EEC1Ei(%struct.ap_uint* getelementptr inbounds ([16 x %struct.ap_uint]* @_ZZ10correlatorN3hls6streamI10rfnoc_axisEES2_7ap_uintILi1EES3_ILi4EEE7corrSeq, i64 0, i64 14), i32 0), !dbg !6932 ; [debug line = 174:81]
  call void @_ZN7ap_uintILi1EEC1Ei(%struct.ap_uint* getelementptr inbounds ([16 x %struct.ap_uint]* @_ZZ10correlatorN3hls6streamI10rfnoc_axisEES2_7ap_uintILi1EES3_ILi4EEE7corrSeq, i64 0, i64 15), i32 1), !dbg !6932 ; [debug line = 174:81]
  store i8 1, i8* @_ZGVZ10correlatorN3hls6streamI10rfnoc_axisEES2_7ap_uintILi1EES3_ILi4EEE7corrSeq, !dbg !6932 ; [debug line = 174:81]
  br label %502, !dbg !6932                       ; [debug line = 174:81]

; <label>:502                                     ; preds = %501, %498
  call void (...)* @_ssdm_SpecArrayPartition(%struct.ap_uint* getelementptr inbounds ([16 x %struct.ap_uint]* @_ZZ10correlatorN3hls6streamI10rfnoc_axisEES2_7ap_uintILi1EES3_ILi4EEE7corrSeq, i32 0, i32 0), i32 1, i8* getelementptr inbounds ([9 x i8]* @.str4, i32 0, i32 0), i32 0, i8* getelementptr inbounds ([1 x i8]* @.str, i32 0, i32 0)) nounwind, !dbg !6933 ; [debug line = 175:1]
  call void @llvm.dbg.declare(metadata !{%struct.rfnoc_axis* %classType}, metadata !6934), !dbg !6935 ; [debug line = 177:13] [debug variable = classType]
  call void @_ZN10rfnoc_axisC1Ev(%struct.rfnoc_axis* %classType), !dbg !6936 ; [debug line = 177:22]
  call void @llvm.dbg.declare(metadata !{%struct.rfnoc_axis* %out_sample}, metadata !6937), !dbg !6938 ; [debug line = 179:14] [debug variable = out_sample]
  call void @_ZN10rfnoc_axisC1Ev(%struct.rfnoc_axis* %out_sample), !dbg !6939 ; [debug line = 179:24]
  %503 = load i8* @_ZGVZ10correlatorN3hls6streamI10rfnoc_axisEES2_7ap_uintILi1EES3_ILi4EEE14out_sample_cnt, align 1, !dbg !6940 ; [#uses=1 type=i8] [debug line = 181:36]
  %504 = icmp eq i8 %503, 0, !dbg !6940           ; [#uses=1 type=i1] [debug line = 181:36]
  br i1 %504, label %505, label %506, !dbg !6940  ; [debug line = 181:36]

; <label>:505                                     ; preds = %502
  call void @_ZN7ap_uintILi10EEC1Ev(%struct.ap_uint.8* @_ZZ10correlatorN3hls6streamI10rfnoc_axisEES2_7ap_uintILi1EES3_ILi4EEE14out_sample_cnt), !dbg !6940 ; [debug line = 181:36]
  store i8 1, i8* @_ZGVZ10correlatorN3hls6streamI10rfnoc_axisEES2_7ap_uintILi1EES3_ILi4EEE14out_sample_cnt, !dbg !6940 ; [debug line = 181:36]
  br label %506, !dbg !6940                       ; [debug line = 181:36]

; <label>:506                                     ; preds = %505, %502
  call void (...)* @_ssdm_op_SpecReset(%struct.ap_uint.8* @_ZZ10correlatorN3hls6streamI10rfnoc_axisEES2_7ap_uintILi1EES3_ILi4EEE14out_sample_cnt, i32 1, i8* getelementptr inbounds ([1 x i8]* @.str, i32 0, i32 0)) nounwind, !dbg !6941 ; [debug line = 182:1]
  %507 = load i8* @_ZGVZ10correlatorN3hls6streamI10rfnoc_axisEES2_7ap_uintILi1EES3_ILi4EEE9loadCount, align 1, !dbg !6942 ; [#uses=1 type=i8] [debug line = 184:29]
  %508 = icmp eq i8 %507, 0, !dbg !6942           ; [#uses=1 type=i1] [debug line = 184:29]
  br i1 %508, label %509, label %510, !dbg !6942  ; [debug line = 184:29]

; <label>:509                                     ; preds = %506
  call void @_ZN6ap_intILi32EEC1Ev(%struct.ap_fixed.6* @_ZZ10correlatorN3hls6streamI10rfnoc_axisEES2_7ap_uintILi1EES3_ILi4EEE9loadCount), !dbg !6942 ; [debug line = 184:29]
  store i8 1, i8* @_ZGVZ10correlatorN3hls6streamI10rfnoc_axisEES2_7ap_uintILi1EES3_ILi4EEE9loadCount, !dbg !6942 ; [debug line = 184:29]
  br label %510, !dbg !6942                       ; [debug line = 184:29]

; <label>:510                                     ; preds = %509, %506
  call void (...)* @_ssdm_op_SpecReset(%struct.ap_fixed.6* @_ZZ10correlatorN3hls6streamI10rfnoc_axisEES2_7ap_uintILi1EES3_ILi4EEE9loadCount, i32 1, i8* getelementptr inbounds ([1 x i8]* @.str, i32 0, i32 0)) nounwind, !dbg !6943 ; [debug line = 185:1]
  call void @llvm.dbg.declare(metadata !{%struct.rfnoc_axis* %tmp_data}, metadata !6944), !dbg !6945 ; [debug line = 187:13] [debug variable = tmp_data]
  call void @_ZN10rfnoc_axisC1Ev(%struct.rfnoc_axis* %tmp_data), !dbg !6946 ; [debug line = 187:21]
  %511 = load i8* @_ZGVZ10correlatorN3hls6streamI10rfnoc_axisEES2_7ap_uintILi1EES3_ILi4EEE12readResCount, align 1, !dbg !6947 ; [#uses=1 type=i8] [debug line = 189:34]
  %512 = icmp eq i8 %511, 0, !dbg !6947           ; [#uses=1 type=i1] [debug line = 189:34]
  br i1 %512, label %513, label %514, !dbg !6947  ; [debug line = 189:34]

; <label>:513                                     ; preds = %510
  call void @_ZN7ap_uintILi32EEC1Ev(%struct.ap_fixed.6* @_ZZ10correlatorN3hls6streamI10rfnoc_axisEES2_7ap_uintILi1EES3_ILi4EEE12readResCount), !dbg !6947 ; [debug line = 189:34]
  store i8 1, i8* @_ZGVZ10correlatorN3hls6streamI10rfnoc_axisEES2_7ap_uintILi1EES3_ILi4EEE12readResCount, !dbg !6947 ; [debug line = 189:34]
  br label %514, !dbg !6947                       ; [debug line = 189:34]

; <label>:514                                     ; preds = %513, %510
  call void (...)* @_ssdm_op_SpecReset(%struct.ap_fixed.6* @_ZZ10correlatorN3hls6streamI10rfnoc_axisEES2_7ap_uintILi1EES3_ILi4EEE12readResCount, i32 1, i8* getelementptr inbounds ([1 x i8]* @.str, i32 0, i32 0)) nounwind, !dbg !6948 ; [debug line = 190:1]
  %515 = load i8* @_ZGVZ10correlatorN3hls6streamI10rfnoc_axisEES2_7ap_uintILi1EES3_ILi4EEE10corHelperI, align 1, !dbg !6949 ; [#uses=1 type=i8] [debug line = 195:36]
  %516 = icmp eq i8 %515, 0, !dbg !6949           ; [#uses=1 type=i1] [debug line = 195:36]
  br i1 %516, label %517, label %518, !dbg !6949  ; [debug line = 195:36]

; <label>:517                                     ; preds = %514
  call void @_ZN8ap_fixedILi32ELi22EL9ap_q_mode5EL9ap_o_mode3ELi0EEC1Ev(%struct.ap_fixed.6* @_ZZ10correlatorN3hls6streamI10rfnoc_axisEES2_7ap_uintILi1EES3_ILi4EEE10corHelperI), !dbg !6949 ; [debug line = 195:36]
  store i8 1, i8* @_ZGVZ10correlatorN3hls6streamI10rfnoc_axisEES2_7ap_uintILi1EES3_ILi4EEE10corHelperI, !dbg !6949 ; [debug line = 195:36]
  br label %518, !dbg !6949                       ; [debug line = 195:36]

; <label>:518                                     ; preds = %517, %514
  call void (...)* @_ssdm_op_SpecReset(%struct.ap_fixed.6* @_ZZ10correlatorN3hls6streamI10rfnoc_axisEES2_7ap_uintILi1EES3_ILi4EEE10corHelperI, i32 1, i8* getelementptr inbounds ([1 x i8]* @.str, i32 0, i32 0)) nounwind, !dbg !6950 ; [debug line = 196:1]
  %519 = load i8* @_ZGVZ10correlatorN3hls6streamI10rfnoc_axisEES2_7ap_uintILi1EES3_ILi4EEE10corHelperQ, align 1, !dbg !6951 ; [#uses=1 type=i8] [debug line = 198:35]
  %520 = icmp eq i8 %519, 0, !dbg !6951           ; [#uses=1 type=i1] [debug line = 198:35]
  br i1 %520, label %521, label %522, !dbg !6951  ; [debug line = 198:35]

; <label>:521                                     ; preds = %518
  call void @_ZN8ap_fixedILi32ELi22EL9ap_q_mode5EL9ap_o_mode3ELi0EEC1Ev(%struct.ap_fixed.6* @_ZZ10correlatorN3hls6streamI10rfnoc_axisEES2_7ap_uintILi1EES3_ILi4EEE10corHelperQ), !dbg !6951 ; [debug line = 198:35]
  store i8 1, i8* @_ZGVZ10correlatorN3hls6streamI10rfnoc_axisEES2_7ap_uintILi1EES3_ILi4EEE10corHelperQ, !dbg !6951 ; [debug line = 198:35]
  br label %522, !dbg !6951                       ; [debug line = 198:35]

; <label>:522                                     ; preds = %521, %518
  call void (...)* @_ssdm_op_SpecReset(%struct.ap_fixed.6* @_ZZ10correlatorN3hls6streamI10rfnoc_axisEES2_7ap_uintILi1EES3_ILi4EEE10corHelperQ, i32 1, i8* getelementptr inbounds ([1 x i8]* @.str, i32 0, i32 0)) nounwind, !dbg !6952 ; [debug line = 199:1]
  %523 = load i1* @_ZZ10correlatorN3hls6streamI10rfnoc_axisEES2_7ap_uintILi1EES3_ILi4EEE12currentState, align 1, !dbg !6953 ; [#uses=1 type=i1] [debug line = 204:1]
  %524 = zext i1 %523 to i32, !dbg !6953          ; [#uses=1 type=i32] [debug line = 204:1]
  call void (...)* @_ssdm_op_SpecReset(i32 %524, i32 1, i8* getelementptr inbounds ([1 x i8]* @.str, i32 0, i32 0)) nounwind, !dbg !6953 ; [debug line = 204:1]
  %525 = load i1* @_ZZ10correlatorN3hls6streamI10rfnoc_axisEES2_7ap_uintILi1EES3_ILi4EEE12currentState, align 1, !dbg !6954 ; [#uses=1 type=i1] [debug line = 209:2]
  %526 = zext i1 %525 to i32, !dbg !6954          ; [#uses=1 type=i32] [debug line = 209:2]
  switch i32 %526, label %930 [
    i32 0, label %527
    i32 1, label %533
  ], !dbg !6954                                   ; [debug line = 209:2]

; <label>:527                                     ; preds = %522
  %528 = bitcast %struct.ap_uint* %start to %struct.ap_int_base.0*, !dbg !6955 ; [#uses=1 type=%struct.ap_int_base.0*] [debug line = 211:6]
  %529 = call zeroext i8 @_ZNK11ap_int_baseILi1ELb0ELb1EEcvhEv(%struct.ap_int_base.0* %528), !dbg !6955 ; [#uses=1 type=i8] [debug line = 211:6]
  %530 = icmp ne i8 %529, 0, !dbg !6955           ; [#uses=1 type=i1] [debug line = 211:6]
  br i1 %530, label %531, label %532, !dbg !6955  ; [debug line = 211:6]

; <label>:531                                     ; preds = %527
  store i1 true, i1* @_ZZ10correlatorN3hls6streamI10rfnoc_axisEES2_7ap_uintILi1EES3_ILi4EEE12currentState, align 1, !dbg !6957 ; [debug line = 212:4]
  store i1 false, i1* @_ZZ10correlatorN3hls6streamI10rfnoc_axisEES2_7ap_uintILi1EES3_ILi4EEE8corState, align 1, !dbg !6959 ; [debug line = 213:4]
  br label %532, !dbg !6960                       ; [debug line = 214:3]

; <label>:532                                     ; preds = %531, %527
  br label %930, !dbg !6961                       ; [debug line = 215:3]

; <label>:533                                     ; preds = %522
  %534 = call zeroext i1 @_ZNK3hls6streamI10rfnoc_axisE5emptyEv(%"class.hls::stream"* %i_data), !dbg !6962 ; [#uses=1 type=i1] [debug line = 217:7]
  br i1 %534, label %929, label %535, !dbg !6962  ; [debug line = 217:7]

; <label>:535                                     ; preds = %533
  call void @_ZN3hls6streamI10rfnoc_axisE4readERS1_(%"class.hls::stream"* %i_data, %struct.rfnoc_axis* %tmp_data), !dbg !6963 ; [debug line = 218:4]
  %536 = getelementptr inbounds %struct.rfnoc_axis* %tmp_data, i32 0, i32 0, !dbg !6965 ; [#uses=1 type=%struct.ap_fixed.6*] [debug line = 225:15]
  %537 = bitcast %struct.ap_fixed.6* %536 to %struct.ap_fixed_base.7*, !dbg !6965 ; [#uses=1 type=%struct.ap_fixed_base.7*] [debug line = 225:15]
  call void @_ZN11ap_int_baseILi32ELb1ELb1EE5rangeEii(%struct.ap_range_ref* sret %1, %struct.ap_fixed_base.7* %537, i32 15, i32 0), !dbg !6965 ; [debug line = 225:15]
  %538 = call i64 @_ZNK12ap_range_refILi32ELb1EEcvyEv(%struct.ap_range_ref* %1), !dbg !6965 ; [#uses=1 type=i64] [debug line = 225:15]
  %539 = trunc i64 %538 to i16, !dbg !6965        ; [#uses=1 type=i16] [debug line = 225:15]
  store i16 %539, i16* getelementptr inbounds (%struct.ap_fixed* @_ZZ10correlatorN3hls6streamI10rfnoc_axisEES2_7ap_uintILi1EES3_ILi4EEE6newVal, i32 0, i32 0, i32 0, i32 0), align 2, !dbg !6965 ; [debug line = 225:15]
  %540 = bitcast %struct.ap_uint.2* %phaseClass to %struct.ap_int_base.3*, !dbg !6966 ; [#uses=1 type=%struct.ap_int_base.3*] [debug line = 227:11]
  %541 = call zeroext i8 @_ZNK11ap_int_baseILi4ELb0ELb1EEcvhEv(%struct.ap_int_base.3* %540), !dbg !6966 ; [#uses=1 type=i8] [debug line = 227:11]
  %542 = zext i8 %541 to i32, !dbg !6966          ; [#uses=1 type=i32] [debug line = 227:11]
  switch i32 %542, label %927 [
    i32 0, label %543
    i32 1, label %567
    i32 2, label %591
    i32 3, label %615
    i32 4, label %639
    i32 5, label %663
    i32 6, label %687
    i32 7, label %711
    i32 8, label %735
    i32 9, label %759
    i32 10, label %783
    i32 11, label %807
    i32 12, label %831
    i32 13, label %855
    i32 14, label %879
    i32 15, label %903
  ], !dbg !6966                                   ; [debug line = 227:11]

; <label>:543                                     ; preds = %535
  br label %544, !dbg !6967                       ; [debug line = 227:22]

; <label>:544                                     ; preds = %543
  call void @llvm.dbg.declare(metadata !{i32* %a}, metadata !6969), !dbg !6971 ; [debug line = 229:26] [debug variable = a]
  store i32 15, i32* %a, align 4, !dbg !6972      ; [debug line = 229:34]
  br label %545, !dbg !6972                       ; [debug line = 229:34]

; <label>:545                                     ; preds = %557, %544
  %546 = load i32* %a, align 4, !dbg !6972        ; [#uses=1 type=i32] [debug line = 229:34]
  %547 = icmp sgt i32 %546, 0, !dbg !6972         ; [#uses=1 type=i1] [debug line = 229:34]
  br i1 %547, label %548, label %560, !dbg !6972  ; [debug line = 229:34]

; <label>:548                                     ; preds = %545
  call void (...)* @_ssdm_op_SpecLoopName(i8* getelementptr inbounds ([12 x i8]* @.str5, i32 0, i32 0)) nounwind, !dbg !6973 ; [debug line = 229:44]
  call void (...)* @_ssdm_RegionBegin(i8* getelementptr inbounds ([12 x i8]* @.str5, i32 0, i32 0)) nounwind, !dbg !6973 ; [debug line = 229:44]
  call void (...)* @_ssdm_Unroll(i32 0, i32 0, i32 0, i8* getelementptr inbounds ([1 x i8]* @.str, i32 0, i32 0)) nounwind, !dbg !6975 ; [debug line = 230:1]
  %549 = load i32* %a, align 4, !dbg !6976        ; [#uses=1 type=i32] [debug line = 231:2]
  %550 = sext i32 %549 to i64, !dbg !6976         ; [#uses=1 type=i64] [debug line = 231:2]
  %551 = getelementptr inbounds [16 x %struct.ap_fixed]* @_ZZ10correlatorN3hls6streamI10rfnoc_axisEES2_7ap_uintILi1EES3_ILi4EEE11phaseClass0, i32 0, i64 %550, !dbg !6976 ; [#uses=1 type=%struct.ap_fixed*] [debug line = 231:2]
  %552 = load i32* %a, align 4, !dbg !6976        ; [#uses=1 type=i32] [debug line = 231:2]
  %553 = sub nsw i32 %552, 1, !dbg !6976          ; [#uses=1 type=i32] [debug line = 231:2]
  %554 = sext i32 %553 to i64, !dbg !6976         ; [#uses=1 type=i64] [debug line = 231:2]
  %555 = getelementptr inbounds [16 x %struct.ap_fixed]* @_ZZ10correlatorN3hls6streamI10rfnoc_axisEES2_7ap_uintILi1EES3_ILi4EEE11phaseClass0, i32 0, i64 %554, !dbg !6976 ; [#uses=1 type=%struct.ap_fixed*] [debug line = 231:2]
  %556 = call %struct.ap_fixed* @_ZN8ap_fixedILi16ELi11EL9ap_q_mode5EL9ap_o_mode3ELi0EEaSERKS2_(%struct.ap_fixed* %551, %struct.ap_fixed* %555), !dbg !6976 ; [#uses=0 type=%struct.ap_fixed*] [debug line = 231:2]
  call void (...)* @_ssdm_RegionEnd(i8* getelementptr inbounds ([12 x i8]* @.str5, i32 0, i32 0)) nounwind, !dbg !6977 ; [debug line = 232:5]
  br label %557, !dbg !6977                       ; [debug line = 232:5]

; <label>:557                                     ; preds = %548
  %558 = load i32* %a, align 4, !dbg !6978        ; [#uses=1 type=i32] [debug line = 229:39]
  %559 = add nsw i32 %558, -1, !dbg !6978         ; [#uses=1 type=i32] [debug line = 229:39]
  store i32 %559, i32* %a, align 4, !dbg !6978    ; [debug line = 229:39]
  br label %545, !dbg !6978                       ; [debug line = 229:39]

; <label>:560                                     ; preds = %545
  %561 = call %struct.ap_fixed* @_ZN8ap_fixedILi16ELi11EL9ap_q_mode5EL9ap_o_mode3ELi0EEaSERKS2_(%struct.ap_fixed* getelementptr inbounds ([16 x %struct.ap_fixed]* @_ZZ10correlatorN3hls6streamI10rfnoc_axisEES2_7ap_uintILi1EES3_ILi4EEE11phaseClass0, i32 0, i64 0), %struct.ap_fixed* @_ZZ10correlatorN3hls6streamI10rfnoc_axisEES2_7ap_uintILi1EES3_ILi4EEE6newVal), !dbg !6979 ; [#uses=0 type=%struct.ap_fixed*] [debug line = 233:5]
  %562 = bitcast %struct.ap_uint.2* %phaseClass to %struct.ap_int_base.3*, !dbg !6980 ; [#uses=1 type=%struct.ap_int_base.3*] [debug line = 234:21]
  %563 = call zeroext i8 @_ZNK11ap_int_baseILi4ELb0ELb1EEcvhEv(%struct.ap_int_base.3* %562), !dbg !6980 ; [#uses=1 type=i8] [debug line = 234:21]
  %564 = zext i8 %563 to i64, !dbg !6980          ; [#uses=1 type=i64] [debug line = 234:21]
  %565 = getelementptr inbounds [16 x %struct.ap_uint]* @_ZZ10correlatorN3hls6streamI10rfnoc_axisEES2_7ap_uintILi1EES3_ILi4EEE15phaseClassValid, i32 0, i64 %564, !dbg !6980 ; [#uses=1 type=%struct.ap_uint*] [debug line = 234:21]
  call void @_ZN7ap_uintILi1EEC1Ei(%struct.ap_uint* %2, i32 1), !dbg !6980 ; [debug line = 234:21]
  %566 = call %struct.ap_uint* @_ZN7ap_uintILi1EEaSERKS0_(%struct.ap_uint* %565, %struct.ap_uint* %2), !dbg !6980 ; [#uses=0 type=%struct.ap_uint*] [debug line = 234:21]
  br label %927, !dbg !6981                       ; [debug line = 235:5]

; <label>:567                                     ; preds = %535
  br label %568, !dbg !6981                       ; [debug line = 235:5]

; <label>:568                                     ; preds = %567
  call void @llvm.dbg.declare(metadata !{i32* %a1}, metadata !6982), !dbg !6984 ; [debug line = 237:26] [debug variable = a]
  store i32 15, i32* %a1, align 4, !dbg !6985     ; [debug line = 237:34]
  br label %569, !dbg !6985                       ; [debug line = 237:34]

; <label>:569                                     ; preds = %581, %568
  %570 = load i32* %a1, align 4, !dbg !6985       ; [#uses=1 type=i32] [debug line = 237:34]
  %571 = icmp sgt i32 %570, 0, !dbg !6985         ; [#uses=1 type=i1] [debug line = 237:34]
  br i1 %571, label %572, label %584, !dbg !6985  ; [debug line = 237:34]

; <label>:572                                     ; preds = %569
  call void (...)* @_ssdm_op_SpecLoopName(i8* getelementptr inbounds ([12 x i8]* @.str6, i32 0, i32 0)) nounwind, !dbg !6986 ; [debug line = 237:44]
  call void (...)* @_ssdm_RegionBegin(i8* getelementptr inbounds ([12 x i8]* @.str6, i32 0, i32 0)) nounwind, !dbg !6986 ; [debug line = 237:44]
  call void (...)* @_ssdm_Unroll(i32 0, i32 0, i32 0, i8* getelementptr inbounds ([1 x i8]* @.str, i32 0, i32 0)) nounwind, !dbg !6988 ; [debug line = 238:1]
  %573 = load i32* %a1, align 4, !dbg !6989       ; [#uses=1 type=i32] [debug line = 239:2]
  %574 = sext i32 %573 to i64, !dbg !6989         ; [#uses=1 type=i64] [debug line = 239:2]
  %575 = getelementptr inbounds [16 x %struct.ap_fixed]* @_ZZ10correlatorN3hls6streamI10rfnoc_axisEES2_7ap_uintILi1EES3_ILi4EEE11phaseClass1, i32 0, i64 %574, !dbg !6989 ; [#uses=1 type=%struct.ap_fixed*] [debug line = 239:2]
  %576 = load i32* %a1, align 4, !dbg !6989       ; [#uses=1 type=i32] [debug line = 239:2]
  %577 = sub nsw i32 %576, 1, !dbg !6989          ; [#uses=1 type=i32] [debug line = 239:2]
  %578 = sext i32 %577 to i64, !dbg !6989         ; [#uses=1 type=i64] [debug line = 239:2]
  %579 = getelementptr inbounds [16 x %struct.ap_fixed]* @_ZZ10correlatorN3hls6streamI10rfnoc_axisEES2_7ap_uintILi1EES3_ILi4EEE11phaseClass1, i32 0, i64 %578, !dbg !6989 ; [#uses=1 type=%struct.ap_fixed*] [debug line = 239:2]
  %580 = call %struct.ap_fixed* @_ZN8ap_fixedILi16ELi11EL9ap_q_mode5EL9ap_o_mode3ELi0EEaSERKS2_(%struct.ap_fixed* %575, %struct.ap_fixed* %579), !dbg !6989 ; [#uses=0 type=%struct.ap_fixed*] [debug line = 239:2]
  call void (...)* @_ssdm_RegionEnd(i8* getelementptr inbounds ([12 x i8]* @.str6, i32 0, i32 0)) nounwind, !dbg !6990 ; [debug line = 240:5]
  br label %581, !dbg !6990                       ; [debug line = 240:5]

; <label>:581                                     ; preds = %572
  %582 = load i32* %a1, align 4, !dbg !6991       ; [#uses=1 type=i32] [debug line = 237:39]
  %583 = add nsw i32 %582, -1, !dbg !6991         ; [#uses=1 type=i32] [debug line = 237:39]
  store i32 %583, i32* %a1, align 4, !dbg !6991   ; [debug line = 237:39]
  br label %569, !dbg !6991                       ; [debug line = 237:39]

; <label>:584                                     ; preds = %569
  %585 = call %struct.ap_fixed* @_ZN8ap_fixedILi16ELi11EL9ap_q_mode5EL9ap_o_mode3ELi0EEaSERKS2_(%struct.ap_fixed* getelementptr inbounds ([16 x %struct.ap_fixed]* @_ZZ10correlatorN3hls6streamI10rfnoc_axisEES2_7ap_uintILi1EES3_ILi4EEE11phaseClass1, i32 0, i64 0), %struct.ap_fixed* @_ZZ10correlatorN3hls6streamI10rfnoc_axisEES2_7ap_uintILi1EES3_ILi4EEE6newVal), !dbg !6992 ; [#uses=0 type=%struct.ap_fixed*] [debug line = 241:5]
  %586 = bitcast %struct.ap_uint.2* %phaseClass to %struct.ap_int_base.3*, !dbg !6993 ; [#uses=1 type=%struct.ap_int_base.3*] [debug line = 242:21]
  %587 = call zeroext i8 @_ZNK11ap_int_baseILi4ELb0ELb1EEcvhEv(%struct.ap_int_base.3* %586), !dbg !6993 ; [#uses=1 type=i8] [debug line = 242:21]
  %588 = zext i8 %587 to i64, !dbg !6993          ; [#uses=1 type=i64] [debug line = 242:21]
  %589 = getelementptr inbounds [16 x %struct.ap_uint]* @_ZZ10correlatorN3hls6streamI10rfnoc_axisEES2_7ap_uintILi1EES3_ILi4EEE15phaseClassValid, i32 0, i64 %588, !dbg !6993 ; [#uses=1 type=%struct.ap_uint*] [debug line = 242:21]
  call void @_ZN7ap_uintILi1EEC1Ei(%struct.ap_uint* %3, i32 1), !dbg !6993 ; [debug line = 242:21]
  %590 = call %struct.ap_uint* @_ZN7ap_uintILi1EEaSERKS0_(%struct.ap_uint* %589, %struct.ap_uint* %3), !dbg !6993 ; [#uses=0 type=%struct.ap_uint*] [debug line = 242:21]
  br label %927, !dbg !6994                       ; [debug line = 243:5]

; <label>:591                                     ; preds = %535
  br label %592, !dbg !6994                       ; [debug line = 243:5]

; <label>:592                                     ; preds = %591
  call void @llvm.dbg.declare(metadata !{i32* %a2}, metadata !6995), !dbg !6997 ; [debug line = 245:26] [debug variable = a]
  store i32 15, i32* %a2, align 4, !dbg !6998     ; [debug line = 245:34]
  br label %593, !dbg !6998                       ; [debug line = 245:34]

; <label>:593                                     ; preds = %605, %592
  %594 = load i32* %a2, align 4, !dbg !6998       ; [#uses=1 type=i32] [debug line = 245:34]
  %595 = icmp sgt i32 %594, 0, !dbg !6998         ; [#uses=1 type=i1] [debug line = 245:34]
  br i1 %595, label %596, label %608, !dbg !6998  ; [debug line = 245:34]

; <label>:596                                     ; preds = %593
  call void (...)* @_ssdm_op_SpecLoopName(i8* getelementptr inbounds ([12 x i8]* @.str7, i32 0, i32 0)) nounwind, !dbg !6999 ; [debug line = 245:44]
  call void (...)* @_ssdm_RegionBegin(i8* getelementptr inbounds ([12 x i8]* @.str7, i32 0, i32 0)) nounwind, !dbg !6999 ; [debug line = 245:44]
  call void (...)* @_ssdm_Unroll(i32 0, i32 0, i32 0, i8* getelementptr inbounds ([1 x i8]* @.str, i32 0, i32 0)) nounwind, !dbg !7001 ; [debug line = 246:1]
  %597 = load i32* %a2, align 4, !dbg !7002       ; [#uses=1 type=i32] [debug line = 247:2]
  %598 = sext i32 %597 to i64, !dbg !7002         ; [#uses=1 type=i64] [debug line = 247:2]
  %599 = getelementptr inbounds [16 x %struct.ap_fixed]* @_ZZ10correlatorN3hls6streamI10rfnoc_axisEES2_7ap_uintILi1EES3_ILi4EEE11phaseClass2, i32 0, i64 %598, !dbg !7002 ; [#uses=1 type=%struct.ap_fixed*] [debug line = 247:2]
  %600 = load i32* %a2, align 4, !dbg !7002       ; [#uses=1 type=i32] [debug line = 247:2]
  %601 = sub nsw i32 %600, 1, !dbg !7002          ; [#uses=1 type=i32] [debug line = 247:2]
  %602 = sext i32 %601 to i64, !dbg !7002         ; [#uses=1 type=i64] [debug line = 247:2]
  %603 = getelementptr inbounds [16 x %struct.ap_fixed]* @_ZZ10correlatorN3hls6streamI10rfnoc_axisEES2_7ap_uintILi1EES3_ILi4EEE11phaseClass2, i32 0, i64 %602, !dbg !7002 ; [#uses=1 type=%struct.ap_fixed*] [debug line = 247:2]
  %604 = call %struct.ap_fixed* @_ZN8ap_fixedILi16ELi11EL9ap_q_mode5EL9ap_o_mode3ELi0EEaSERKS2_(%struct.ap_fixed* %599, %struct.ap_fixed* %603), !dbg !7002 ; [#uses=0 type=%struct.ap_fixed*] [debug line = 247:2]
  call void (...)* @_ssdm_RegionEnd(i8* getelementptr inbounds ([12 x i8]* @.str7, i32 0, i32 0)) nounwind, !dbg !7003 ; [debug line = 248:5]
  br label %605, !dbg !7003                       ; [debug line = 248:5]

; <label>:605                                     ; preds = %596
  %606 = load i32* %a2, align 4, !dbg !7004       ; [#uses=1 type=i32] [debug line = 245:39]
  %607 = add nsw i32 %606, -1, !dbg !7004         ; [#uses=1 type=i32] [debug line = 245:39]
  store i32 %607, i32* %a2, align 4, !dbg !7004   ; [debug line = 245:39]
  br label %593, !dbg !7004                       ; [debug line = 245:39]

; <label>:608                                     ; preds = %593
  %609 = call %struct.ap_fixed* @_ZN8ap_fixedILi16ELi11EL9ap_q_mode5EL9ap_o_mode3ELi0EEaSERKS2_(%struct.ap_fixed* getelementptr inbounds ([16 x %struct.ap_fixed]* @_ZZ10correlatorN3hls6streamI10rfnoc_axisEES2_7ap_uintILi1EES3_ILi4EEE11phaseClass2, i32 0, i64 0), %struct.ap_fixed* @_ZZ10correlatorN3hls6streamI10rfnoc_axisEES2_7ap_uintILi1EES3_ILi4EEE6newVal), !dbg !7005 ; [#uses=0 type=%struct.ap_fixed*] [debug line = 249:5]
  %610 = bitcast %struct.ap_uint.2* %phaseClass to %struct.ap_int_base.3*, !dbg !7006 ; [#uses=1 type=%struct.ap_int_base.3*] [debug line = 250:21]
  %611 = call zeroext i8 @_ZNK11ap_int_baseILi4ELb0ELb1EEcvhEv(%struct.ap_int_base.3* %610), !dbg !7006 ; [#uses=1 type=i8] [debug line = 250:21]
  %612 = zext i8 %611 to i64, !dbg !7006          ; [#uses=1 type=i64] [debug line = 250:21]
  %613 = getelementptr inbounds [16 x %struct.ap_uint]* @_ZZ10correlatorN3hls6streamI10rfnoc_axisEES2_7ap_uintILi1EES3_ILi4EEE15phaseClassValid, i32 0, i64 %612, !dbg !7006 ; [#uses=1 type=%struct.ap_uint*] [debug line = 250:21]
  call void @_ZN7ap_uintILi1EEC1Ei(%struct.ap_uint* %4, i32 1), !dbg !7006 ; [debug line = 250:21]
  %614 = call %struct.ap_uint* @_ZN7ap_uintILi1EEaSERKS0_(%struct.ap_uint* %613, %struct.ap_uint* %4), !dbg !7006 ; [#uses=0 type=%struct.ap_uint*] [debug line = 250:21]
  br label %927, !dbg !7007                       ; [debug line = 252:5]

; <label>:615                                     ; preds = %535
  br label %616, !dbg !7007                       ; [debug line = 252:5]

; <label>:616                                     ; preds = %615
  call void @llvm.dbg.declare(metadata !{i32* %a3}, metadata !7008), !dbg !7010 ; [debug line = 254:26] [debug variable = a]
  store i32 15, i32* %a3, align 4, !dbg !7011     ; [debug line = 254:34]
  br label %617, !dbg !7011                       ; [debug line = 254:34]

; <label>:617                                     ; preds = %629, %616
  %618 = load i32* %a3, align 4, !dbg !7011       ; [#uses=1 type=i32] [debug line = 254:34]
  %619 = icmp sgt i32 %618, 0, !dbg !7011         ; [#uses=1 type=i1] [debug line = 254:34]
  br i1 %619, label %620, label %632, !dbg !7011  ; [debug line = 254:34]

; <label>:620                                     ; preds = %617
  call void (...)* @_ssdm_op_SpecLoopName(i8* getelementptr inbounds ([12 x i8]* @.str8, i32 0, i32 0)) nounwind, !dbg !7012 ; [debug line = 254:44]
  call void (...)* @_ssdm_RegionBegin(i8* getelementptr inbounds ([12 x i8]* @.str8, i32 0, i32 0)) nounwind, !dbg !7012 ; [debug line = 254:44]
  call void (...)* @_ssdm_Unroll(i32 0, i32 0, i32 0, i8* getelementptr inbounds ([1 x i8]* @.str, i32 0, i32 0)) nounwind, !dbg !7014 ; [debug line = 255:1]
  %621 = load i32* %a3, align 4, !dbg !7015       ; [#uses=1 type=i32] [debug line = 256:2]
  %622 = sext i32 %621 to i64, !dbg !7015         ; [#uses=1 type=i64] [debug line = 256:2]
  %623 = getelementptr inbounds [16 x %struct.ap_fixed]* @_ZZ10correlatorN3hls6streamI10rfnoc_axisEES2_7ap_uintILi1EES3_ILi4EEE11phaseClass3, i32 0, i64 %622, !dbg !7015 ; [#uses=1 type=%struct.ap_fixed*] [debug line = 256:2]
  %624 = load i32* %a3, align 4, !dbg !7015       ; [#uses=1 type=i32] [debug line = 256:2]
  %625 = sub nsw i32 %624, 1, !dbg !7015          ; [#uses=1 type=i32] [debug line = 256:2]
  %626 = sext i32 %625 to i64, !dbg !7015         ; [#uses=1 type=i64] [debug line = 256:2]
  %627 = getelementptr inbounds [16 x %struct.ap_fixed]* @_ZZ10correlatorN3hls6streamI10rfnoc_axisEES2_7ap_uintILi1EES3_ILi4EEE11phaseClass3, i32 0, i64 %626, !dbg !7015 ; [#uses=1 type=%struct.ap_fixed*] [debug line = 256:2]
  %628 = call %struct.ap_fixed* @_ZN8ap_fixedILi16ELi11EL9ap_q_mode5EL9ap_o_mode3ELi0EEaSERKS2_(%struct.ap_fixed* %623, %struct.ap_fixed* %627), !dbg !7015 ; [#uses=0 type=%struct.ap_fixed*] [debug line = 256:2]
  call void (...)* @_ssdm_RegionEnd(i8* getelementptr inbounds ([12 x i8]* @.str8, i32 0, i32 0)) nounwind, !dbg !7016 ; [debug line = 257:5]
  br label %629, !dbg !7016                       ; [debug line = 257:5]

; <label>:629                                     ; preds = %620
  %630 = load i32* %a3, align 4, !dbg !7017       ; [#uses=1 type=i32] [debug line = 254:39]
  %631 = add nsw i32 %630, -1, !dbg !7017         ; [#uses=1 type=i32] [debug line = 254:39]
  store i32 %631, i32* %a3, align 4, !dbg !7017   ; [debug line = 254:39]
  br label %617, !dbg !7017                       ; [debug line = 254:39]

; <label>:632                                     ; preds = %617
  %633 = call %struct.ap_fixed* @_ZN8ap_fixedILi16ELi11EL9ap_q_mode5EL9ap_o_mode3ELi0EEaSERKS2_(%struct.ap_fixed* getelementptr inbounds ([16 x %struct.ap_fixed]* @_ZZ10correlatorN3hls6streamI10rfnoc_axisEES2_7ap_uintILi1EES3_ILi4EEE11phaseClass3, i32 0, i64 0), %struct.ap_fixed* @_ZZ10correlatorN3hls6streamI10rfnoc_axisEES2_7ap_uintILi1EES3_ILi4EEE6newVal), !dbg !7018 ; [#uses=0 type=%struct.ap_fixed*] [debug line = 258:5]
  %634 = bitcast %struct.ap_uint.2* %phaseClass to %struct.ap_int_base.3*, !dbg !7019 ; [#uses=1 type=%struct.ap_int_base.3*] [debug line = 259:21]
  %635 = call zeroext i8 @_ZNK11ap_int_baseILi4ELb0ELb1EEcvhEv(%struct.ap_int_base.3* %634), !dbg !7019 ; [#uses=1 type=i8] [debug line = 259:21]
  %636 = zext i8 %635 to i64, !dbg !7019          ; [#uses=1 type=i64] [debug line = 259:21]
  %637 = getelementptr inbounds [16 x %struct.ap_uint]* @_ZZ10correlatorN3hls6streamI10rfnoc_axisEES2_7ap_uintILi1EES3_ILi4EEE15phaseClassValid, i32 0, i64 %636, !dbg !7019 ; [#uses=1 type=%struct.ap_uint*] [debug line = 259:21]
  call void @_ZN7ap_uintILi1EEC1Ei(%struct.ap_uint* %5, i32 1), !dbg !7019 ; [debug line = 259:21]
  %638 = call %struct.ap_uint* @_ZN7ap_uintILi1EEaSERKS0_(%struct.ap_uint* %637, %struct.ap_uint* %5), !dbg !7019 ; [#uses=0 type=%struct.ap_uint*] [debug line = 259:21]
  br label %927, !dbg !7020                       ; [debug line = 260:5]

; <label>:639                                     ; preds = %535
  br label %640, !dbg !7020                       ; [debug line = 260:5]

; <label>:640                                     ; preds = %639
  call void @llvm.dbg.declare(metadata !{i32* %a4}, metadata !7021), !dbg !7023 ; [debug line = 262:26] [debug variable = a]
  store i32 15, i32* %a4, align 4, !dbg !7024     ; [debug line = 262:34]
  br label %641, !dbg !7024                       ; [debug line = 262:34]

; <label>:641                                     ; preds = %653, %640
  %642 = load i32* %a4, align 4, !dbg !7024       ; [#uses=1 type=i32] [debug line = 262:34]
  %643 = icmp sgt i32 %642, 0, !dbg !7024         ; [#uses=1 type=i1] [debug line = 262:34]
  br i1 %643, label %644, label %656, !dbg !7024  ; [debug line = 262:34]

; <label>:644                                     ; preds = %641
  call void (...)* @_ssdm_op_SpecLoopName(i8* getelementptr inbounds ([12 x i8]* @.str9, i32 0, i32 0)) nounwind, !dbg !7025 ; [debug line = 262:44]
  call void (...)* @_ssdm_RegionBegin(i8* getelementptr inbounds ([12 x i8]* @.str9, i32 0, i32 0)) nounwind, !dbg !7025 ; [debug line = 262:44]
  call void (...)* @_ssdm_Unroll(i32 0, i32 0, i32 0, i8* getelementptr inbounds ([1 x i8]* @.str, i32 0, i32 0)) nounwind, !dbg !7027 ; [debug line = 263:1]
  %645 = load i32* %a4, align 4, !dbg !7028       ; [#uses=1 type=i32] [debug line = 264:2]
  %646 = sext i32 %645 to i64, !dbg !7028         ; [#uses=1 type=i64] [debug line = 264:2]
  %647 = getelementptr inbounds [16 x %struct.ap_fixed]* @_ZZ10correlatorN3hls6streamI10rfnoc_axisEES2_7ap_uintILi1EES3_ILi4EEE11phaseClass4, i32 0, i64 %646, !dbg !7028 ; [#uses=1 type=%struct.ap_fixed*] [debug line = 264:2]
  %648 = load i32* %a4, align 4, !dbg !7028       ; [#uses=1 type=i32] [debug line = 264:2]
  %649 = sub nsw i32 %648, 1, !dbg !7028          ; [#uses=1 type=i32] [debug line = 264:2]
  %650 = sext i32 %649 to i64, !dbg !7028         ; [#uses=1 type=i64] [debug line = 264:2]
  %651 = getelementptr inbounds [16 x %struct.ap_fixed]* @_ZZ10correlatorN3hls6streamI10rfnoc_axisEES2_7ap_uintILi1EES3_ILi4EEE11phaseClass4, i32 0, i64 %650, !dbg !7028 ; [#uses=1 type=%struct.ap_fixed*] [debug line = 264:2]
  %652 = call %struct.ap_fixed* @_ZN8ap_fixedILi16ELi11EL9ap_q_mode5EL9ap_o_mode3ELi0EEaSERKS2_(%struct.ap_fixed* %647, %struct.ap_fixed* %651), !dbg !7028 ; [#uses=0 type=%struct.ap_fixed*] [debug line = 264:2]
  call void (...)* @_ssdm_RegionEnd(i8* getelementptr inbounds ([12 x i8]* @.str9, i32 0, i32 0)) nounwind, !dbg !7029 ; [debug line = 265:5]
  br label %653, !dbg !7029                       ; [debug line = 265:5]

; <label>:653                                     ; preds = %644
  %654 = load i32* %a4, align 4, !dbg !7030       ; [#uses=1 type=i32] [debug line = 262:39]
  %655 = add nsw i32 %654, -1, !dbg !7030         ; [#uses=1 type=i32] [debug line = 262:39]
  store i32 %655, i32* %a4, align 4, !dbg !7030   ; [debug line = 262:39]
  br label %641, !dbg !7030                       ; [debug line = 262:39]

; <label>:656                                     ; preds = %641
  %657 = call %struct.ap_fixed* @_ZN8ap_fixedILi16ELi11EL9ap_q_mode5EL9ap_o_mode3ELi0EEaSERKS2_(%struct.ap_fixed* getelementptr inbounds ([16 x %struct.ap_fixed]* @_ZZ10correlatorN3hls6streamI10rfnoc_axisEES2_7ap_uintILi1EES3_ILi4EEE11phaseClass4, i32 0, i64 0), %struct.ap_fixed* @_ZZ10correlatorN3hls6streamI10rfnoc_axisEES2_7ap_uintILi1EES3_ILi4EEE6newVal), !dbg !7031 ; [#uses=0 type=%struct.ap_fixed*] [debug line = 266:5]
  %658 = bitcast %struct.ap_uint.2* %phaseClass to %struct.ap_int_base.3*, !dbg !7032 ; [#uses=1 type=%struct.ap_int_base.3*] [debug line = 267:21]
  %659 = call zeroext i8 @_ZNK11ap_int_baseILi4ELb0ELb1EEcvhEv(%struct.ap_int_base.3* %658), !dbg !7032 ; [#uses=1 type=i8] [debug line = 267:21]
  %660 = zext i8 %659 to i64, !dbg !7032          ; [#uses=1 type=i64] [debug line = 267:21]
  %661 = getelementptr inbounds [16 x %struct.ap_uint]* @_ZZ10correlatorN3hls6streamI10rfnoc_axisEES2_7ap_uintILi1EES3_ILi4EEE15phaseClassValid, i32 0, i64 %660, !dbg !7032 ; [#uses=1 type=%struct.ap_uint*] [debug line = 267:21]
  call void @_ZN7ap_uintILi1EEC1Ei(%struct.ap_uint* %6, i32 1), !dbg !7032 ; [debug line = 267:21]
  %662 = call %struct.ap_uint* @_ZN7ap_uintILi1EEaSERKS0_(%struct.ap_uint* %661, %struct.ap_uint* %6), !dbg !7032 ; [#uses=0 type=%struct.ap_uint*] [debug line = 267:21]
  br label %927, !dbg !7033                       ; [debug line = 268:5]

; <label>:663                                     ; preds = %535
  br label %664, !dbg !7033                       ; [debug line = 268:5]

; <label>:664                                     ; preds = %663
  call void @llvm.dbg.declare(metadata !{i32* %a5}, metadata !7034), !dbg !7036 ; [debug line = 270:26] [debug variable = a]
  store i32 15, i32* %a5, align 4, !dbg !7037     ; [debug line = 270:34]
  br label %665, !dbg !7037                       ; [debug line = 270:34]

; <label>:665                                     ; preds = %677, %664
  %666 = load i32* %a5, align 4, !dbg !7037       ; [#uses=1 type=i32] [debug line = 270:34]
  %667 = icmp sgt i32 %666, 0, !dbg !7037         ; [#uses=1 type=i1] [debug line = 270:34]
  br i1 %667, label %668, label %680, !dbg !7037  ; [debug line = 270:34]

; <label>:668                                     ; preds = %665
  call void (...)* @_ssdm_op_SpecLoopName(i8* getelementptr inbounds ([12 x i8]* @.str10, i32 0, i32 0)) nounwind, !dbg !7038 ; [debug line = 270:44]
  call void (...)* @_ssdm_RegionBegin(i8* getelementptr inbounds ([12 x i8]* @.str10, i32 0, i32 0)) nounwind, !dbg !7038 ; [debug line = 270:44]
  call void (...)* @_ssdm_Unroll(i32 0, i32 0, i32 0, i8* getelementptr inbounds ([1 x i8]* @.str, i32 0, i32 0)) nounwind, !dbg !7040 ; [debug line = 271:1]
  %669 = load i32* %a5, align 4, !dbg !7041       ; [#uses=1 type=i32] [debug line = 272:2]
  %670 = sext i32 %669 to i64, !dbg !7041         ; [#uses=1 type=i64] [debug line = 272:2]
  %671 = getelementptr inbounds [16 x %struct.ap_fixed]* @_ZZ10correlatorN3hls6streamI10rfnoc_axisEES2_7ap_uintILi1EES3_ILi4EEE11phaseClass5, i32 0, i64 %670, !dbg !7041 ; [#uses=1 type=%struct.ap_fixed*] [debug line = 272:2]
  %672 = load i32* %a5, align 4, !dbg !7041       ; [#uses=1 type=i32] [debug line = 272:2]
  %673 = sub nsw i32 %672, 1, !dbg !7041          ; [#uses=1 type=i32] [debug line = 272:2]
  %674 = sext i32 %673 to i64, !dbg !7041         ; [#uses=1 type=i64] [debug line = 272:2]
  %675 = getelementptr inbounds [16 x %struct.ap_fixed]* @_ZZ10correlatorN3hls6streamI10rfnoc_axisEES2_7ap_uintILi1EES3_ILi4EEE11phaseClass5, i32 0, i64 %674, !dbg !7041 ; [#uses=1 type=%struct.ap_fixed*] [debug line = 272:2]
  %676 = call %struct.ap_fixed* @_ZN8ap_fixedILi16ELi11EL9ap_q_mode5EL9ap_o_mode3ELi0EEaSERKS2_(%struct.ap_fixed* %671, %struct.ap_fixed* %675), !dbg !7041 ; [#uses=0 type=%struct.ap_fixed*] [debug line = 272:2]
  call void (...)* @_ssdm_RegionEnd(i8* getelementptr inbounds ([12 x i8]* @.str10, i32 0, i32 0)) nounwind, !dbg !7042 ; [debug line = 273:5]
  br label %677, !dbg !7042                       ; [debug line = 273:5]

; <label>:677                                     ; preds = %668
  %678 = load i32* %a5, align 4, !dbg !7043       ; [#uses=1 type=i32] [debug line = 270:39]
  %679 = add nsw i32 %678, -1, !dbg !7043         ; [#uses=1 type=i32] [debug line = 270:39]
  store i32 %679, i32* %a5, align 4, !dbg !7043   ; [debug line = 270:39]
  br label %665, !dbg !7043                       ; [debug line = 270:39]

; <label>:680                                     ; preds = %665
  %681 = call %struct.ap_fixed* @_ZN8ap_fixedILi16ELi11EL9ap_q_mode5EL9ap_o_mode3ELi0EEaSERKS2_(%struct.ap_fixed* getelementptr inbounds ([16 x %struct.ap_fixed]* @_ZZ10correlatorN3hls6streamI10rfnoc_axisEES2_7ap_uintILi1EES3_ILi4EEE11phaseClass5, i32 0, i64 0), %struct.ap_fixed* @_ZZ10correlatorN3hls6streamI10rfnoc_axisEES2_7ap_uintILi1EES3_ILi4EEE6newVal), !dbg !7044 ; [#uses=0 type=%struct.ap_fixed*] [debug line = 274:5]
  %682 = bitcast %struct.ap_uint.2* %phaseClass to %struct.ap_int_base.3*, !dbg !7045 ; [#uses=1 type=%struct.ap_int_base.3*] [debug line = 275:21]
  %683 = call zeroext i8 @_ZNK11ap_int_baseILi4ELb0ELb1EEcvhEv(%struct.ap_int_base.3* %682), !dbg !7045 ; [#uses=1 type=i8] [debug line = 275:21]
  %684 = zext i8 %683 to i64, !dbg !7045          ; [#uses=1 type=i64] [debug line = 275:21]
  %685 = getelementptr inbounds [16 x %struct.ap_uint]* @_ZZ10correlatorN3hls6streamI10rfnoc_axisEES2_7ap_uintILi1EES3_ILi4EEE15phaseClassValid, i32 0, i64 %684, !dbg !7045 ; [#uses=1 type=%struct.ap_uint*] [debug line = 275:21]
  call void @_ZN7ap_uintILi1EEC1Ei(%struct.ap_uint* %7, i32 1), !dbg !7045 ; [debug line = 275:21]
  %686 = call %struct.ap_uint* @_ZN7ap_uintILi1EEaSERKS0_(%struct.ap_uint* %685, %struct.ap_uint* %7), !dbg !7045 ; [#uses=0 type=%struct.ap_uint*] [debug line = 275:21]
  br label %927, !dbg !7046                       ; [debug line = 276:5]

; <label>:687                                     ; preds = %535
  br label %688, !dbg !7046                       ; [debug line = 276:5]

; <label>:688                                     ; preds = %687
  call void @llvm.dbg.declare(metadata !{i32* %a6}, metadata !7047), !dbg !7049 ; [debug line = 278:26] [debug variable = a]
  store i32 15, i32* %a6, align 4, !dbg !7050     ; [debug line = 278:34]
  br label %689, !dbg !7050                       ; [debug line = 278:34]

; <label>:689                                     ; preds = %701, %688
  %690 = load i32* %a6, align 4, !dbg !7050       ; [#uses=1 type=i32] [debug line = 278:34]
  %691 = icmp sgt i32 %690, 0, !dbg !7050         ; [#uses=1 type=i1] [debug line = 278:34]
  br i1 %691, label %692, label %704, !dbg !7050  ; [debug line = 278:34]

; <label>:692                                     ; preds = %689
  call void (...)* @_ssdm_op_SpecLoopName(i8* getelementptr inbounds ([12 x i8]* @.str11, i32 0, i32 0)) nounwind, !dbg !7051 ; [debug line = 278:44]
  call void (...)* @_ssdm_RegionBegin(i8* getelementptr inbounds ([12 x i8]* @.str11, i32 0, i32 0)) nounwind, !dbg !7051 ; [debug line = 278:44]
  call void (...)* @_ssdm_Unroll(i32 0, i32 0, i32 0, i8* getelementptr inbounds ([1 x i8]* @.str, i32 0, i32 0)) nounwind, !dbg !7053 ; [debug line = 279:1]
  %693 = load i32* %a6, align 4, !dbg !7054       ; [#uses=1 type=i32] [debug line = 280:2]
  %694 = sext i32 %693 to i64, !dbg !7054         ; [#uses=1 type=i64] [debug line = 280:2]
  %695 = getelementptr inbounds [16 x %struct.ap_fixed]* @_ZZ10correlatorN3hls6streamI10rfnoc_axisEES2_7ap_uintILi1EES3_ILi4EEE11phaseClass6, i32 0, i64 %694, !dbg !7054 ; [#uses=1 type=%struct.ap_fixed*] [debug line = 280:2]
  %696 = load i32* %a6, align 4, !dbg !7054       ; [#uses=1 type=i32] [debug line = 280:2]
  %697 = sub nsw i32 %696, 1, !dbg !7054          ; [#uses=1 type=i32] [debug line = 280:2]
  %698 = sext i32 %697 to i64, !dbg !7054         ; [#uses=1 type=i64] [debug line = 280:2]
  %699 = getelementptr inbounds [16 x %struct.ap_fixed]* @_ZZ10correlatorN3hls6streamI10rfnoc_axisEES2_7ap_uintILi1EES3_ILi4EEE11phaseClass6, i32 0, i64 %698, !dbg !7054 ; [#uses=1 type=%struct.ap_fixed*] [debug line = 280:2]
  %700 = call %struct.ap_fixed* @_ZN8ap_fixedILi16ELi11EL9ap_q_mode5EL9ap_o_mode3ELi0EEaSERKS2_(%struct.ap_fixed* %695, %struct.ap_fixed* %699), !dbg !7054 ; [#uses=0 type=%struct.ap_fixed*] [debug line = 280:2]
  call void (...)* @_ssdm_RegionEnd(i8* getelementptr inbounds ([12 x i8]* @.str11, i32 0, i32 0)) nounwind, !dbg !7055 ; [debug line = 281:5]
  br label %701, !dbg !7055                       ; [debug line = 281:5]

; <label>:701                                     ; preds = %692
  %702 = load i32* %a6, align 4, !dbg !7056       ; [#uses=1 type=i32] [debug line = 278:39]
  %703 = add nsw i32 %702, -1, !dbg !7056         ; [#uses=1 type=i32] [debug line = 278:39]
  store i32 %703, i32* %a6, align 4, !dbg !7056   ; [debug line = 278:39]
  br label %689, !dbg !7056                       ; [debug line = 278:39]

; <label>:704                                     ; preds = %689
  %705 = call %struct.ap_fixed* @_ZN8ap_fixedILi16ELi11EL9ap_q_mode5EL9ap_o_mode3ELi0EEaSERKS2_(%struct.ap_fixed* getelementptr inbounds ([16 x %struct.ap_fixed]* @_ZZ10correlatorN3hls6streamI10rfnoc_axisEES2_7ap_uintILi1EES3_ILi4EEE11phaseClass6, i32 0, i64 0), %struct.ap_fixed* @_ZZ10correlatorN3hls6streamI10rfnoc_axisEES2_7ap_uintILi1EES3_ILi4EEE6newVal), !dbg !7057 ; [#uses=0 type=%struct.ap_fixed*] [debug line = 282:5]
  %706 = bitcast %struct.ap_uint.2* %phaseClass to %struct.ap_int_base.3*, !dbg !7058 ; [#uses=1 type=%struct.ap_int_base.3*] [debug line = 283:21]
  %707 = call zeroext i8 @_ZNK11ap_int_baseILi4ELb0ELb1EEcvhEv(%struct.ap_int_base.3* %706), !dbg !7058 ; [#uses=1 type=i8] [debug line = 283:21]
  %708 = zext i8 %707 to i64, !dbg !7058          ; [#uses=1 type=i64] [debug line = 283:21]
  %709 = getelementptr inbounds [16 x %struct.ap_uint]* @_ZZ10correlatorN3hls6streamI10rfnoc_axisEES2_7ap_uintILi1EES3_ILi4EEE15phaseClassValid, i32 0, i64 %708, !dbg !7058 ; [#uses=1 type=%struct.ap_uint*] [debug line = 283:21]
  call void @_ZN7ap_uintILi1EEC1Ei(%struct.ap_uint* %8, i32 1), !dbg !7058 ; [debug line = 283:21]
  %710 = call %struct.ap_uint* @_ZN7ap_uintILi1EEaSERKS0_(%struct.ap_uint* %709, %struct.ap_uint* %8), !dbg !7058 ; [#uses=0 type=%struct.ap_uint*] [debug line = 283:21]
  br label %927, !dbg !7059                       ; [debug line = 284:5]

; <label>:711                                     ; preds = %535
  br label %712, !dbg !7059                       ; [debug line = 284:5]

; <label>:712                                     ; preds = %711
  call void @llvm.dbg.declare(metadata !{i32* %a7}, metadata !7060), !dbg !7062 ; [debug line = 286:26] [debug variable = a]
  store i32 15, i32* %a7, align 4, !dbg !7063     ; [debug line = 286:34]
  br label %713, !dbg !7063                       ; [debug line = 286:34]

; <label>:713                                     ; preds = %725, %712
  %714 = load i32* %a7, align 4, !dbg !7063       ; [#uses=1 type=i32] [debug line = 286:34]
  %715 = icmp sgt i32 %714, 0, !dbg !7063         ; [#uses=1 type=i1] [debug line = 286:34]
  br i1 %715, label %716, label %728, !dbg !7063  ; [debug line = 286:34]

; <label>:716                                     ; preds = %713
  call void (...)* @_ssdm_op_SpecLoopName(i8* getelementptr inbounds ([12 x i8]* @.str12, i32 0, i32 0)) nounwind, !dbg !7064 ; [debug line = 286:44]
  call void (...)* @_ssdm_RegionBegin(i8* getelementptr inbounds ([12 x i8]* @.str12, i32 0, i32 0)) nounwind, !dbg !7064 ; [debug line = 286:44]
  call void (...)* @_ssdm_Unroll(i32 0, i32 0, i32 0, i8* getelementptr inbounds ([1 x i8]* @.str, i32 0, i32 0)) nounwind, !dbg !7066 ; [debug line = 287:1]
  %717 = load i32* %a7, align 4, !dbg !7067       ; [#uses=1 type=i32] [debug line = 288:2]
  %718 = sext i32 %717 to i64, !dbg !7067         ; [#uses=1 type=i64] [debug line = 288:2]
  %719 = getelementptr inbounds [16 x %struct.ap_fixed]* @_ZZ10correlatorN3hls6streamI10rfnoc_axisEES2_7ap_uintILi1EES3_ILi4EEE11phaseClass7, i32 0, i64 %718, !dbg !7067 ; [#uses=1 type=%struct.ap_fixed*] [debug line = 288:2]
  %720 = load i32* %a7, align 4, !dbg !7067       ; [#uses=1 type=i32] [debug line = 288:2]
  %721 = sub nsw i32 %720, 1, !dbg !7067          ; [#uses=1 type=i32] [debug line = 288:2]
  %722 = sext i32 %721 to i64, !dbg !7067         ; [#uses=1 type=i64] [debug line = 288:2]
  %723 = getelementptr inbounds [16 x %struct.ap_fixed]* @_ZZ10correlatorN3hls6streamI10rfnoc_axisEES2_7ap_uintILi1EES3_ILi4EEE11phaseClass7, i32 0, i64 %722, !dbg !7067 ; [#uses=1 type=%struct.ap_fixed*] [debug line = 288:2]
  %724 = call %struct.ap_fixed* @_ZN8ap_fixedILi16ELi11EL9ap_q_mode5EL9ap_o_mode3ELi0EEaSERKS2_(%struct.ap_fixed* %719, %struct.ap_fixed* %723), !dbg !7067 ; [#uses=0 type=%struct.ap_fixed*] [debug line = 288:2]
  call void (...)* @_ssdm_RegionEnd(i8* getelementptr inbounds ([12 x i8]* @.str12, i32 0, i32 0)) nounwind, !dbg !7068 ; [debug line = 289:5]
  br label %725, !dbg !7068                       ; [debug line = 289:5]

; <label>:725                                     ; preds = %716
  %726 = load i32* %a7, align 4, !dbg !7069       ; [#uses=1 type=i32] [debug line = 286:39]
  %727 = add nsw i32 %726, -1, !dbg !7069         ; [#uses=1 type=i32] [debug line = 286:39]
  store i32 %727, i32* %a7, align 4, !dbg !7069   ; [debug line = 286:39]
  br label %713, !dbg !7069                       ; [debug line = 286:39]

; <label>:728                                     ; preds = %713
  %729 = call %struct.ap_fixed* @_ZN8ap_fixedILi16ELi11EL9ap_q_mode5EL9ap_o_mode3ELi0EEaSERKS2_(%struct.ap_fixed* getelementptr inbounds ([16 x %struct.ap_fixed]* @_ZZ10correlatorN3hls6streamI10rfnoc_axisEES2_7ap_uintILi1EES3_ILi4EEE11phaseClass7, i32 0, i64 0), %struct.ap_fixed* @_ZZ10correlatorN3hls6streamI10rfnoc_axisEES2_7ap_uintILi1EES3_ILi4EEE6newVal), !dbg !7070 ; [#uses=0 type=%struct.ap_fixed*] [debug line = 290:5]
  %730 = bitcast %struct.ap_uint.2* %phaseClass to %struct.ap_int_base.3*, !dbg !7071 ; [#uses=1 type=%struct.ap_int_base.3*] [debug line = 291:21]
  %731 = call zeroext i8 @_ZNK11ap_int_baseILi4ELb0ELb1EEcvhEv(%struct.ap_int_base.3* %730), !dbg !7071 ; [#uses=1 type=i8] [debug line = 291:21]
  %732 = zext i8 %731 to i64, !dbg !7071          ; [#uses=1 type=i64] [debug line = 291:21]
  %733 = getelementptr inbounds [16 x %struct.ap_uint]* @_ZZ10correlatorN3hls6streamI10rfnoc_axisEES2_7ap_uintILi1EES3_ILi4EEE15phaseClassValid, i32 0, i64 %732, !dbg !7071 ; [#uses=1 type=%struct.ap_uint*] [debug line = 291:21]
  call void @_ZN7ap_uintILi1EEC1Ei(%struct.ap_uint* %9, i32 1), !dbg !7071 ; [debug line = 291:21]
  %734 = call %struct.ap_uint* @_ZN7ap_uintILi1EEaSERKS0_(%struct.ap_uint* %733, %struct.ap_uint* %9), !dbg !7071 ; [#uses=0 type=%struct.ap_uint*] [debug line = 291:21]
  br label %927, !dbg !7072                       ; [debug line = 292:5]

; <label>:735                                     ; preds = %535
  br label %736, !dbg !7072                       ; [debug line = 292:5]

; <label>:736                                     ; preds = %735
  call void @llvm.dbg.declare(metadata !{i32* %a8}, metadata !7073), !dbg !7075 ; [debug line = 294:26] [debug variable = a]
  store i32 15, i32* %a8, align 4, !dbg !7076     ; [debug line = 294:34]
  br label %737, !dbg !7076                       ; [debug line = 294:34]

; <label>:737                                     ; preds = %749, %736
  %738 = load i32* %a8, align 4, !dbg !7076       ; [#uses=1 type=i32] [debug line = 294:34]
  %739 = icmp sgt i32 %738, 0, !dbg !7076         ; [#uses=1 type=i1] [debug line = 294:34]
  br i1 %739, label %740, label %752, !dbg !7076  ; [debug line = 294:34]

; <label>:740                                     ; preds = %737
  call void (...)* @_ssdm_op_SpecLoopName(i8* getelementptr inbounds ([12 x i8]* @.str13, i32 0, i32 0)) nounwind, !dbg !7077 ; [debug line = 294:44]
  call void (...)* @_ssdm_RegionBegin(i8* getelementptr inbounds ([12 x i8]* @.str13, i32 0, i32 0)) nounwind, !dbg !7077 ; [debug line = 294:44]
  call void (...)* @_ssdm_Unroll(i32 0, i32 0, i32 0, i8* getelementptr inbounds ([1 x i8]* @.str, i32 0, i32 0)) nounwind, !dbg !7079 ; [debug line = 295:1]
  %741 = load i32* %a8, align 4, !dbg !7080       ; [#uses=1 type=i32] [debug line = 296:2]
  %742 = sext i32 %741 to i64, !dbg !7080         ; [#uses=1 type=i64] [debug line = 296:2]
  %743 = getelementptr inbounds [16 x %struct.ap_fixed]* @_ZZ10correlatorN3hls6streamI10rfnoc_axisEES2_7ap_uintILi1EES3_ILi4EEE11phaseClass8, i32 0, i64 %742, !dbg !7080 ; [#uses=1 type=%struct.ap_fixed*] [debug line = 296:2]
  %744 = load i32* %a8, align 4, !dbg !7080       ; [#uses=1 type=i32] [debug line = 296:2]
  %745 = sub nsw i32 %744, 1, !dbg !7080          ; [#uses=1 type=i32] [debug line = 296:2]
  %746 = sext i32 %745 to i64, !dbg !7080         ; [#uses=1 type=i64] [debug line = 296:2]
  %747 = getelementptr inbounds [16 x %struct.ap_fixed]* @_ZZ10correlatorN3hls6streamI10rfnoc_axisEES2_7ap_uintILi1EES3_ILi4EEE11phaseClass8, i32 0, i64 %746, !dbg !7080 ; [#uses=1 type=%struct.ap_fixed*] [debug line = 296:2]
  %748 = call %struct.ap_fixed* @_ZN8ap_fixedILi16ELi11EL9ap_q_mode5EL9ap_o_mode3ELi0EEaSERKS2_(%struct.ap_fixed* %743, %struct.ap_fixed* %747), !dbg !7080 ; [#uses=0 type=%struct.ap_fixed*] [debug line = 296:2]
  call void (...)* @_ssdm_RegionEnd(i8* getelementptr inbounds ([12 x i8]* @.str13, i32 0, i32 0)) nounwind, !dbg !7081 ; [debug line = 297:5]
  br label %749, !dbg !7081                       ; [debug line = 297:5]

; <label>:749                                     ; preds = %740
  %750 = load i32* %a8, align 4, !dbg !7082       ; [#uses=1 type=i32] [debug line = 294:39]
  %751 = add nsw i32 %750, -1, !dbg !7082         ; [#uses=1 type=i32] [debug line = 294:39]
  store i32 %751, i32* %a8, align 4, !dbg !7082   ; [debug line = 294:39]
  br label %737, !dbg !7082                       ; [debug line = 294:39]

; <label>:752                                     ; preds = %737
  %753 = call %struct.ap_fixed* @_ZN8ap_fixedILi16ELi11EL9ap_q_mode5EL9ap_o_mode3ELi0EEaSERKS2_(%struct.ap_fixed* getelementptr inbounds ([16 x %struct.ap_fixed]* @_ZZ10correlatorN3hls6streamI10rfnoc_axisEES2_7ap_uintILi1EES3_ILi4EEE11phaseClass8, i32 0, i64 0), %struct.ap_fixed* @_ZZ10correlatorN3hls6streamI10rfnoc_axisEES2_7ap_uintILi1EES3_ILi4EEE6newVal), !dbg !7083 ; [#uses=0 type=%struct.ap_fixed*] [debug line = 298:5]
  %754 = bitcast %struct.ap_uint.2* %phaseClass to %struct.ap_int_base.3*, !dbg !7084 ; [#uses=1 type=%struct.ap_int_base.3*] [debug line = 299:21]
  %755 = call zeroext i8 @_ZNK11ap_int_baseILi4ELb0ELb1EEcvhEv(%struct.ap_int_base.3* %754), !dbg !7084 ; [#uses=1 type=i8] [debug line = 299:21]
  %756 = zext i8 %755 to i64, !dbg !7084          ; [#uses=1 type=i64] [debug line = 299:21]
  %757 = getelementptr inbounds [16 x %struct.ap_uint]* @_ZZ10correlatorN3hls6streamI10rfnoc_axisEES2_7ap_uintILi1EES3_ILi4EEE15phaseClassValid, i32 0, i64 %756, !dbg !7084 ; [#uses=1 type=%struct.ap_uint*] [debug line = 299:21]
  call void @_ZN7ap_uintILi1EEC1Ei(%struct.ap_uint* %10, i32 1), !dbg !7084 ; [debug line = 299:21]
  %758 = call %struct.ap_uint* @_ZN7ap_uintILi1EEaSERKS0_(%struct.ap_uint* %757, %struct.ap_uint* %10), !dbg !7084 ; [#uses=0 type=%struct.ap_uint*] [debug line = 299:21]
  br label %927, !dbg !7085                       ; [debug line = 300:5]

; <label>:759                                     ; preds = %535
  br label %760, !dbg !7085                       ; [debug line = 300:5]

; <label>:760                                     ; preds = %759
  call void @llvm.dbg.declare(metadata !{i32* %a9}, metadata !7086), !dbg !7088 ; [debug line = 302:26] [debug variable = a]
  store i32 15, i32* %a9, align 4, !dbg !7089     ; [debug line = 302:33]
  br label %761, !dbg !7089                       ; [debug line = 302:33]

; <label>:761                                     ; preds = %773, %760
  %762 = load i32* %a9, align 4, !dbg !7089       ; [#uses=1 type=i32] [debug line = 302:33]
  %763 = icmp sgt i32 %762, 0, !dbg !7089         ; [#uses=1 type=i1] [debug line = 302:33]
  br i1 %763, label %764, label %776, !dbg !7089  ; [debug line = 302:33]

; <label>:764                                     ; preds = %761
  call void (...)* @_ssdm_op_SpecLoopName(i8* getelementptr inbounds ([12 x i8]* @.str14, i32 0, i32 0)) nounwind, !dbg !7090 ; [debug line = 302:43]
  call void (...)* @_ssdm_RegionBegin(i8* getelementptr inbounds ([12 x i8]* @.str14, i32 0, i32 0)) nounwind, !dbg !7090 ; [debug line = 302:43]
  call void (...)* @_ssdm_Unroll(i32 0, i32 0, i32 0, i8* getelementptr inbounds ([1 x i8]* @.str, i32 0, i32 0)) nounwind, !dbg !7092 ; [debug line = 303:1]
  %765 = load i32* %a9, align 4, !dbg !7093       ; [#uses=1 type=i32] [debug line = 304:2]
  %766 = sext i32 %765 to i64, !dbg !7093         ; [#uses=1 type=i64] [debug line = 304:2]
  %767 = getelementptr inbounds [16 x %struct.ap_fixed]* @_ZZ10correlatorN3hls6streamI10rfnoc_axisEES2_7ap_uintILi1EES3_ILi4EEE11phaseClass9, i32 0, i64 %766, !dbg !7093 ; [#uses=1 type=%struct.ap_fixed*] [debug line = 304:2]
  %768 = load i32* %a9, align 4, !dbg !7093       ; [#uses=1 type=i32] [debug line = 304:2]
  %769 = sub nsw i32 %768, 1, !dbg !7093          ; [#uses=1 type=i32] [debug line = 304:2]
  %770 = sext i32 %769 to i64, !dbg !7093         ; [#uses=1 type=i64] [debug line = 304:2]
  %771 = getelementptr inbounds [16 x %struct.ap_fixed]* @_ZZ10correlatorN3hls6streamI10rfnoc_axisEES2_7ap_uintILi1EES3_ILi4EEE11phaseClass9, i32 0, i64 %770, !dbg !7093 ; [#uses=1 type=%struct.ap_fixed*] [debug line = 304:2]
  %772 = call %struct.ap_fixed* @_ZN8ap_fixedILi16ELi11EL9ap_q_mode5EL9ap_o_mode3ELi0EEaSERKS2_(%struct.ap_fixed* %767, %struct.ap_fixed* %771), !dbg !7093 ; [#uses=0 type=%struct.ap_fixed*] [debug line = 304:2]
  call void (...)* @_ssdm_RegionEnd(i8* getelementptr inbounds ([12 x i8]* @.str14, i32 0, i32 0)) nounwind, !dbg !7094 ; [debug line = 305:5]
  br label %773, !dbg !7094                       ; [debug line = 305:5]

; <label>:773                                     ; preds = %764
  %774 = load i32* %a9, align 4, !dbg !7095       ; [#uses=1 type=i32] [debug line = 302:38]
  %775 = add nsw i32 %774, -1, !dbg !7095         ; [#uses=1 type=i32] [debug line = 302:38]
  store i32 %775, i32* %a9, align 4, !dbg !7095   ; [debug line = 302:38]
  br label %761, !dbg !7095                       ; [debug line = 302:38]

; <label>:776                                     ; preds = %761
  %777 = call %struct.ap_fixed* @_ZN8ap_fixedILi16ELi11EL9ap_q_mode5EL9ap_o_mode3ELi0EEaSERKS2_(%struct.ap_fixed* getelementptr inbounds ([16 x %struct.ap_fixed]* @_ZZ10correlatorN3hls6streamI10rfnoc_axisEES2_7ap_uintILi1EES3_ILi4EEE11phaseClass9, i32 0, i64 0), %struct.ap_fixed* @_ZZ10correlatorN3hls6streamI10rfnoc_axisEES2_7ap_uintILi1EES3_ILi4EEE6newVal), !dbg !7096 ; [#uses=0 type=%struct.ap_fixed*] [debug line = 306:5]
  %778 = bitcast %struct.ap_uint.2* %phaseClass to %struct.ap_int_base.3*, !dbg !7097 ; [#uses=1 type=%struct.ap_int_base.3*] [debug line = 307:21]
  %779 = call zeroext i8 @_ZNK11ap_int_baseILi4ELb0ELb1EEcvhEv(%struct.ap_int_base.3* %778), !dbg !7097 ; [#uses=1 type=i8] [debug line = 307:21]
  %780 = zext i8 %779 to i64, !dbg !7097          ; [#uses=1 type=i64] [debug line = 307:21]
  %781 = getelementptr inbounds [16 x %struct.ap_uint]* @_ZZ10correlatorN3hls6streamI10rfnoc_axisEES2_7ap_uintILi1EES3_ILi4EEE15phaseClassValid, i32 0, i64 %780, !dbg !7097 ; [#uses=1 type=%struct.ap_uint*] [debug line = 307:21]
  call void @_ZN7ap_uintILi1EEC1Ei(%struct.ap_uint* %11, i32 1), !dbg !7097 ; [debug line = 307:21]
  %782 = call %struct.ap_uint* @_ZN7ap_uintILi1EEaSERKS0_(%struct.ap_uint* %781, %struct.ap_uint* %11), !dbg !7097 ; [#uses=0 type=%struct.ap_uint*] [debug line = 307:21]
  br label %927, !dbg !7098                       ; [debug line = 308:5]

; <label>:783                                     ; preds = %535
  br label %784, !dbg !7098                       ; [debug line = 308:5]

; <label>:784                                     ; preds = %783
  call void @llvm.dbg.declare(metadata !{i32* %a10}, metadata !7099), !dbg !7101 ; [debug line = 310:27] [debug variable = a]
  store i32 15, i32* %a10, align 4, !dbg !7102    ; [debug line = 310:35]
  br label %785, !dbg !7102                       ; [debug line = 310:35]

; <label>:785                                     ; preds = %797, %784
  %786 = load i32* %a10, align 4, !dbg !7102      ; [#uses=1 type=i32] [debug line = 310:35]
  %787 = icmp sgt i32 %786, 0, !dbg !7102         ; [#uses=1 type=i1] [debug line = 310:35]
  br i1 %787, label %788, label %800, !dbg !7102  ; [debug line = 310:35]

; <label>:788                                     ; preds = %785
  call void (...)* @_ssdm_op_SpecLoopName(i8* getelementptr inbounds ([13 x i8]* @.str15, i32 0, i32 0)) nounwind, !dbg !7103 ; [debug line = 310:45]
  call void (...)* @_ssdm_RegionBegin(i8* getelementptr inbounds ([13 x i8]* @.str15, i32 0, i32 0)) nounwind, !dbg !7103 ; [debug line = 310:45]
  call void (...)* @_ssdm_Unroll(i32 0, i32 0, i32 0, i8* getelementptr inbounds ([1 x i8]* @.str, i32 0, i32 0)) nounwind, !dbg !7105 ; [debug line = 311:1]
  %789 = load i32* %a10, align 4, !dbg !7106      ; [#uses=1 type=i32] [debug line = 312:2]
  %790 = sext i32 %789 to i64, !dbg !7106         ; [#uses=1 type=i64] [debug line = 312:2]
  %791 = getelementptr inbounds [16 x %struct.ap_fixed]* @_ZZ10correlatorN3hls6streamI10rfnoc_axisEES2_7ap_uintILi1EES3_ILi4EEE12phaseClass10, i32 0, i64 %790, !dbg !7106 ; [#uses=1 type=%struct.ap_fixed*] [debug line = 312:2]
  %792 = load i32* %a10, align 4, !dbg !7106      ; [#uses=1 type=i32] [debug line = 312:2]
  %793 = sub nsw i32 %792, 1, !dbg !7106          ; [#uses=1 type=i32] [debug line = 312:2]
  %794 = sext i32 %793 to i64, !dbg !7106         ; [#uses=1 type=i64] [debug line = 312:2]
  %795 = getelementptr inbounds [16 x %struct.ap_fixed]* @_ZZ10correlatorN3hls6streamI10rfnoc_axisEES2_7ap_uintILi1EES3_ILi4EEE12phaseClass10, i32 0, i64 %794, !dbg !7106 ; [#uses=1 type=%struct.ap_fixed*] [debug line = 312:2]
  %796 = call %struct.ap_fixed* @_ZN8ap_fixedILi16ELi11EL9ap_q_mode5EL9ap_o_mode3ELi0EEaSERKS2_(%struct.ap_fixed* %791, %struct.ap_fixed* %795), !dbg !7106 ; [#uses=0 type=%struct.ap_fixed*] [debug line = 312:2]
  call void (...)* @_ssdm_RegionEnd(i8* getelementptr inbounds ([13 x i8]* @.str15, i32 0, i32 0)) nounwind, !dbg !7107 ; [debug line = 313:5]
  br label %797, !dbg !7107                       ; [debug line = 313:5]

; <label>:797                                     ; preds = %788
  %798 = load i32* %a10, align 4, !dbg !7108      ; [#uses=1 type=i32] [debug line = 310:40]
  %799 = add nsw i32 %798, -1, !dbg !7108         ; [#uses=1 type=i32] [debug line = 310:40]
  store i32 %799, i32* %a10, align 4, !dbg !7108  ; [debug line = 310:40]
  br label %785, !dbg !7108                       ; [debug line = 310:40]

; <label>:800                                     ; preds = %785
  %801 = call %struct.ap_fixed* @_ZN8ap_fixedILi16ELi11EL9ap_q_mode5EL9ap_o_mode3ELi0EEaSERKS2_(%struct.ap_fixed* getelementptr inbounds ([16 x %struct.ap_fixed]* @_ZZ10correlatorN3hls6streamI10rfnoc_axisEES2_7ap_uintILi1EES3_ILi4EEE12phaseClass10, i32 0, i64 0), %struct.ap_fixed* @_ZZ10correlatorN3hls6streamI10rfnoc_axisEES2_7ap_uintILi1EES3_ILi4EEE6newVal), !dbg !7109 ; [#uses=0 type=%struct.ap_fixed*] [debug line = 314:5]
  %802 = bitcast %struct.ap_uint.2* %phaseClass to %struct.ap_int_base.3*, !dbg !7110 ; [#uses=1 type=%struct.ap_int_base.3*] [debug line = 315:21]
  %803 = call zeroext i8 @_ZNK11ap_int_baseILi4ELb0ELb1EEcvhEv(%struct.ap_int_base.3* %802), !dbg !7110 ; [#uses=1 type=i8] [debug line = 315:21]
  %804 = zext i8 %803 to i64, !dbg !7110          ; [#uses=1 type=i64] [debug line = 315:21]
  %805 = getelementptr inbounds [16 x %struct.ap_uint]* @_ZZ10correlatorN3hls6streamI10rfnoc_axisEES2_7ap_uintILi1EES3_ILi4EEE15phaseClassValid, i32 0, i64 %804, !dbg !7110 ; [#uses=1 type=%struct.ap_uint*] [debug line = 315:21]
  call void @_ZN7ap_uintILi1EEC1Ei(%struct.ap_uint* %12, i32 1), !dbg !7110 ; [debug line = 315:21]
  %806 = call %struct.ap_uint* @_ZN7ap_uintILi1EEaSERKS0_(%struct.ap_uint* %805, %struct.ap_uint* %12), !dbg !7110 ; [#uses=0 type=%struct.ap_uint*] [debug line = 315:21]
  br label %927, !dbg !7111                       ; [debug line = 316:5]

; <label>:807                                     ; preds = %535
  br label %808, !dbg !7111                       ; [debug line = 316:5]

; <label>:808                                     ; preds = %807
  call void @llvm.dbg.declare(metadata !{i32* %a11}, metadata !7112), !dbg !7114 ; [debug line = 318:27] [debug variable = a]
  store i32 15, i32* %a11, align 4, !dbg !7115    ; [debug line = 318:35]
  br label %809, !dbg !7115                       ; [debug line = 318:35]

; <label>:809                                     ; preds = %821, %808
  %810 = load i32* %a11, align 4, !dbg !7115      ; [#uses=1 type=i32] [debug line = 318:35]
  %811 = icmp sgt i32 %810, 0, !dbg !7115         ; [#uses=1 type=i1] [debug line = 318:35]
  br i1 %811, label %812, label %824, !dbg !7115  ; [debug line = 318:35]

; <label>:812                                     ; preds = %809
  call void (...)* @_ssdm_op_SpecLoopName(i8* getelementptr inbounds ([13 x i8]* @.str16, i32 0, i32 0)) nounwind, !dbg !7116 ; [debug line = 318:45]
  call void (...)* @_ssdm_RegionBegin(i8* getelementptr inbounds ([13 x i8]* @.str16, i32 0, i32 0)) nounwind, !dbg !7116 ; [debug line = 318:45]
  call void (...)* @_ssdm_Unroll(i32 0, i32 0, i32 0, i8* getelementptr inbounds ([1 x i8]* @.str, i32 0, i32 0)) nounwind, !dbg !7118 ; [debug line = 319:1]
  %813 = load i32* %a11, align 4, !dbg !7119      ; [#uses=1 type=i32] [debug line = 320:2]
  %814 = sext i32 %813 to i64, !dbg !7119         ; [#uses=1 type=i64] [debug line = 320:2]
  %815 = getelementptr inbounds [16 x %struct.ap_fixed]* @_ZZ10correlatorN3hls6streamI10rfnoc_axisEES2_7ap_uintILi1EES3_ILi4EEE12phaseClass11, i32 0, i64 %814, !dbg !7119 ; [#uses=1 type=%struct.ap_fixed*] [debug line = 320:2]
  %816 = load i32* %a11, align 4, !dbg !7119      ; [#uses=1 type=i32] [debug line = 320:2]
  %817 = sub nsw i32 %816, 1, !dbg !7119          ; [#uses=1 type=i32] [debug line = 320:2]
  %818 = sext i32 %817 to i64, !dbg !7119         ; [#uses=1 type=i64] [debug line = 320:2]
  %819 = getelementptr inbounds [16 x %struct.ap_fixed]* @_ZZ10correlatorN3hls6streamI10rfnoc_axisEES2_7ap_uintILi1EES3_ILi4EEE12phaseClass11, i32 0, i64 %818, !dbg !7119 ; [#uses=1 type=%struct.ap_fixed*] [debug line = 320:2]
  %820 = call %struct.ap_fixed* @_ZN8ap_fixedILi16ELi11EL9ap_q_mode5EL9ap_o_mode3ELi0EEaSERKS2_(%struct.ap_fixed* %815, %struct.ap_fixed* %819), !dbg !7119 ; [#uses=0 type=%struct.ap_fixed*] [debug line = 320:2]
  call void (...)* @_ssdm_RegionEnd(i8* getelementptr inbounds ([13 x i8]* @.str16, i32 0, i32 0)) nounwind, !dbg !7120 ; [debug line = 321:5]
  br label %821, !dbg !7120                       ; [debug line = 321:5]

; <label>:821                                     ; preds = %812
  %822 = load i32* %a11, align 4, !dbg !7121      ; [#uses=1 type=i32] [debug line = 318:40]
  %823 = add nsw i32 %822, -1, !dbg !7121         ; [#uses=1 type=i32] [debug line = 318:40]
  store i32 %823, i32* %a11, align 4, !dbg !7121  ; [debug line = 318:40]
  br label %809, !dbg !7121                       ; [debug line = 318:40]

; <label>:824                                     ; preds = %809
  %825 = call %struct.ap_fixed* @_ZN8ap_fixedILi16ELi11EL9ap_q_mode5EL9ap_o_mode3ELi0EEaSERKS2_(%struct.ap_fixed* getelementptr inbounds ([16 x %struct.ap_fixed]* @_ZZ10correlatorN3hls6streamI10rfnoc_axisEES2_7ap_uintILi1EES3_ILi4EEE12phaseClass11, i32 0, i64 0), %struct.ap_fixed* @_ZZ10correlatorN3hls6streamI10rfnoc_axisEES2_7ap_uintILi1EES3_ILi4EEE6newVal), !dbg !7122 ; [#uses=0 type=%struct.ap_fixed*] [debug line = 322:5]
  %826 = bitcast %struct.ap_uint.2* %phaseClass to %struct.ap_int_base.3*, !dbg !7123 ; [#uses=1 type=%struct.ap_int_base.3*] [debug line = 323:21]
  %827 = call zeroext i8 @_ZNK11ap_int_baseILi4ELb0ELb1EEcvhEv(%struct.ap_int_base.3* %826), !dbg !7123 ; [#uses=1 type=i8] [debug line = 323:21]
  %828 = zext i8 %827 to i64, !dbg !7123          ; [#uses=1 type=i64] [debug line = 323:21]
  %829 = getelementptr inbounds [16 x %struct.ap_uint]* @_ZZ10correlatorN3hls6streamI10rfnoc_axisEES2_7ap_uintILi1EES3_ILi4EEE15phaseClassValid, i32 0, i64 %828, !dbg !7123 ; [#uses=1 type=%struct.ap_uint*] [debug line = 323:21]
  call void @_ZN7ap_uintILi1EEC1Ei(%struct.ap_uint* %13, i32 1), !dbg !7123 ; [debug line = 323:21]
  %830 = call %struct.ap_uint* @_ZN7ap_uintILi1EEaSERKS0_(%struct.ap_uint* %829, %struct.ap_uint* %13), !dbg !7123 ; [#uses=0 type=%struct.ap_uint*] [debug line = 323:21]
  br label %927, !dbg !7124                       ; [debug line = 324:5]

; <label>:831                                     ; preds = %535
  br label %832, !dbg !7124                       ; [debug line = 324:5]

; <label>:832                                     ; preds = %831
  call void @llvm.dbg.declare(metadata !{i32* %a12}, metadata !7125), !dbg !7127 ; [debug line = 326:27] [debug variable = a]
  store i32 15, i32* %a12, align 4, !dbg !7128    ; [debug line = 326:35]
  br label %833, !dbg !7128                       ; [debug line = 326:35]

; <label>:833                                     ; preds = %845, %832
  %834 = load i32* %a12, align 4, !dbg !7128      ; [#uses=1 type=i32] [debug line = 326:35]
  %835 = icmp sgt i32 %834, 0, !dbg !7128         ; [#uses=1 type=i1] [debug line = 326:35]
  br i1 %835, label %836, label %848, !dbg !7128  ; [debug line = 326:35]

; <label>:836                                     ; preds = %833
  call void (...)* @_ssdm_op_SpecLoopName(i8* getelementptr inbounds ([13 x i8]* @.str17, i32 0, i32 0)) nounwind, !dbg !7129 ; [debug line = 326:45]
  call void (...)* @_ssdm_RegionBegin(i8* getelementptr inbounds ([13 x i8]* @.str17, i32 0, i32 0)) nounwind, !dbg !7129 ; [debug line = 326:45]
  call void (...)* @_ssdm_Unroll(i32 0, i32 0, i32 0, i8* getelementptr inbounds ([1 x i8]* @.str, i32 0, i32 0)) nounwind, !dbg !7131 ; [debug line = 327:1]
  %837 = load i32* %a12, align 4, !dbg !7132      ; [#uses=1 type=i32] [debug line = 328:2]
  %838 = sext i32 %837 to i64, !dbg !7132         ; [#uses=1 type=i64] [debug line = 328:2]
  %839 = getelementptr inbounds [16 x %struct.ap_fixed]* @_ZZ10correlatorN3hls6streamI10rfnoc_axisEES2_7ap_uintILi1EES3_ILi4EEE12phaseClass12, i32 0, i64 %838, !dbg !7132 ; [#uses=1 type=%struct.ap_fixed*] [debug line = 328:2]
  %840 = load i32* %a12, align 4, !dbg !7132      ; [#uses=1 type=i32] [debug line = 328:2]
  %841 = sub nsw i32 %840, 1, !dbg !7132          ; [#uses=1 type=i32] [debug line = 328:2]
  %842 = sext i32 %841 to i64, !dbg !7132         ; [#uses=1 type=i64] [debug line = 328:2]
  %843 = getelementptr inbounds [16 x %struct.ap_fixed]* @_ZZ10correlatorN3hls6streamI10rfnoc_axisEES2_7ap_uintILi1EES3_ILi4EEE12phaseClass12, i32 0, i64 %842, !dbg !7132 ; [#uses=1 type=%struct.ap_fixed*] [debug line = 328:2]
  %844 = call %struct.ap_fixed* @_ZN8ap_fixedILi16ELi11EL9ap_q_mode5EL9ap_o_mode3ELi0EEaSERKS2_(%struct.ap_fixed* %839, %struct.ap_fixed* %843), !dbg !7132 ; [#uses=0 type=%struct.ap_fixed*] [debug line = 328:2]
  call void (...)* @_ssdm_RegionEnd(i8* getelementptr inbounds ([13 x i8]* @.str17, i32 0, i32 0)) nounwind, !dbg !7133 ; [debug line = 329:5]
  br label %845, !dbg !7133                       ; [debug line = 329:5]

; <label>:845                                     ; preds = %836
  %846 = load i32* %a12, align 4, !dbg !7134      ; [#uses=1 type=i32] [debug line = 326:40]
  %847 = add nsw i32 %846, -1, !dbg !7134         ; [#uses=1 type=i32] [debug line = 326:40]
  store i32 %847, i32* %a12, align 4, !dbg !7134  ; [debug line = 326:40]
  br label %833, !dbg !7134                       ; [debug line = 326:40]

; <label>:848                                     ; preds = %833
  %849 = call %struct.ap_fixed* @_ZN8ap_fixedILi16ELi11EL9ap_q_mode5EL9ap_o_mode3ELi0EEaSERKS2_(%struct.ap_fixed* getelementptr inbounds ([16 x %struct.ap_fixed]* @_ZZ10correlatorN3hls6streamI10rfnoc_axisEES2_7ap_uintILi1EES3_ILi4EEE12phaseClass12, i32 0, i64 0), %struct.ap_fixed* @_ZZ10correlatorN3hls6streamI10rfnoc_axisEES2_7ap_uintILi1EES3_ILi4EEE6newVal), !dbg !7135 ; [#uses=0 type=%struct.ap_fixed*] [debug line = 330:5]
  %850 = bitcast %struct.ap_uint.2* %phaseClass to %struct.ap_int_base.3*, !dbg !7136 ; [#uses=1 type=%struct.ap_int_base.3*] [debug line = 331:21]
  %851 = call zeroext i8 @_ZNK11ap_int_baseILi4ELb0ELb1EEcvhEv(%struct.ap_int_base.3* %850), !dbg !7136 ; [#uses=1 type=i8] [debug line = 331:21]
  %852 = zext i8 %851 to i64, !dbg !7136          ; [#uses=1 type=i64] [debug line = 331:21]
  %853 = getelementptr inbounds [16 x %struct.ap_uint]* @_ZZ10correlatorN3hls6streamI10rfnoc_axisEES2_7ap_uintILi1EES3_ILi4EEE15phaseClassValid, i32 0, i64 %852, !dbg !7136 ; [#uses=1 type=%struct.ap_uint*] [debug line = 331:21]
  call void @_ZN7ap_uintILi1EEC1Ei(%struct.ap_uint* %14, i32 1), !dbg !7136 ; [debug line = 331:21]
  %854 = call %struct.ap_uint* @_ZN7ap_uintILi1EEaSERKS0_(%struct.ap_uint* %853, %struct.ap_uint* %14), !dbg !7136 ; [#uses=0 type=%struct.ap_uint*] [debug line = 331:21]
  br label %927, !dbg !7137                       ; [debug line = 332:5]

; <label>:855                                     ; preds = %535
  br label %856, !dbg !7137                       ; [debug line = 332:5]

; <label>:856                                     ; preds = %855
  call void @llvm.dbg.declare(metadata !{i32* %a13}, metadata !7138), !dbg !7140 ; [debug line = 334:27] [debug variable = a]
  store i32 15, i32* %a13, align 4, !dbg !7141    ; [debug line = 334:35]
  br label %857, !dbg !7141                       ; [debug line = 334:35]

; <label>:857                                     ; preds = %869, %856
  %858 = load i32* %a13, align 4, !dbg !7141      ; [#uses=1 type=i32] [debug line = 334:35]
  %859 = icmp sgt i32 %858, 0, !dbg !7141         ; [#uses=1 type=i1] [debug line = 334:35]
  br i1 %859, label %860, label %872, !dbg !7141  ; [debug line = 334:35]

; <label>:860                                     ; preds = %857
  call void (...)* @_ssdm_op_SpecLoopName(i8* getelementptr inbounds ([13 x i8]* @.str18, i32 0, i32 0)) nounwind, !dbg !7142 ; [debug line = 334:45]
  call void (...)* @_ssdm_RegionBegin(i8* getelementptr inbounds ([13 x i8]* @.str18, i32 0, i32 0)) nounwind, !dbg !7142 ; [debug line = 334:45]
  call void (...)* @_ssdm_Unroll(i32 0, i32 0, i32 0, i8* getelementptr inbounds ([1 x i8]* @.str, i32 0, i32 0)) nounwind, !dbg !7144 ; [debug line = 335:1]
  %861 = load i32* %a13, align 4, !dbg !7145      ; [#uses=1 type=i32] [debug line = 336:2]
  %862 = sext i32 %861 to i64, !dbg !7145         ; [#uses=1 type=i64] [debug line = 336:2]
  %863 = getelementptr inbounds [16 x %struct.ap_fixed]* @_ZZ10correlatorN3hls6streamI10rfnoc_axisEES2_7ap_uintILi1EES3_ILi4EEE12phaseClass13, i32 0, i64 %862, !dbg !7145 ; [#uses=1 type=%struct.ap_fixed*] [debug line = 336:2]
  %864 = load i32* %a13, align 4, !dbg !7145      ; [#uses=1 type=i32] [debug line = 336:2]
  %865 = sub nsw i32 %864, 1, !dbg !7145          ; [#uses=1 type=i32] [debug line = 336:2]
  %866 = sext i32 %865 to i64, !dbg !7145         ; [#uses=1 type=i64] [debug line = 336:2]
  %867 = getelementptr inbounds [16 x %struct.ap_fixed]* @_ZZ10correlatorN3hls6streamI10rfnoc_axisEES2_7ap_uintILi1EES3_ILi4EEE12phaseClass13, i32 0, i64 %866, !dbg !7145 ; [#uses=1 type=%struct.ap_fixed*] [debug line = 336:2]
  %868 = call %struct.ap_fixed* @_ZN8ap_fixedILi16ELi11EL9ap_q_mode5EL9ap_o_mode3ELi0EEaSERKS2_(%struct.ap_fixed* %863, %struct.ap_fixed* %867), !dbg !7145 ; [#uses=0 type=%struct.ap_fixed*] [debug line = 336:2]
  call void (...)* @_ssdm_RegionEnd(i8* getelementptr inbounds ([13 x i8]* @.str18, i32 0, i32 0)) nounwind, !dbg !7146 ; [debug line = 337:5]
  br label %869, !dbg !7146                       ; [debug line = 337:5]

; <label>:869                                     ; preds = %860
  %870 = load i32* %a13, align 4, !dbg !7147      ; [#uses=1 type=i32] [debug line = 334:40]
  %871 = add nsw i32 %870, -1, !dbg !7147         ; [#uses=1 type=i32] [debug line = 334:40]
  store i32 %871, i32* %a13, align 4, !dbg !7147  ; [debug line = 334:40]
  br label %857, !dbg !7147                       ; [debug line = 334:40]

; <label>:872                                     ; preds = %857
  %873 = call %struct.ap_fixed* @_ZN8ap_fixedILi16ELi11EL9ap_q_mode5EL9ap_o_mode3ELi0EEaSERKS2_(%struct.ap_fixed* getelementptr inbounds ([16 x %struct.ap_fixed]* @_ZZ10correlatorN3hls6streamI10rfnoc_axisEES2_7ap_uintILi1EES3_ILi4EEE12phaseClass13, i32 0, i64 0), %struct.ap_fixed* @_ZZ10correlatorN3hls6streamI10rfnoc_axisEES2_7ap_uintILi1EES3_ILi4EEE6newVal), !dbg !7148 ; [#uses=0 type=%struct.ap_fixed*] [debug line = 338:5]
  %874 = bitcast %struct.ap_uint.2* %phaseClass to %struct.ap_int_base.3*, !dbg !7149 ; [#uses=1 type=%struct.ap_int_base.3*] [debug line = 339:21]
  %875 = call zeroext i8 @_ZNK11ap_int_baseILi4ELb0ELb1EEcvhEv(%struct.ap_int_base.3* %874), !dbg !7149 ; [#uses=1 type=i8] [debug line = 339:21]
  %876 = zext i8 %875 to i64, !dbg !7149          ; [#uses=1 type=i64] [debug line = 339:21]
  %877 = getelementptr inbounds [16 x %struct.ap_uint]* @_ZZ10correlatorN3hls6streamI10rfnoc_axisEES2_7ap_uintILi1EES3_ILi4EEE15phaseClassValid, i32 0, i64 %876, !dbg !7149 ; [#uses=1 type=%struct.ap_uint*] [debug line = 339:21]
  call void @_ZN7ap_uintILi1EEC1Ei(%struct.ap_uint* %15, i32 1), !dbg !7149 ; [debug line = 339:21]
  %878 = call %struct.ap_uint* @_ZN7ap_uintILi1EEaSERKS0_(%struct.ap_uint* %877, %struct.ap_uint* %15), !dbg !7149 ; [#uses=0 type=%struct.ap_uint*] [debug line = 339:21]
  br label %927, !dbg !7150                       ; [debug line = 340:5]

; <label>:879                                     ; preds = %535
  br label %880, !dbg !7150                       ; [debug line = 340:5]

; <label>:880                                     ; preds = %879
  call void @llvm.dbg.declare(metadata !{i32* %a14}, metadata !7151), !dbg !7153 ; [debug line = 342:27] [debug variable = a]
  store i32 15, i32* %a14, align 4, !dbg !7154    ; [debug line = 342:35]
  br label %881, !dbg !7154                       ; [debug line = 342:35]

; <label>:881                                     ; preds = %893, %880
  %882 = load i32* %a14, align 4, !dbg !7154      ; [#uses=1 type=i32] [debug line = 342:35]
  %883 = icmp sgt i32 %882, 0, !dbg !7154         ; [#uses=1 type=i1] [debug line = 342:35]
  br i1 %883, label %884, label %896, !dbg !7154  ; [debug line = 342:35]

; <label>:884                                     ; preds = %881
  call void (...)* @_ssdm_op_SpecLoopName(i8* getelementptr inbounds ([13 x i8]* @.str19, i32 0, i32 0)) nounwind, !dbg !7155 ; [debug line = 342:45]
  call void (...)* @_ssdm_RegionBegin(i8* getelementptr inbounds ([13 x i8]* @.str19, i32 0, i32 0)) nounwind, !dbg !7155 ; [debug line = 342:45]
  call void (...)* @_ssdm_Unroll(i32 0, i32 0, i32 0, i8* getelementptr inbounds ([1 x i8]* @.str, i32 0, i32 0)) nounwind, !dbg !7157 ; [debug line = 343:1]
  %885 = load i32* %a14, align 4, !dbg !7158      ; [#uses=1 type=i32] [debug line = 344:2]
  %886 = sext i32 %885 to i64, !dbg !7158         ; [#uses=1 type=i64] [debug line = 344:2]
  %887 = getelementptr inbounds [16 x %struct.ap_fixed]* @_ZZ10correlatorN3hls6streamI10rfnoc_axisEES2_7ap_uintILi1EES3_ILi4EEE12phaseClass14, i32 0, i64 %886, !dbg !7158 ; [#uses=1 type=%struct.ap_fixed*] [debug line = 344:2]
  %888 = load i32* %a14, align 4, !dbg !7158      ; [#uses=1 type=i32] [debug line = 344:2]
  %889 = sub nsw i32 %888, 1, !dbg !7158          ; [#uses=1 type=i32] [debug line = 344:2]
  %890 = sext i32 %889 to i64, !dbg !7158         ; [#uses=1 type=i64] [debug line = 344:2]
  %891 = getelementptr inbounds [16 x %struct.ap_fixed]* @_ZZ10correlatorN3hls6streamI10rfnoc_axisEES2_7ap_uintILi1EES3_ILi4EEE12phaseClass14, i32 0, i64 %890, !dbg !7158 ; [#uses=1 type=%struct.ap_fixed*] [debug line = 344:2]
  %892 = call %struct.ap_fixed* @_ZN8ap_fixedILi16ELi11EL9ap_q_mode5EL9ap_o_mode3ELi0EEaSERKS2_(%struct.ap_fixed* %887, %struct.ap_fixed* %891), !dbg !7158 ; [#uses=0 type=%struct.ap_fixed*] [debug line = 344:2]
  call void (...)* @_ssdm_RegionEnd(i8* getelementptr inbounds ([13 x i8]* @.str19, i32 0, i32 0)) nounwind, !dbg !7159 ; [debug line = 345:5]
  br label %893, !dbg !7159                       ; [debug line = 345:5]

; <label>:893                                     ; preds = %884
  %894 = load i32* %a14, align 4, !dbg !7160      ; [#uses=1 type=i32] [debug line = 342:40]
  %895 = add nsw i32 %894, -1, !dbg !7160         ; [#uses=1 type=i32] [debug line = 342:40]
  store i32 %895, i32* %a14, align 4, !dbg !7160  ; [debug line = 342:40]
  br label %881, !dbg !7160                       ; [debug line = 342:40]

; <label>:896                                     ; preds = %881
  %897 = call %struct.ap_fixed* @_ZN8ap_fixedILi16ELi11EL9ap_q_mode5EL9ap_o_mode3ELi0EEaSERKS2_(%struct.ap_fixed* getelementptr inbounds ([16 x %struct.ap_fixed]* @_ZZ10correlatorN3hls6streamI10rfnoc_axisEES2_7ap_uintILi1EES3_ILi4EEE12phaseClass14, i32 0, i64 0), %struct.ap_fixed* @_ZZ10correlatorN3hls6streamI10rfnoc_axisEES2_7ap_uintILi1EES3_ILi4EEE6newVal), !dbg !7161 ; [#uses=0 type=%struct.ap_fixed*] [debug line = 346:5]
  %898 = bitcast %struct.ap_uint.2* %phaseClass to %struct.ap_int_base.3*, !dbg !7162 ; [#uses=1 type=%struct.ap_int_base.3*] [debug line = 348:21]
  %899 = call zeroext i8 @_ZNK11ap_int_baseILi4ELb0ELb1EEcvhEv(%struct.ap_int_base.3* %898), !dbg !7162 ; [#uses=1 type=i8] [debug line = 348:21]
  %900 = zext i8 %899 to i64, !dbg !7162          ; [#uses=1 type=i64] [debug line = 348:21]
  %901 = getelementptr inbounds [16 x %struct.ap_uint]* @_ZZ10correlatorN3hls6streamI10rfnoc_axisEES2_7ap_uintILi1EES3_ILi4EEE15phaseClassValid, i32 0, i64 %900, !dbg !7162 ; [#uses=1 type=%struct.ap_uint*] [debug line = 348:21]
  call void @_ZN7ap_uintILi1EEC1Ei(%struct.ap_uint* %16, i32 1), !dbg !7162 ; [debug line = 348:21]
  %902 = call %struct.ap_uint* @_ZN7ap_uintILi1EEaSERKS0_(%struct.ap_uint* %901, %struct.ap_uint* %16), !dbg !7162 ; [#uses=0 type=%struct.ap_uint*] [debug line = 348:21]
  br label %927, !dbg !7163                       ; [debug line = 349:5]

; <label>:903                                     ; preds = %535
  br label %904, !dbg !7163                       ; [debug line = 349:5]

; <label>:904                                     ; preds = %903
  call void @llvm.dbg.declare(metadata !{i32* %a15}, metadata !7164), !dbg !7166 ; [debug line = 351:27] [debug variable = a]
  store i32 15, i32* %a15, align 4, !dbg !7167    ; [debug line = 351:35]
  br label %905, !dbg !7167                       ; [debug line = 351:35]

; <label>:905                                     ; preds = %917, %904
  %906 = load i32* %a15, align 4, !dbg !7167      ; [#uses=1 type=i32] [debug line = 351:35]
  %907 = icmp sgt i32 %906, 0, !dbg !7167         ; [#uses=1 type=i1] [debug line = 351:35]
  br i1 %907, label %908, label %920, !dbg !7167  ; [debug line = 351:35]

; <label>:908                                     ; preds = %905
  call void (...)* @_ssdm_op_SpecLoopName(i8* getelementptr inbounds ([13 x i8]* @.str20, i32 0, i32 0)) nounwind, !dbg !7168 ; [debug line = 351:45]
  call void (...)* @_ssdm_RegionBegin(i8* getelementptr inbounds ([13 x i8]* @.str20, i32 0, i32 0)) nounwind, !dbg !7168 ; [debug line = 351:45]
  call void (...)* @_ssdm_Unroll(i32 0, i32 0, i32 0, i8* getelementptr inbounds ([1 x i8]* @.str, i32 0, i32 0)) nounwind, !dbg !7170 ; [debug line = 352:1]
  %909 = load i32* %a15, align 4, !dbg !7171      ; [#uses=1 type=i32] [debug line = 353:2]
  %910 = sext i32 %909 to i64, !dbg !7171         ; [#uses=1 type=i64] [debug line = 353:2]
  %911 = getelementptr inbounds [16 x %struct.ap_fixed]* @_ZZ10correlatorN3hls6streamI10rfnoc_axisEES2_7ap_uintILi1EES3_ILi4EEE12phaseClass15, i32 0, i64 %910, !dbg !7171 ; [#uses=1 type=%struct.ap_fixed*] [debug line = 353:2]
  %912 = load i32* %a15, align 4, !dbg !7171      ; [#uses=1 type=i32] [debug line = 353:2]
  %913 = sub nsw i32 %912, 1, !dbg !7171          ; [#uses=1 type=i32] [debug line = 353:2]
  %914 = sext i32 %913 to i64, !dbg !7171         ; [#uses=1 type=i64] [debug line = 353:2]
  %915 = getelementptr inbounds [16 x %struct.ap_fixed]* @_ZZ10correlatorN3hls6streamI10rfnoc_axisEES2_7ap_uintILi1EES3_ILi4EEE12phaseClass15, i32 0, i64 %914, !dbg !7171 ; [#uses=1 type=%struct.ap_fixed*] [debug line = 353:2]
  %916 = call %struct.ap_fixed* @_ZN8ap_fixedILi16ELi11EL9ap_q_mode5EL9ap_o_mode3ELi0EEaSERKS2_(%struct.ap_fixed* %911, %struct.ap_fixed* %915), !dbg !7171 ; [#uses=0 type=%struct.ap_fixed*] [debug line = 353:2]
  call void (...)* @_ssdm_RegionEnd(i8* getelementptr inbounds ([13 x i8]* @.str20, i32 0, i32 0)) nounwind, !dbg !7172 ; [debug line = 354:5]
  br label %917, !dbg !7172                       ; [debug line = 354:5]

; <label>:917                                     ; preds = %908
  %918 = load i32* %a15, align 4, !dbg !7173      ; [#uses=1 type=i32] [debug line = 351:40]
  %919 = add nsw i32 %918, -1, !dbg !7173         ; [#uses=1 type=i32] [debug line = 351:40]
  store i32 %919, i32* %a15, align 4, !dbg !7173  ; [debug line = 351:40]
  br label %905, !dbg !7173                       ; [debug line = 351:40]

; <label>:920                                     ; preds = %905
  %921 = call %struct.ap_fixed* @_ZN8ap_fixedILi16ELi11EL9ap_q_mode5EL9ap_o_mode3ELi0EEaSERKS2_(%struct.ap_fixed* getelementptr inbounds ([16 x %struct.ap_fixed]* @_ZZ10correlatorN3hls6streamI10rfnoc_axisEES2_7ap_uintILi1EES3_ILi4EEE12phaseClass15, i32 0, i64 0), %struct.ap_fixed* @_ZZ10correlatorN3hls6streamI10rfnoc_axisEES2_7ap_uintILi1EES3_ILi4EEE6newVal), !dbg !7174 ; [#uses=0 type=%struct.ap_fixed*] [debug line = 355:5]
  %922 = bitcast %struct.ap_uint.2* %phaseClass to %struct.ap_int_base.3*, !dbg !7175 ; [#uses=1 type=%struct.ap_int_base.3*] [debug line = 356:21]
  %923 = call zeroext i8 @_ZNK11ap_int_baseILi4ELb0ELb1EEcvhEv(%struct.ap_int_base.3* %922), !dbg !7175 ; [#uses=1 type=i8] [debug line = 356:21]
  %924 = zext i8 %923 to i64, !dbg !7175          ; [#uses=1 type=i64] [debug line = 356:21]
  %925 = getelementptr inbounds [16 x %struct.ap_uint]* @_ZZ10correlatorN3hls6streamI10rfnoc_axisEES2_7ap_uintILi1EES3_ILi4EEE15phaseClassValid, i32 0, i64 %924, !dbg !7175 ; [#uses=1 type=%struct.ap_uint*] [debug line = 356:21]
  call void @_ZN7ap_uintILi1EEC1Ei(%struct.ap_uint* %17, i32 1), !dbg !7175 ; [debug line = 356:21]
  %926 = call %struct.ap_uint* @_ZN7ap_uintILi1EEaSERKS0_(%struct.ap_uint* %925, %struct.ap_uint* %17), !dbg !7175 ; [#uses=0 type=%struct.ap_uint*] [debug line = 356:21]
  br label %927, !dbg !7176                       ; [debug line = 357:5]

; <label>:927                                     ; preds = %920, %896, %872, %848, %824, %800, %776, %752, %728, %704, %680, %656, %632, %608, %584, %560, %535
  call void @_ZplILi32ELb1EEN11ap_int_baseIXT_EXT0_EXleT_Li64EEE5RTypeIXLi32EEXLb1EEE4plusERKS1_i(%struct.ap_int_base.14* sret %19, %struct.ap_fixed_base.7* getelementptr inbounds (%struct.ap_fixed.6* @_ZZ10correlatorN3hls6streamI10rfnoc_axisEES2_7ap_uintILi1EES3_ILi4EEE9loadCount, i32 0, i32 0), i32 1), !dbg !7177 ; [debug line = 359:15]
  call void @_ZN6ap_intILi32EEC1ILi33ELb1EEERK11ap_int_baseIXT_EXT0_EXleT_Li64EEE(%struct.ap_fixed.6* %18, %struct.ap_int_base.14* %19), !dbg !7177 ; [debug line = 359:15]
  %928 = call %struct.ap_fixed.6* @_ZN6ap_intILi32EEaSERKS0_(%struct.ap_fixed.6* @_ZZ10correlatorN3hls6streamI10rfnoc_axisEES2_7ap_uintILi1EES3_ILi4EEE9loadCount, %struct.ap_fixed.6* %18), !dbg !7177 ; [#uses=0 type=%struct.ap_fixed.6*] [debug line = 359:15]
  store i1 true, i1* @_ZZ10correlatorN3hls6streamI10rfnoc_axisEES2_7ap_uintILi1EES3_ILi4EEE8corState, align 1, !dbg !7178 ; [debug line = 360:4]
  br label %929, !dbg !7179                       ; [debug line = 361:3]

; <label>:929                                     ; preds = %927, %533
  store i1 true, i1* @_ZZ10correlatorN3hls6streamI10rfnoc_axisEES2_7ap_uintILi1EES3_ILi4EEE12currentState, align 1, !dbg !7180 ; [debug line = 362:3]
  br label %930, !dbg !7181                       ; [debug line = 363:3]

; <label>:930                                     ; preds = %929, %532, %522
  %931 = load i1* @_ZZ10correlatorN3hls6streamI10rfnoc_axisEES2_7ap_uintILi1EES3_ILi4EEE8corState, align 1, !dbg !7182 ; [#uses=1 type=i1] [debug line = 367:2]
  %932 = zext i1 %931 to i32, !dbg !7182          ; [#uses=1 type=i32] [debug line = 367:2]
  switch i32 %932, label %1503 [
    i32 0, label %933
    i32 1, label %938
  ], !dbg !7182                                   ; [debug line = 367:2]

; <label>:933                                     ; preds = %930
  store i1 false, i1* @_ZZ10correlatorN3hls6streamI10rfnoc_axisEES2_7ap_uintILi1EES3_ILi4EEE8corState, align 1, !dbg !7183 ; [debug line = 369:2]
  %934 = getelementptr inbounds %struct.rfnoc_axis* %out_sample, i32 0, i32 0, !dbg !7185 ; [#uses=1 type=%struct.ap_fixed.6*] [debug line = 370:2]
  call void @_ZN6ap_intILi32EEC1Ei(%struct.ap_fixed.6* %20, i32 1), !dbg !7185 ; [debug line = 370:2]
  %935 = call %struct.ap_fixed.6* @_ZN6ap_intILi32EEaSERKS0_(%struct.ap_fixed.6* %934, %struct.ap_fixed.6* %20), !dbg !7185 ; [#uses=0 type=%struct.ap_fixed.6*] [debug line = 370:2]
  %936 = getelementptr inbounds %struct.rfnoc_axis* %out_sample, i32 0, i32 1, !dbg !7186 ; [#uses=1 type=%struct.ap_uint*] [debug line = 371:2]
  call void @_ZN7ap_uintILi1EEC1Ei(%struct.ap_uint* %21, i32 0), !dbg !7186 ; [debug line = 371:2]
  %937 = call %struct.ap_uint* @_ZN7ap_uintILi1EEaSERKS0_(%struct.ap_uint* %936, %struct.ap_uint* %21), !dbg !7186 ; [#uses=0 type=%struct.ap_uint*] [debug line = 371:2]
  call void @_ZN3hls6streamI10rfnoc_axisE5writeERKS1_(%"class.hls::stream"* %o_data, %struct.rfnoc_axis* %out_sample), !dbg !7187 ; [debug line = 372:2]
  br label %1503, !dbg !7188                      ; [debug line = 373:2]

; <label>:938                                     ; preds = %930
  %939 = bitcast %struct.ap_uint.2* %phaseClass to %struct.ap_int_base.3*, !dbg !7189 ; [#uses=1 type=%struct.ap_int_base.3*] [debug line = 377:10]
  %940 = call zeroext i8 @_ZNK11ap_int_baseILi4ELb0ELb1EEcvhEv(%struct.ap_int_base.3* %939), !dbg !7189 ; [#uses=1 type=i8] [debug line = 377:10]
  %941 = zext i8 %940 to i32, !dbg !7189          ; [#uses=1 type=i32] [debug line = 377:10]
  switch i32 %941, label %1502 [
    i32 0, label %942
    i32 1, label %977
    i32 2, label %1012
    i32 3, label %1047
    i32 4, label %1082
    i32 5, label %1117
    i32 6, label %1152
    i32 7, label %1187
    i32 8, label %1222
    i32 9, label %1257
    i32 10, label %1292
    i32 11, label %1327
    i32 12, label %1362
    i32 13, label %1397
    i32 14, label %1432
    i32 15, label %1467
  ], !dbg !7189                                   ; [debug line = 377:10]

; <label>:942                                     ; preds = %938
  br label %943, !dbg !7190                       ; [debug line = 377:21]

; <label>:943                                     ; preds = %942
  call void @llvm.dbg.declare(metadata !{i32* %a16}, metadata !7192), !dbg !7194 ; [debug line = 379:28] [debug variable = a]
  store i32 15, i32* %a16, align 4, !dbg !7195    ; [debug line = 379:36]
  br label %944, !dbg !7195                       ; [debug line = 379:36]

; <label>:944                                     ; preds = %972, %943
  %945 = load i32* %a16, align 4, !dbg !7195      ; [#uses=1 type=i32] [debug line = 379:36]
  %946 = icmp sge i32 %945, 0, !dbg !7195         ; [#uses=1 type=i1] [debug line = 379:36]
  br i1 %946, label %947, label %975, !dbg !7195  ; [debug line = 379:36]

; <label>:947                                     ; preds = %944
  call void (...)* @_ssdm_op_SpecLoopName(i8* getelementptr inbounds ([15 x i8]* @.str21, i32 0, i32 0)) nounwind, !dbg !7196 ; [debug line = 379:47]
  call void (...)* @_ssdm_RegionBegin(i8* getelementptr inbounds ([15 x i8]* @.str21, i32 0, i32 0)) nounwind, !dbg !7196 ; [debug line = 379:47]
  call void (...)* @_ssdm_Unroll(i32 0, i32 0, i32 0, i8* getelementptr inbounds ([1 x i8]* @.str, i32 0, i32 0)) nounwind, !dbg !7198 ; [debug line = 380:1]
  %948 = load i32* %a16, align 4, !dbg !7199      ; [#uses=1 type=i32] [debug line = 381:5]
  %949 = sext i32 %948 to i64, !dbg !7199         ; [#uses=1 type=i64] [debug line = 381:5]
  %950 = getelementptr inbounds [16 x %struct.ap_uint]* @_ZZ10correlatorN3hls6streamI10rfnoc_axisEES2_7ap_uintILi1EES3_ILi4EEE7corrSeq, i32 0, i64 %949, !dbg !7199 ; [#uses=1 type=%struct.ap_uint*] [debug line = 381:5]
  %951 = bitcast %struct.ap_uint* %950 to %struct.ap_int_base.0*, !dbg !7199 ; [#uses=1 type=%struct.ap_int_base.0*] [debug line = 381:5]
  %952 = call zeroext i1 @_ZgtILi1ELb0EEbRK11ap_int_baseIXT_EXT0_EXleT_Li64EEEi(%struct.ap_int_base.0* %951, i32 0), !dbg !7199 ; [#uses=1 type=i1] [debug line = 381:5]
  br i1 %952, label %953, label %959, !dbg !7199  ; [debug line = 381:5]

; <label>:953                                     ; preds = %947
  %954 = load i32* %a16, align 4, !dbg !7200      ; [#uses=1 type=i32] [debug line = 382:19]
  %955 = sext i32 %954 to i64, !dbg !7200         ; [#uses=1 type=i64] [debug line = 382:19]
  %956 = getelementptr inbounds [16 x %struct.ap_fixed]* @_ZZ10correlatorN3hls6streamI10rfnoc_axisEES2_7ap_uintILi1EES3_ILi4EEE11phaseClass0, i32 0, i64 %955, !dbg !7200 ; [#uses=1 type=%struct.ap_fixed*] [debug line = 382:19]
  %957 = bitcast %struct.ap_fixed* %956 to %struct.ap_fixed_base*, !dbg !7200 ; [#uses=1 type=%struct.ap_fixed_base*] [debug line = 382:19]
  call void @_ZNK13ap_fixed_baseILi32ELi22ELb1EL9ap_q_mode5EL9ap_o_mode3ELi0EEplILi16ELi11ELb1ELS0_5ELS1_3ELi0EEENS2_5RTypeIXT_EXT0_EXT1_EE4plusERKS_IXT_EXT0_EXT1_EXT2_EXT3_EXT4_EE(%struct.ap_int_base.14* sret %23, %struct.ap_fixed_base.7* getelementptr inbounds (%struct.ap_fixed.6* @_ZZ10correlatorN3hls6streamI10rfnoc_axisEES2_7ap_uintILi1EES3_ILi4EEE10corHelperI, i32 0, i32 0), %struct.ap_fixed_base* %957), !dbg !7200 ; [debug line = 382:19]
  call void @_ZN8ap_fixedILi32ELi22EL9ap_q_mode5EL9ap_o_mode3ELi0EEC1ILi33ELi23ELb1ELS0_5ELS1_3ELi0EEERK13ap_fixed_baseIXT_EXT0_EXT1_EXT2_EXT3_EXT4_EE(%struct.ap_fixed.6* %22, %struct.ap_int_base.14* %23), !dbg !7200 ; [debug line = 382:19]
  %958 = call %struct.ap_fixed.6* @_ZN8ap_fixedILi32ELi22EL9ap_q_mode5EL9ap_o_mode3ELi0EEaSERKS2_(%struct.ap_fixed.6* @_ZZ10correlatorN3hls6streamI10rfnoc_axisEES2_7ap_uintILi1EES3_ILi4EEE10corHelperI, %struct.ap_fixed.6* %22), !dbg !7200 ; [#uses=0 type=%struct.ap_fixed.6*] [debug line = 382:19]
  br label %959, !dbg !7200                       ; [debug line = 382:19]

; <label>:959                                     ; preds = %953, %947
  %960 = load i32* %a16, align 4, !dbg !7201      ; [#uses=1 type=i32] [debug line = 384:5]
  %961 = icmp sgt i32 %960, 0, !dbg !7201         ; [#uses=1 type=i1] [debug line = 384:5]
  br i1 %961, label %962, label %971, !dbg !7201  ; [debug line = 384:5]

; <label>:962                                     ; preds = %959
  %963 = load i32* %a16, align 4, !dbg !7202      ; [#uses=1 type=i32] [debug line = 385:6]
  %964 = sext i32 %963 to i64, !dbg !7202         ; [#uses=1 type=i64] [debug line = 385:6]
  %965 = getelementptr inbounds [16 x %struct.ap_fixed.6]* @_ZZ10correlatorN3hls6streamI10rfnoc_axisEES2_7ap_uintILi1EES3_ILi4EEE6Phase0, i32 0, i64 %964, !dbg !7202 ; [#uses=1 type=%struct.ap_fixed.6*] [debug line = 385:6]
  %966 = load i32* %a16, align 4, !dbg !7202      ; [#uses=1 type=i32] [debug line = 385:6]
  %967 = sub nsw i32 %966, 1, !dbg !7202          ; [#uses=1 type=i32] [debug line = 385:6]
  %968 = sext i32 %967 to i64, !dbg !7202         ; [#uses=1 type=i64] [debug line = 385:6]
  %969 = getelementptr inbounds [16 x %struct.ap_fixed.6]* @_ZZ10correlatorN3hls6streamI10rfnoc_axisEES2_7ap_uintILi1EES3_ILi4EEE6Phase0, i32 0, i64 %968, !dbg !7202 ; [#uses=1 type=%struct.ap_fixed.6*] [debug line = 385:6]
  %970 = call %struct.ap_fixed.6* @_ZN8ap_fixedILi32ELi22EL9ap_q_mode5EL9ap_o_mode3ELi0EEaSERKS2_(%struct.ap_fixed.6* %965, %struct.ap_fixed.6* %969), !dbg !7202 ; [#uses=0 type=%struct.ap_fixed.6*] [debug line = 385:6]
  br label %971, !dbg !7202                       ; [debug line = 385:6]

; <label>:971                                     ; preds = %962, %959
  call void (...)* @_ssdm_RegionEnd(i8* getelementptr inbounds ([15 x i8]* @.str21, i32 0, i32 0)) nounwind, !dbg !7203 ; [debug line = 386:4]
  br label %972, !dbg !7203                       ; [debug line = 386:4]

; <label>:972                                     ; preds = %971
  %973 = load i32* %a16, align 4, !dbg !7204      ; [#uses=1 type=i32] [debug line = 379:42]
  %974 = add nsw i32 %973, -1, !dbg !7204         ; [#uses=1 type=i32] [debug line = 379:42]
  store i32 %974, i32* %a16, align 4, !dbg !7204  ; [debug line = 379:42]
  br label %944, !dbg !7204                       ; [debug line = 379:42]

; <label>:975                                     ; preds = %944
  %976 = call %struct.ap_fixed.6* @_ZN8ap_fixedILi32ELi22EL9ap_q_mode5EL9ap_o_mode3ELi0EEaSERKS2_(%struct.ap_fixed.6* getelementptr inbounds ([16 x %struct.ap_fixed.6]* @_ZZ10correlatorN3hls6streamI10rfnoc_axisEES2_7ap_uintILi1EES3_ILi4EEE6Phase0, i32 0, i64 0), %struct.ap_fixed.6* @_ZZ10correlatorN3hls6streamI10rfnoc_axisEES2_7ap_uintILi1EES3_ILi4EEE10corHelperI), !dbg !7205 ; [#uses=0 type=%struct.ap_fixed.6*] [debug line = 387:4]
  br label %1502, !dbg !7206                      ; [debug line = 394:3]

; <label>:977                                     ; preds = %938
  br label %978, !dbg !7206                       ; [debug line = 394:3]

; <label>:978                                     ; preds = %977
  call void @llvm.dbg.declare(metadata !{i32* %a17}, metadata !7207), !dbg !7209 ; [debug line = 396:28] [debug variable = a]
  store i32 15, i32* %a17, align 4, !dbg !7210    ; [debug line = 396:36]
  br label %979, !dbg !7210                       ; [debug line = 396:36]

; <label>:979                                     ; preds = %1007, %978
  %980 = load i32* %a17, align 4, !dbg !7210      ; [#uses=1 type=i32] [debug line = 396:36]
  %981 = icmp sge i32 %980, 0, !dbg !7210         ; [#uses=1 type=i1] [debug line = 396:36]
  br i1 %981, label %982, label %1010, !dbg !7210 ; [debug line = 396:36]

; <label>:982                                     ; preds = %979
  call void (...)* @_ssdm_op_SpecLoopName(i8* getelementptr inbounds ([15 x i8]* @.str22, i32 0, i32 0)) nounwind, !dbg !7211 ; [debug line = 396:47]
  call void (...)* @_ssdm_RegionBegin(i8* getelementptr inbounds ([15 x i8]* @.str22, i32 0, i32 0)) nounwind, !dbg !7211 ; [debug line = 396:47]
  call void (...)* @_ssdm_Unroll(i32 0, i32 0, i32 0, i8* getelementptr inbounds ([1 x i8]* @.str, i32 0, i32 0)) nounwind, !dbg !7213 ; [debug line = 397:1]
  %983 = load i32* %a17, align 4, !dbg !7214      ; [#uses=1 type=i32] [debug line = 398:5]
  %984 = sext i32 %983 to i64, !dbg !7214         ; [#uses=1 type=i64] [debug line = 398:5]
  %985 = getelementptr inbounds [16 x %struct.ap_uint]* @_ZZ10correlatorN3hls6streamI10rfnoc_axisEES2_7ap_uintILi1EES3_ILi4EEE7corrSeq, i32 0, i64 %984, !dbg !7214 ; [#uses=1 type=%struct.ap_uint*] [debug line = 398:5]
  %986 = bitcast %struct.ap_uint* %985 to %struct.ap_int_base.0*, !dbg !7214 ; [#uses=1 type=%struct.ap_int_base.0*] [debug line = 398:5]
  %987 = call zeroext i1 @_ZgtILi1ELb0EEbRK11ap_int_baseIXT_EXT0_EXleT_Li64EEEi(%struct.ap_int_base.0* %986, i32 0), !dbg !7214 ; [#uses=1 type=i1] [debug line = 398:5]
  br i1 %987, label %988, label %994, !dbg !7214  ; [debug line = 398:5]

; <label>:988                                     ; preds = %982
  %989 = load i32* %a17, align 4, !dbg !7215      ; [#uses=1 type=i32] [debug line = 399:19]
  %990 = sext i32 %989 to i64, !dbg !7215         ; [#uses=1 type=i64] [debug line = 399:19]
  %991 = getelementptr inbounds [16 x %struct.ap_fixed]* @_ZZ10correlatorN3hls6streamI10rfnoc_axisEES2_7ap_uintILi1EES3_ILi4EEE11phaseClass1, i32 0, i64 %990, !dbg !7215 ; [#uses=1 type=%struct.ap_fixed*] [debug line = 399:19]
  %992 = bitcast %struct.ap_fixed* %991 to %struct.ap_fixed_base*, !dbg !7215 ; [#uses=1 type=%struct.ap_fixed_base*] [debug line = 399:19]
  call void @_ZNK13ap_fixed_baseILi32ELi22ELb1EL9ap_q_mode5EL9ap_o_mode3ELi0EEplILi16ELi11ELb1ELS0_5ELS1_3ELi0EEENS2_5RTypeIXT_EXT0_EXT1_EE4plusERKS_IXT_EXT0_EXT1_EXT2_EXT3_EXT4_EE(%struct.ap_int_base.14* sret %25, %struct.ap_fixed_base.7* getelementptr inbounds (%struct.ap_fixed.6* @_ZZ10correlatorN3hls6streamI10rfnoc_axisEES2_7ap_uintILi1EES3_ILi4EEE10corHelperI, i32 0, i32 0), %struct.ap_fixed_base* %992), !dbg !7215 ; [debug line = 399:19]
  call void @_ZN8ap_fixedILi32ELi22EL9ap_q_mode5EL9ap_o_mode3ELi0EEC1ILi33ELi23ELb1ELS0_5ELS1_3ELi0EEERK13ap_fixed_baseIXT_EXT0_EXT1_EXT2_EXT3_EXT4_EE(%struct.ap_fixed.6* %24, %struct.ap_int_base.14* %25), !dbg !7215 ; [debug line = 399:19]
  %993 = call %struct.ap_fixed.6* @_ZN8ap_fixedILi32ELi22EL9ap_q_mode5EL9ap_o_mode3ELi0EEaSERKS2_(%struct.ap_fixed.6* @_ZZ10correlatorN3hls6streamI10rfnoc_axisEES2_7ap_uintILi1EES3_ILi4EEE10corHelperI, %struct.ap_fixed.6* %24), !dbg !7215 ; [#uses=0 type=%struct.ap_fixed.6*] [debug line = 399:19]
  br label %994, !dbg !7215                       ; [debug line = 399:19]

; <label>:994                                     ; preds = %988, %982
  %995 = load i32* %a17, align 4, !dbg !7216      ; [#uses=1 type=i32] [debug line = 401:5]
  %996 = icmp sgt i32 %995, 0, !dbg !7216         ; [#uses=1 type=i1] [debug line = 401:5]
  br i1 %996, label %997, label %1006, !dbg !7216 ; [debug line = 401:5]

; <label>:997                                     ; preds = %994
  %998 = load i32* %a17, align 4, !dbg !7217      ; [#uses=1 type=i32] [debug line = 402:6]
  %999 = sext i32 %998 to i64, !dbg !7217         ; [#uses=1 type=i64] [debug line = 402:6]
  %1000 = getelementptr inbounds [16 x %struct.ap_fixed.6]* @_ZZ10correlatorN3hls6streamI10rfnoc_axisEES2_7ap_uintILi1EES3_ILi4EEE6Phase1, i32 0, i64 %999, !dbg !7217 ; [#uses=1 type=%struct.ap_fixed.6*] [debug line = 402:6]
  %1001 = load i32* %a17, align 4, !dbg !7217     ; [#uses=1 type=i32] [debug line = 402:6]
  %1002 = sub nsw i32 %1001, 1, !dbg !7217        ; [#uses=1 type=i32] [debug line = 402:6]
  %1003 = sext i32 %1002 to i64, !dbg !7217       ; [#uses=1 type=i64] [debug line = 402:6]
  %1004 = getelementptr inbounds [16 x %struct.ap_fixed.6]* @_ZZ10correlatorN3hls6streamI10rfnoc_axisEES2_7ap_uintILi1EES3_ILi4EEE6Phase1, i32 0, i64 %1003, !dbg !7217 ; [#uses=1 type=%struct.ap_fixed.6*] [debug line = 402:6]
  %1005 = call %struct.ap_fixed.6* @_ZN8ap_fixedILi32ELi22EL9ap_q_mode5EL9ap_o_mode3ELi0EEaSERKS2_(%struct.ap_fixed.6* %1000, %struct.ap_fixed.6* %1004), !dbg !7217 ; [#uses=0 type=%struct.ap_fixed.6*] [debug line = 402:6]
  br label %1006, !dbg !7217                      ; [debug line = 402:6]

; <label>:1006                                    ; preds = %997, %994
  call void (...)* @_ssdm_RegionEnd(i8* getelementptr inbounds ([15 x i8]* @.str22, i32 0, i32 0)) nounwind, !dbg !7218 ; [debug line = 403:4]
  br label %1007, !dbg !7218                      ; [debug line = 403:4]

; <label>:1007                                    ; preds = %1006
  %1008 = load i32* %a17, align 4, !dbg !7219     ; [#uses=1 type=i32] [debug line = 396:42]
  %1009 = add nsw i32 %1008, -1, !dbg !7219       ; [#uses=1 type=i32] [debug line = 396:42]
  store i32 %1009, i32* %a17, align 4, !dbg !7219 ; [debug line = 396:42]
  br label %979, !dbg !7219                       ; [debug line = 396:42]

; <label>:1010                                    ; preds = %979
  %1011 = call %struct.ap_fixed.6* @_ZN8ap_fixedILi32ELi22EL9ap_q_mode5EL9ap_o_mode3ELi0EEaSERKS2_(%struct.ap_fixed.6* getelementptr inbounds ([16 x %struct.ap_fixed.6]* @_ZZ10correlatorN3hls6streamI10rfnoc_axisEES2_7ap_uintILi1EES3_ILi4EEE6Phase1, i32 0, i64 0), %struct.ap_fixed.6* @_ZZ10correlatorN3hls6streamI10rfnoc_axisEES2_7ap_uintILi1EES3_ILi4EEE10corHelperI), !dbg !7220 ; [#uses=0 type=%struct.ap_fixed.6*] [debug line = 404:4]
  br label %1502, !dbg !7221                      ; [debug line = 406:4]

; <label>:1012                                    ; preds = %938
  br label %1013, !dbg !7221                      ; [debug line = 406:4]

; <label>:1013                                    ; preds = %1012
  call void @llvm.dbg.declare(metadata !{i32* %a18}, metadata !7222), !dbg !7224 ; [debug line = 408:28] [debug variable = a]
  store i32 15, i32* %a18, align 4, !dbg !7225    ; [debug line = 408:36]
  br label %1014, !dbg !7225                      ; [debug line = 408:36]

; <label>:1014                                    ; preds = %1042, %1013
  %1015 = load i32* %a18, align 4, !dbg !7225     ; [#uses=1 type=i32] [debug line = 408:36]
  %1016 = icmp sge i32 %1015, 0, !dbg !7225       ; [#uses=1 type=i1] [debug line = 408:36]
  br i1 %1016, label %1017, label %1045, !dbg !7225 ; [debug line = 408:36]

; <label>:1017                                    ; preds = %1014
  call void (...)* @_ssdm_op_SpecLoopName(i8* getelementptr inbounds ([15 x i8]* @.str23, i32 0, i32 0)) nounwind, !dbg !7226 ; [debug line = 408:47]
  call void (...)* @_ssdm_RegionBegin(i8* getelementptr inbounds ([15 x i8]* @.str23, i32 0, i32 0)) nounwind, !dbg !7226 ; [debug line = 408:47]
  call void (...)* @_ssdm_Unroll(i32 0, i32 0, i32 0, i8* getelementptr inbounds ([1 x i8]* @.str, i32 0, i32 0)) nounwind, !dbg !7228 ; [debug line = 409:1]
  %1018 = load i32* %a18, align 4, !dbg !7229     ; [#uses=1 type=i32] [debug line = 410:5]
  %1019 = sext i32 %1018 to i64, !dbg !7229       ; [#uses=1 type=i64] [debug line = 410:5]
  %1020 = getelementptr inbounds [16 x %struct.ap_uint]* @_ZZ10correlatorN3hls6streamI10rfnoc_axisEES2_7ap_uintILi1EES3_ILi4EEE7corrSeq, i32 0, i64 %1019, !dbg !7229 ; [#uses=1 type=%struct.ap_uint*] [debug line = 410:5]
  %1021 = bitcast %struct.ap_uint* %1020 to %struct.ap_int_base.0*, !dbg !7229 ; [#uses=1 type=%struct.ap_int_base.0*] [debug line = 410:5]
  %1022 = call zeroext i1 @_ZgtILi1ELb0EEbRK11ap_int_baseIXT_EXT0_EXleT_Li64EEEi(%struct.ap_int_base.0* %1021, i32 0), !dbg !7229 ; [#uses=1 type=i1] [debug line = 410:5]
  br i1 %1022, label %1023, label %1029, !dbg !7229 ; [debug line = 410:5]

; <label>:1023                                    ; preds = %1017
  %1024 = load i32* %a18, align 4, !dbg !7230     ; [#uses=1 type=i32] [debug line = 411:19]
  %1025 = sext i32 %1024 to i64, !dbg !7230       ; [#uses=1 type=i64] [debug line = 411:19]
  %1026 = getelementptr inbounds [16 x %struct.ap_fixed]* @_ZZ10correlatorN3hls6streamI10rfnoc_axisEES2_7ap_uintILi1EES3_ILi4EEE11phaseClass2, i32 0, i64 %1025, !dbg !7230 ; [#uses=1 type=%struct.ap_fixed*] [debug line = 411:19]
  %1027 = bitcast %struct.ap_fixed* %1026 to %struct.ap_fixed_base*, !dbg !7230 ; [#uses=1 type=%struct.ap_fixed_base*] [debug line = 411:19]
  call void @_ZNK13ap_fixed_baseILi32ELi22ELb1EL9ap_q_mode5EL9ap_o_mode3ELi0EEplILi16ELi11ELb1ELS0_5ELS1_3ELi0EEENS2_5RTypeIXT_EXT0_EXT1_EE4plusERKS_IXT_EXT0_EXT1_EXT2_EXT3_EXT4_EE(%struct.ap_int_base.14* sret %27, %struct.ap_fixed_base.7* getelementptr inbounds (%struct.ap_fixed.6* @_ZZ10correlatorN3hls6streamI10rfnoc_axisEES2_7ap_uintILi1EES3_ILi4EEE10corHelperI, i32 0, i32 0), %struct.ap_fixed_base* %1027), !dbg !7230 ; [debug line = 411:19]
  call void @_ZN8ap_fixedILi32ELi22EL9ap_q_mode5EL9ap_o_mode3ELi0EEC1ILi33ELi23ELb1ELS0_5ELS1_3ELi0EEERK13ap_fixed_baseIXT_EXT0_EXT1_EXT2_EXT3_EXT4_EE(%struct.ap_fixed.6* %26, %struct.ap_int_base.14* %27), !dbg !7230 ; [debug line = 411:19]
  %1028 = call %struct.ap_fixed.6* @_ZN8ap_fixedILi32ELi22EL9ap_q_mode5EL9ap_o_mode3ELi0EEaSERKS2_(%struct.ap_fixed.6* @_ZZ10correlatorN3hls6streamI10rfnoc_axisEES2_7ap_uintILi1EES3_ILi4EEE10corHelperI, %struct.ap_fixed.6* %26), !dbg !7230 ; [#uses=0 type=%struct.ap_fixed.6*] [debug line = 411:19]
  br label %1029, !dbg !7230                      ; [debug line = 411:19]

; <label>:1029                                    ; preds = %1023, %1017
  %1030 = load i32* %a18, align 4, !dbg !7231     ; [#uses=1 type=i32] [debug line = 413:5]
  %1031 = icmp sgt i32 %1030, 0, !dbg !7231       ; [#uses=1 type=i1] [debug line = 413:5]
  br i1 %1031, label %1032, label %1041, !dbg !7231 ; [debug line = 413:5]

; <label>:1032                                    ; preds = %1029
  %1033 = load i32* %a18, align 4, !dbg !7232     ; [#uses=1 type=i32] [debug line = 414:6]
  %1034 = sext i32 %1033 to i64, !dbg !7232       ; [#uses=1 type=i64] [debug line = 414:6]
