; ModuleID = '/home/ece492fa18/RFNoCFrameSynchHWAccel/matchedRee/solution1/.autopilot/db/a.o.2.bc'
target datalayout = "e-p:64:64:64-i1:8:8-i8:8:8-i16:16:16-i32:32:32-i64:64:64-f32:32:32-f64:64:64-v64:64:64-v128:128:128-a0:0:64-s0:64:64-f80:128:128-n8:16:32:64-S128"
target triple = "x86_64-unknown-linux-gnu"

@llvm.global_ctors.1 = appending global [0 x void ()*] zeroinitializer ; [#uses=0 type=[0 x void ()*]*]
@llvm.global_ctors.0 = appending global [0 x i32] zeroinitializer ; [#uses=0 type=[0 x i32]*]
@currentState = internal unnamed_addr global i1 false, align 1 ; [#uses=3 type=i1*]
@buffQ.V.9 = internal unnamed_addr global i16 0   ; [#uses=2 type=i16*]
@buffQ.V.8 = internal unnamed_addr global i16 0   ; [#uses=2 type=i16*]
@buffQ.V.7 = internal unnamed_addr global i16 0   ; [#uses=2 type=i16*]
@buffQ.V.6 = internal unnamed_addr global i16 0   ; [#uses=2 type=i16*]
@buffQ.V.5 = internal unnamed_addr global i16 0   ; [#uses=2 type=i16*]
@buffQ.V.4 = internal unnamed_addr global i16 0   ; [#uses=2 type=i16*]
@buffQ.V.3 = internal unnamed_addr global i16 0   ; [#uses=2 type=i16*]
@buffQ.V.2 = internal unnamed_addr global i16 0   ; [#uses=2 type=i16*]
@buffQ.V.14 = internal unnamed_addr global i16 0  ; [#uses=2 type=i16*]
@buffQ.V.13 = internal unnamed_addr global i16 0  ; [#uses=2 type=i16*]
@buffQ.V.12 = internal unnamed_addr global i16 0  ; [#uses=2 type=i16*]
@buffQ.V.11 = internal unnamed_addr global i16 0  ; [#uses=2 type=i16*]
@buffQ.V.10 = internal unnamed_addr global i16 0  ; [#uses=2 type=i16*]
@buffQ.V.1 = internal unnamed_addr global i16 0   ; [#uses=2 type=i16*]
@buffQ.V.0 = internal unnamed_addr global i16 0   ; [#uses=2 type=i16*]
@buffI.V.9 = internal unnamed_addr global i16 0   ; [#uses=2 type=i16*]
@buffI.V.8 = internal unnamed_addr global i16 0   ; [#uses=2 type=i16*]
@buffI.V.7 = internal unnamed_addr global i16 0   ; [#uses=2 type=i16*]
@buffI.V.6 = internal unnamed_addr global i16 0   ; [#uses=2 type=i16*]
@buffI.V.5 = internal unnamed_addr global i16 0   ; [#uses=2 type=i16*]
@buffI.V.4 = internal unnamed_addr global i16 0   ; [#uses=2 type=i16*]
@buffI.V.3 = internal unnamed_addr global i16 0   ; [#uses=2 type=i16*]
@buffI.V.2 = internal unnamed_addr global i16 0   ; [#uses=2 type=i16*]
@buffI.V.10 = internal unnamed_addr global i16 0  ; [#uses=1 type=i16*]
@buffI.V.1 = internal unnamed_addr global i16 0   ; [#uses=2 type=i16*]
@buffI.V.0 = internal unnamed_addr global i16 0   ; [#uses=2 type=i16*]
@MatcherRee.str = internal unnamed_addr constant [11 x i8] c"MatcherRee\00" ; [#uses=1 type=[11 x i8]*]
@.str3 = private unnamed_addr constant [5 x i8] c"both\00", align 1 ; [#uses=2 type=[5 x i8]*]
@.str2 = private unnamed_addr constant [5 x i8] c"axis\00", align 1 ; [#uses=2 type=[5 x i8]*]
@.str1 = private unnamed_addr constant [13 x i8] c"ap_ctrl_none\00", align 1 ; [#uses=1 type=[13 x i8]*]
@.str = private unnamed_addr constant [1 x i8] zeroinitializer, align 1 ; [#uses=31 type=[1 x i8]*]

; [#uses=14]
declare void @llvm.dbg.value(metadata, i64, metadata) nounwind readnone

; [#uses=8]
declare void @llvm.dbg.declare(metadata, metadata) nounwind readnone

; [#uses=1]
declare void @_ssdm_op_SpecTopModule(...)

; [#uses=1]
declare void @_ssdm_op_SpecResource(...) nounwind

; [#uses=6]
declare void @_ssdm_op_SpecReset(...) nounwind

; [#uses=1]
declare void @_ssdm_op_SpecPipeline(...) nounwind

; [#uses=3]
declare void @_ssdm_op_SpecInterface(...) nounwind

; [#uses=5]
declare void @_ssdm_op_SpecBitsMap(...)

; [#uses=1]
declare i5 @_ssdm_op_PartSelect.i5.i33.i32.i32(i33, i32, i32) nounwind readnone

; [#uses=2]
declare i16 @_ssdm_op_PartSelect.i16.i32.i32.i32(i32, i32, i32) nounwind readnone

; [#uses=1]
declare i11 @_ssdm_op_PartSelect.i11.i33.i32.i32(i33, i32, i32) nounwind readnone

; [#uses=1]
declare i1 @_ssdm_op_PartSelect.i1.i33.i32.i32(i33, i32, i32) nounwind readnone

; [#uses=1]
declare void @"_ssdm_op_IfWrite.Stream.%struct.rfnoc_axis.12 = type { %struct.ap_int.11, %struct.ap_uint.8 }P.%struct.rfnoc_axis.12 = type { %struct.ap_int.11, %struct.ap_uint.8 }P"(i32*, i1*, i32*, i1*)

; [#uses=1]
declare void @"_ssdm_op_IfRead.Stream.%struct.rfnoc_axis.12 = type { %struct.ap_int.11, %struct.ap_uint.8 }P.%struct.rfnoc_axis.12 = type { %struct.ap_int.11, %struct.ap_uint.8 }P"(i32*, i1*, i32*, i1*)

; [#uses=1]
declare i32 @_ssdm_op_BitConcatenate.i32.i16.i16(i16, i16) nounwind readnone

; [#uses=0]
define void @MatcherRee(i32* %i_data.V.data.V, i1* %i_data.V.last.V, i32* %o_data.V.data.V, i1* %o_data.V.last.V, i1 %start.V) {
.preheader221.preheader:
  call void (...)* @_ssdm_op_SpecBitsMap(i32* %i_data.V.data.V), !map !8771
  call void (...)* @_ssdm_op_SpecBitsMap(i1* %i_data.V.last.V), !map !8775
  call void (...)* @_ssdm_op_SpecBitsMap(i32* %o_data.V.data.V), !map !8779
  call void (...)* @_ssdm_op_SpecBitsMap(i1* %o_data.V.last.V), !map !8783
  call void (...)* @_ssdm_op_SpecBitsMap(i1 %start.V), !map !8787
  call void (...)* @_ssdm_op_SpecTopModule([11 x i8]* @MatcherRee.str) nounwind
  %tmp.data.V = alloca i32, align 4               ; [#uses=2 type=i32*]
  %tmp.last.V = alloca i1, align 1                ; [#uses=1 type=i1*]
  %tmp.data.V.1 = alloca i32, align 4             ; [#uses=2 type=i32*]
  %tmp.last.V.1 = alloca i1, align 1              ; [#uses=1 type=i1*]
  call void @llvm.dbg.declare(metadata !{i32* %i_data.V.data.V}, metadata !8793), !dbg !8805 ; [debug line = 29:42] [debug variable = i_data.V.data.V]
  call void @llvm.dbg.declare(metadata !{i1* %i_data.V.last.V}, metadata !8806), !dbg !8805 ; [debug line = 29:42] [debug variable = i_data.V.last.V]
  call void @llvm.dbg.declare(metadata !{i32* %o_data.V.data.V}, metadata !8811), !dbg !8813 ; [debug line = 29:74] [debug variable = o_data.V.data.V]
  call void @llvm.dbg.declare(metadata !{i1* %o_data.V.last.V}, metadata !8814), !dbg !8813 ; [debug line = 29:74] [debug variable = o_data.V.last.V]
  call void (...)* @_ssdm_op_SpecResource(i32* %o_data.V.data.V, i1* %o_data.V.last.V, [1 x i8]* @.str, [1 x i8]* @.str, [1 x i8]* @.str, i32 1, [1 x i8]* @.str, [1 x i8]* @.str, [1 x i8]* @.str, [1 x i8]* @.str, [1 x i8]* @.str), !dbg !8815 ; [debug line = 36:1]
  call void (...)* @_ssdm_op_SpecInterface(i32 0, [13 x i8]* @.str1, i32 0, i32 0, [1 x i8]* @.str, i32 0, i32 0, [1 x i8]* @.str, [1 x i8]* @.str, [1 x i8]* @.str, i32 0, i32 0, i32 0, i32 0, [1 x i8]* @.str, [1 x i8]* @.str) nounwind, !dbg !8817 ; [debug line = 38:1]
  call void (...)* @_ssdm_op_SpecInterface(i32* %o_data.V.data.V, i1* %o_data.V.last.V, [5 x i8]* @.str2, i32 1, i32 1, [5 x i8]* @.str3, i32 0, i32 0, [1 x i8]* @.str, [1 x i8]* @.str, [1 x i8]* @.str, i32 0, i32 0, i32 0, i32 0, [1 x i8]* @.str, [1 x i8]* @.str) nounwind, !dbg !8818 ; [debug line = 39:1]
  call void (...)* @_ssdm_op_SpecInterface(i32* %i_data.V.data.V, i1* %i_data.V.last.V, [5 x i8]* @.str2, i32 1, i32 1, [5 x i8]* @.str3, i32 0, i32 0, [1 x i8]* @.str, [1 x i8]* @.str, [1 x i8]* @.str, i32 0, i32 0, i32 0, i32 0, [1 x i8]* @.str, [1 x i8]* @.str) nounwind, !dbg !8819 ; [debug line = 40:1]
  call void (...)* @_ssdm_op_SpecPipeline(i32 1, i32 1, i32 1, i32 0, [1 x i8]* @.str) nounwind, !dbg !8820 ; [debug line = 41:1]
  call void (...)* @_ssdm_op_SpecReset(i32 1, [1 x i8]* @.str), !dbg !8821 ; [debug line = 43:1]
  call void (...)* @_ssdm_op_SpecReset(i32 1, [1 x i8]* @.str), !dbg !8822 ; [debug line = 46:1]
  call void (...)* @_ssdm_op_SpecReset(i32 1, [1 x i8]* @.str) nounwind, !dbg !8823 ; [debug line = 51:1]
  call void (...)* @_ssdm_op_SpecReset(i32 1, [1 x i8]* @.str) nounwind, !dbg !8824 ; [debug line = 53:1]
  %currentState.load = load i1* @currentState, align 1, !dbg !8825 ; [#uses=1 type=i1] [debug line = 75:1]
  call void (...)* @_ssdm_op_SpecReset(i1* @currentState, i32 1, [1 x i8]* @.str) nounwind, !dbg !8825 ; [debug line = 75:1]
  call void (...)* @_ssdm_op_SpecReset(i32 0, i32 1, [1 x i8]* @.str) nounwind, !dbg !8826 ; [debug line = 79:1]
  br i1 %currentState.load, label %_ifconv, label %0, !dbg !8827 ; [debug line = 82:2]

; <label>:0                                       ; preds = %.preheader221.preheader
  br i1 %start.V, label %1, label %._crit_edge252, !dbg !8828 ; [debug line = 84:12]

; <label>:1                                       ; preds = %0
  store i1 true, i1* @currentState, align 1, !dbg !8830 ; [debug line = 85:10]
  br label %._crit_edge252, !dbg !8832            ; [debug line = 87:9]

._crit_edge252:                                   ; preds = %1, %0
  br label %._crit_edge251, !dbg !8833            ; [debug line = 88:9]

_ifconv:                                          ; preds = %.preheader221.preheader
  call void @llvm.dbg.value(metadata !{i32* %i_data.V.data.V}, i64 0, metadata !8834), !dbg !8839 ; [debug line = 123:48@90:6] [debug variable = stream<rfnoc_axis>.V.data.V]
  call void @llvm.dbg.value(metadata !{i1* %i_data.V.last.V}, i64 0, metadata !8841), !dbg !8839 ; [debug line = 123:48@90:6] [debug variable = stream<rfnoc_axis>.V.last.V]
  call void @llvm.dbg.declare(metadata !{i32* %tmp.data.V}, metadata !8843), !dbg !8846 ; [debug line = 124:22@90:6] [debug variable = tmp.data.V]
  call void @llvm.dbg.declare(metadata !{i1* %tmp.last.V}, metadata !8847), !dbg !8846 ; [debug line = 124:22@90:6] [debug variable = tmp.last.V]
  call void @"_ssdm_op_IfRead.Stream.%struct.rfnoc_axis.12 = type { %struct.ap_int.11, %struct.ap_uint.8 }P.%struct.rfnoc_axis.12 = type { %struct.ap_int.11, %struct.ap_uint.8 }P"(i32* %i_data.V.data.V, i1* %i_data.V.last.V, i32* %tmp.data.V, i1* %tmp.last.V), !dbg !8848 ; [debug line = 125:9@90:6]
  call void @llvm.dbg.value(metadata !{i32* %tmp.data.V}, i64 0, metadata !8843), !dbg !8849 ; [debug line = 174:5@28:9@126:9@90:6] [debug variable = tmp.data.V]
  call void @llvm.dbg.value(metadata !{i32* %tmp.data.V}, i64 0, metadata !8843), !dbg !8849 ; [debug line = 174:5@28:9@126:9@90:6] [debug variable = tmp.data.V]
  %__Val2__ = load i32* %tmp.data.V, align 4, !dbg !8849 ; [#uses=2 type=i32] [debug line = 174:5@28:9@126:9@90:6]
  call void @llvm.dbg.value(metadata !{i1* %tmp.last.V}, i64 0, metadata !8847), !dbg !8858 ; [debug line = 281:5@28:9@126:9@90:6] [debug variable = tmp.last.V]
  %buffQ.V.14.load = load i16* @buffQ.V.14, align 4, !dbg !8861 ; [#uses=2 type=i16] [debug line = 388:5@94:2]
  %buffQ.V.13.load = load i16* @buffQ.V.13, align 2, !dbg !8861 ; [#uses=3 type=i16] [debug line = 388:5@94:2]
  store i16 %buffQ.V.13.load, i16* @buffQ.V.14, align 4, !dbg !8861 ; [debug line = 388:5@94:2]
  %buffQ.V.12.load = load i16* @buffQ.V.12, align 8, !dbg !8861 ; [#uses=2 type=i16] [debug line = 388:5@94:2]
  store i16 %buffQ.V.12.load, i16* @buffQ.V.13, align 2, !dbg !8861 ; [debug line = 388:5@94:2]
  %buffQ.V.11.load = load i16* @buffQ.V.11, align 2, !dbg !8861 ; [#uses=2 type=i16] [debug line = 388:5@94:2]
  store i16 %buffQ.V.11.load, i16* @buffQ.V.12, align 8, !dbg !8861 ; [debug line = 388:5@94:2]
  %buffQ.V.10.load = load i16* @buffQ.V.10, align 4, !dbg !8861 ; [#uses=2 type=i16] [debug line = 388:5@94:2]
  store i16 %buffQ.V.10.load, i16* @buffQ.V.11, align 2, !dbg !8861 ; [debug line = 388:5@94:2]
  %buffQ.V.9.load = load i16* @buffQ.V.9, align 2, !dbg !8861 ; [#uses=2 type=i16] [debug line = 388:5@94:2]
  store i16 %buffQ.V.9.load, i16* @buffQ.V.10, align 4, !dbg !8861 ; [debug line = 388:5@94:2]
  %buffI.V.9.load = load i16* @buffI.V.9, align 2, !dbg !8867 ; [#uses=1 type=i16] [debug line = 388:5@95:4]
  store i16 %buffI.V.9.load, i16* @buffI.V.10, align 4, !dbg !8867 ; [debug line = 388:5@95:4]
  %buffQ.V.8.load = load i16* @buffQ.V.8, align 16, !dbg !8861 ; [#uses=2 type=i16] [debug line = 388:5@94:2]
  store i16 %buffQ.V.8.load, i16* @buffQ.V.9, align 2, !dbg !8861 ; [debug line = 388:5@94:2]
  %buffI.V.8.load = load i16* @buffI.V.8, align 16, !dbg !8867 ; [#uses=1 type=i16] [debug line = 388:5@95:4]
  store i16 %buffI.V.8.load, i16* @buffI.V.9, align 2, !dbg !8867 ; [debug line = 388:5@95:4]
  %buffQ.V.7.load = load i16* @buffQ.V.7, align 2, !dbg !8861 ; [#uses=2 type=i16] [debug line = 388:5@94:2]
  store i16 %buffQ.V.7.load, i16* @buffQ.V.8, align 16, !dbg !8861 ; [debug line = 388:5@94:2]
  %buffI.V.7.load = load i16* @buffI.V.7, align 2, !dbg !8867 ; [#uses=1 type=i16] [debug line = 388:5@95:4]
  store i16 %buffI.V.7.load, i16* @buffI.V.8, align 16, !dbg !8867 ; [debug line = 388:5@95:4]
  %buffQ.V.6.load = load i16* @buffQ.V.6, align 4, !dbg !8861 ; [#uses=2 type=i16] [debug line = 388:5@94:2]
  store i16 %buffQ.V.6.load, i16* @buffQ.V.7, align 2, !dbg !8861 ; [debug line = 388:5@94:2]
  %buffI.V.6.load = load i16* @buffI.V.6, align 4, !dbg !8867 ; [#uses=1 type=i16] [debug line = 388:5@95:4]
  store i16 %buffI.V.6.load, i16* @buffI.V.7, align 2, !dbg !8867 ; [debug line = 388:5@95:4]
  %buffQ.V.5.load = load i16* @buffQ.V.5, align 2, !dbg !8861 ; [#uses=2 type=i16] [debug line = 388:5@94:2]
  store i16 %buffQ.V.5.load, i16* @buffQ.V.6, align 4, !dbg !8861 ; [debug line = 388:5@94:2]
  %buffI.V.5.load = load i16* @buffI.V.5, align 2, !dbg !8867 ; [#uses=1 type=i16] [debug line = 388:5@95:4]
  store i16 %buffI.V.5.load, i16* @buffI.V.6, align 4, !dbg !8867 ; [debug line = 388:5@95:4]
  %buffQ.V.4.load = load i16* @buffQ.V.4, align 8, !dbg !8861 ; [#uses=2 type=i16] [debug line = 388:5@94:2]
  store i16 %buffQ.V.4.load, i16* @buffQ.V.5, align 2, !dbg !8861 ; [debug line = 388:5@94:2]
  %buffI.V.4.load = load i16* @buffI.V.4, align 8, !dbg !8867 ; [#uses=1 type=i16] [debug line = 388:5@95:4]
  store i16 %buffI.V.4.load, i16* @buffI.V.5, align 2, !dbg !8867 ; [debug line = 388:5@95:4]
  %buffQ.V.3.load = load i16* @buffQ.V.3, align 2, !dbg !8861 ; [#uses=2 type=i16] [debug line = 388:5@94:2]
  store i16 %buffQ.V.3.load, i16* @buffQ.V.4, align 8, !dbg !8861 ; [debug line = 388:5@94:2]
  %buffI.V.3.load = load i16* @buffI.V.3, align 2, !dbg !8867 ; [#uses=1 type=i16] [debug line = 388:5@95:4]
  store i16 %buffI.V.3.load, i16* @buffI.V.4, align 8, !dbg !8867 ; [debug line = 388:5@95:4]
  %buffQ.V.2.load = load i16* @buffQ.V.2, align 4, !dbg !8861 ; [#uses=2 type=i16] [debug line = 388:5@94:2]
  store i16 %buffQ.V.2.load, i16* @buffQ.V.3, align 2, !dbg !8861 ; [debug line = 388:5@94:2]
  %buffI.V.2.load = load i16* @buffI.V.2, align 4, !dbg !8867 ; [#uses=1 type=i16] [debug line = 388:5@95:4]
  store i16 %buffI.V.2.load, i16* @buffI.V.3, align 2, !dbg !8867 ; [debug line = 388:5@95:4]
  %buffQ.V.1.load = load i16* @buffQ.V.1, align 2, !dbg !8861 ; [#uses=2 type=i16] [debug line = 388:5@94:2]
  store i16 %buffQ.V.1.load, i16* @buffQ.V.2, align 4, !dbg !8861 ; [debug line = 388:5@94:2]
  %buffI.V.1.load = load i16* @buffI.V.1, align 2, !dbg !8867 ; [#uses=1 type=i16] [debug line = 388:5@95:4]
  store i16 %buffI.V.1.load, i16* @buffI.V.2, align 4, !dbg !8867 ; [debug line = 388:5@95:4]
  %buffQ.V.0.load = load i16* @buffQ.V.0, align 16, !dbg !8861 ; [#uses=2 type=i16] [debug line = 388:5@94:2]
  store i16 %buffQ.V.0.load, i16* @buffQ.V.1, align 2, !dbg !8861 ; [debug line = 388:5@94:2]
  %buffI.V.0.load = load i16* @buffI.V.0, align 16, !dbg !8867 ; [#uses=1 type=i16] [debug line = 388:5@95:4]
  store i16 %buffI.V.0.load, i16* @buffI.V.1, align 2, !dbg !8867 ; [debug line = 388:5@95:4]
  call void @llvm.dbg.value(metadata !{i32 %__Val2__}, i64 0, metadata !8869), !dbg !8873 ; [debug line = 941:79@1538:15@1539:3@827:9@346:14@346:15@98:14] [debug variable = __Val2__]
  %__Result__.8 = call i16 @_ssdm_op_PartSelect.i16.i32.i32.i32(i32 %__Val2__, i32 0, i32 15), !dbg !8891 ; [#uses=1 type=i16] [debug line = 941:81@1538:15@1539:3@827:9@346:14@346:15@98:14]
  %tmp.7 = shl i16 %__Result__.8, 5, !dbg !8892   ; [#uses=2 type=i16] [debug line = 703:17@773:5@786:9@787:5@827:9@346:14@346:15@98:14]
  store i16 %tmp.7, i16* @buffQ.V.0, align 16, !dbg !8909 ; [debug line = 388:5@98:14]
  %__Result__.9 = call i16 @_ssdm_op_PartSelect.i16.i32.i32.i32(i32 %__Val2__, i32 16, i32 31), !dbg !8910 ; [#uses=1 type=i16] [debug line = 941:81@1538:15@1539:3@827:9@346:14@346:15@99:14]
  %tmp.9 = shl i16 %__Result__.9, 5, !dbg !8917   ; [#uses=1 type=i16] [debug line = 703:17@773:5@786:9@787:5@827:9@346:14@346:15@99:14]
  store i16 %tmp.9, i16* @buffI.V.0, align 16, !dbg !8921 ; [debug line = 388:5@99:14]
  %OP1.V.cast = zext i16 %buffQ.V.14.load to i20, !dbg !8922 ; [#uses=1 type=i20] [debug line = 1367:9@103:17]
  %OP1.V.cast3 = zext i16 %buffQ.V.14.load to i21, !dbg !8922 ; [#uses=1 type=i21] [debug line = 1367:9@103:17]
  %_shl1 = shl i21 %OP1.V.cast3, 6, !dbg !8922    ; [#uses=1 type=i21] [debug line = 1367:9@103:17]
  %_shl2 = shl nuw i20 %OP1.V.cast, 4, !dbg !8922 ; [#uses=1 type=i20] [debug line = 1367:9@103:17]
  %_shl2.cast = sext i20 %_shl2 to i21, !dbg !8922 ; [#uses=1 type=i21] [debug line = 1367:9@103:17]
  %__Val2__.6 = sub i21 %_shl1, %_shl2.cast, !dbg !8922 ; [#uses=1 type=i21] [debug line = 1367:9@103:17]
  %tmp.1 = lshr i21 %__Val2__.6, 5, !dbg !8928    ; [#uses=1 type=i21] [debug line = 682:17@773:5@1418:243@103:17]
  %tmp.2 = trunc i21 %tmp.1 to i16, !dbg !8928    ; [#uses=1 type=i16] [debug line = 682:17@773:5@1418:243@103:17]
  %OP1.V.1.cast = zext i16 %buffQ.V.13.load to i20, !dbg !8922 ; [#uses=1 type=i20] [debug line = 1367:9@103:17]
  %OP1.V.1.cast5 = zext i16 %buffQ.V.13.load to i21, !dbg !8936 ; [#uses=1 type=i21] [debug line = 1400:0@1418:243@103:17]
  %_shl = shl i21 %OP1.V.1.cast5, 6, !dbg !8936   ; [#uses=1 type=i21] [debug line = 1400:0@1418:243@103:17]
  %_shl3 = shl nuw i20 %OP1.V.1.cast, 4, !dbg !8922 ; [#uses=1 type=i20] [debug line = 1367:9@103:17]
  %_shl3.cast = sext i20 %_shl3 to i21, !dbg !8936 ; [#uses=1 type=i21] [debug line = 1400:0@1418:243@103:17]
  %__Val2__.6.1 = add i21 %_shl3.cast, %_shl, !dbg !8936 ; [#uses=1 type=i21] [debug line = 1400:0@1418:243@103:17]
  %tmp.12.1.cast7 = zext i16 %tmp.2 to i21, !dbg !8944 ; [#uses=1 type=i21] [debug line = 703:17@773:5@1400:0@1418:243@103:17]
  %tmp.13.1 = shl nuw i21 %tmp.12.1.cast7, 5, !dbg !8944 ; [#uses=1 type=i21] [debug line = 703:17@773:5@1400:0@1418:243@103:17]
  %__Val2__.7.1 = add i21 %__Val2__.6.1, %tmp.13.1, !dbg !8936 ; [#uses=1 type=i21] [debug line = 1400:0@1418:243@103:17]
  %tmp.15.1 = lshr i21 %__Val2__.7.1, 5, !dbg !8928 ; [#uses=1 type=i21] [debug line = 682:17@773:5@1418:243@103:17]
  %tmp.16.1 = trunc i21 %tmp.15.1 to i16, !dbg !8928 ; [#uses=1 type=i16] [debug line = 682:17@773:5@1418:243@103:17]
  %OP1.V.2.cast = sext i16 %buffQ.V.12.load to i21, !dbg !8936 ; [#uses=1 type=i21] [debug line = 1400:0@1418:243@103:17]
  %__Val2__.6.2 = mul i21 %OP1.V.2.cast, 118, !dbg !8936 ; [#uses=1 type=i21] [debug line = 1400:0@1418:243@103:17]
  %tmp.12.2.cast9 = zext i16 %tmp.16.1 to i21, !dbg !8944 ; [#uses=1 type=i21] [debug line = 703:17@773:5@1400:0@1418:243@103:17]
  %tmp.13.2 = shl nuw i21 %tmp.12.2.cast9, 5, !dbg !8944 ; [#uses=1 type=i21] [debug line = 703:17@773:5@1400:0@1418:243@103:17]
  %__Val2__.7.2 = add i21 %__Val2__.6.2, %tmp.13.2, !dbg !8936 ; [#uses=1 type=i21] [debug line = 1400:0@1418:243@103:17]
  %tmp.15.2 = lshr i21 %__Val2__.7.2, 5, !dbg !8928 ; [#uses=1 type=i21] [debug line = 682:17@773:5@1418:243@103:17]
  %tmp.16.2 = trunc i21 %tmp.15.2 to i16, !dbg !8928 ; [#uses=1 type=i16] [debug line = 682:17@773:5@1418:243@103:17]
  %OP1.V.3.cast = sext i16 %buffQ.V.11.load to i21, !dbg !8936 ; [#uses=1 type=i21] [debug line = 1400:0@1418:243@103:17]
  %__Val2__.6.3 = mul i21 %OP1.V.3.cast, 156, !dbg !8936 ; [#uses=1 type=i21] [debug line = 1400:0@1418:243@103:17]
  %tmp.12.3.cast = zext i16 %tmp.16.2 to i21, !dbg !8944 ; [#uses=1 type=i21] [debug line = 703:17@773:5@1400:0@1418:243@103:17]
  %tmp.13.3 = shl nuw i21 %tmp.12.3.cast, 5, !dbg !8944 ; [#uses=1 type=i21] [debug line = 703:17@773:5@1400:0@1418:243@103:17]
  %__Val2__.7.3 = add i21 %__Val2__.6.3, %tmp.13.3, !dbg !8936 ; [#uses=1 type=i21] [debug line = 1400:0@1418:243@103:17]
  %tmp.15.3 = lshr i21 %__Val2__.7.3, 5, !dbg !8928 ; [#uses=1 type=i21] [debug line = 682:17@773:5@1418:243@103:17]
  %tmp.16.3 = trunc i21 %tmp.15.3 to i16, !dbg !8928 ; [#uses=1 type=i16] [debug line = 682:17@773:5@1418:243@103:17]
  %OP1.V.4.cast = sext i16 %buffQ.V.10.load to i21, !dbg !8936 ; [#uses=1 type=i21] [debug line = 1400:0@1418:243@103:17]
  %__Val2__.6.4 = mul i21 %OP1.V.4.cast, 169, !dbg !8936 ; [#uses=1 type=i21] [debug line = 1400:0@1418:243@103:17]
  %tmp.12.4.cast = zext i16 %tmp.16.3 to i21, !dbg !8944 ; [#uses=1 type=i21] [debug line = 703:17@773:5@1400:0@1418:243@103:17]
  %tmp.13.4 = shl nuw i21 %tmp.12.4.cast, 5, !dbg !8944 ; [#uses=1 type=i21] [debug line = 703:17@773:5@1400:0@1418:243@103:17]
  %__Val2__.7.4 = add i21 %__Val2__.6.4, %tmp.13.4, !dbg !8936 ; [#uses=1 type=i21] [debug line = 1400:0@1418:243@103:17]
  %tmp.15.4 = lshr i21 %__Val2__.7.4, 5, !dbg !8928 ; [#uses=1 type=i21] [debug line = 682:17@773:5@1418:243@103:17]
  %tmp.16.4 = trunc i21 %tmp.15.4 to i16, !dbg !8928 ; [#uses=1 type=i16] [debug line = 682:17@773:5@1418:243@103:17]
  %OP1.V.5.cast = sext i16 %buffQ.V.9.load to i21, !dbg !8936 ; [#uses=1 type=i21] [debug line = 1400:0@1418:243@103:17]
  %__Val2__.6.5 = mul i21 %OP1.V.5.cast, 204, !dbg !8936 ; [#uses=1 type=i21] [debug line = 1400:0@1418:243@103:17]
  %tmp.12.5.cast = zext i16 %tmp.16.4 to i21, !dbg !8944 ; [#uses=1 type=i21] [debug line = 703:17@773:5@1400:0@1418:243@103:17]
  %tmp.13.5 = shl nuw i21 %tmp.12.5.cast, 5, !dbg !8944 ; [#uses=1 type=i21] [debug line = 703:17@773:5@1400:0@1418:243@103:17]
  %__Val2__.7.5 = add i21 %__Val2__.6.5, %tmp.13.5, !dbg !8936 ; [#uses=1 type=i21] [debug line = 1400:0@1418:243@103:17]
  %tmp.15.5 = lshr i21 %__Val2__.7.5, 5, !dbg !8928 ; [#uses=1 type=i21] [debug line = 682:17@773:5@1418:243@103:17]
  %tmp.16.5 = trunc i21 %tmp.15.5 to i16, !dbg !8928 ; [#uses=1 type=i16] [debug line = 682:17@773:5@1418:243@103:17]
  %OP1.V.6.cast = sext i16 %buffQ.V.8.load to i21, !dbg !8936 ; [#uses=1 type=i21] [debug line = 1400:0@1418:243@103:17]
  %__Val2__.6.6 = mul i21 %OP1.V.6.cast, 182, !dbg !8936 ; [#uses=1 type=i21] [debug line = 1400:0@1418:243@103:17]
  %tmp.12.6.cast = zext i16 %tmp.16.5 to i21, !dbg !8944 ; [#uses=1 type=i21] [debug line = 703:17@773:5@1400:0@1418:243@103:17]
  %tmp.13.6 = shl nuw i21 %tmp.12.6.cast, 5, !dbg !8944 ; [#uses=1 type=i21] [debug line = 703:17@773:5@1400:0@1418:243@103:17]
  %__Val2__.7.6 = add i21 %__Val2__.6.6, %tmp.13.6, !dbg !8936 ; [#uses=1 type=i21] [debug line = 1400:0@1418:243@103:17]
  %tmp.15.6 = lshr i21 %__Val2__.7.6, 5, !dbg !8928 ; [#uses=1 type=i21] [debug line = 682:17@773:5@1418:243@103:17]
  %tmp.16.6 = trunc i21 %tmp.15.6 to i16, !dbg !8928 ; [#uses=1 type=i16] [debug line = 682:17@773:5@1418:243@103:17]
  %OP1.V.7.cast = sext i16 %buffQ.V.7.load to i21, !dbg !8936 ; [#uses=1 type=i21] [debug line = 1400:0@1418:243@103:17]
  %__Val2__.6.7 = mul i21 %OP1.V.7.cast, 140, !dbg !8936 ; [#uses=1 type=i21] [debug line = 1400:0@1418:243@103:17]
  %tmp.12.7.cast = zext i16 %tmp.16.6 to i21, !dbg !8944 ; [#uses=1 type=i21] [debug line = 703:17@773:5@1400:0@1418:243@103:17]
  %tmp.13.7 = shl nuw i21 %tmp.12.7.cast, 5, !dbg !8944 ; [#uses=1 type=i21] [debug line = 703:17@773:5@1400:0@1418:243@103:17]
  %__Val2__.7.7 = add i21 %__Val2__.6.7, %tmp.13.7, !dbg !8936 ; [#uses=1 type=i21] [debug line = 1400:0@1418:243@103:17]
  %tmp.15.7 = lshr i21 %__Val2__.7.7, 5, !dbg !8928 ; [#uses=1 type=i21] [debug line = 682:17@773:5@1418:243@103:17]
  %tmp.16.7 = trunc i21 %tmp.15.7 to i16, !dbg !8928 ; [#uses=1 type=i16] [debug line = 682:17@773:5@1418:243@103:17]
  %OP1.V.8.cast = sext i16 %buffQ.V.6.load to i21, !dbg !8936 ; [#uses=1 type=i21] [debug line = 1400:0@1418:243@103:17]
  %__Val2__.6.8 = mul i21 %OP1.V.8.cast, 121, !dbg !8936 ; [#uses=1 type=i21] [debug line = 1400:0@1418:243@103:17]
  %tmp.12.8.cast = zext i16 %tmp.16.7 to i21, !dbg !8944 ; [#uses=1 type=i21] [debug line = 703:17@773:5@1400:0@1418:243@103:17]
  %tmp.13.8 = shl nuw i21 %tmp.12.8.cast, 5, !dbg !8944 ; [#uses=1 type=i21] [debug line = 703:17@773:5@1400:0@1418:243@103:17]
  %__Val2__.7.8 = add i21 %__Val2__.6.8, %tmp.13.8, !dbg !8936 ; [#uses=1 type=i21] [debug line = 1400:0@1418:243@103:17]
  %tmp.15.8 = lshr i21 %__Val2__.7.8, 5, !dbg !8928 ; [#uses=1 type=i21] [debug line = 682:17@773:5@1418:243@103:17]
  %tmp.16.8 = trunc i21 %tmp.15.8 to i16, !dbg !8928 ; [#uses=1 type=i16] [debug line = 682:17@773:5@1418:243@103:17]
  %OP1.V.9.cast = sext i16 %buffQ.V.5.load to i21, !dbg !8936 ; [#uses=1 type=i21] [debug line = 1400:0@1418:243@103:17]
  %__Val2__.6.9 = mul i21 %OP1.V.9.cast, 92, !dbg !8936 ; [#uses=1 type=i21] [debug line = 1400:0@1418:243@103:17]
  %tmp.12.9.cast = zext i16 %tmp.16.8 to i21, !dbg !8944 ; [#uses=1 type=i21] [debug line = 703:17@773:5@1400:0@1418:243@103:17]
  %tmp.13.9 = shl nuw i21 %tmp.12.9.cast, 5, !dbg !8944 ; [#uses=1 type=i21] [debug line = 703:17@773:5@1400:0@1418:243@103:17]
  %__Val2__.7.9 = add i21 %__Val2__.6.9, %tmp.13.9, !dbg !8936 ; [#uses=1 type=i21] [debug line = 1400:0@1418:243@103:17]
  %tmp.15.9 = lshr i21 %__Val2__.7.9, 5, !dbg !8928 ; [#uses=1 type=i21] [debug line = 682:17@773:5@1418:243@103:17]
  %tmp.16.9 = trunc i21 %tmp.15.9 to i16, !dbg !8928 ; [#uses=1 type=i16] [debug line = 682:17@773:5@1418:243@103:17]
  %OP1.V..cast = sext i16 %buffQ.V.4.load to i21, !dbg !8936 ; [#uses=1 type=i21] [debug line = 1400:0@1418:243@103:17]
  %__Val2__.6. = mul i21 %OP1.V..cast, 73, !dbg !8936 ; [#uses=1 type=i21] [debug line = 1400:0@1418:243@103:17]
  %tmp.12..cast = zext i16 %tmp.16.9 to i21, !dbg !8944 ; [#uses=1 type=i21] [debug line = 703:17@773:5@1400:0@1418:243@103:17]
  %tmp.13. = shl nuw i21 %tmp.12..cast, 5, !dbg !8944 ; [#uses=1 type=i21] [debug line = 703:17@773:5@1400:0@1418:243@103:17]
  %__Val2__.7. = add i21 %__Val2__.6., %tmp.13., !dbg !8936 ; [#uses=1 type=i21] [debug line = 1400:0@1418:243@103:17]
  %tmp.15. = lshr i21 %__Val2__.7., 5, !dbg !8928 ; [#uses=1 type=i21] [debug line = 682:17@773:5@1418:243@103:17]
  %tmp.16. = trunc i21 %tmp.15. to i16, !dbg !8928 ; [#uses=1 type=i16] [debug line = 682:17@773:5@1418:243@103:17]
  %OP1.V.10.cast = sext i16 %buffQ.V.3.load to i21, !dbg !8936 ; [#uses=1 type=i21] [debug line = 1400:0@1418:243@103:17]
  %__Val2__.6.10 = mul i21 %OP1.V.10.cast, 105, !dbg !8936 ; [#uses=1 type=i21] [debug line = 1400:0@1418:243@103:17]
  %tmp.12.10.cast = zext i16 %tmp.16. to i21, !dbg !8944 ; [#uses=1 type=i21] [debug line = 703:17@773:5@1400:0@1418:243@103:17]
  %tmp.13.10 = shl nuw i21 %tmp.12.10.cast, 5, !dbg !8944 ; [#uses=1 type=i21] [debug line = 703:17@773:5@1400:0@1418:243@103:17]
  %__Val2__.7.10 = add i21 %__Val2__.6.10, %tmp.13.10, !dbg !8936 ; [#uses=1 type=i21] [debug line = 1400:0@1418:243@103:17]
  %tmp.15.10 = lshr i21 %__Val2__.7.10, 5, !dbg !8928 ; [#uses=1 type=i21] [debug line = 682:17@773:5@1418:243@103:17]
  %tmp.16.10 = trunc i21 %tmp.15.10 to i16, !dbg !8928 ; [#uses=1 type=i16] [debug line = 682:17@773:5@1418:243@103:17]
  %OP1.V.11.cast = sext i16 %buffQ.V.2.load to i21, !dbg !8936 ; [#uses=1 type=i21] [debug line = 1400:0@1418:243@103:17]
  %__Val2__.6.11 = mul i21 %OP1.V.11.cast, 147, !dbg !8936 ; [#uses=1 type=i21] [debug line = 1400:0@1418:243@103:17]
  %tmp.12.11.cast = zext i16 %tmp.16.10 to i21, !dbg !8944 ; [#uses=1 type=i21] [debug line = 703:17@773:5@1400:0@1418:243@103:17]
  %tmp.13.11 = shl nuw i21 %tmp.12.11.cast, 5, !dbg !8944 ; [#uses=1 type=i21] [debug line = 703:17@773:5@1400:0@1418:243@103:17]
  %__Val2__.7.11 = add i21 %__Val2__.6.11, %tmp.13.11, !dbg !8936 ; [#uses=1 type=i21] [debug line = 1400:0@1418:243@103:17]
  %tmp.15.11 = lshr i21 %__Val2__.7.11, 5, !dbg !8928 ; [#uses=1 type=i21] [debug line = 682:17@773:5@1418:243@103:17]
  %tmp.16.11 = trunc i21 %tmp.15.11 to i16, !dbg !8928 ; [#uses=1 type=i16] [debug line = 682:17@773:5@1418:243@103:17]
  %OP1.V.12.cast = sext i16 %buffQ.V.1.load to i21, !dbg !8936 ; [#uses=1 type=i21] [debug line = 1400:0@1418:243@103:17]
  %__Val2__.6.12 = mul i21 %OP1.V.12.cast, 179, !dbg !8936 ; [#uses=1 type=i21] [debug line = 1400:0@1418:243@103:17]
  %tmp.12.12.cast = zext i16 %tmp.16.11 to i21, !dbg !8944 ; [#uses=1 type=i21] [debug line = 703:17@773:5@1400:0@1418:243@103:17]
  %tmp.13.12 = shl nuw i21 %tmp.12.12.cast, 5, !dbg !8944 ; [#uses=1 type=i21] [debug line = 703:17@773:5@1400:0@1418:243@103:17]
  %__Val2__.7.12 = add i21 %__Val2__.6.12, %tmp.13.12, !dbg !8936 ; [#uses=1 type=i21] [debug line = 1400:0@1418:243@103:17]
  %tmp.15.12 = lshr i21 %__Val2__.7.12, 5, !dbg !8928 ; [#uses=1 type=i21] [debug line = 682:17@773:5@1418:243@103:17]
  %tmp.16.12 = trunc i21 %tmp.15.12 to i16, !dbg !8928 ; [#uses=1 type=i16] [debug line = 682:17@773:5@1418:243@103:17]
  %OP1.V.13.cast = sext i16 %buffQ.V.0.load to i21, !dbg !8936 ; [#uses=1 type=i21] [debug line = 1400:0@1418:243@103:17]
  %__Val2__.6.13 = mul i21 %OP1.V.13.cast, 211, !dbg !8936 ; [#uses=1 type=i21] [debug line = 1400:0@1418:243@103:17]
  %tmp.12.13.cast = zext i16 %tmp.16.12 to i21, !dbg !8944 ; [#uses=1 type=i21] [debug line = 703:17@773:5@1400:0@1418:243@103:17]
  %tmp.13.13 = shl nuw i21 %tmp.12.13.cast, 5, !dbg !8944 ; [#uses=1 type=i21] [debug line = 703:17@773:5@1400:0@1418:243@103:17]
  %__Val2__.7.13 = add i21 %__Val2__.6.13, %tmp.13.13, !dbg !8936 ; [#uses=1 type=i21] [debug line = 1400:0@1418:243@103:17]
  %tmp.15.13 = lshr i21 %__Val2__.7.13, 5, !dbg !8928 ; [#uses=1 type=i21] [debug line = 682:17@773:5@1418:243@103:17]
  %tmp.16.13 = trunc i21 %tmp.15.13 to i16, !dbg !8928 ; [#uses=1 type=i16] [debug line = 682:17@773:5@1418:243@103:17]
  %OP1.V.14.cast = sext i16 %tmp.7 to i25, !dbg !8922 ; [#uses=1 type=i25] [debug line = 1367:9@103:17]
  %__Val2__.6.14 = mul i25 %OP1.V.14.cast, 208, !dbg !8922 ; [#uses=1 type=i25] [debug line = 1367:9@103:17]
  %__Val2__.6.14.cast = sext i25 %__Val2__.6.14 to i32, !dbg !8922 ; [#uses=1 type=i32] [debug line = 1367:9@103:17]
  %tmp.12.14.cast = zext i16 %tmp.16.13 to i21, !dbg !8944 ; [#uses=1 type=i21] [debug line = 703:17@773:5@1400:0@1418:243@103:17]
  %tmp.13.14 = shl nuw i21 %tmp.12.14.cast, 5, !dbg !8944 ; [#uses=1 type=i21] [debug line = 703:17@773:5@1400:0@1418:243@103:17]
  %tmp.13.14.cast = sext i21 %tmp.13.14 to i33, !dbg !8944 ; [#uses=1 type=i33] [debug line = 703:17@773:5@1400:0@1418:243@103:17]
  %tmp.141. = zext i32 %__Val2__.6.14.cast to i33, !dbg !8950 ; [#uses=1 type=i33] [debug line = 679:13@773:5@1400:0@1418:243@103:17]
  %__Val2__.7.14 = add nsw i33 %tmp.141., %tmp.13.14.cast, !dbg !8936 ; [#uses=3 type=i33] [debug line = 1400:0@1418:243@103:17]
  %ret.V = call i11 @_ssdm_op_PartSelect.i11.i33.i32.i32(i33 %__Val2__.7.14, i32 10, i32 20), !dbg !8955 ; [#uses=3 type=i11] [debug line = 1071:197@982:22@109:6]
  call void @llvm.dbg.value(metadata !{i11 %ret.V}, i64 0, metadata !8963), !dbg !8969 ; [debug line = 1071:0@982:22@109:6] [debug variable = ret.V]
  %__Result__.1 = call i1 @_ssdm_op_PartSelect.i1.i33.i32.i32(i33 %__Val2__.7.14, i32 20, i32 20), !dbg !8970 ; [#uses=1 type=i1] [debug line = 1083:202@982:22@109:6]
  %__Result__.2 = call i5 @_ssdm_op_PartSelect.i5.i33.i32.i32(i33 %__Val2__.7.14, i32 5, i32 9), !dbg !8973 ; [#uses=1 type=i5] [debug line = 1085:213@982:22@109:6]
  %tmp. = icmp eq i5 %__Result__.2, 0, !dbg !8975 ; [#uses=1 type=i1] [debug line = 1085:0@982:22@109:6]
  %ret.V.1 = add i11 %ret.V, 1, !dbg !8976        ; [#uses=1 type=i11] [debug line = 1088:17@982:22@109:6]
  call void @llvm.dbg.value(metadata !{i11 %ret.V.1}, i64 0, metadata !8963), !dbg !8976 ; [debug line = 1088:17@982:22@109:6] [debug variable = ret.V]
  %. = select i1 %tmp., i11 %ret.V, i11 %ret.V.1, !dbg !8975 ; [#uses=1 type=i11] [debug line = 1085:0@982:22@109:6]
  %.1 = select i1 %__Result__.1, i11 %., i11 %ret.V ; [#uses=1 type=i11]
  %loc.V.1.trunc = sext i11 %.1 to i16            ; [#uses=1 type=i16]
  %__Result__ = call i32 @_ssdm_op_BitConcatenate.i32.i16.i16(i16 0, i16 %loc.V.1.trunc), !dbg !8977 ; [#uses=1 type=i32] [debug line = 958:115@982:22@109:6]
  call void @llvm.dbg.value(metadata !{i32 %__Result__}, i64 0, metadata !8985), !dbg !8977 ; [debug line = 958:115@982:22@109:6] [debug variable = __Result__]
  call void @llvm.dbg.value(metadata !{i32 %__Result__}, i64 0, metadata !8986), !dbg !8988 ; [debug line = 958:232@982:22@109:6] [debug variable = out_sample.data.V]
  call void @llvm.dbg.value(metadata !{i32* %o_data.V.data.V}, i64 0, metadata !8989), !dbg !8992 ; [debug line = 144:48@112:6] [debug variable = stream<rfnoc_axis>.V.data.V]
  call void @llvm.dbg.value(metadata !{i1* %o_data.V.last.V}, i64 0, metadata !8994), !dbg !8992 ; [debug line = 144:48@112:6] [debug variable = stream<rfnoc_axis>.V.last.V]
  call void @llvm.dbg.declare(metadata !{i32* %tmp.data.V.1}, metadata !8995), !dbg !8998 ; [debug line = 145:22@112:6] [debug variable = tmp.data.V]
  call void @llvm.dbg.declare(metadata !{i1* %tmp.last.V.1}, metadata !8999), !dbg !8998 ; [debug line = 145:22@112:6] [debug variable = tmp.last.V]
  call void @llvm.dbg.value(metadata !{i32 %__Result__}, i64 0, metadata !8995), !dbg !9000 ; [debug line = 145:31@112:6] [debug variable = tmp.data.V]
  call void @llvm.dbg.value(metadata !{i32 %__Result__}, i64 0, metadata !8995), !dbg !9000 ; [debug line = 145:31@112:6] [debug variable = tmp.data.V]
  store i32 %__Result__, i32* %tmp.data.V.1, align 4, !dbg !9000 ; [debug line = 145:31@112:6]
  call void @"_ssdm_op_IfWrite.Stream.%struct.rfnoc_axis.12 = type { %struct.ap_int.11, %struct.ap_uint.8 }P.%struct.rfnoc_axis.12 = type { %struct.ap_int.11, %struct.ap_uint.8 }P"(i32* %o_data.V.data.V, i1* %o_data.V.last.V, i32* %tmp.data.V.1, i1* %tmp.last.V.1), !dbg !9001 ; [debug line = 146:9@112:6]
  br label %._crit_edge251, !dbg !9002            ; [debug line = 113:2]

._crit_edge251:                                   ; preds = %_ifconv, %._crit_edge252
  ret void, !dbg !9003                            ; [debug line = 116:1]
}

!opencl.kernels = !{!0, !7, !13, !16, !19, !19, !22, !28, !30, !30, !22, !31, !33, !33, !22, !22, !22, !22, !35, !37, !37, !38, !44, !44, !48, !48, !51, !51, !22, !52, !52, !22, !22, !53, !53, !22, !52, !55, !22, !22, !22, !22, !22, !56, !56, !56, !58, !58, !22, !22, !22, !59, !59, !61, !61, !22, !22, !38, !63, !63, !65, !67, !70, !72, !74, !22, !76, !76, !78, !80, !80, !82, !82, !84, !84, !86, !22, !19, !19, !22, !88, !22, !22, !22, !91, !91, !93, !93, !95, !22, !22, !22, !97, !19, !19, !100, !22, !22, !102, !102, !104, !104, !106, !22, !22, !22, !22, !22, !22, !108, !22, !22, !22, !110, !110, !22, !111, !22, !22, !22, !22, !22, !22, !22, !22, !22, !22, !22, !22, !22}
!hls.encrypted.func = !{}
!llvm.map.gv = !{!113}
!llvm.dbg.cu = !{!120}

!0 = metadata !{null, metadata !1, metadata !2, metadata !3, metadata !4, metadata !5, metadata !6}
!1 = metadata !{metadata !"kernel_arg_addr_space", i32 0, i32 0, i32 0}
!2 = metadata !{metadata !"kernel_arg_access_qual", metadata !"none", metadata !"none", metadata !"none"}
!3 = metadata !{metadata !"kernel_arg_type", metadata !"hls::stream<rfnoc_axis>", metadata !"hls::stream<rfnoc_axis>", metadata !"ap_uint<1>"}
!4 = metadata !{metadata !"kernel_arg_type_qual", metadata !"", metadata !"", metadata !""}
!5 = metadata !{metadata !"kernel_arg_name", metadata !"i_data", metadata !"o_data", metadata !"start"}
!6 = metadata !{metadata !"reqd_work_group_size", i32 1, i32 1, i32 1}
!7 = metadata !{null, metadata !8, metadata !9, metadata !10, metadata !11, metadata !12, metadata !6}
!8 = metadata !{metadata !"kernel_arg_addr_space", i32 0}
!9 = metadata !{metadata !"kernel_arg_access_qual", metadata !"none"}
!10 = metadata !{metadata !"kernel_arg_type", metadata !"const struct rfnoc_axis &"}
!11 = metadata !{metadata !"kernel_arg_type_qual", metadata !""}
!12 = metadata !{metadata !"kernel_arg_name", metadata !"din"}
!13 = metadata !{null, metadata !8, metadata !9, metadata !14, metadata !11, metadata !15, metadata !6}
!14 = metadata !{metadata !"kernel_arg_type", metadata !"const ap_fixed_base<16, 11, true, (enum ap_q_mode)5, (enum ap_o_mode)3, 0> &"}
!15 = metadata !{metadata !"kernel_arg_name", metadata !"val"}
!16 = metadata !{null, metadata !8, metadata !9, metadata !17, metadata !11, metadata !18, metadata !6}
!17 = metadata !{metadata !"kernel_arg_type", metadata !"_Bool"}
!18 = metadata !{metadata !"kernel_arg_name", metadata !"Cnative"}
!19 = metadata !{null, metadata !8, metadata !9, metadata !20, metadata !11, metadata !21, metadata !6}
!20 = metadata !{metadata !"kernel_arg_type", metadata !"int"}
!21 = metadata !{metadata !"kernel_arg_name", metadata !"op"}
!22 = metadata !{null, metadata !23, metadata !24, metadata !25, metadata !26, metadata !27, metadata !6}
!23 = metadata !{metadata !"kernel_arg_addr_space"}
!24 = metadata !{metadata !"kernel_arg_access_qual"}
!25 = metadata !{metadata !"kernel_arg_type"}
!26 = metadata !{metadata !"kernel_arg_type_qual"}
!27 = metadata !{metadata !"kernel_arg_name"}
!28 = metadata !{null, metadata !8, metadata !9, metadata !29, metadata !11, metadata !15, metadata !6}
!29 = metadata !{metadata !"kernel_arg_type", metadata !"const ap_int_base<11, true> &"}
!30 = metadata !{null, metadata !8, metadata !9, metadata !29, metadata !11, metadata !21, metadata !6}
!31 = metadata !{null, metadata !8, metadata !9, metadata !32, metadata !11, metadata !15, metadata !6}
!32 = metadata !{metadata !"kernel_arg_type", metadata !"const ap_range_ref<16, true> &"}
!33 = metadata !{null, metadata !8, metadata !9, metadata !32, metadata !11, metadata !34, metadata !6}
!34 = metadata !{metadata !"kernel_arg_name", metadata !"ref"}
!35 = metadata !{null, metadata !8, metadata !9, metadata !36, metadata !11, metadata !15, metadata !6}
!36 = metadata !{metadata !"kernel_arg_type", metadata !"const ap_int_base<16, false> &"}
!37 = metadata !{null, metadata !8, metadata !9, metadata !36, metadata !11, metadata !21, metadata !6}
!38 = metadata !{null, metadata !39, metadata !40, metadata !41, metadata !42, metadata !43, metadata !6}
!39 = metadata !{metadata !"kernel_arg_addr_space", i32 0, i32 0}
!40 = metadata !{metadata !"kernel_arg_access_qual", metadata !"none", metadata !"none"}
!41 = metadata !{metadata !"kernel_arg_type", metadata !"int", metadata !"int"}
!42 = metadata !{metadata !"kernel_arg_type_qual", metadata !"", metadata !""}
!43 = metadata !{metadata !"kernel_arg_name", metadata !"Hi", metadata !"Lo"}
!44 = metadata !{null, metadata !45, metadata !2, metadata !46, metadata !4, metadata !47, metadata !6}
!45 = metadata !{metadata !"kernel_arg_addr_space", i32 1, i32 0, i32 0}
!46 = metadata !{metadata !"kernel_arg_type", metadata !"ap_int_base<16, true>*", metadata !"int", metadata !"int"}
!47 = metadata !{metadata !"kernel_arg_name", metadata !"bv", metadata !"h", metadata !"l"}
!48 = metadata !{null, metadata !8, metadata !9, metadata !49, metadata !11, metadata !50, metadata !6}
!49 = metadata !{metadata !"kernel_arg_type", metadata !"const ap_fixed_base<32, 22, true, (enum ap_q_mode)5, (enum ap_o_mode)3, 0> &"}
!50 = metadata !{metadata !"kernel_arg_name", metadata !"op2"}
!51 = metadata !{null, metadata !8, metadata !9, metadata !49, metadata !11, metadata !21, metadata !6}
!52 = metadata !{null, metadata !8, metadata !9, metadata !14, metadata !11, metadata !21, metadata !6}
!53 = metadata !{null, metadata !8, metadata !9, metadata !54, metadata !11, metadata !21, metadata !6}
!54 = metadata !{metadata !"kernel_arg_type", metadata !"const ap_fixed_base<33, 23, true, (enum ap_q_mode)5, (enum ap_o_mode)3, 0> &"}
!55 = metadata !{null, metadata !8, metadata !9, metadata !14, metadata !11, metadata !50, metadata !6}
!56 = metadata !{null, metadata !8, metadata !9, metadata !57, metadata !11, metadata !21, metadata !6}
!57 = metadata !{metadata !"kernel_arg_type", metadata !"const ap_range_ref<32, true> &"}
!58 = metadata !{null, metadata !8, metadata !9, metadata !57, metadata !11, metadata !34, metadata !6}
!59 = metadata !{null, metadata !8, metadata !9, metadata !60, metadata !11, metadata !21, metadata !6}
!60 = metadata !{metadata !"kernel_arg_type", metadata !"const ap_int_base<32, false> &"}
!61 = metadata !{null, metadata !8, metadata !9, metadata !62, metadata !11, metadata !21, metadata !6}
!62 = metadata !{metadata !"kernel_arg_type", metadata !"const ap_fixed_base<32, 32, false, (enum ap_q_mode)5, (enum ap_o_mode)3, 0> &"}
!63 = metadata !{null, metadata !45, metadata !2, metadata !64, metadata !4, metadata !47, metadata !6}
!64 = metadata !{metadata !"kernel_arg_type", metadata !"ap_int_base<32, true>*", metadata !"int", metadata !"int"}
!65 = metadata !{null, metadata !8, metadata !9, metadata !66, metadata !11, metadata !21, metadata !6}
!66 = metadata !{metadata !"kernel_arg_type", metadata !"const ap_fixed<16, 11, (enum ap_q_mode)5, (enum ap_o_mode)3, 0> &"}
!67 = metadata !{null, metadata !8, metadata !9, metadata !68, metadata !11, metadata !69, metadata !6}
!68 = metadata !{metadata !"kernel_arg_type", metadata !"struct rfnoc_axis &"}
!69 = metadata !{metadata !"kernel_arg_name", metadata !"dout"}
!70 = metadata !{null, metadata !8, metadata !9, metadata !10, metadata !11, metadata !71, metadata !6}
!71 = metadata !{metadata !"kernel_arg_name", metadata !""}
!72 = metadata !{null, metadata !8, metadata !9, metadata !73, metadata !11, metadata !50, metadata !6}
!73 = metadata !{metadata !"kernel_arg_type", metadata !"const ap_uint<1> &"}
!74 = metadata !{null, metadata !8, metadata !9, metadata !75, metadata !11, metadata !50, metadata !6}
!75 = metadata !{metadata !"kernel_arg_type", metadata !"const ap_int<32> &"}
!76 = metadata !{null, metadata !8, metadata !9, metadata !20, metadata !11, metadata !77, metadata !6}
!77 = metadata !{metadata !"kernel_arg_name", metadata !"v"}
!78 = metadata !{null, metadata !8, metadata !9, metadata !20, metadata !11, metadata !79, metadata !6}
!79 = metadata !{metadata !"kernel_arg_name", metadata !"b"}
!80 = metadata !{null, metadata !8, metadata !9, metadata !20, metadata !11, metadata !81, metadata !6}
!81 = metadata !{metadata !"kernel_arg_name", metadata !"i_op"}
!82 = metadata !{null, metadata !8, metadata !9, metadata !83, metadata !11, metadata !21, metadata !6}
!83 = metadata !{metadata !"kernel_arg_type", metadata !"const ap_fixed_base<32, 32, true, (enum ap_q_mode)5, (enum ap_o_mode)3, 0> &"}
!84 = metadata !{null, metadata !8, metadata !9, metadata !85, metadata !11, metadata !77, metadata !6}
!85 = metadata !{metadata !"kernel_arg_type", metadata !"double"}
!86 = metadata !{null, metadata !8, metadata !9, metadata !85, metadata !11, metadata !87, metadata !6}
!87 = metadata !{metadata !"kernel_arg_name", metadata !"d"}
!88 = metadata !{null, metadata !39, metadata !40, metadata !89, metadata !42, metadata !90, metadata !6}
!89 = metadata !{metadata !"kernel_arg_type", metadata !"const ap_int_base<1, false> &", metadata !"const ap_int_base<54, true> &"}
!90 = metadata !{metadata !"kernel_arg_name", metadata !"op", metadata !"op2"}
!91 = metadata !{null, metadata !8, metadata !9, metadata !92, metadata !11, metadata !21, metadata !6}
!92 = metadata !{metadata !"kernel_arg_type", metadata !"const ap_int_base<54, true> &"}
!93 = metadata !{null, metadata !8, metadata !9, metadata !94, metadata !11, metadata !21, metadata !6}
!94 = metadata !{metadata !"kernel_arg_type", metadata !"const ap_int_base<1, false> &"}
!95 = metadata !{null, metadata !8, metadata !9, metadata !96, metadata !11, metadata !50, metadata !6}
!96 = metadata !{metadata !"kernel_arg_type", metadata !"const ap_int_base<55, true> &"}
!97 = metadata !{null, metadata !39, metadata !40, metadata !98, metadata !42, metadata !99, metadata !6}
!98 = metadata !{metadata !"kernel_arg_type", metadata !"const ap_int_base<11, false> &", metadata !"int"}
!99 = metadata !{metadata !"kernel_arg_name", metadata !"op", metadata !"i_op"}
!100 = metadata !{null, metadata !39, metadata !40, metadata !101, metadata !42, metadata !90, metadata !6}
!101 = metadata !{metadata !"kernel_arg_type", metadata !"const ap_int_base<11, false> &", metadata !"const ap_int_base<32, true> &"}
!102 = metadata !{null, metadata !8, metadata !9, metadata !103, metadata !11, metadata !21, metadata !6}
!103 = metadata !{metadata !"kernel_arg_type", metadata !"const ap_int_base<32, true> &"}
!104 = metadata !{null, metadata !8, metadata !9, metadata !105, metadata !11, metadata !21, metadata !6}
!105 = metadata !{metadata !"kernel_arg_type", metadata !"const ap_int_base<11, false> &"}
!106 = metadata !{null, metadata !8, metadata !9, metadata !107, metadata !11, metadata !50, metadata !6}
!107 = metadata !{metadata !"kernel_arg_type", metadata !"const ap_int_base<33, true> &"}
!108 = metadata !{null, metadata !8, metadata !9, metadata !85, metadata !11, metadata !109, metadata !6}
!109 = metadata !{metadata !"kernel_arg_name", metadata !"pf"}
!110 = metadata !{null, metadata !8, metadata !9, metadata !20, metadata !11, metadata !15, metadata !6}
!111 = metadata !{null, metadata !8, metadata !9, metadata !112, metadata !11, metadata !50, metadata !6}
!112 = metadata !{metadata !"kernel_arg_type", metadata !"const ap_int<16> &"}
!113 = metadata !{metadata !114, [0 x i32]* @llvm.global_ctors.0}
!114 = metadata !{metadata !115}
!115 = metadata !{i32 0, i32 31, metadata !116}
!116 = metadata !{metadata !117}
!117 = metadata !{metadata !"llvm.global_ctors.0", metadata !118, metadata !"", i32 0, i32 31}
!118 = metadata !{metadata !119}
!119 = metadata !{i32 0, i32 0, i32 1}
!120 = metadata !{i32 786449, i32 0, i32 4, metadata !"/home/ece492fa18/RFNoCFrameSynchHWAccel/matchedRee/solution1/.autopilot/db/matched.pragma.2.cpp", metadata !"/home/ece492fa18/RFNoCFrameSynchHWAccel", metadata !"clang version 3.1 ", i1 true, i1 false, metadata !"", i32 0, null, null, null, metadata !121} ; [ DW_TAG_compile_unit ]
!121 = metadata !{metadata !122}
!122 = metadata !{metadata !123, metadata !3764, metadata !3775, metadata !3781, metadata !3782, metadata !3783, metadata !3784, metadata !3785, metadata !3805, metadata !3806, metadata !3813, metadata !4676, metadata !4677, metadata !4678, metadata !4679, metadata !4680, metadata !4681, metadata !4682, metadata !4683, metadata !4684, metadata !4685, metadata !4686, metadata !4687, metadata !4688, metadata !4689, metadata !4690, metadata !4691, metadata !4692, metadata !4693, metadata !4695, metadata !4696, metadata !4697, metadata !4698, metadata !4710, metadata !4711, metadata !4712, metadata !4713, metadata !4714, metadata !4715, metadata !4724, metadata !4725, metadata !4726, metadata !4728, metadata !4729, metadata !4730, metadata !4731, metadata !4732, metadata !4733, metadata !4734, metadata !4735, metadata !4737, metadata !4748, metadata !4749, metadata !4750, metadata !4751, metadata !4752, metadata !4753, metadata !4754, metadata !4755, metadata !4756, metadata !4758, metadata !4760, metadata !4761, metadata !4762, metadata !4763, metadata !4764, metadata !4765, metadata !4766, metadata !4767, metadata !4844, metadata !4845, metadata !5083, metadata !5158, metadata !5159, metadata !5160, metadata !5251, metadata !5252, metadata !5253, metadata !5254, metadata !5259, metadata !5261, metadata !5263, metadata !5264, metadata !5265, metadata !5266, metadata !5268, metadata !5269, metadata !5270, metadata !5272, metadata !5273, metadata !5274, metadata !5275, metadata !5280, metadata !5283, metadata !5284, metadata !5285, metadata !5286, metadata !5287, metadata !5289, metadata !5295, metadata !5296, metadata !5297, metadata !5298, metadata !5299, metadata !5300, metadata !5301, metadata !5302, metadata !5303, metadata !5304, metadata !5305, metadata !5391, metadata !5392, metadata !5523, metadata !5530, metadata !5531, metadata !5532, metadata !5533, metadata !5534, metadata !6215, metadata !6217, metadata !6218, metadata !6219, metadata !6892, metadata !6894, metadata !6895, metadata !6896, metadata !6897, metadata !6898, metadata !6899, metadata !6900, metadata !6904, metadata !7442, metadata !7443, metadata !7444, metadata !7445, metadata !7446, metadata !7447, metadata !7448, metadata !7449, metadata !7992, metadata !7993, metadata !8233, metadata !8768, metadata !8769}
!123 = metadata !{i32 786484, i32 0, metadata !124, metadata !"currentState", metadata !"currentState", metadata !"", metadata !125, i32 74, metadata !3760, i32 1, i32 1, i1* @currentState} ; [ DW_TAG_variable ]
!124 = metadata !{i32 786478, i32 0, metadata !125, metadata !"MatcherRee", metadata !"MatcherRee", metadata !"_Z10MatcherReeN3hls6streamI10rfnoc_axisEES2_7ap_uintILi1EE", metadata !125, i32 29, metadata !126, i1 false, i1 true, i32 0, i32 0, null, i32 256, i1 false, null, null, null, metadata !154, i32 30} ; [ DW_TAG_subprogram ]
!125 = metadata !{i32 786473, metadata !"matchedRee/matched.cpp", metadata !"/home/ece492fa18/RFNoCFrameSynchHWAccel", null} ; [ DW_TAG_file_type ]
!126 = metadata !{i32 786453, i32 0, metadata !"", i32 0, i32 0, i64 0, i64 0, i64 0, i32 0, null, metadata !127, i32 0, i32 0} ; [ DW_TAG_subroutine_type ]
!127 = metadata !{null, metadata !128, metadata !128, metadata !3372}
!128 = metadata !{i32 786434, metadata !129, metadata !"stream<rfnoc_axis>", metadata !130, i32 79, i64 64, i64 32, i32 0, i32 0, null, metadata !131, i32 0, null, metadata !3758} ; [ DW_TAG_class_type ]
!129 = metadata !{i32 786489, null, metadata !"hls", metadata !130, i32 69} ; [ DW_TAG_namespace ]
!130 = metadata !{i32 786473, metadata !"/home/ece492fa18/Vivado/2017.4/common/technology/autopilot/hls_stream.h", metadata !"/home/ece492fa18/RFNoCFrameSynchHWAccel", null} ; [ DW_TAG_file_type ]
!131 = metadata !{metadata !132, metadata !3714, metadata !3718, metadata !3721, metadata !3726, metadata !3730, metadata !3734, metadata !3739, metadata !3743, metadata !3744, metadata !3745, metadata !3748, metadata !3751, metadata !3752, metadata !3755}
!132 = metadata !{i32 786445, metadata !128, metadata !"V", metadata !130, i32 163, i64 64, i64 32, i64 0, i32 0, metadata !133} ; [ DW_TAG_member ]
!133 = metadata !{i32 786434, null, metadata !"rfnoc_axis", metadata !134, i32 28, i64 64, i64 32, i32 0, i32 0, null, metadata !135, i32 0, null, null} ; [ DW_TAG_class_type ]
!134 = metadata !{i32 786473, metadata !"matchedRee/rfnoc.h", metadata !"/home/ece492fa18/RFNoCFrameSynchHWAccel", null} ; [ DW_TAG_file_type ]
!135 = metadata !{metadata !136, metadata !3371, metadata !3710}
!136 = metadata !{i32 786445, metadata !133, metadata !"data", metadata !134, i32 29, i64 32, i64 32, i64 0, i32 0, metadata !137} ; [ DW_TAG_member ]
!137 = metadata !{i32 786434, null, metadata !"ap_int<32>", metadata !138, i32 74, i64 32, i64 32, i32 0, i32 0, null, metadata !139, i32 0, null, metadata !3370} ; [ DW_TAG_class_type ]
!138 = metadata !{i32 786473, metadata !"/home/ece492fa18/Vivado/2017.4/common/technology/autopilot/ap_int.h", metadata !"/home/ece492fa18/RFNoCFrameSynchHWAccel", null} ; [ DW_TAG_file_type ]
!139 = metadata !{metadata !140, metadata !3289, metadata !3293, metadata !3299, metadata !3305, metadata !3308, metadata !3311, metadata !3314, metadata !3317, metadata !3320, metadata !3323, metadata !3326, metadata !3329, metadata !3332, metadata !3335, metadata !3338, metadata !3341, metadata !3344, metadata !3347, metadata !3350, metadata !3353, metadata !3356, metadata !3360, metadata !3363, metadata !3367}
!140 = metadata !{i32 786460, metadata !137, null, metadata !138, i32 0, i64 0, i64 0, i64 0, i32 0, metadata !141} ; [ DW_TAG_inheritance ]
!141 = metadata !{i32 786434, null, metadata !"ap_int_base<32, true, true>", metadata !142, i32 1453, i64 32, i64 32, i32 0, i32 0, null, metadata !143, i32 0, null, metadata !3288} ; [ DW_TAG_class_type ]
!142 = metadata !{i32 786473, metadata !"/home/ece492fa18/Vivado/2017.4/common/technology/autopilot/ap_int_syn.h", metadata !"/home/ece492fa18/RFNoCFrameSynchHWAccel", null} ; [ DW_TAG_file_type ]
!143 = metadata !{metadata !144, metadata !161, metadata !165, metadata !173, metadata !179, metadata !182, metadata !186, metadata !190, metadata !194, metadata !198, metadata !201, metadata !205, metadata !209, metadata !213, metadata !218, metadata !223, metadata !228, metadata !232, metadata !236, metadata !242, metadata !245, metadata !249, metadata !252, metadata !255, metadata !256, metadata !260, metadata !263, metadata !266, metadata !269, metadata !272, metadata !275, metadata !278, metadata !281, metadata !284, metadata !287, metadata !290, metadata !293, metadata !303, metadata !306, metadata !309, metadata !312, metadata !315, metadata !318, metadata !321, metadata !324, metadata !327, metadata !330, metadata !333, metadata !336, metadata !339, metadata !340, metadata !344, metadata !347, metadata !348, metadata !349, metadata !350, metadata !351, metadata !352, metadata !355, metadata !356, metadata !359, metadata !360, metadata !361, metadata !362, metadata !363, metadata !364, metadata !367, metadata !368, metadata !369, metadata !372, metadata !373, metadata !376, metadata !377, metadata !676, metadata !3253, metadata !3254, metadata !3257, metadata !3258, metadata !3262, metadata !3263, metadata !3264, metadata !3265, metadata !3268, metadata !3269, metadata !3270, metadata !3271, metadata !3272, metadata !3273, metadata !3274, metadata !3275, metadata !3276, metadata !3277, metadata !3278, metadata !3279, metadata !3282, metadata !3285}
!144 = metadata !{i32 786460, metadata !141, null, metadata !142, i32 0, i64 0, i64 0, i64 0, i32 0, metadata !145} ; [ DW_TAG_inheritance ]
!145 = metadata !{i32 786434, null, metadata !"ssdm_int<32 + 1024 * 0, true>", metadata !146, i32 34, i64 32, i64 32, i32 0, i32 0, null, metadata !147, i32 0, null, metadata !156} ; [ DW_TAG_class_type ]
!146 = metadata !{i32 786473, metadata !"/home/ece492fa18/Vivado/2017.4/common/technology/autopilot/etc/autopilot_dt.def", metadata !"/home/ece492fa18/RFNoCFrameSynchHWAccel", null} ; [ DW_TAG_file_type ]
!147 = metadata !{metadata !148, metadata !150}
!148 = metadata !{i32 786445, metadata !145, metadata !"V", metadata !146, i32 34, i64 32, i64 32, i64 0, i32 0, metadata !149} ; [ DW_TAG_member ]
!149 = metadata !{i32 786468, null, metadata !"int32", null, i32 0, i64 32, i64 32, i64 0, i32 0, i32 5} ; [ DW_TAG_base_type ]
!150 = metadata !{i32 786478, i32 0, metadata !145, metadata !"ssdm_int", metadata !"ssdm_int", metadata !"", metadata !146, i32 34, metadata !151, i1 false, i1 false, i32 0, i32 0, null, i32 256, i1 false, null, null, i32 0, metadata !154, i32 34} ; [ DW_TAG_subprogram ]
!151 = metadata !{i32 786453, i32 0, metadata !"", i32 0, i32 0, i64 0, i64 0, i64 0, i32 0, null, metadata !152, i32 0, i32 0} ; [ DW_TAG_subroutine_type ]
!152 = metadata !{null, metadata !153}
!153 = metadata !{i32 786447, i32 0, metadata !"", i32 0, i32 0, i64 64, i64 64, i64 0, i32 64, metadata !145} ; [ DW_TAG_pointer_type ]
!154 = metadata !{metadata !155}
!155 = metadata !{i32 786468}                     ; [ DW_TAG_base_type ]
!156 = metadata !{metadata !157, metadata !159}
!157 = metadata !{i32 786480, null, metadata !"_AP_N", metadata !158, i64 32, null, i32 0, i32 0} ; [ DW_TAG_template_value_parameter ]
!158 = metadata !{i32 786468, null, metadata !"int", null, i32 0, i64 32, i64 32, i64 0, i32 0, i32 5} ; [ DW_TAG_base_type ]
!159 = metadata !{i32 786480, null, metadata !"_AP_S", metadata !160, i64 1, null, i32 0, i32 0} ; [ DW_TAG_template_value_parameter ]
!160 = metadata !{i32 786468, null, metadata !"bool", null, i32 0, i64 8, i64 8, i64 0, i32 0, i32 2} ; [ DW_TAG_base_type ]
!161 = metadata !{i32 786478, i32 0, metadata !141, metadata !"ap_int_base", metadata !"ap_int_base", metadata !"", metadata !142, i32 1494, metadata !162, i1 false, i1 false, i32 0, i32 0, null, i32 256, i1 false, null, null, i32 0, metadata !154, i32 1494} ; [ DW_TAG_subprogram ]
!162 = metadata !{i32 786453, i32 0, metadata !"", i32 0, i32 0, i64 0, i64 0, i64 0, i32 0, null, metadata !163, i32 0, i32 0} ; [ DW_TAG_subroutine_type ]
!163 = metadata !{null, metadata !164}
!164 = metadata !{i32 786447, i32 0, metadata !"", i32 0, i32 0, i64 64, i64 64, i64 0, i32 64, metadata !141} ; [ DW_TAG_pointer_type ]
!165 = metadata !{i32 786478, i32 0, metadata !141, metadata !"ap_int_base<32, true>", metadata !"ap_int_base<32, true>", metadata !"", metadata !142, i32 1506, metadata !166, i1 false, i1 false, i32 0, i32 0, null, i32 256, i1 false, null, metadata !170, i32 0, metadata !154, i32 1506} ; [ DW_TAG_subprogram ]
!166 = metadata !{i32 786453, i32 0, metadata !"", i32 0, i32 0, i64 0, i64 0, i64 0, i32 0, null, metadata !167, i32 0, i32 0} ; [ DW_TAG_subroutine_type ]
!167 = metadata !{null, metadata !164, metadata !168}
!168 = metadata !{i32 786448, null, null, null, i32 0, i64 0, i64 0, i64 0, i32 0, metadata !169} ; [ DW_TAG_reference_type ]
!169 = metadata !{i32 786470, null, metadata !"", null, i32 0, i64 0, i64 0, i64 0, i32 0, metadata !141} ; [ DW_TAG_const_type ]
!170 = metadata !{metadata !171, metadata !172}
!171 = metadata !{i32 786480, null, metadata !"_AP_W2", metadata !158, i64 32, null, i32 0, i32 0} ; [ DW_TAG_template_value_parameter ]
!172 = metadata !{i32 786480, null, metadata !"_AP_S2", metadata !160, i64 1, null, i32 0, i32 0} ; [ DW_TAG_template_value_parameter ]
!173 = metadata !{i32 786478, i32 0, metadata !141, metadata !"ap_int_base<32, true>", metadata !"ap_int_base<32, true>", metadata !"", metadata !142, i32 1509, metadata !174, i1 false, i1 false, i32 0, i32 0, null, i32 256, i1 false, null, metadata !170, i32 0, metadata !154, i32 1509} ; [ DW_TAG_subprogram ]
!174 = metadata !{i32 786453, i32 0, metadata !"", i32 0, i32 0, i64 0, i64 0, i64 0, i32 0, null, metadata !175, i32 0, i32 0} ; [ DW_TAG_subroutine_type ]
!175 = metadata !{null, metadata !164, metadata !176}
!176 = metadata !{i32 786448, null, null, null, i32 0, i64 0, i64 0, i64 0, i32 0, metadata !177} ; [ DW_TAG_reference_type ]
!177 = metadata !{i32 786470, null, metadata !"", null, i32 0, i64 0, i64 0, i64 0, i32 0, metadata !178} ; [ DW_TAG_const_type ]
!178 = metadata !{i32 786485, null, metadata !"", null, i32 0, i64 0, i64 0, i64 0, i32 0, metadata !141} ; [ DW_TAG_volatile_type ]
!179 = metadata !{i32 786478, i32 0, metadata !141, metadata !"ap_int_base", metadata !"ap_int_base", metadata !"", metadata !142, i32 1516, metadata !180, i1 false, i1 false, i32 0, i32 0, null, i32 384, i1 false, null, null, i32 0, metadata !154, i32 1516} ; [ DW_TAG_subprogram ]
!180 = metadata !{i32 786453, i32 0, metadata !"", i32 0, i32 0, i64 0, i64 0, i64 0, i32 0, null, metadata !181, i32 0, i32 0} ; [ DW_TAG_subroutine_type ]
!181 = metadata !{null, metadata !164, metadata !160}
!182 = metadata !{i32 786478, i32 0, metadata !141, metadata !"ap_int_base", metadata !"ap_int_base", metadata !"", metadata !142, i32 1517, metadata !183, i1 false, i1 false, i32 0, i32 0, null, i32 384, i1 false, null, null, i32 0, metadata !154, i32 1517} ; [ DW_TAG_subprogram ]
!183 = metadata !{i32 786453, i32 0, metadata !"", i32 0, i32 0, i64 0, i64 0, i64 0, i32 0, null, metadata !184, i32 0, i32 0} ; [ DW_TAG_subroutine_type ]
!184 = metadata !{null, metadata !164, metadata !185}
!185 = metadata !{i32 786468, null, metadata !"signed char", null, i32 0, i64 8, i64 8, i64 0, i32 0, i32 6} ; [ DW_TAG_base_type ]
!186 = metadata !{i32 786478, i32 0, metadata !141, metadata !"ap_int_base", metadata !"ap_int_base", metadata !"", metadata !142, i32 1518, metadata !187, i1 false, i1 false, i32 0, i32 0, null, i32 384, i1 false, null, null, i32 0, metadata !154, i32 1518} ; [ DW_TAG_subprogram ]
!187 = metadata !{i32 786453, i32 0, metadata !"", i32 0, i32 0, i64 0, i64 0, i64 0, i32 0, null, metadata !188, i32 0, i32 0} ; [ DW_TAG_subroutine_type ]
!188 = metadata !{null, metadata !164, metadata !189}
!189 = metadata !{i32 786468, null, metadata !"unsigned char", null, i32 0, i64 8, i64 8, i64 0, i32 0, i32 8} ; [ DW_TAG_base_type ]
!190 = metadata !{i32 786478, i32 0, metadata !141, metadata !"ap_int_base", metadata !"ap_int_base", metadata !"", metadata !142, i32 1519, metadata !191, i1 false, i1 false, i32 0, i32 0, null, i32 384, i1 false, null, null, i32 0, metadata !154, i32 1519} ; [ DW_TAG_subprogram ]
!191 = metadata !{i32 786453, i32 0, metadata !"", i32 0, i32 0, i64 0, i64 0, i64 0, i32 0, null, metadata !192, i32 0, i32 0} ; [ DW_TAG_subroutine_type ]
!192 = metadata !{null, metadata !164, metadata !193}
!193 = metadata !{i32 786468, null, metadata !"short", null, i32 0, i64 16, i64 16, i64 0, i32 0, i32 5} ; [ DW_TAG_base_type ]
!194 = metadata !{i32 786478, i32 0, metadata !141, metadata !"ap_int_base", metadata !"ap_int_base", metadata !"", metadata !142, i32 1520, metadata !195, i1 false, i1 false, i32 0, i32 0, null, i32 384, i1 false, null, null, i32 0, metadata !154, i32 1520} ; [ DW_TAG_subprogram ]
!195 = metadata !{i32 786453, i32 0, metadata !"", i32 0, i32 0, i64 0, i64 0, i64 0, i32 0, null, metadata !196, i32 0, i32 0} ; [ DW_TAG_subroutine_type ]
!196 = metadata !{null, metadata !164, metadata !197}
!197 = metadata !{i32 786468, null, metadata !"unsigned short", null, i32 0, i64 16, i64 16, i64 0, i32 0, i32 7} ; [ DW_TAG_base_type ]
!198 = metadata !{i32 786478, i32 0, metadata !141, metadata !"ap_int_base", metadata !"ap_int_base", metadata !"", metadata !142, i32 1521, metadata !199, i1 false, i1 false, i32 0, i32 0, null, i32 384, i1 false, null, null, i32 0, metadata !154, i32 1521} ; [ DW_TAG_subprogram ]
!199 = metadata !{i32 786453, i32 0, metadata !"", i32 0, i32 0, i64 0, i64 0, i64 0, i32 0, null, metadata !200, i32 0, i32 0} ; [ DW_TAG_subroutine_type ]
!200 = metadata !{null, metadata !164, metadata !158}
!201 = metadata !{i32 786478, i32 0, metadata !141, metadata !"ap_int_base", metadata !"ap_int_base", metadata !"", metadata !142, i32 1522, metadata !202, i1 false, i1 false, i32 0, i32 0, null, i32 384, i1 false, null, null, i32 0, metadata !154, i32 1522} ; [ DW_TAG_subprogram ]
!202 = metadata !{i32 786453, i32 0, metadata !"", i32 0, i32 0, i64 0, i64 0, i64 0, i32 0, null, metadata !203, i32 0, i32 0} ; [ DW_TAG_subroutine_type ]
!203 = metadata !{null, metadata !164, metadata !204}
!204 = metadata !{i32 786468, null, metadata !"unsigned int", null, i32 0, i64 32, i64 32, i64 0, i32 0, i32 7} ; [ DW_TAG_base_type ]
!205 = metadata !{i32 786478, i32 0, metadata !141, metadata !"ap_int_base", metadata !"ap_int_base", metadata !"", metadata !142, i32 1523, metadata !206, i1 false, i1 false, i32 0, i32 0, null, i32 384, i1 false, null, null, i32 0, metadata !154, i32 1523} ; [ DW_TAG_subprogram ]
!206 = metadata !{i32 786453, i32 0, metadata !"", i32 0, i32 0, i64 0, i64 0, i64 0, i32 0, null, metadata !207, i32 0, i32 0} ; [ DW_TAG_subroutine_type ]
!207 = metadata !{null, metadata !164, metadata !208}
!208 = metadata !{i32 786468, null, metadata !"long int", null, i32 0, i64 64, i64 64, i64 0, i32 0, i32 5} ; [ DW_TAG_base_type ]
!209 = metadata !{i32 786478, i32 0, metadata !141, metadata !"ap_int_base", metadata !"ap_int_base", metadata !"", metadata !142, i32 1524, metadata !210, i1 false, i1 false, i32 0, i32 0, null, i32 384, i1 false, null, null, i32 0, metadata !154, i32 1524} ; [ DW_TAG_subprogram ]
!210 = metadata !{i32 786453, i32 0, metadata !"", i32 0, i32 0, i64 0, i64 0, i64 0, i32 0, null, metadata !211, i32 0, i32 0} ; [ DW_TAG_subroutine_type ]
!211 = metadata !{null, metadata !164, metadata !212}
!212 = metadata !{i32 786468, null, metadata !"long unsigned int", null, i32 0, i64 64, i64 64, i64 0, i32 0, i32 7} ; [ DW_TAG_base_type ]
!213 = metadata !{i32 786478, i32 0, metadata !141, metadata !"ap_int_base", metadata !"ap_int_base", metadata !"", metadata !142, i32 1525, metadata !214, i1 false, i1 false, i32 0, i32 0, null, i32 384, i1 false, null, null, i32 0, metadata !154, i32 1525} ; [ DW_TAG_subprogram ]
!214 = metadata !{i32 786453, i32 0, metadata !"", i32 0, i32 0, i64 0, i64 0, i64 0, i32 0, null, metadata !215, i32 0, i32 0} ; [ DW_TAG_subroutine_type ]
!215 = metadata !{null, metadata !164, metadata !216}
!216 = metadata !{i32 786454, null, metadata !"ap_slong", metadata !142, i32 112, i64 0, i64 0, i64 0, i32 0, metadata !217} ; [ DW_TAG_typedef ]
!217 = metadata !{i32 786468, null, metadata !"long long int", null, i32 0, i64 64, i64 64, i64 0, i32 0, i32 5} ; [ DW_TAG_base_type ]
!218 = metadata !{i32 786478, i32 0, metadata !141, metadata !"ap_int_base", metadata !"ap_int_base", metadata !"", metadata !142, i32 1526, metadata !219, i1 false, i1 false, i32 0, i32 0, null, i32 384, i1 false, null, null, i32 0, metadata !154, i32 1526} ; [ DW_TAG_subprogram ]
!219 = metadata !{i32 786453, i32 0, metadata !"", i32 0, i32 0, i64 0, i64 0, i64 0, i32 0, null, metadata !220, i32 0, i32 0} ; [ DW_TAG_subroutine_type ]
!220 = metadata !{null, metadata !164, metadata !221}
!221 = metadata !{i32 786454, null, metadata !"ap_ulong", metadata !142, i32 111, i64 0, i64 0, i64 0, i32 0, metadata !222} ; [ DW_TAG_typedef ]
!222 = metadata !{i32 786468, null, metadata !"long long unsigned int", null, i32 0, i64 64, i64 64, i64 0, i32 0, i32 7} ; [ DW_TAG_base_type ]
!223 = metadata !{i32 786478, i32 0, metadata !141, metadata !"ap_int_base", metadata !"ap_int_base", metadata !"", metadata !142, i32 1527, metadata !224, i1 false, i1 false, i32 0, i32 0, null, i32 384, i1 false, null, null, i32 0, metadata !154, i32 1527} ; [ DW_TAG_subprogram ]
!224 = metadata !{i32 786453, i32 0, metadata !"", i32 0, i32 0, i64 0, i64 0, i64 0, i32 0, null, metadata !225, i32 0, i32 0} ; [ DW_TAG_subroutine_type ]
!225 = metadata !{null, metadata !164, metadata !226}
!226 = metadata !{i32 786454, null, metadata !"half", metadata !142, i32 54, i64 0, i64 0, i64 0, i32 0, metadata !227} ; [ DW_TAG_typedef ]
!227 = metadata !{i32 786468, null, metadata !"half", null, i32 0, i64 16, i64 16, i64 0, i32 0, i32 4} ; [ DW_TAG_base_type ]
!228 = metadata !{i32 786478, i32 0, metadata !141, metadata !"ap_int_base", metadata !"ap_int_base", metadata !"", metadata !142, i32 1528, metadata !229, i1 false, i1 false, i32 0, i32 0, null, i32 384, i1 false, null, null, i32 0, metadata !154, i32 1528} ; [ DW_TAG_subprogram ]
!229 = metadata !{i32 786453, i32 0, metadata !"", i32 0, i32 0, i64 0, i64 0, i64 0, i32 0, null, metadata !230, i32 0, i32 0} ; [ DW_TAG_subroutine_type ]
!230 = metadata !{null, metadata !164, metadata !231}
!231 = metadata !{i32 786468, null, metadata !"float", null, i32 0, i64 32, i64 32, i64 0, i32 0, i32 4} ; [ DW_TAG_base_type ]
!232 = metadata !{i32 786478, i32 0, metadata !141, metadata !"ap_int_base", metadata !"ap_int_base", metadata !"", metadata !142, i32 1529, metadata !233, i1 false, i1 false, i32 0, i32 0, null, i32 384, i1 false, null, null, i32 0, metadata !154, i32 1529} ; [ DW_TAG_subprogram ]
!233 = metadata !{i32 786453, i32 0, metadata !"", i32 0, i32 0, i64 0, i64 0, i64 0, i32 0, null, metadata !234, i32 0, i32 0} ; [ DW_TAG_subroutine_type ]
!234 = metadata !{null, metadata !164, metadata !235}
!235 = metadata !{i32 786468, null, metadata !"double", null, i32 0, i64 64, i64 64, i64 0, i32 0, i32 4} ; [ DW_TAG_base_type ]
!236 = metadata !{i32 786478, i32 0, metadata !141, metadata !"ap_int_base", metadata !"ap_int_base", metadata !"", metadata !142, i32 1556, metadata !237, i1 false, i1 false, i32 0, i32 0, null, i32 256, i1 false, null, null, i32 0, metadata !154, i32 1556} ; [ DW_TAG_subprogram ]
!237 = metadata !{i32 786453, i32 0, metadata !"", i32 0, i32 0, i64 0, i64 0, i64 0, i32 0, null, metadata !238, i32 0, i32 0} ; [ DW_TAG_subroutine_type ]
!238 = metadata !{null, metadata !164, metadata !239}
!239 = metadata !{i32 786447, null, metadata !"", null, i32 0, i64 64, i64 64, i64 0, i32 0, metadata !240} ; [ DW_TAG_pointer_type ]
!240 = metadata !{i32 786470, null, metadata !"", null, i32 0, i64 0, i64 0, i64 0, i32 0, metadata !241} ; [ DW_TAG_const_type ]
!241 = metadata !{i32 786468, null, metadata !"char", null, i32 0, i64 8, i64 8, i64 0, i32 0, i32 6} ; [ DW_TAG_base_type ]
!242 = metadata !{i32 786478, i32 0, metadata !141, metadata !"ap_int_base", metadata !"ap_int_base", metadata !"", metadata !142, i32 1563, metadata !243, i1 false, i1 false, i32 0, i32 0, null, i32 256, i1 false, null, null, i32 0, metadata !154, i32 1563} ; [ DW_TAG_subprogram ]
!243 = metadata !{i32 786453, i32 0, metadata !"", i32 0, i32 0, i64 0, i64 0, i64 0, i32 0, null, metadata !244, i32 0, i32 0} ; [ DW_TAG_subroutine_type ]
!244 = metadata !{null, metadata !164, metadata !239, metadata !185}
!245 = metadata !{i32 786478, i32 0, metadata !141, metadata !"read", metadata !"read", metadata !"_ZNV11ap_int_baseILi32ELb1ELb1EE4readEv", metadata !142, i32 1584, metadata !246, i1 false, i1 false, i32 0, i32 0, null, i32 256, i1 false, null, null, i32 0, metadata !154, i32 1584} ; [ DW_TAG_subprogram ]
!246 = metadata !{i32 786453, i32 0, metadata !"", i32 0, i32 0, i64 0, i64 0, i64 0, i32 0, null, metadata !247, i32 0, i32 0} ; [ DW_TAG_subroutine_type ]
!247 = metadata !{metadata !141, metadata !248}
!248 = metadata !{i32 786447, i32 0, metadata !"", i32 0, i32 0, i64 64, i64 64, i64 0, i32 64, metadata !178} ; [ DW_TAG_pointer_type ]
!249 = metadata !{i32 786478, i32 0, metadata !141, metadata !"write", metadata !"write", metadata !"_ZNV11ap_int_baseILi32ELb1ELb1EE5writeERKS0_", metadata !142, i32 1590, metadata !250, i1 false, i1 false, i32 0, i32 0, null, i32 256, i1 false, null, null, i32 0, metadata !154, i32 1590} ; [ DW_TAG_subprogram ]
!250 = metadata !{i32 786453, i32 0, metadata !"", i32 0, i32 0, i64 0, i64 0, i64 0, i32 0, null, metadata !251, i32 0, i32 0} ; [ DW_TAG_subroutine_type ]
!251 = metadata !{null, metadata !248, metadata !168}
!252 = metadata !{i32 786478, i32 0, metadata !141, metadata !"operator=", metadata !"operator=", metadata !"_ZNV11ap_int_baseILi32ELb1ELb1EEaSERVKS0_", metadata !142, i32 1602, metadata !253, i1 false, i1 false, i32 0, i32 0, null, i32 256, i1 false, null, null, i32 0, metadata !154, i32 1602} ; [ DW_TAG_subprogram ]
!253 = metadata !{i32 786453, i32 0, metadata !"", i32 0, i32 0, i64 0, i64 0, i64 0, i32 0, null, metadata !254, i32 0, i32 0} ; [ DW_TAG_subroutine_type ]
!254 = metadata !{null, metadata !248, metadata !176}
!255 = metadata !{i32 786478, i32 0, metadata !141, metadata !"operator=", metadata !"operator=", metadata !"_ZNV11ap_int_baseILi32ELb1ELb1EEaSERKS0_", metadata !142, i32 1611, metadata !250, i1 false, i1 false, i32 0, i32 0, null, i32 256, i1 false, null, null, i32 0, metadata !154, i32 1611} ; [ DW_TAG_subprogram ]
!256 = metadata !{i32 786478, i32 0, metadata !141, metadata !"operator=", metadata !"operator=", metadata !"_ZN11ap_int_baseILi32ELb1ELb1EEaSERVKS0_", metadata !142, i32 1634, metadata !257, i1 false, i1 false, i32 0, i32 0, null, i32 256, i1 false, null, null, i32 0, metadata !154, i32 1634} ; [ DW_TAG_subprogram ]
!257 = metadata !{i32 786453, i32 0, metadata !"", i32 0, i32 0, i64 0, i64 0, i64 0, i32 0, null, metadata !258, i32 0, i32 0} ; [ DW_TAG_subroutine_type ]
!258 = metadata !{metadata !259, metadata !164, metadata !176}
!259 = metadata !{i32 786448, null, null, null, i32 0, i64 0, i64 0, i64 0, i32 0, metadata !141} ; [ DW_TAG_reference_type ]
!260 = metadata !{i32 786478, i32 0, metadata !141, metadata !"operator=", metadata !"operator=", metadata !"_ZN11ap_int_baseILi32ELb1ELb1EEaSERKS0_", metadata !142, i32 1639, metadata !261, i1 false, i1 false, i32 0, i32 0, null, i32 256, i1 false, null, null, i32 0, metadata !154, i32 1639} ; [ DW_TAG_subprogram ]
!261 = metadata !{i32 786453, i32 0, metadata !"", i32 0, i32 0, i64 0, i64 0, i64 0, i32 0, null, metadata !262, i32 0, i32 0} ; [ DW_TAG_subroutine_type ]
!262 = metadata !{metadata !259, metadata !164, metadata !168}
!263 = metadata !{i32 786478, i32 0, metadata !141, metadata !"operator=", metadata !"operator=", metadata !"_ZN11ap_int_baseILi32ELb1ELb1EEaSEPKc", metadata !142, i32 1643, metadata !264, i1 false, i1 false, i32 0, i32 0, null, i32 256, i1 false, null, null, i32 0, metadata !154, i32 1643} ; [ DW_TAG_subprogram ]
!264 = metadata !{i32 786453, i32 0, metadata !"", i32 0, i32 0, i64 0, i64 0, i64 0, i32 0, null, metadata !265, i32 0, i32 0} ; [ DW_TAG_subroutine_type ]
!265 = metadata !{metadata !259, metadata !164, metadata !239}
!266 = metadata !{i32 786478, i32 0, metadata !141, metadata !"set", metadata !"set", metadata !"_ZN11ap_int_baseILi32ELb1ELb1EE3setEPKca", metadata !142, i32 1651, metadata !267, i1 false, i1 false, i32 0, i32 0, null, i32 256, i1 false, null, null, i32 0, metadata !154, i32 1651} ; [ DW_TAG_subprogram ]
!267 = metadata !{i32 786453, i32 0, metadata !"", i32 0, i32 0, i64 0, i64 0, i64 0, i32 0, null, metadata !268, i32 0, i32 0} ; [ DW_TAG_subroutine_type ]
!268 = metadata !{metadata !259, metadata !164, metadata !239, metadata !185}
!269 = metadata !{i32 786478, i32 0, metadata !141, metadata !"operator=", metadata !"operator=", metadata !"_ZN11ap_int_baseILi32ELb1ELb1EEaSEa", metadata !142, i32 1665, metadata !270, i1 false, i1 false, i32 0, i32 0, null, i32 256, i1 false, null, null, i32 0, metadata !154, i32 1665} ; [ DW_TAG_subprogram ]
!270 = metadata !{i32 786453, i32 0, metadata !"", i32 0, i32 0, i64 0, i64 0, i64 0, i32 0, null, metadata !271, i32 0, i32 0} ; [ DW_TAG_subroutine_type ]
!271 = metadata !{metadata !259, metadata !164, metadata !185}
!272 = metadata !{i32 786478, i32 0, metadata !141, metadata !"operator=", metadata !"operator=", metadata !"_ZN11ap_int_baseILi32ELb1ELb1EEaSEh", metadata !142, i32 1666, metadata !273, i1 false, i1 false, i32 0, i32 0, null, i32 256, i1 false, null, null, i32 0, metadata !154, i32 1666} ; [ DW_TAG_subprogram ]
!273 = metadata !{i32 786453, i32 0, metadata !"", i32 0, i32 0, i64 0, i64 0, i64 0, i32 0, null, metadata !274, i32 0, i32 0} ; [ DW_TAG_subroutine_type ]
!274 = metadata !{metadata !259, metadata !164, metadata !189}
!275 = metadata !{i32 786478, i32 0, metadata !141, metadata !"operator=", metadata !"operator=", metadata !"_ZN11ap_int_baseILi32ELb1ELb1EEaSEs", metadata !142, i32 1667, metadata !276, i1 false, i1 false, i32 0, i32 0, null, i32 256, i1 false, null, null, i32 0, metadata !154, i32 1667} ; [ DW_TAG_subprogram ]
!276 = metadata !{i32 786453, i32 0, metadata !"", i32 0, i32 0, i64 0, i64 0, i64 0, i32 0, null, metadata !277, i32 0, i32 0} ; [ DW_TAG_subroutine_type ]
!277 = metadata !{metadata !259, metadata !164, metadata !193}
!278 = metadata !{i32 786478, i32 0, metadata !141, metadata !"operator=", metadata !"operator=", metadata !"_ZN11ap_int_baseILi32ELb1ELb1EEaSEt", metadata !142, i32 1668, metadata !279, i1 false, i1 false, i32 0, i32 0, null, i32 256, i1 false, null, null, i32 0, metadata !154, i32 1668} ; [ DW_TAG_subprogram ]
!279 = metadata !{i32 786453, i32 0, metadata !"", i32 0, i32 0, i64 0, i64 0, i64 0, i32 0, null, metadata !280, i32 0, i32 0} ; [ DW_TAG_subroutine_type ]
!280 = metadata !{metadata !259, metadata !164, metadata !197}
!281 = metadata !{i32 786478, i32 0, metadata !141, metadata !"operator=", metadata !"operator=", metadata !"_ZN11ap_int_baseILi32ELb1ELb1EEaSEi", metadata !142, i32 1669, metadata !282, i1 false, i1 false, i32 0, i32 0, null, i32 256, i1 false, null, null, i32 0, metadata !154, i32 1669} ; [ DW_TAG_subprogram ]
!282 = metadata !{i32 786453, i32 0, metadata !"", i32 0, i32 0, i64 0, i64 0, i64 0, i32 0, null, metadata !283, i32 0, i32 0} ; [ DW_TAG_subroutine_type ]
!283 = metadata !{metadata !259, metadata !164, metadata !158}
!284 = metadata !{i32 786478, i32 0, metadata !141, metadata !"operator=", metadata !"operator=", metadata !"_ZN11ap_int_baseILi32ELb1ELb1EEaSEj", metadata !142, i32 1670, metadata !285, i1 false, i1 false, i32 0, i32 0, null, i32 256, i1 false, null, null, i32 0, metadata !154, i32 1670} ; [ DW_TAG_subprogram ]
!285 = metadata !{i32 786453, i32 0, metadata !"", i32 0, i32 0, i64 0, i64 0, i64 0, i32 0, null, metadata !286, i32 0, i32 0} ; [ DW_TAG_subroutine_type ]
!286 = metadata !{metadata !259, metadata !164, metadata !204}
!287 = metadata !{i32 786478, i32 0, metadata !141, metadata !"operator=", metadata !"operator=", metadata !"_ZN11ap_int_baseILi32ELb1ELb1EEaSEx", metadata !142, i32 1671, metadata !288, i1 false, i1 false, i32 0, i32 0, null, i32 256, i1 false, null, null, i32 0, metadata !154, i32 1671} ; [ DW_TAG_subprogram ]
!288 = metadata !{i32 786453, i32 0, metadata !"", i32 0, i32 0, i64 0, i64 0, i64 0, i32 0, null, metadata !289, i32 0, i32 0} ; [ DW_TAG_subroutine_type ]
!289 = metadata !{metadata !259, metadata !164, metadata !216}
!290 = metadata !{i32 786478, i32 0, metadata !141, metadata !"operator=", metadata !"operator=", metadata !"_ZN11ap_int_baseILi32ELb1ELb1EEaSEy", metadata !142, i32 1672, metadata !291, i1 false, i1 false, i32 0, i32 0, null, i32 256, i1 false, null, null, i32 0, metadata !154, i32 1672} ; [ DW_TAG_subprogram ]
!291 = metadata !{i32 786453, i32 0, metadata !"", i32 0, i32 0, i64 0, i64 0, i64 0, i32 0, null, metadata !292, i32 0, i32 0} ; [ DW_TAG_subroutine_type ]
!292 = metadata !{metadata !259, metadata !164, metadata !221}
!293 = metadata !{i32 786478, i32 0, metadata !141, metadata !"operator int", metadata !"operator int", metadata !"_ZNK11ap_int_baseILi32ELb1ELb1EEcviEv", metadata !142, i32 1710, metadata !294, i1 false, i1 false, i32 0, i32 0, null, i32 256, i1 false, null, null, i32 0, metadata !154, i32 1710} ; [ DW_TAG_subprogram ]
!294 = metadata !{i32 786453, i32 0, metadata !"", i32 0, i32 0, i64 0, i64 0, i64 0, i32 0, null, metadata !295, i32 0, i32 0} ; [ DW_TAG_subroutine_type ]
!295 = metadata !{metadata !296, metadata !302}
!296 = metadata !{i32 786454, metadata !141, metadata !"RetType", metadata !142, i32 1458, i64 0, i64 0, i64 0, i32 0, metadata !297} ; [ DW_TAG_typedef ]
!297 = metadata !{i32 786454, metadata !298, metadata !"Type", metadata !142, i32 1441, i64 0, i64 0, i64 0, i32 0, metadata !158} ; [ DW_TAG_typedef ]
!298 = metadata !{i32 786434, null, metadata !"retval<4, true>", metadata !142, i32 1440, i64 8, i64 8, i32 0, i32 0, null, metadata !299, i32 0, null, metadata !300} ; [ DW_TAG_class_type ]
!299 = metadata !{i32 0}
!300 = metadata !{metadata !301, metadata !159}
!301 = metadata !{i32 786480, null, metadata !"_AP_N", metadata !158, i64 4, null, i32 0, i32 0} ; [ DW_TAG_template_value_parameter ]
!302 = metadata !{i32 786447, i32 0, metadata !"", i32 0, i32 0, i64 64, i64 64, i64 0, i32 64, metadata !169} ; [ DW_TAG_pointer_type ]
!303 = metadata !{i32 786478, i32 0, metadata !141, metadata !"to_bool", metadata !"to_bool", metadata !"_ZNK11ap_int_baseILi32ELb1ELb1EE7to_boolEv", metadata !142, i32 1716, metadata !304, i1 false, i1 false, i32 0, i32 0, null, i32 256, i1 false, null, null, i32 0, metadata !154, i32 1716} ; [ DW_TAG_subprogram ]
!304 = metadata !{i32 786453, i32 0, metadata !"", i32 0, i32 0, i64 0, i64 0, i64 0, i32 0, null, metadata !305, i32 0, i32 0} ; [ DW_TAG_subroutine_type ]
!305 = metadata !{metadata !160, metadata !302}
!306 = metadata !{i32 786478, i32 0, metadata !141, metadata !"to_uchar", metadata !"to_uchar", metadata !"_ZNK11ap_int_baseILi32ELb1ELb1EE8to_ucharEv", metadata !142, i32 1717, metadata !307, i1 false, i1 false, i32 0, i32 0, null, i32 256, i1 false, null, null, i32 0, metadata !154, i32 1717} ; [ DW_TAG_subprogram ]
!307 = metadata !{i32 786453, i32 0, metadata !"", i32 0, i32 0, i64 0, i64 0, i64 0, i32 0, null, metadata !308, i32 0, i32 0} ; [ DW_TAG_subroutine_type ]
!308 = metadata !{metadata !189, metadata !302}
!309 = metadata !{i32 786478, i32 0, metadata !141, metadata !"to_char", metadata !"to_char", metadata !"_ZNK11ap_int_baseILi32ELb1ELb1EE7to_charEv", metadata !142, i32 1718, metadata !310, i1 false, i1 false, i32 0, i32 0, null, i32 256, i1 false, null, null, i32 0, metadata !154, i32 1718} ; [ DW_TAG_subprogram ]
!310 = metadata !{i32 786453, i32 0, metadata !"", i32 0, i32 0, i64 0, i64 0, i64 0, i32 0, null, metadata !311, i32 0, i32 0} ; [ DW_TAG_subroutine_type ]
!311 = metadata !{metadata !185, metadata !302}
!312 = metadata !{i32 786478, i32 0, metadata !141, metadata !"to_ushort", metadata !"to_ushort", metadata !"_ZNK11ap_int_baseILi32ELb1ELb1EE9to_ushortEv", metadata !142, i32 1719, metadata !313, i1 false, i1 false, i32 0, i32 0, null, i32 256, i1 false, null, null, i32 0, metadata !154, i32 1719} ; [ DW_TAG_subprogram ]
!313 = metadata !{i32 786453, i32 0, metadata !"", i32 0, i32 0, i64 0, i64 0, i64 0, i32 0, null, metadata !314, i32 0, i32 0} ; [ DW_TAG_subroutine_type ]
!314 = metadata !{metadata !197, metadata !302}
!315 = metadata !{i32 786478, i32 0, metadata !141, metadata !"to_short", metadata !"to_short", metadata !"_ZNK11ap_int_baseILi32ELb1ELb1EE8to_shortEv", metadata !142, i32 1720, metadata !316, i1 false, i1 false, i32 0, i32 0, null, i32 256, i1 false, null, null, i32 0, metadata !154, i32 1720} ; [ DW_TAG_subprogram ]
!316 = metadata !{i32 786453, i32 0, metadata !"", i32 0, i32 0, i64 0, i64 0, i64 0, i32 0, null, metadata !317, i32 0, i32 0} ; [ DW_TAG_subroutine_type ]
!317 = metadata !{metadata !193, metadata !302}
!318 = metadata !{i32 786478, i32 0, metadata !141, metadata !"to_int", metadata !"to_int", metadata !"_ZNK11ap_int_baseILi32ELb1ELb1EE6to_intEv", metadata !142, i32 1721, metadata !319, i1 false, i1 false, i32 0, i32 0, null, i32 256, i1 false, null, null, i32 0, metadata !154, i32 1721} ; [ DW_TAG_subprogram ]
!319 = metadata !{i32 786453, i32 0, metadata !"", i32 0, i32 0, i64 0, i64 0, i64 0, i32 0, null, metadata !320, i32 0, i32 0} ; [ DW_TAG_subroutine_type ]
!320 = metadata !{metadata !158, metadata !302}
!321 = metadata !{i32 786478, i32 0, metadata !141, metadata !"to_uint", metadata !"to_uint", metadata !"_ZNK11ap_int_baseILi32ELb1ELb1EE7to_uintEv", metadata !142, i32 1722, metadata !322, i1 false, i1 false, i32 0, i32 0, null, i32 256, i1 false, null, null, i32 0, metadata !154, i32 1722} ; [ DW_TAG_subprogram ]
!322 = metadata !{i32 786453, i32 0, metadata !"", i32 0, i32 0, i64 0, i64 0, i64 0, i32 0, null, metadata !323, i32 0, i32 0} ; [ DW_TAG_subroutine_type ]
!323 = metadata !{metadata !204, metadata !302}
!324 = metadata !{i32 786478, i32 0, metadata !141, metadata !"to_long", metadata !"to_long", metadata !"_ZNK11ap_int_baseILi32ELb1ELb1EE7to_longEv", metadata !142, i32 1723, metadata !325, i1 false, i1 false, i32 0, i32 0, null, i32 256, i1 false, null, null, i32 0, metadata !154, i32 1723} ; [ DW_TAG_subprogram ]
!325 = metadata !{i32 786453, i32 0, metadata !"", i32 0, i32 0, i64 0, i64 0, i64 0, i32 0, null, metadata !326, i32 0, i32 0} ; [ DW_TAG_subroutine_type ]
!326 = metadata !{metadata !208, metadata !302}
!327 = metadata !{i32 786478, i32 0, metadata !141, metadata !"to_ulong", metadata !"to_ulong", metadata !"_ZNK11ap_int_baseILi32ELb1ELb1EE8to_ulongEv", metadata !142, i32 1724, metadata !328, i1 false, i1 false, i32 0, i32 0, null, i32 256, i1 false, null, null, i32 0, metadata !154, i32 1724} ; [ DW_TAG_subprogram ]
!328 = metadata !{i32 786453, i32 0, metadata !"", i32 0, i32 0, i64 0, i64 0, i64 0, i32 0, null, metadata !329, i32 0, i32 0} ; [ DW_TAG_subroutine_type ]
!329 = metadata !{metadata !212, metadata !302}
!330 = metadata !{i32 786478, i32 0, metadata !141, metadata !"to_int64", metadata !"to_int64", metadata !"_ZNK11ap_int_baseILi32ELb1ELb1EE8to_int64Ev", metadata !142, i32 1725, metadata !331, i1 false, i1 false, i32 0, i32 0, null, i32 256, i1 false, null, null, i32 0, metadata !154, i32 1725} ; [ DW_TAG_subprogram ]
!331 = metadata !{i32 786453, i32 0, metadata !"", i32 0, i32 0, i64 0, i64 0, i64 0, i32 0, null, metadata !332, i32 0, i32 0} ; [ DW_TAG_subroutine_type ]
!332 = metadata !{metadata !216, metadata !302}
!333 = metadata !{i32 786478, i32 0, metadata !141, metadata !"to_uint64", metadata !"to_uint64", metadata !"_ZNK11ap_int_baseILi32ELb1ELb1EE9to_uint64Ev", metadata !142, i32 1726, metadata !334, i1 false, i1 false, i32 0, i32 0, null, i32 256, i1 false, null, null, i32 0, metadata !154, i32 1726} ; [ DW_TAG_subprogram ]
!334 = metadata !{i32 786453, i32 0, metadata !"", i32 0, i32 0, i64 0, i64 0, i64 0, i32 0, null, metadata !335, i32 0, i32 0} ; [ DW_TAG_subroutine_type ]
!335 = metadata !{metadata !221, metadata !302}
!336 = metadata !{i32 786478, i32 0, metadata !141, metadata !"to_double", metadata !"to_double", metadata !"_ZNK11ap_int_baseILi32ELb1ELb1EE9to_doubleEv", metadata !142, i32 1727, metadata !337, i1 false, i1 false, i32 0, i32 0, null, i32 256, i1 false, null, null, i32 0, metadata !154, i32 1727} ; [ DW_TAG_subprogram ]
!337 = metadata !{i32 786453, i32 0, metadata !"", i32 0, i32 0, i64 0, i64 0, i64 0, i32 0, null, metadata !338, i32 0, i32 0} ; [ DW_TAG_subroutine_type ]
!338 = metadata !{metadata !235, metadata !302}
!339 = metadata !{i32 786478, i32 0, metadata !141, metadata !"length", metadata !"length", metadata !"_ZNK11ap_int_baseILi32ELb1ELb1EE6lengthEv", metadata !142, i32 1741, metadata !319, i1 false, i1 false, i32 0, i32 0, null, i32 256, i1 false, null, null, i32 0, metadata !154, i32 1741} ; [ DW_TAG_subprogram ]
!340 = metadata !{i32 786478, i32 0, metadata !141, metadata !"length", metadata !"length", metadata !"_ZNVK11ap_int_baseILi32ELb1ELb1EE6lengthEv", metadata !142, i32 1742, metadata !341, i1 false, i1 false, i32 0, i32 0, null, i32 256, i1 false, null, null, i32 0, metadata !154, i32 1742} ; [ DW_TAG_subprogram ]
!341 = metadata !{i32 786453, i32 0, metadata !"", i32 0, i32 0, i64 0, i64 0, i64 0, i32 0, null, metadata !342, i32 0, i32 0} ; [ DW_TAG_subroutine_type ]
!342 = metadata !{metadata !158, metadata !343}
!343 = metadata !{i32 786447, i32 0, metadata !"", i32 0, i32 0, i64 64, i64 64, i64 0, i32 64, metadata !177} ; [ DW_TAG_pointer_type ]
!344 = metadata !{i32 786478, i32 0, metadata !141, metadata !"reverse", metadata !"reverse", metadata !"_ZN11ap_int_baseILi32ELb1ELb1EE7reverseEv", metadata !142, i32 1747, metadata !345, i1 false, i1 false, i32 0, i32 0, null, i32 256, i1 false, null, null, i32 0, metadata !154, i32 1747} ; [ DW_TAG_subprogram ]
!345 = metadata !{i32 786453, i32 0, metadata !"", i32 0, i32 0, i64 0, i64 0, i64 0, i32 0, null, metadata !346, i32 0, i32 0} ; [ DW_TAG_subroutine_type ]
!346 = metadata !{metadata !259, metadata !164}
!347 = metadata !{i32 786478, i32 0, metadata !141, metadata !"iszero", metadata !"iszero", metadata !"_ZNK11ap_int_baseILi32ELb1ELb1EE6iszeroEv", metadata !142, i32 1753, metadata !304, i1 false, i1 false, i32 0, i32 0, null, i32 256, i1 false, null, null, i32 0, metadata !154, i32 1753} ; [ DW_TAG_subprogram ]
!348 = metadata !{i32 786478, i32 0, metadata !141, metadata !"is_zero", metadata !"is_zero", metadata !"_ZNK11ap_int_baseILi32ELb1ELb1EE7is_zeroEv", metadata !142, i32 1758, metadata !304, i1 false, i1 false, i32 0, i32 0, null, i32 256, i1 false, null, null, i32 0, metadata !154, i32 1758} ; [ DW_TAG_subprogram ]
!349 = metadata !{i32 786478, i32 0, metadata !141, metadata !"sign", metadata !"sign", metadata !"_ZNK11ap_int_baseILi32ELb1ELb1EE4signEv", metadata !142, i32 1763, metadata !304, i1 false, i1 false, i32 0, i32 0, null, i32 256, i1 false, null, null, i32 0, metadata !154, i32 1763} ; [ DW_TAG_subprogram ]
!350 = metadata !{i32 786478, i32 0, metadata !141, metadata !"clear", metadata !"clear", metadata !"_ZN11ap_int_baseILi32ELb1ELb1EE5clearEi", metadata !142, i32 1771, metadata !199, i1 false, i1 false, i32 0, i32 0, null, i32 256, i1 false, null, null, i32 0, metadata !154, i32 1771} ; [ DW_TAG_subprogram ]
!351 = metadata !{i32 786478, i32 0, metadata !141, metadata !"invert", metadata !"invert", metadata !"_ZN11ap_int_baseILi32ELb1ELb1EE6invertEi", metadata !142, i32 1777, metadata !199, i1 false, i1 false, i32 0, i32 0, null, i32 256, i1 false, null, null, i32 0, metadata !154, i32 1777} ; [ DW_TAG_subprogram ]
!352 = metadata !{i32 786478, i32 0, metadata !141, metadata !"test", metadata !"test", metadata !"_ZNK11ap_int_baseILi32ELb1ELb1EE4testEi", metadata !142, i32 1785, metadata !353, i1 false, i1 false, i32 0, i32 0, null, i32 256, i1 false, null, null, i32 0, metadata !154, i32 1785} ; [ DW_TAG_subprogram ]
!353 = metadata !{i32 786453, i32 0, metadata !"", i32 0, i32 0, i64 0, i64 0, i64 0, i32 0, null, metadata !354, i32 0, i32 0} ; [ DW_TAG_subroutine_type ]
!354 = metadata !{metadata !160, metadata !302, metadata !158}
!355 = metadata !{i32 786478, i32 0, metadata !141, metadata !"set", metadata !"set", metadata !"_ZN11ap_int_baseILi32ELb1ELb1EE3setEi", metadata !142, i32 1791, metadata !199, i1 false, i1 false, i32 0, i32 0, null, i32 256, i1 false, null, null, i32 0, metadata !154, i32 1791} ; [ DW_TAG_subprogram ]
!356 = metadata !{i32 786478, i32 0, metadata !141, metadata !"set", metadata !"set", metadata !"_ZN11ap_int_baseILi32ELb1ELb1EE3setEib", metadata !142, i32 1797, metadata !357, i1 false, i1 false, i32 0, i32 0, null, i32 256, i1 false, null, null, i32 0, metadata !154, i32 1797} ; [ DW_TAG_subprogram ]
!357 = metadata !{i32 786453, i32 0, metadata !"", i32 0, i32 0, i64 0, i64 0, i64 0, i32 0, null, metadata !358, i32 0, i32 0} ; [ DW_TAG_subroutine_type ]
!358 = metadata !{null, metadata !164, metadata !158, metadata !160}
!359 = metadata !{i32 786478, i32 0, metadata !141, metadata !"lrotate", metadata !"lrotate", metadata !"_ZN11ap_int_baseILi32ELb1ELb1EE7lrotateEi", metadata !142, i32 1804, metadata !199, i1 false, i1 false, i32 0, i32 0, null, i32 256, i1 false, null, null, i32 0, metadata !154, i32 1804} ; [ DW_TAG_subprogram ]
!360 = metadata !{i32 786478, i32 0, metadata !141, metadata !"rrotate", metadata !"rrotate", metadata !"_ZN11ap_int_baseILi32ELb1ELb1EE7rrotateEi", metadata !142, i32 1813, metadata !199, i1 false, i1 false, i32 0, i32 0, null, i32 256, i1 false, null, null, i32 0, metadata !154, i32 1813} ; [ DW_TAG_subprogram ]
!361 = metadata !{i32 786478, i32 0, metadata !141, metadata !"set_bit", metadata !"set_bit", metadata !"_ZN11ap_int_baseILi32ELb1ELb1EE7set_bitEib", metadata !142, i32 1821, metadata !357, i1 false, i1 false, i32 0, i32 0, null, i32 256, i1 false, null, null, i32 0, metadata !154, i32 1821} ; [ DW_TAG_subprogram ]
!362 = metadata !{i32 786478, i32 0, metadata !141, metadata !"get_bit", metadata !"get_bit", metadata !"_ZNK11ap_int_baseILi32ELb1ELb1EE7get_bitEi", metadata !142, i32 1826, metadata !353, i1 false, i1 false, i32 0, i32 0, null, i32 256, i1 false, null, null, i32 0, metadata !154, i32 1826} ; [ DW_TAG_subprogram ]
!363 = metadata !{i32 786478, i32 0, metadata !141, metadata !"b_not", metadata !"b_not", metadata !"_ZN11ap_int_baseILi32ELb1ELb1EE5b_notEv", metadata !142, i32 1831, metadata !162, i1 false, i1 false, i32 0, i32 0, null, i32 256, i1 false, null, null, i32 0, metadata !154, i32 1831} ; [ DW_TAG_subprogram ]
!364 = metadata !{i32 786478, i32 0, metadata !141, metadata !"countLeadingZeros", metadata !"countLeadingZeros", metadata !"_ZN11ap_int_baseILi32ELb1ELb1EE17countLeadingZerosEv", metadata !142, i32 1838, metadata !365, i1 false, i1 false, i32 0, i32 0, null, i32 256, i1 false, null, null, i32 0, metadata !154, i32 1838} ; [ DW_TAG_subprogram ]
!365 = metadata !{i32 786453, i32 0, metadata !"", i32 0, i32 0, i64 0, i64 0, i64 0, i32 0, null, metadata !366, i32 0, i32 0} ; [ DW_TAG_subroutine_type ]
!366 = metadata !{metadata !158, metadata !164}
!367 = metadata !{i32 786478, i32 0, metadata !141, metadata !"operator++", metadata !"operator++", metadata !"_ZN11ap_int_baseILi32ELb1ELb1EEppEv", metadata !142, i32 1895, metadata !345, i1 false, i1 false, i32 0, i32 0, null, i32 256, i1 false, null, null, i32 0, metadata !154, i32 1895} ; [ DW_TAG_subprogram ]
!368 = metadata !{i32 786478, i32 0, metadata !141, metadata !"operator--", metadata !"operator--", metadata !"_ZN11ap_int_baseILi32ELb1ELb1EEmmEv", metadata !142, i32 1899, metadata !345, i1 false, i1 false, i32 0, i32 0, null, i32 256, i1 false, null, null, i32 0, metadata !154, i32 1899} ; [ DW_TAG_subprogram ]
!369 = metadata !{i32 786478, i32 0, metadata !141, metadata !"operator++", metadata !"operator++", metadata !"_ZN11ap_int_baseILi32ELb1ELb1EEppEi", metadata !142, i32 1907, metadata !370, i1 false, i1 false, i32 0, i32 0, null, i32 256, i1 false, null, null, i32 0, metadata !154, i32 1907} ; [ DW_TAG_subprogram ]
!370 = metadata !{i32 786453, i32 0, metadata !"", i32 0, i32 0, i64 0, i64 0, i64 0, i32 0, null, metadata !371, i32 0, i32 0} ; [ DW_TAG_subroutine_type ]
!371 = metadata !{metadata !169, metadata !164, metadata !158}
!372 = metadata !{i32 786478, i32 0, metadata !141, metadata !"operator--", metadata !"operator--", metadata !"_ZN11ap_int_baseILi32ELb1ELb1EEmmEi", metadata !142, i32 1912, metadata !370, i1 false, i1 false, i32 0, i32 0, null, i32 256, i1 false, null, null, i32 0, metadata !154, i32 1912} ; [ DW_TAG_subprogram ]
!373 = metadata !{i32 786478, i32 0, metadata !141, metadata !"operator+", metadata !"operator+", metadata !"_ZNK11ap_int_baseILi32ELb1ELb1EEpsEv", metadata !142, i32 1921, metadata !374, i1 false, i1 false, i32 0, i32 0, null, i32 256, i1 false, null, null, i32 0, metadata !154, i32 1921} ; [ DW_TAG_subprogram ]
!374 = metadata !{i32 786453, i32 0, metadata !"", i32 0, i32 0, i64 0, i64 0, i64 0, i32 0, null, metadata !375, i32 0, i32 0} ; [ DW_TAG_subroutine_type ]
!375 = metadata !{metadata !141, metadata !302}
!376 = metadata !{i32 786478, i32 0, metadata !141, metadata !"operator!", metadata !"operator!", metadata !"_ZNK11ap_int_baseILi32ELb1ELb1EEntEv", metadata !142, i32 1927, metadata !304, i1 false, i1 false, i32 0, i32 0, null, i32 256, i1 false, null, null, i32 0, metadata !154, i32 1927} ; [ DW_TAG_subprogram ]
!377 = metadata !{i32 786478, i32 0, metadata !141, metadata !"operator-", metadata !"operator-", metadata !"_ZNK11ap_int_baseILi32ELb1ELb1EEngEv", metadata !142, i32 1932, metadata !378, i1 false, i1 false, i32 0, i32 0, null, i32 256, i1 false, null, null, i32 0, metadata !154, i32 1932} ; [ DW_TAG_subprogram ]
!378 = metadata !{i32 786453, i32 0, metadata !"", i32 0, i32 0, i64 0, i64 0, i64 0, i32 0, null, metadata !379, i32 0, i32 0} ; [ DW_TAG_subroutine_type ]
!379 = metadata !{metadata !380, metadata !302}
!380 = metadata !{i32 786434, null, metadata !"ap_int_base<33, true, true>", metadata !142, i32 1453, i64 64, i64 64, i32 0, i32 0, null, metadata !381, i32 0, null, metadata !674} ; [ DW_TAG_class_type ]
!381 = metadata !{metadata !382, metadata !393, metadata !397, metadata !404, metadata !410, metadata !413, metadata !416, metadata !419, metadata !422, metadata !425, metadata !428, metadata !431, metadata !434, metadata !437, metadata !440, metadata !443, metadata !446, metadata !449, metadata !452, metadata !455, metadata !458, metadata !462, metadata !465, metadata !468, metadata !469, metadata !473, metadata !476, metadata !479, metadata !482, metadata !485, metadata !488, metadata !491, metadata !494, metadata !497, metadata !500, metadata !503, metadata !506, metadata !515, metadata !518, metadata !521, metadata !524, metadata !527, metadata !530, metadata !533, metadata !536, metadata !539, metadata !542, metadata !545, metadata !548, metadata !551, metadata !552, metadata !556, metadata !559, metadata !560, metadata !561, metadata !562, metadata !563, metadata !564, metadata !567, metadata !568, metadata !571, metadata !572, metadata !573, metadata !574, metadata !575, metadata !576, metadata !579, metadata !580, metadata !581, metadata !584, metadata !585, metadata !588, metadata !589, metadata !593, metadata !597, metadata !598, metadata !601, metadata !602, metadata !641, metadata !642, metadata !643, metadata !644, metadata !647, metadata !648, metadata !649, metadata !650, metadata !651, metadata !652, metadata !653, metadata !654, metadata !655, metadata !656, metadata !657, metadata !658, metadata !668, metadata !671}
!382 = metadata !{i32 786460, metadata !380, null, metadata !142, i32 0, i64 0, i64 0, i64 0, i32 0, metadata !383} ; [ DW_TAG_inheritance ]
!383 = metadata !{i32 786434, null, metadata !"ssdm_int<33 + 1024 * 0, true>", metadata !146, i32 35, i64 64, i64 64, i32 0, i32 0, null, metadata !384, i32 0, null, metadata !391} ; [ DW_TAG_class_type ]
!384 = metadata !{metadata !385, metadata !387}
!385 = metadata !{i32 786445, metadata !383, metadata !"V", metadata !146, i32 35, i64 33, i64 64, i64 0, i32 0, metadata !386} ; [ DW_TAG_member ]
!386 = metadata !{i32 786468, null, metadata !"int33", null, i32 0, i64 33, i64 64, i64 0, i32 0, i32 5} ; [ DW_TAG_base_type ]
!387 = metadata !{i32 786478, i32 0, metadata !383, metadata !"ssdm_int", metadata !"ssdm_int", metadata !"", metadata !146, i32 35, metadata !388, i1 false, i1 false, i32 0, i32 0, null, i32 256, i1 false, null, null, i32 0, metadata !154, i32 35} ; [ DW_TAG_subprogram ]
!388 = metadata !{i32 786453, i32 0, metadata !"", i32 0, i32 0, i64 0, i64 0, i64 0, i32 0, null, metadata !389, i32 0, i32 0} ; [ DW_TAG_subroutine_type ]
!389 = metadata !{null, metadata !390}
!390 = metadata !{i32 786447, i32 0, metadata !"", i32 0, i32 0, i64 64, i64 64, i64 0, i32 64, metadata !383} ; [ DW_TAG_pointer_type ]
!391 = metadata !{metadata !392, metadata !159}
!392 = metadata !{i32 786480, null, metadata !"_AP_N", metadata !158, i64 33, null, i32 0, i32 0} ; [ DW_TAG_template_value_parameter ]
!393 = metadata !{i32 786478, i32 0, metadata !380, metadata !"ap_int_base", metadata !"ap_int_base", metadata !"", metadata !142, i32 1494, metadata !394, i1 false, i1 false, i32 0, i32 0, null, i32 256, i1 false, null, null, i32 0, metadata !154, i32 1494} ; [ DW_TAG_subprogram ]
!394 = metadata !{i32 786453, i32 0, metadata !"", i32 0, i32 0, i64 0, i64 0, i64 0, i32 0, null, metadata !395, i32 0, i32 0} ; [ DW_TAG_subroutine_type ]
!395 = metadata !{null, metadata !396}
!396 = metadata !{i32 786447, i32 0, metadata !"", i32 0, i32 0, i64 64, i64 64, i64 0, i32 64, metadata !380} ; [ DW_TAG_pointer_type ]
!397 = metadata !{i32 786478, i32 0, metadata !380, metadata !"ap_int_base<33, true>", metadata !"ap_int_base<33, true>", metadata !"", metadata !142, i32 1506, metadata !398, i1 false, i1 false, i32 0, i32 0, null, i32 256, i1 false, null, metadata !402, i32 0, metadata !154, i32 1506} ; [ DW_TAG_subprogram ]
!398 = metadata !{i32 786453, i32 0, metadata !"", i32 0, i32 0, i64 0, i64 0, i64 0, i32 0, null, metadata !399, i32 0, i32 0} ; [ DW_TAG_subroutine_type ]
!399 = metadata !{null, metadata !396, metadata !400}
!400 = metadata !{i32 786448, null, null, null, i32 0, i64 0, i64 0, i64 0, i32 0, metadata !401} ; [ DW_TAG_reference_type ]
!401 = metadata !{i32 786470, null, metadata !"", null, i32 0, i64 0, i64 0, i64 0, i32 0, metadata !380} ; [ DW_TAG_const_type ]
!402 = metadata !{metadata !403, metadata !172}
!403 = metadata !{i32 786480, null, metadata !"_AP_W2", metadata !158, i64 33, null, i32 0, i32 0} ; [ DW_TAG_template_value_parameter ]
!404 = metadata !{i32 786478, i32 0, metadata !380, metadata !"ap_int_base<33, true>", metadata !"ap_int_base<33, true>", metadata !"", metadata !142, i32 1509, metadata !405, i1 false, i1 false, i32 0, i32 0, null, i32 256, i1 false, null, metadata !402, i32 0, metadata !154, i32 1509} ; [ DW_TAG_subprogram ]
!405 = metadata !{i32 786453, i32 0, metadata !"", i32 0, i32 0, i64 0, i64 0, i64 0, i32 0, null, metadata !406, i32 0, i32 0} ; [ DW_TAG_subroutine_type ]
!406 = metadata !{null, metadata !396, metadata !407}
!407 = metadata !{i32 786448, null, null, null, i32 0, i64 0, i64 0, i64 0, i32 0, metadata !408} ; [ DW_TAG_reference_type ]
!408 = metadata !{i32 786470, null, metadata !"", null, i32 0, i64 0, i64 0, i64 0, i32 0, metadata !409} ; [ DW_TAG_const_type ]
!409 = metadata !{i32 786485, null, metadata !"", null, i32 0, i64 0, i64 0, i64 0, i32 0, metadata !380} ; [ DW_TAG_volatile_type ]
!410 = metadata !{i32 786478, i32 0, metadata !380, metadata !"ap_int_base", metadata !"ap_int_base", metadata !"", metadata !142, i32 1516, metadata !411, i1 false, i1 false, i32 0, i32 0, null, i32 384, i1 false, null, null, i32 0, metadata !154, i32 1516} ; [ DW_TAG_subprogram ]
!411 = metadata !{i32 786453, i32 0, metadata !"", i32 0, i32 0, i64 0, i64 0, i64 0, i32 0, null, metadata !412, i32 0, i32 0} ; [ DW_TAG_subroutine_type ]
!412 = metadata !{null, metadata !396, metadata !160}
!413 = metadata !{i32 786478, i32 0, metadata !380, metadata !"ap_int_base", metadata !"ap_int_base", metadata !"", metadata !142, i32 1517, metadata !414, i1 false, i1 false, i32 0, i32 0, null, i32 384, i1 false, null, null, i32 0, metadata !154, i32 1517} ; [ DW_TAG_subprogram ]
!414 = metadata !{i32 786453, i32 0, metadata !"", i32 0, i32 0, i64 0, i64 0, i64 0, i32 0, null, metadata !415, i32 0, i32 0} ; [ DW_TAG_subroutine_type ]
!415 = metadata !{null, metadata !396, metadata !185}
!416 = metadata !{i32 786478, i32 0, metadata !380, metadata !"ap_int_base", metadata !"ap_int_base", metadata !"", metadata !142, i32 1518, metadata !417, i1 false, i1 false, i32 0, i32 0, null, i32 384, i1 false, null, null, i32 0, metadata !154, i32 1518} ; [ DW_TAG_subprogram ]
!417 = metadata !{i32 786453, i32 0, metadata !"", i32 0, i32 0, i64 0, i64 0, i64 0, i32 0, null, metadata !418, i32 0, i32 0} ; [ DW_TAG_subroutine_type ]
!418 = metadata !{null, metadata !396, metadata !189}
!419 = metadata !{i32 786478, i32 0, metadata !380, metadata !"ap_int_base", metadata !"ap_int_base", metadata !"", metadata !142, i32 1519, metadata !420, i1 false, i1 false, i32 0, i32 0, null, i32 384, i1 false, null, null, i32 0, metadata !154, i32 1519} ; [ DW_TAG_subprogram ]
!420 = metadata !{i32 786453, i32 0, metadata !"", i32 0, i32 0, i64 0, i64 0, i64 0, i32 0, null, metadata !421, i32 0, i32 0} ; [ DW_TAG_subroutine_type ]
!421 = metadata !{null, metadata !396, metadata !193}
!422 = metadata !{i32 786478, i32 0, metadata !380, metadata !"ap_int_base", metadata !"ap_int_base", metadata !"", metadata !142, i32 1520, metadata !423, i1 false, i1 false, i32 0, i32 0, null, i32 384, i1 false, null, null, i32 0, metadata !154, i32 1520} ; [ DW_TAG_subprogram ]
!423 = metadata !{i32 786453, i32 0, metadata !"", i32 0, i32 0, i64 0, i64 0, i64 0, i32 0, null, metadata !424, i32 0, i32 0} ; [ DW_TAG_subroutine_type ]
!424 = metadata !{null, metadata !396, metadata !197}
!425 = metadata !{i32 786478, i32 0, metadata !380, metadata !"ap_int_base", metadata !"ap_int_base", metadata !"", metadata !142, i32 1521, metadata !426, i1 false, i1 false, i32 0, i32 0, null, i32 384, i1 false, null, null, i32 0, metadata !154, i32 1521} ; [ DW_TAG_subprogram ]
!426 = metadata !{i32 786453, i32 0, metadata !"", i32 0, i32 0, i64 0, i64 0, i64 0, i32 0, null, metadata !427, i32 0, i32 0} ; [ DW_TAG_subroutine_type ]
!427 = metadata !{null, metadata !396, metadata !158}
!428 = metadata !{i32 786478, i32 0, metadata !380, metadata !"ap_int_base", metadata !"ap_int_base", metadata !"", metadata !142, i32 1522, metadata !429, i1 false, i1 false, i32 0, i32 0, null, i32 384, i1 false, null, null, i32 0, metadata !154, i32 1522} ; [ DW_TAG_subprogram ]
!429 = metadata !{i32 786453, i32 0, metadata !"", i32 0, i32 0, i64 0, i64 0, i64 0, i32 0, null, metadata !430, i32 0, i32 0} ; [ DW_TAG_subroutine_type ]
!430 = metadata !{null, metadata !396, metadata !204}
!431 = metadata !{i32 786478, i32 0, metadata !380, metadata !"ap_int_base", metadata !"ap_int_base", metadata !"", metadata !142, i32 1523, metadata !432, i1 false, i1 false, i32 0, i32 0, null, i32 384, i1 false, null, null, i32 0, metadata !154, i32 1523} ; [ DW_TAG_subprogram ]
!432 = metadata !{i32 786453, i32 0, metadata !"", i32 0, i32 0, i64 0, i64 0, i64 0, i32 0, null, metadata !433, i32 0, i32 0} ; [ DW_TAG_subroutine_type ]
!433 = metadata !{null, metadata !396, metadata !208}
!434 = metadata !{i32 786478, i32 0, metadata !380, metadata !"ap_int_base", metadata !"ap_int_base", metadata !"", metadata !142, i32 1524, metadata !435, i1 false, i1 false, i32 0, i32 0, null, i32 384, i1 false, null, null, i32 0, metadata !154, i32 1524} ; [ DW_TAG_subprogram ]
!435 = metadata !{i32 786453, i32 0, metadata !"", i32 0, i32 0, i64 0, i64 0, i64 0, i32 0, null, metadata !436, i32 0, i32 0} ; [ DW_TAG_subroutine_type ]
!436 = metadata !{null, metadata !396, metadata !212}
!437 = metadata !{i32 786478, i32 0, metadata !380, metadata !"ap_int_base", metadata !"ap_int_base", metadata !"", metadata !142, i32 1525, metadata !438, i1 false, i1 false, i32 0, i32 0, null, i32 384, i1 false, null, null, i32 0, metadata !154, i32 1525} ; [ DW_TAG_subprogram ]
!438 = metadata !{i32 786453, i32 0, metadata !"", i32 0, i32 0, i64 0, i64 0, i64 0, i32 0, null, metadata !439, i32 0, i32 0} ; [ DW_TAG_subroutine_type ]
!439 = metadata !{null, metadata !396, metadata !216}
!440 = metadata !{i32 786478, i32 0, metadata !380, metadata !"ap_int_base", metadata !"ap_int_base", metadata !"", metadata !142, i32 1526, metadata !441, i1 false, i1 false, i32 0, i32 0, null, i32 384, i1 false, null, null, i32 0, metadata !154, i32 1526} ; [ DW_TAG_subprogram ]
!441 = metadata !{i32 786453, i32 0, metadata !"", i32 0, i32 0, i64 0, i64 0, i64 0, i32 0, null, metadata !442, i32 0, i32 0} ; [ DW_TAG_subroutine_type ]
!442 = metadata !{null, metadata !396, metadata !221}
!443 = metadata !{i32 786478, i32 0, metadata !380, metadata !"ap_int_base", metadata !"ap_int_base", metadata !"", metadata !142, i32 1527, metadata !444, i1 false, i1 false, i32 0, i32 0, null, i32 384, i1 false, null, null, i32 0, metadata !154, i32 1527} ; [ DW_TAG_subprogram ]
!444 = metadata !{i32 786453, i32 0, metadata !"", i32 0, i32 0, i64 0, i64 0, i64 0, i32 0, null, metadata !445, i32 0, i32 0} ; [ DW_TAG_subroutine_type ]
!445 = metadata !{null, metadata !396, metadata !226}
!446 = metadata !{i32 786478, i32 0, metadata !380, metadata !"ap_int_base", metadata !"ap_int_base", metadata !"", metadata !142, i32 1528, metadata !447, i1 false, i1 false, i32 0, i32 0, null, i32 384, i1 false, null, null, i32 0, metadata !154, i32 1528} ; [ DW_TAG_subprogram ]
!447 = metadata !{i32 786453, i32 0, metadata !"", i32 0, i32 0, i64 0, i64 0, i64 0, i32 0, null, metadata !448, i32 0, i32 0} ; [ DW_TAG_subroutine_type ]
!448 = metadata !{null, metadata !396, metadata !231}
!449 = metadata !{i32 786478, i32 0, metadata !380, metadata !"ap_int_base", metadata !"ap_int_base", metadata !"", metadata !142, i32 1529, metadata !450, i1 false, i1 false, i32 0, i32 0, null, i32 384, i1 false, null, null, i32 0, metadata !154, i32 1529} ; [ DW_TAG_subprogram ]
!450 = metadata !{i32 786453, i32 0, metadata !"", i32 0, i32 0, i64 0, i64 0, i64 0, i32 0, null, metadata !451, i32 0, i32 0} ; [ DW_TAG_subroutine_type ]
!451 = metadata !{null, metadata !396, metadata !235}
!452 = metadata !{i32 786478, i32 0, metadata !380, metadata !"ap_int_base", metadata !"ap_int_base", metadata !"", metadata !142, i32 1556, metadata !453, i1 false, i1 false, i32 0, i32 0, null, i32 256, i1 false, null, null, i32 0, metadata !154, i32 1556} ; [ DW_TAG_subprogram ]
!453 = metadata !{i32 786453, i32 0, metadata !"", i32 0, i32 0, i64 0, i64 0, i64 0, i32 0, null, metadata !454, i32 0, i32 0} ; [ DW_TAG_subroutine_type ]
!454 = metadata !{null, metadata !396, metadata !239}
!455 = metadata !{i32 786478, i32 0, metadata !380, metadata !"ap_int_base", metadata !"ap_int_base", metadata !"", metadata !142, i32 1563, metadata !456, i1 false, i1 false, i32 0, i32 0, null, i32 256, i1 false, null, null, i32 0, metadata !154, i32 1563} ; [ DW_TAG_subprogram ]
!456 = metadata !{i32 786453, i32 0, metadata !"", i32 0, i32 0, i64 0, i64 0, i64 0, i32 0, null, metadata !457, i32 0, i32 0} ; [ DW_TAG_subroutine_type ]
!457 = metadata !{null, metadata !396, metadata !239, metadata !185}
!458 = metadata !{i32 786478, i32 0, metadata !380, metadata !"read", metadata !"read", metadata !"_ZNV11ap_int_baseILi33ELb1ELb1EE4readEv", metadata !142, i32 1584, metadata !459, i1 false, i1 false, i32 0, i32 0, null, i32 256, i1 false, null, null, i32 0, metadata !154, i32 1584} ; [ DW_TAG_subprogram ]
!459 = metadata !{i32 786453, i32 0, metadata !"", i32 0, i32 0, i64 0, i64 0, i64 0, i32 0, null, metadata !460, i32 0, i32 0} ; [ DW_TAG_subroutine_type ]
!460 = metadata !{metadata !380, metadata !461}
!461 = metadata !{i32 786447, i32 0, metadata !"", i32 0, i32 0, i64 64, i64 64, i64 0, i32 64, metadata !409} ; [ DW_TAG_pointer_type ]
!462 = metadata !{i32 786478, i32 0, metadata !380, metadata !"write", metadata !"write", metadata !"_ZNV11ap_int_baseILi33ELb1ELb1EE5writeERKS0_", metadata !142, i32 1590, metadata !463, i1 false, i1 false, i32 0, i32 0, null, i32 256, i1 false, null, null, i32 0, metadata !154, i32 1590} ; [ DW_TAG_subprogram ]
!463 = metadata !{i32 786453, i32 0, metadata !"", i32 0, i32 0, i64 0, i64 0, i64 0, i32 0, null, metadata !464, i32 0, i32 0} ; [ DW_TAG_subroutine_type ]
!464 = metadata !{null, metadata !461, metadata !400}
!465 = metadata !{i32 786478, i32 0, metadata !380, metadata !"operator=", metadata !"operator=", metadata !"_ZNV11ap_int_baseILi33ELb1ELb1EEaSERVKS0_", metadata !142, i32 1602, metadata !466, i1 false, i1 false, i32 0, i32 0, null, i32 256, i1 false, null, null, i32 0, metadata !154, i32 1602} ; [ DW_TAG_subprogram ]
!466 = metadata !{i32 786453, i32 0, metadata !"", i32 0, i32 0, i64 0, i64 0, i64 0, i32 0, null, metadata !467, i32 0, i32 0} ; [ DW_TAG_subroutine_type ]
!467 = metadata !{null, metadata !461, metadata !407}
!468 = metadata !{i32 786478, i32 0, metadata !380, metadata !"operator=", metadata !"operator=", metadata !"_ZNV11ap_int_baseILi33ELb1ELb1EEaSERKS0_", metadata !142, i32 1611, metadata !463, i1 false, i1 false, i32 0, i32 0, null, i32 256, i1 false, null, null, i32 0, metadata !154, i32 1611} ; [ DW_TAG_subprogram ]
!469 = metadata !{i32 786478, i32 0, metadata !380, metadata !"operator=", metadata !"operator=", metadata !"_ZN11ap_int_baseILi33ELb1ELb1EEaSERVKS0_", metadata !142, i32 1634, metadata !470, i1 false, i1 false, i32 0, i32 0, null, i32 256, i1 false, null, null, i32 0, metadata !154, i32 1634} ; [ DW_TAG_subprogram ]
!470 = metadata !{i32 786453, i32 0, metadata !"", i32 0, i32 0, i64 0, i64 0, i64 0, i32 0, null, metadata !471, i32 0, i32 0} ; [ DW_TAG_subroutine_type ]
!471 = metadata !{metadata !472, metadata !396, metadata !407}
!472 = metadata !{i32 786448, null, null, null, i32 0, i64 0, i64 0, i64 0, i32 0, metadata !380} ; [ DW_TAG_reference_type ]
!473 = metadata !{i32 786478, i32 0, metadata !380, metadata !"operator=", metadata !"operator=", metadata !"_ZN11ap_int_baseILi33ELb1ELb1EEaSERKS0_", metadata !142, i32 1639, metadata !474, i1 false, i1 false, i32 0, i32 0, null, i32 256, i1 false, null, null, i32 0, metadata !154, i32 1639} ; [ DW_TAG_subprogram ]
!474 = metadata !{i32 786453, i32 0, metadata !"", i32 0, i32 0, i64 0, i64 0, i64 0, i32 0, null, metadata !475, i32 0, i32 0} ; [ DW_TAG_subroutine_type ]
!475 = metadata !{metadata !472, metadata !396, metadata !400}
!476 = metadata !{i32 786478, i32 0, metadata !380, metadata !"operator=", metadata !"operator=", metadata !"_ZN11ap_int_baseILi33ELb1ELb1EEaSEPKc", metadata !142, i32 1643, metadata !477, i1 false, i1 false, i32 0, i32 0, null, i32 256, i1 false, null, null, i32 0, metadata !154, i32 1643} ; [ DW_TAG_subprogram ]
!477 = metadata !{i32 786453, i32 0, metadata !"", i32 0, i32 0, i64 0, i64 0, i64 0, i32 0, null, metadata !478, i32 0, i32 0} ; [ DW_TAG_subroutine_type ]
!478 = metadata !{metadata !472, metadata !396, metadata !239}
!479 = metadata !{i32 786478, i32 0, metadata !380, metadata !"set", metadata !"set", metadata !"_ZN11ap_int_baseILi33ELb1ELb1EE3setEPKca", metadata !142, i32 1651, metadata !480, i1 false, i1 false, i32 0, i32 0, null, i32 256, i1 false, null, null, i32 0, metadata !154, i32 1651} ; [ DW_TAG_subprogram ]
!480 = metadata !{i32 786453, i32 0, metadata !"", i32 0, i32 0, i64 0, i64 0, i64 0, i32 0, null, metadata !481, i32 0, i32 0} ; [ DW_TAG_subroutine_type ]
!481 = metadata !{metadata !472, metadata !396, metadata !239, metadata !185}
!482 = metadata !{i32 786478, i32 0, metadata !380, metadata !"operator=", metadata !"operator=", metadata !"_ZN11ap_int_baseILi33ELb1ELb1EEaSEa", metadata !142, i32 1665, metadata !483, i1 false, i1 false, i32 0, i32 0, null, i32 256, i1 false, null, null, i32 0, metadata !154, i32 1665} ; [ DW_TAG_subprogram ]
!483 = metadata !{i32 786453, i32 0, metadata !"", i32 0, i32 0, i64 0, i64 0, i64 0, i32 0, null, metadata !484, i32 0, i32 0} ; [ DW_TAG_subroutine_type ]
!484 = metadata !{metadata !472, metadata !396, metadata !185}
!485 = metadata !{i32 786478, i32 0, metadata !380, metadata !"operator=", metadata !"operator=", metadata !"_ZN11ap_int_baseILi33ELb1ELb1EEaSEh", metadata !142, i32 1666, metadata !486, i1 false, i1 false, i32 0, i32 0, null, i32 256, i1 false, null, null, i32 0, metadata !154, i32 1666} ; [ DW_TAG_subprogram ]
!486 = metadata !{i32 786453, i32 0, metadata !"", i32 0, i32 0, i64 0, i64 0, i64 0, i32 0, null, metadata !487, i32 0, i32 0} ; [ DW_TAG_subroutine_type ]
!487 = metadata !{metadata !472, metadata !396, metadata !189}
!488 = metadata !{i32 786478, i32 0, metadata !380, metadata !"operator=", metadata !"operator=", metadata !"_ZN11ap_int_baseILi33ELb1ELb1EEaSEs", metadata !142, i32 1667, metadata !489, i1 false, i1 false, i32 0, i32 0, null, i32 256, i1 false, null, null, i32 0, metadata !154, i32 1667} ; [ DW_TAG_subprogram ]
!489 = metadata !{i32 786453, i32 0, metadata !"", i32 0, i32 0, i64 0, i64 0, i64 0, i32 0, null, metadata !490, i32 0, i32 0} ; [ DW_TAG_subroutine_type ]
!490 = metadata !{metadata !472, metadata !396, metadata !193}
!491 = metadata !{i32 786478, i32 0, metadata !380, metadata !"operator=", metadata !"operator=", metadata !"_ZN11ap_int_baseILi33ELb1ELb1EEaSEt", metadata !142, i32 1668, metadata !492, i1 false, i1 false, i32 0, i32 0, null, i32 256, i1 false, null, null, i32 0, metadata !154, i32 1668} ; [ DW_TAG_subprogram ]
!492 = metadata !{i32 786453, i32 0, metadata !"", i32 0, i32 0, i64 0, i64 0, i64 0, i32 0, null, metadata !493, i32 0, i32 0} ; [ DW_TAG_subroutine_type ]
!493 = metadata !{metadata !472, metadata !396, metadata !197}
!494 = metadata !{i32 786478, i32 0, metadata !380, metadata !"operator=", metadata !"operator=", metadata !"_ZN11ap_int_baseILi33ELb1ELb1EEaSEi", metadata !142, i32 1669, metadata !495, i1 false, i1 false, i32 0, i32 0, null, i32 256, i1 false, null, null, i32 0, metadata !154, i32 1669} ; [ DW_TAG_subprogram ]
!495 = metadata !{i32 786453, i32 0, metadata !"", i32 0, i32 0, i64 0, i64 0, i64 0, i32 0, null, metadata !496, i32 0, i32 0} ; [ DW_TAG_subroutine_type ]
!496 = metadata !{metadata !472, metadata !396, metadata !158}
!497 = metadata !{i32 786478, i32 0, metadata !380, metadata !"operator=", metadata !"operator=", metadata !"_ZN11ap_int_baseILi33ELb1ELb1EEaSEj", metadata !142, i32 1670, metadata !498, i1 false, i1 false, i32 0, i32 0, null, i32 256, i1 false, null, null, i32 0, metadata !154, i32 1670} ; [ DW_TAG_subprogram ]
!498 = metadata !{i32 786453, i32 0, metadata !"", i32 0, i32 0, i64 0, i64 0, i64 0, i32 0, null, metadata !499, i32 0, i32 0} ; [ DW_TAG_subroutine_type ]
!499 = metadata !{metadata !472, metadata !396, metadata !204}
!500 = metadata !{i32 786478, i32 0, metadata !380, metadata !"operator=", metadata !"operator=", metadata !"_ZN11ap_int_baseILi33ELb1ELb1EEaSEx", metadata !142, i32 1671, metadata !501, i1 false, i1 false, i32 0, i32 0, null, i32 256, i1 false, null, null, i32 0, metadata !154, i32 1671} ; [ DW_TAG_subprogram ]
!501 = metadata !{i32 786453, i32 0, metadata !"", i32 0, i32 0, i64 0, i64 0, i64 0, i32 0, null, metadata !502, i32 0, i32 0} ; [ DW_TAG_subroutine_type ]
!502 = metadata !{metadata !472, metadata !396, metadata !216}
!503 = metadata !{i32 786478, i32 0, metadata !380, metadata !"operator=", metadata !"operator=", metadata !"_ZN11ap_int_baseILi33ELb1ELb1EEaSEy", metadata !142, i32 1672, metadata !504, i1 false, i1 false, i32 0, i32 0, null, i32 256, i1 false, null, null, i32 0, metadata !154, i32 1672} ; [ DW_TAG_subprogram ]
!504 = metadata !{i32 786453, i32 0, metadata !"", i32 0, i32 0, i64 0, i64 0, i64 0, i32 0, null, metadata !505, i32 0, i32 0} ; [ DW_TAG_subroutine_type ]
!505 = metadata !{metadata !472, metadata !396, metadata !221}
!506 = metadata !{i32 786478, i32 0, metadata !380, metadata !"operator long long", metadata !"operator long long", metadata !"_ZNK11ap_int_baseILi33ELb1ELb1EEcvxEv", metadata !142, i32 1710, metadata !507, i1 false, i1 false, i32 0, i32 0, null, i32 256, i1 false, null, null, i32 0, metadata !154, i32 1710} ; [ DW_TAG_subprogram ]
!507 = metadata !{i32 786453, i32 0, metadata !"", i32 0, i32 0, i64 0, i64 0, i64 0, i32 0, null, metadata !508, i32 0, i32 0} ; [ DW_TAG_subroutine_type ]
!508 = metadata !{metadata !509, metadata !514}
!509 = metadata !{i32 786454, metadata !380, metadata !"RetType", metadata !142, i32 1458, i64 0, i64 0, i64 0, i32 0, metadata !510} ; [ DW_TAG_typedef ]
!510 = metadata !{i32 786454, metadata !511, metadata !"Type", metadata !142, i32 1415, i64 0, i64 0, i64 0, i32 0, metadata !216} ; [ DW_TAG_typedef ]
!511 = metadata !{i32 786434, null, metadata !"retval<5, true>", metadata !142, i32 1414, i64 8, i64 8, i32 0, i32 0, null, metadata !299, i32 0, null, metadata !512} ; [ DW_TAG_class_type ]
!512 = metadata !{metadata !513, metadata !159}
!513 = metadata !{i32 786480, null, metadata !"_AP_N", metadata !158, i64 5, null, i32 0, i32 0} ; [ DW_TAG_template_value_parameter ]
!514 = metadata !{i32 786447, i32 0, metadata !"", i32 0, i32 0, i64 64, i64 64, i64 0, i32 64, metadata !401} ; [ DW_TAG_pointer_type ]
!515 = metadata !{i32 786478, i32 0, metadata !380, metadata !"to_bool", metadata !"to_bool", metadata !"_ZNK11ap_int_baseILi33ELb1ELb1EE7to_boolEv", metadata !142, i32 1716, metadata !516, i1 false, i1 false, i32 0, i32 0, null, i32 256, i1 false, null, null, i32 0, metadata !154, i32 1716} ; [ DW_TAG_subprogram ]
!516 = metadata !{i32 786453, i32 0, metadata !"", i32 0, i32 0, i64 0, i64 0, i64 0, i32 0, null, metadata !517, i32 0, i32 0} ; [ DW_TAG_subroutine_type ]
!517 = metadata !{metadata !160, metadata !514}
!518 = metadata !{i32 786478, i32 0, metadata !380, metadata !"to_uchar", metadata !"to_uchar", metadata !"_ZNK11ap_int_baseILi33ELb1ELb1EE8to_ucharEv", metadata !142, i32 1717, metadata !519, i1 false, i1 false, i32 0, i32 0, null, i32 256, i1 false, null, null, i32 0, metadata !154, i32 1717} ; [ DW_TAG_subprogram ]
!519 = metadata !{i32 786453, i32 0, metadata !"", i32 0, i32 0, i64 0, i64 0, i64 0, i32 0, null, metadata !520, i32 0, i32 0} ; [ DW_TAG_subroutine_type ]
!520 = metadata !{metadata !189, metadata !514}
!521 = metadata !{i32 786478, i32 0, metadata !380, metadata !"to_char", metadata !"to_char", metadata !"_ZNK11ap_int_baseILi33ELb1ELb1EE7to_charEv", metadata !142, i32 1718, metadata !522, i1 false, i1 false, i32 0, i32 0, null, i32 256, i1 false, null, null, i32 0, metadata !154, i32 1718} ; [ DW_TAG_subprogram ]
!522 = metadata !{i32 786453, i32 0, metadata !"", i32 0, i32 0, i64 0, i64 0, i64 0, i32 0, null, metadata !523, i32 0, i32 0} ; [ DW_TAG_subroutine_type ]
!523 = metadata !{metadata !185, metadata !514}
!524 = metadata !{i32 786478, i32 0, metadata !380, metadata !"to_ushort", metadata !"to_ushort", metadata !"_ZNK11ap_int_baseILi33ELb1ELb1EE9to_ushortEv", metadata !142, i32 1719, metadata !525, i1 false, i1 false, i32 0, i32 0, null, i32 256, i1 false, null, null, i32 0, metadata !154, i32 1719} ; [ DW_TAG_subprogram ]
!525 = metadata !{i32 786453, i32 0, metadata !"", i32 0, i32 0, i64 0, i64 0, i64 0, i32 0, null, metadata !526, i32 0, i32 0} ; [ DW_TAG_subroutine_type ]
!526 = metadata !{metadata !197, metadata !514}
!527 = metadata !{i32 786478, i32 0, metadata !380, metadata !"to_short", metadata !"to_short", metadata !"_ZNK11ap_int_baseILi33ELb1ELb1EE8to_shortEv", metadata !142, i32 1720, metadata !528, i1 false, i1 false, i32 0, i32 0, null, i32 256, i1 false, null, null, i32 0, metadata !154, i32 1720} ; [ DW_TAG_subprogram ]
!528 = metadata !{i32 786453, i32 0, metadata !"", i32 0, i32 0, i64 0, i64 0, i64 0, i32 0, null, metadata !529, i32 0, i32 0} ; [ DW_TAG_subroutine_type ]
!529 = metadata !{metadata !193, metadata !514}
!530 = metadata !{i32 786478, i32 0, metadata !380, metadata !"to_int", metadata !"to_int", metadata !"_ZNK11ap_int_baseILi33ELb1ELb1EE6to_intEv", metadata !142, i32 1721, metadata !531, i1 false, i1 false, i32 0, i32 0, null, i32 256, i1 false, null, null, i32 0, metadata !154, i32 1721} ; [ DW_TAG_subprogram ]
!531 = metadata !{i32 786453, i32 0, metadata !"", i32 0, i32 0, i64 0, i64 0, i64 0, i32 0, null, metadata !532, i32 0, i32 0} ; [ DW_TAG_subroutine_type ]
!532 = metadata !{metadata !158, metadata !514}
!533 = metadata !{i32 786478, i32 0, metadata !380, metadata !"to_uint", metadata !"to_uint", metadata !"_ZNK11ap_int_baseILi33ELb1ELb1EE7to_uintEv", metadata !142, i32 1722, metadata !534, i1 false, i1 false, i32 0, i32 0, null, i32 256, i1 false, null, null, i32 0, metadata !154, i32 1722} ; [ DW_TAG_subprogram ]
!534 = metadata !{i32 786453, i32 0, metadata !"", i32 0, i32 0, i64 0, i64 0, i64 0, i32 0, null, metadata !535, i32 0, i32 0} ; [ DW_TAG_subroutine_type ]
!535 = metadata !{metadata !204, metadata !514}
!536 = metadata !{i32 786478, i32 0, metadata !380, metadata !"to_long", metadata !"to_long", metadata !"_ZNK11ap_int_baseILi33ELb1ELb1EE7to_longEv", metadata !142, i32 1723, metadata !537, i1 false, i1 false, i32 0, i32 0, null, i32 256, i1 false, null, null, i32 0, metadata !154, i32 1723} ; [ DW_TAG_subprogram ]
!537 = metadata !{i32 786453, i32 0, metadata !"", i32 0, i32 0, i64 0, i64 0, i64 0, i32 0, null, metadata !538, i32 0, i32 0} ; [ DW_TAG_subroutine_type ]
!538 = metadata !{metadata !208, metadata !514}
!539 = metadata !{i32 786478, i32 0, metadata !380, metadata !"to_ulong", metadata !"to_ulong", metadata !"_ZNK11ap_int_baseILi33ELb1ELb1EE8to_ulongEv", metadata !142, i32 1724, metadata !540, i1 false, i1 false, i32 0, i32 0, null, i32 256, i1 false, null, null, i32 0, metadata !154, i32 1724} ; [ DW_TAG_subprogram ]
!540 = metadata !{i32 786453, i32 0, metadata !"", i32 0, i32 0, i64 0, i64 0, i64 0, i32 0, null, metadata !541, i32 0, i32 0} ; [ DW_TAG_subroutine_type ]
!541 = metadata !{metadata !212, metadata !514}
!542 = metadata !{i32 786478, i32 0, metadata !380, metadata !"to_int64", metadata !"to_int64", metadata !"_ZNK11ap_int_baseILi33ELb1ELb1EE8to_int64Ev", metadata !142, i32 1725, metadata !543, i1 false, i1 false, i32 0, i32 0, null, i32 256, i1 false, null, null, i32 0, metadata !154, i32 1725} ; [ DW_TAG_subprogram ]
!543 = metadata !{i32 786453, i32 0, metadata !"", i32 0, i32 0, i64 0, i64 0, i64 0, i32 0, null, metadata !544, i32 0, i32 0} ; [ DW_TAG_subroutine_type ]
!544 = metadata !{metadata !216, metadata !514}
!545 = metadata !{i32 786478, i32 0, metadata !380, metadata !"to_uint64", metadata !"to_uint64", metadata !"_ZNK11ap_int_baseILi33ELb1ELb1EE9to_uint64Ev", metadata !142, i32 1726, metadata !546, i1 false, i1 false, i32 0, i32 0, null, i32 256, i1 false, null, null, i32 0, metadata !154, i32 1726} ; [ DW_TAG_subprogram ]
!546 = metadata !{i32 786453, i32 0, metadata !"", i32 0, i32 0, i64 0, i64 0, i64 0, i32 0, null, metadata !547, i32 0, i32 0} ; [ DW_TAG_subroutine_type ]
!547 = metadata !{metadata !221, metadata !514}
!548 = metadata !{i32 786478, i32 0, metadata !380, metadata !"to_double", metadata !"to_double", metadata !"_ZNK11ap_int_baseILi33ELb1ELb1EE9to_doubleEv", metadata !142, i32 1727, metadata !549, i1 false, i1 false, i32 0, i32 0, null, i32 256, i1 false, null, null, i32 0, metadata !154, i32 1727} ; [ DW_TAG_subprogram ]
!549 = metadata !{i32 786453, i32 0, metadata !"", i32 0, i32 0, i64 0, i64 0, i64 0, i32 0, null, metadata !550, i32 0, i32 0} ; [ DW_TAG_subroutine_type ]
!550 = metadata !{metadata !235, metadata !514}
!551 = metadata !{i32 786478, i32 0, metadata !380, metadata !"length", metadata !"length", metadata !"_ZNK11ap_int_baseILi33ELb1ELb1EE6lengthEv", metadata !142, i32 1741, metadata !531, i1 false, i1 false, i32 0, i32 0, null, i32 256, i1 false, null, null, i32 0, metadata !154, i32 1741} ; [ DW_TAG_subprogram ]
!552 = metadata !{i32 786478, i32 0, metadata !380, metadata !"length", metadata !"length", metadata !"_ZNVK11ap_int_baseILi33ELb1ELb1EE6lengthEv", metadata !142, i32 1742, metadata !553, i1 false, i1 false, i32 0, i32 0, null, i32 256, i1 false, null, null, i32 0, metadata !154, i32 1742} ; [ DW_TAG_subprogram ]
!553 = metadata !{i32 786453, i32 0, metadata !"", i32 0, i32 0, i64 0, i64 0, i64 0, i32 0, null, metadata !554, i32 0, i32 0} ; [ DW_TAG_subroutine_type ]
!554 = metadata !{metadata !158, metadata !555}
!555 = metadata !{i32 786447, i32 0, metadata !"", i32 0, i32 0, i64 64, i64 64, i64 0, i32 64, metadata !408} ; [ DW_TAG_pointer_type ]
!556 = metadata !{i32 786478, i32 0, metadata !380, metadata !"reverse", metadata !"reverse", metadata !"_ZN11ap_int_baseILi33ELb1ELb1EE7reverseEv", metadata !142, i32 1747, metadata !557, i1 false, i1 false, i32 0, i32 0, null, i32 256, i1 false, null, null, i32 0, metadata !154, i32 1747} ; [ DW_TAG_subprogram ]
!557 = metadata !{i32 786453, i32 0, metadata !"", i32 0, i32 0, i64 0, i64 0, i64 0, i32 0, null, metadata !558, i32 0, i32 0} ; [ DW_TAG_subroutine_type ]
!558 = metadata !{metadata !472, metadata !396}
!559 = metadata !{i32 786478, i32 0, metadata !380, metadata !"iszero", metadata !"iszero", metadata !"_ZNK11ap_int_baseILi33ELb1ELb1EE6iszeroEv", metadata !142, i32 1753, metadata !516, i1 false, i1 false, i32 0, i32 0, null, i32 256, i1 false, null, null, i32 0, metadata !154, i32 1753} ; [ DW_TAG_subprogram ]
!560 = metadata !{i32 786478, i32 0, metadata !380, metadata !"is_zero", metadata !"is_zero", metadata !"_ZNK11ap_int_baseILi33ELb1ELb1EE7is_zeroEv", metadata !142, i32 1758, metadata !516, i1 false, i1 false, i32 0, i32 0, null, i32 256, i1 false, null, null, i32 0, metadata !154, i32 1758} ; [ DW_TAG_subprogram ]
!561 = metadata !{i32 786478, i32 0, metadata !380, metadata !"sign", metadata !"sign", metadata !"_ZNK11ap_int_baseILi33ELb1ELb1EE4signEv", metadata !142, i32 1763, metadata !516, i1 false, i1 false, i32 0, i32 0, null, i32 256, i1 false, null, null, i32 0, metadata !154, i32 1763} ; [ DW_TAG_subprogram ]
!562 = metadata !{i32 786478, i32 0, metadata !380, metadata !"clear", metadata !"clear", metadata !"_ZN11ap_int_baseILi33ELb1ELb1EE5clearEi", metadata !142, i32 1771, metadata !426, i1 false, i1 false, i32 0, i32 0, null, i32 256, i1 false, null, null, i32 0, metadata !154, i32 1771} ; [ DW_TAG_subprogram ]
!563 = metadata !{i32 786478, i32 0, metadata !380, metadata !"invert", metadata !"invert", metadata !"_ZN11ap_int_baseILi33ELb1ELb1EE6invertEi", metadata !142, i32 1777, metadata !426, i1 false, i1 false, i32 0, i32 0, null, i32 256, i1 false, null, null, i32 0, metadata !154, i32 1777} ; [ DW_TAG_subprogram ]
!564 = metadata !{i32 786478, i32 0, metadata !380, metadata !"test", metadata !"test", metadata !"_ZNK11ap_int_baseILi33ELb1ELb1EE4testEi", metadata !142, i32 1785, metadata !565, i1 false, i1 false, i32 0, i32 0, null, i32 256, i1 false, null, null, i32 0, metadata !154, i32 1785} ; [ DW_TAG_subprogram ]
!565 = metadata !{i32 786453, i32 0, metadata !"", i32 0, i32 0, i64 0, i64 0, i64 0, i32 0, null, metadata !566, i32 0, i32 0} ; [ DW_TAG_subroutine_type ]
!566 = metadata !{metadata !160, metadata !514, metadata !158}
!567 = metadata !{i32 786478, i32 0, metadata !380, metadata !"set", metadata !"set", metadata !"_ZN11ap_int_baseILi33ELb1ELb1EE3setEi", metadata !142, i32 1791, metadata !426, i1 false, i1 false, i32 0, i32 0, null, i32 256, i1 false, null, null, i32 0, metadata !154, i32 1791} ; [ DW_TAG_subprogram ]
!568 = metadata !{i32 786478, i32 0, metadata !380, metadata !"set", metadata !"set", metadata !"_ZN11ap_int_baseILi33ELb1ELb1EE3setEib", metadata !142, i32 1797, metadata !569, i1 false, i1 false, i32 0, i32 0, null, i32 256, i1 false, null, null, i32 0, metadata !154, i32 1797} ; [ DW_TAG_subprogram ]
!569 = metadata !{i32 786453, i32 0, metadata !"", i32 0, i32 0, i64 0, i64 0, i64 0, i32 0, null, metadata !570, i32 0, i32 0} ; [ DW_TAG_subroutine_type ]
!570 = metadata !{null, metadata !396, metadata !158, metadata !160}
!571 = metadata !{i32 786478, i32 0, metadata !380, metadata !"lrotate", metadata !"lrotate", metadata !"_ZN11ap_int_baseILi33ELb1ELb1EE7lrotateEi", metadata !142, i32 1804, metadata !426, i1 false, i1 false, i32 0, i32 0, null, i32 256, i1 false, null, null, i32 0, metadata !154, i32 1804} ; [ DW_TAG_subprogram ]
!572 = metadata !{i32 786478, i32 0, metadata !380, metadata !"rrotate", metadata !"rrotate", metadata !"_ZN11ap_int_baseILi33ELb1ELb1EE7rrotateEi", metadata !142, i32 1813, metadata !426, i1 false, i1 false, i32 0, i32 0, null, i32 256, i1 false, null, null, i32 0, metadata !154, i32 1813} ; [ DW_TAG_subprogram ]
!573 = metadata !{i32 786478, i32 0, metadata !380, metadata !"set_bit", metadata !"set_bit", metadata !"_ZN11ap_int_baseILi33ELb1ELb1EE7set_bitEib", metadata !142, i32 1821, metadata !569, i1 false, i1 false, i32 0, i32 0, null, i32 256, i1 false, null, null, i32 0, metadata !154, i32 1821} ; [ DW_TAG_subprogram ]
!574 = metadata !{i32 786478, i32 0, metadata !380, metadata !"get_bit", metadata !"get_bit", metadata !"_ZNK11ap_int_baseILi33ELb1ELb1EE7get_bitEi", metadata !142, i32 1826, metadata !565, i1 false, i1 false, i32 0, i32 0, null, i32 256, i1 false, null, null, i32 0, metadata !154, i32 1826} ; [ DW_TAG_subprogram ]
!575 = metadata !{i32 786478, i32 0, metadata !380, metadata !"b_not", metadata !"b_not", metadata !"_ZN11ap_int_baseILi33ELb1ELb1EE5b_notEv", metadata !142, i32 1831, metadata !394, i1 false, i1 false, i32 0, i32 0, null, i32 256, i1 false, null, null, i32 0, metadata !154, i32 1831} ; [ DW_TAG_subprogram ]
!576 = metadata !{i32 786478, i32 0, metadata !380, metadata !"countLeadingZeros", metadata !"countLeadingZeros", metadata !"_ZN11ap_int_baseILi33ELb1ELb1EE17countLeadingZerosEv", metadata !142, i32 1838, metadata !577, i1 false, i1 false, i32 0, i32 0, null, i32 256, i1 false, null, null, i32 0, metadata !154, i32 1838} ; [ DW_TAG_subprogram ]
!577 = metadata !{i32 786453, i32 0, metadata !"", i32 0, i32 0, i64 0, i64 0, i64 0, i32 0, null, metadata !578, i32 0, i32 0} ; [ DW_TAG_subroutine_type ]
!578 = metadata !{metadata !158, metadata !396}
!579 = metadata !{i32 786478, i32 0, metadata !380, metadata !"operator++", metadata !"operator++", metadata !"_ZN11ap_int_baseILi33ELb1ELb1EEppEv", metadata !142, i32 1895, metadata !557, i1 false, i1 false, i32 0, i32 0, null, i32 256, i1 false, null, null, i32 0, metadata !154, i32 1895} ; [ DW_TAG_subprogram ]
!580 = metadata !{i32 786478, i32 0, metadata !380, metadata !"operator--", metadata !"operator--", metadata !"_ZN11ap_int_baseILi33ELb1ELb1EEmmEv", metadata !142, i32 1899, metadata !557, i1 false, i1 false, i32 0, i32 0, null, i32 256, i1 false, null, null, i32 0, metadata !154, i32 1899} ; [ DW_TAG_subprogram ]
!581 = metadata !{i32 786478, i32 0, metadata !380, metadata !"operator++", metadata !"operator++", metadata !"_ZN11ap_int_baseILi33ELb1ELb1EEppEi", metadata !142, i32 1907, metadata !582, i1 false, i1 false, i32 0, i32 0, null, i32 256, i1 false, null, null, i32 0, metadata !154, i32 1907} ; [ DW_TAG_subprogram ]
!582 = metadata !{i32 786453, i32 0, metadata !"", i32 0, i32 0, i64 0, i64 0, i64 0, i32 0, null, metadata !583, i32 0, i32 0} ; [ DW_TAG_subroutine_type ]
!583 = metadata !{metadata !401, metadata !396, metadata !158}
!584 = metadata !{i32 786478, i32 0, metadata !380, metadata !"operator--", metadata !"operator--", metadata !"_ZN11ap_int_baseILi33ELb1ELb1EEmmEi", metadata !142, i32 1912, metadata !582, i1 false, i1 false, i32 0, i32 0, null, i32 256, i1 false, null, null, i32 0, metadata !154, i32 1912} ; [ DW_TAG_subprogram ]
!585 = metadata !{i32 786478, i32 0, metadata !380, metadata !"operator+", metadata !"operator+", metadata !"_ZNK11ap_int_baseILi33ELb1ELb1EEpsEv", metadata !142, i32 1921, metadata !586, i1 false, i1 false, i32 0, i32 0, null, i32 256, i1 false, null, null, i32 0, metadata !154, i32 1921} ; [ DW_TAG_subprogram ]
!586 = metadata !{i32 786453, i32 0, metadata !"", i32 0, i32 0, i64 0, i64 0, i64 0, i32 0, null, metadata !587, i32 0, i32 0} ; [ DW_TAG_subroutine_type ]
!587 = metadata !{metadata !380, metadata !514}
!588 = metadata !{i32 786478, i32 0, metadata !380, metadata !"operator!", metadata !"operator!", metadata !"_ZNK11ap_int_baseILi33ELb1ELb1EEntEv", metadata !142, i32 1927, metadata !516, i1 false, i1 false, i32 0, i32 0, null, i32 256, i1 false, null, null, i32 0, metadata !154, i32 1927} ; [ DW_TAG_subprogram ]
!589 = metadata !{i32 786478, i32 0, metadata !380, metadata !"operator-", metadata !"operator-", metadata !"_ZNK11ap_int_baseILi33ELb1ELb1EEngEv", metadata !142, i32 1932, metadata !590, i1 false, i1 false, i32 0, i32 0, null, i32 256, i1 false, null, null, i32 0, metadata !154, i32 1932} ; [ DW_TAG_subprogram ]
!590 = metadata !{i32 786453, i32 0, metadata !"", i32 0, i32 0, i64 0, i64 0, i64 0, i32 0, null, metadata !591, i32 0, i32 0} ; [ DW_TAG_subroutine_type ]
!591 = metadata !{metadata !592, metadata !514}
!592 = metadata !{i32 786434, null, metadata !"ap_int_base<34, true, true>", metadata !142, i32 651, i32 0, i32 0, i32 0, i32 4, null, null, i32 0} ; [ DW_TAG_class_type ]
!593 = metadata !{i32 786478, i32 0, metadata !380, metadata !"range", metadata !"range", metadata !"_ZN11ap_int_baseILi33ELb1ELb1EE5rangeEii", metadata !142, i32 2062, metadata !594, i1 false, i1 false, i32 0, i32 0, null, i32 256, i1 false, null, null, i32 0, metadata !154, i32 2062} ; [ DW_TAG_subprogram ]
!594 = metadata !{i32 786453, i32 0, metadata !"", i32 0, i32 0, i64 0, i64 0, i64 0, i32 0, null, metadata !595, i32 0, i32 0} ; [ DW_TAG_subroutine_type ]
!595 = metadata !{metadata !596, metadata !396, metadata !158, metadata !158}
!596 = metadata !{i32 786434, null, metadata !"ap_range_ref<33, true>", metadata !142, i32 925, i32 0, i32 0, i32 0, i32 4, null, null, i32 0} ; [ DW_TAG_class_type ]
!597 = metadata !{i32 786478, i32 0, metadata !380, metadata !"operator()", metadata !"operator()", metadata !"_ZN11ap_int_baseILi33ELb1ELb1EEclEii", metadata !142, i32 2068, metadata !594, i1 false, i1 false, i32 0, i32 0, null, i32 256, i1 false, null, null, i32 0, metadata !154, i32 2068} ; [ DW_TAG_subprogram ]
!598 = metadata !{i32 786478, i32 0, metadata !380, metadata !"range", metadata !"range", metadata !"_ZNK11ap_int_baseILi33ELb1ELb1EE5rangeEii", metadata !142, i32 2074, metadata !599, i1 false, i1 false, i32 0, i32 0, null, i32 256, i1 false, null, null, i32 0, metadata !154, i32 2074} ; [ DW_TAG_subprogram ]
!599 = metadata !{i32 786453, i32 0, metadata !"", i32 0, i32 0, i64 0, i64 0, i64 0, i32 0, null, metadata !600, i32 0, i32 0} ; [ DW_TAG_subroutine_type ]
!600 = metadata !{metadata !596, metadata !514, metadata !158, metadata !158}
!601 = metadata !{i32 786478, i32 0, metadata !380, metadata !"operator()", metadata !"operator()", metadata !"_ZNK11ap_int_baseILi33ELb1ELb1EEclEii", metadata !142, i32 2080, metadata !599, i1 false, i1 false, i32 0, i32 0, null, i32 256, i1 false, null, null, i32 0, metadata !154, i32 2080} ; [ DW_TAG_subprogram ]
!602 = metadata !{i32 786478, i32 0, metadata !380, metadata !"operator[]", metadata !"operator[]", metadata !"_ZN11ap_int_baseILi33ELb1ELb1EEixEi", metadata !142, i32 2099, metadata !603, i1 false, i1 false, i32 0, i32 0, null, i32 256, i1 false, null, null, i32 0, metadata !154, i32 2099} ; [ DW_TAG_subprogram ]
!603 = metadata !{i32 786453, i32 0, metadata !"", i32 0, i32 0, i64 0, i64 0, i64 0, i32 0, null, metadata !604, i32 0, i32 0} ; [ DW_TAG_subroutine_type ]
!604 = metadata !{metadata !605, metadata !396, metadata !158}
!605 = metadata !{i32 786434, null, metadata !"ap_bit_ref<33, true>", metadata !142, i32 1249, i64 128, i64 64, i32 0, i32 0, null, metadata !606, i32 0, null, metadata !639} ; [ DW_TAG_class_type ]
!606 = metadata !{metadata !607, metadata !608, metadata !609, metadata !615, metadata !619, metadata !623, metadata !624, metadata !628, metadata !631, metadata !632, metadata !635, metadata !636}
!607 = metadata !{i32 786445, metadata !605, metadata !"d_bv", metadata !142, i32 1250, i64 64, i64 64, i64 0, i32 0, metadata !472} ; [ DW_TAG_member ]
!608 = metadata !{i32 786445, metadata !605, metadata !"d_index", metadata !142, i32 1251, i64 32, i64 32, i64 64, i32 0, metadata !158} ; [ DW_TAG_member ]
!609 = metadata !{i32 786478, i32 0, metadata !605, metadata !"ap_bit_ref", metadata !"ap_bit_ref", metadata !"", metadata !142, i32 1254, metadata !610, i1 false, i1 false, i32 0, i32 0, null, i32 256, i1 false, null, null, i32 0, metadata !154, i32 1254} ; [ DW_TAG_subprogram ]
!610 = metadata !{i32 786453, i32 0, metadata !"", i32 0, i32 0, i64 0, i64 0, i64 0, i32 0, null, metadata !611, i32 0, i32 0} ; [ DW_TAG_subroutine_type ]
!611 = metadata !{null, metadata !612, metadata !613}
!612 = metadata !{i32 786447, i32 0, metadata !"", i32 0, i32 0, i64 64, i64 64, i64 0, i32 64, metadata !605} ; [ DW_TAG_pointer_type ]
!613 = metadata !{i32 786448, null, null, null, i32 0, i64 0, i64 0, i64 0, i32 0, metadata !614} ; [ DW_TAG_reference_type ]
!614 = metadata !{i32 786470, null, metadata !"", null, i32 0, i64 0, i64 0, i64 0, i32 0, metadata !605} ; [ DW_TAG_const_type ]
!615 = metadata !{i32 786478, i32 0, metadata !605, metadata !"ap_bit_ref", metadata !"ap_bit_ref", metadata !"", metadata !142, i32 1257, metadata !616, i1 false, i1 false, i32 0, i32 0, null, i32 256, i1 false, null, null, i32 0, metadata !154, i32 1257} ; [ DW_TAG_subprogram ]
!616 = metadata !{i32 786453, i32 0, metadata !"", i32 0, i32 0, i64 0, i64 0, i64 0, i32 0, null, metadata !617, i32 0, i32 0} ; [ DW_TAG_subroutine_type ]
!617 = metadata !{null, metadata !612, metadata !618, metadata !158}
!618 = metadata !{i32 786447, null, metadata !"", null, i32 0, i64 64, i64 64, i64 0, i32 0, metadata !380} ; [ DW_TAG_pointer_type ]
!619 = metadata !{i32 786478, i32 0, metadata !605, metadata !"operator _Bool", metadata !"operator _Bool", metadata !"_ZNK10ap_bit_refILi33ELb1EEcvbEv", metadata !142, i32 1259, metadata !620, i1 false, i1 false, i32 0, i32 0, null, i32 256, i1 false, null, null, i32 0, metadata !154, i32 1259} ; [ DW_TAG_subprogram ]
!620 = metadata !{i32 786453, i32 0, metadata !"", i32 0, i32 0, i64 0, i64 0, i64 0, i32 0, null, metadata !621, i32 0, i32 0} ; [ DW_TAG_subroutine_type ]
!621 = metadata !{metadata !160, metadata !622}
!622 = metadata !{i32 786447, i32 0, metadata !"", i32 0, i32 0, i64 64, i64 64, i64 0, i32 64, metadata !614} ; [ DW_TAG_pointer_type ]
!623 = metadata !{i32 786478, i32 0, metadata !605, metadata !"to_bool", metadata !"to_bool", metadata !"_ZNK10ap_bit_refILi33ELb1EE7to_boolEv", metadata !142, i32 1260, metadata !620, i1 false, i1 false, i32 0, i32 0, null, i32 256, i1 false, null, null, i32 0, metadata !154, i32 1260} ; [ DW_TAG_subprogram ]
!624 = metadata !{i32 786478, i32 0, metadata !605, metadata !"operator=", metadata !"operator=", metadata !"_ZN10ap_bit_refILi33ELb1EEaSEy", metadata !142, i32 1262, metadata !625, i1 false, i1 false, i32 0, i32 0, null, i32 256, i1 false, null, null, i32 0, metadata !154, i32 1262} ; [ DW_TAG_subprogram ]
!625 = metadata !{i32 786453, i32 0, metadata !"", i32 0, i32 0, i64 0, i64 0, i64 0, i32 0, null, metadata !626, i32 0, i32 0} ; [ DW_TAG_subroutine_type ]
!626 = metadata !{metadata !627, metadata !612, metadata !222}
!627 = metadata !{i32 786448, null, null, null, i32 0, i64 0, i64 0, i64 0, i32 0, metadata !605} ; [ DW_TAG_reference_type ]
!628 = metadata !{i32 786478, i32 0, metadata !605, metadata !"operator=", metadata !"operator=", metadata !"_ZN10ap_bit_refILi33ELb1EEaSERKS0_", metadata !142, i32 1282, metadata !629, i1 false, i1 false, i32 0, i32 0, null, i32 256, i1 false, null, null, i32 0, metadata !154, i32 1282} ; [ DW_TAG_subprogram ]
!629 = metadata !{i32 786453, i32 0, metadata !"", i32 0, i32 0, i64 0, i64 0, i64 0, i32 0, null, metadata !630, i32 0, i32 0} ; [ DW_TAG_subroutine_type ]
!630 = metadata !{metadata !627, metadata !612, metadata !613}
!631 = metadata !{i32 786478, i32 0, metadata !605, metadata !"get", metadata !"get", metadata !"_ZNK10ap_bit_refILi33ELb1EE3getEv", metadata !142, i32 1390, metadata !620, i1 false, i1 false, i32 0, i32 0, null, i32 256, i1 false, null, null, i32 0, metadata !154, i32 1390} ; [ DW_TAG_subprogram ]
!632 = metadata !{i32 786478, i32 0, metadata !605, metadata !"get", metadata !"get", metadata !"_ZN10ap_bit_refILi33ELb1EE3getEv", metadata !142, i32 1394, metadata !633, i1 false, i1 false, i32 0, i32 0, null, i32 256, i1 false, null, null, i32 0, metadata !154, i32 1394} ; [ DW_TAG_subprogram ]
!633 = metadata !{i32 786453, i32 0, metadata !"", i32 0, i32 0, i64 0, i64 0, i64 0, i32 0, null, metadata !634, i32 0, i32 0} ; [ DW_TAG_subroutine_type ]
!634 = metadata !{metadata !160, metadata !612}
!635 = metadata !{i32 786478, i32 0, metadata !605, metadata !"operator~", metadata !"operator~", metadata !"_ZNK10ap_bit_refILi33ELb1EEcoEv", metadata !142, i32 1403, metadata !620, i1 false, i1 false, i32 0, i32 0, null, i32 256, i1 false, null, null, i32 0, metadata !154, i32 1403} ; [ DW_TAG_subprogram ]
!636 = metadata !{i32 786478, i32 0, metadata !605, metadata !"length", metadata !"length", metadata !"_ZNK10ap_bit_refILi33ELb1EE6lengthEv", metadata !142, i32 1408, metadata !637, i1 false, i1 false, i32 0, i32 0, null, i32 256, i1 false, null, null, i32 0, metadata !154, i32 1408} ; [ DW_TAG_subprogram ]
!637 = metadata !{i32 786453, i32 0, metadata !"", i32 0, i32 0, i64 0, i64 0, i64 0, i32 0, null, metadata !638, i32 0, i32 0} ; [ DW_TAG_subroutine_type ]
!638 = metadata !{metadata !158, metadata !622}
!639 = metadata !{metadata !640, metadata !159}
!640 = metadata !{i32 786480, null, metadata !"_AP_W", metadata !158, i64 33, null, i32 0, i32 0} ; [ DW_TAG_template_value_parameter ]
!641 = metadata !{i32 786478, i32 0, metadata !380, metadata !"operator[]", metadata !"operator[]", metadata !"_ZNK11ap_int_baseILi33ELb1ELb1EEixEi", metadata !142, i32 2113, metadata !565, i1 false, i1 false, i32 0, i32 0, null, i32 256, i1 false, null, null, i32 0, metadata !154, i32 2113} ; [ DW_TAG_subprogram ]
!642 = metadata !{i32 786478, i32 0, metadata !380, metadata !"bit", metadata !"bit", metadata !"_ZN11ap_int_baseILi33ELb1ELb1EE3bitEi", metadata !142, i32 2127, metadata !603, i1 false, i1 false, i32 0, i32 0, null, i32 256, i1 false, null, null, i32 0, metadata !154, i32 2127} ; [ DW_TAG_subprogram ]
!643 = metadata !{i32 786478, i32 0, metadata !380, metadata !"bit", metadata !"bit", metadata !"_ZNK11ap_int_baseILi33ELb1ELb1EE3bitEi", metadata !142, i32 2141, metadata !565, i1 false, i1 false, i32 0, i32 0, null, i32 256, i1 false, null, null, i32 0, metadata !154, i32 2141} ; [ DW_TAG_subprogram ]
!644 = metadata !{i32 786478, i32 0, metadata !380, metadata !"and_reduce", metadata !"and_reduce", metadata !"_ZN11ap_int_baseILi33ELb1ELb1EE10and_reduceEv", metadata !142, i32 2321, metadata !645, i1 false, i1 false, i32 0, i32 0, null, i32 256, i1 false, null, null, i32 0, metadata !154, i32 2321} ; [ DW_TAG_subprogram ]
!645 = metadata !{i32 786453, i32 0, metadata !"", i32 0, i32 0, i64 0, i64 0, i64 0, i32 0, null, metadata !646, i32 0, i32 0} ; [ DW_TAG_subroutine_type ]
!646 = metadata !{metadata !160, metadata !396}
!647 = metadata !{i32 786478, i32 0, metadata !380, metadata !"nand_reduce", metadata !"nand_reduce", metadata !"_ZN11ap_int_baseILi33ELb1ELb1EE11nand_reduceEv", metadata !142, i32 2324, metadata !645, i1 false, i1 false, i32 0, i32 0, null, i32 256, i1 false, null, null, i32 0, metadata !154, i32 2324} ; [ DW_TAG_subprogram ]
!648 = metadata !{i32 786478, i32 0, metadata !380, metadata !"or_reduce", metadata !"or_reduce", metadata !"_ZN11ap_int_baseILi33ELb1ELb1EE9or_reduceEv", metadata !142, i32 2327, metadata !645, i1 false, i1 false, i32 0, i32 0, null, i32 256, i1 false, null, null, i32 0, metadata !154, i32 2327} ; [ DW_TAG_subprogram ]
!649 = metadata !{i32 786478, i32 0, metadata !380, metadata !"nor_reduce", metadata !"nor_reduce", metadata !"_ZN11ap_int_baseILi33ELb1ELb1EE10nor_reduceEv", metadata !142, i32 2330, metadata !645, i1 false, i1 false, i32 0, i32 0, null, i32 256, i1 false, null, null, i32 0, metadata !154, i32 2330} ; [ DW_TAG_subprogram ]
!650 = metadata !{i32 786478, i32 0, metadata !380, metadata !"xor_reduce", metadata !"xor_reduce", metadata !"_ZN11ap_int_baseILi33ELb1ELb1EE10xor_reduceEv", metadata !142, i32 2333, metadata !645, i1 false, i1 false, i32 0, i32 0, null, i32 256, i1 false, null, null, i32 0, metadata !154, i32 2333} ; [ DW_TAG_subprogram ]
!651 = metadata !{i32 786478, i32 0, metadata !380, metadata !"xnor_reduce", metadata !"xnor_reduce", metadata !"_ZN11ap_int_baseILi33ELb1ELb1EE11xnor_reduceEv", metadata !142, i32 2336, metadata !645, i1 false, i1 false, i32 0, i32 0, null, i32 256, i1 false, null, null, i32 0, metadata !154, i32 2336} ; [ DW_TAG_subprogram ]
!652 = metadata !{i32 786478, i32 0, metadata !380, metadata !"and_reduce", metadata !"and_reduce", metadata !"_ZNK11ap_int_baseILi33ELb1ELb1EE10and_reduceEv", metadata !142, i32 2340, metadata !516, i1 false, i1 false, i32 0, i32 0, null, i32 256, i1 false, null, null, i32 0, metadata !154, i32 2340} ; [ DW_TAG_subprogram ]
!653 = metadata !{i32 786478, i32 0, metadata !380, metadata !"nand_reduce", metadata !"nand_reduce", metadata !"_ZNK11ap_int_baseILi33ELb1ELb1EE11nand_reduceEv", metadata !142, i32 2343, metadata !516, i1 false, i1 false, i32 0, i32 0, null, i32 256, i1 false, null, null, i32 0, metadata !154, i32 2343} ; [ DW_TAG_subprogram ]
!654 = metadata !{i32 786478, i32 0, metadata !380, metadata !"or_reduce", metadata !"or_reduce", metadata !"_ZNK11ap_int_baseILi33ELb1ELb1EE9or_reduceEv", metadata !142, i32 2346, metadata !516, i1 false, i1 false, i32 0, i32 0, null, i32 256, i1 false, null, null, i32 0, metadata !154, i32 2346} ; [ DW_TAG_subprogram ]
!655 = metadata !{i32 786478, i32 0, metadata !380, metadata !"nor_reduce", metadata !"nor_reduce", metadata !"_ZNK11ap_int_baseILi33ELb1ELb1EE10nor_reduceEv", metadata !142, i32 2349, metadata !516, i1 false, i1 false, i32 0, i32 0, null, i32 256, i1 false, null, null, i32 0, metadata !154, i32 2349} ; [ DW_TAG_subprogram ]
!656 = metadata !{i32 786478, i32 0, metadata !380, metadata !"xor_reduce", metadata !"xor_reduce", metadata !"_ZNK11ap_int_baseILi33ELb1ELb1EE10xor_reduceEv", metadata !142, i32 2352, metadata !516, i1 false, i1 false, i32 0, i32 0, null, i32 256, i1 false, null, null, i32 0, metadata !154, i32 2352} ; [ DW_TAG_subprogram ]
!657 = metadata !{i32 786478, i32 0, metadata !380, metadata !"xnor_reduce", metadata !"xnor_reduce", metadata !"_ZNK11ap_int_baseILi33ELb1ELb1EE11xnor_reduceEv", metadata !142, i32 2355, metadata !516, i1 false, i1 false, i32 0, i32 0, null, i32 256, i1 false, null, null, i32 0, metadata !154, i32 2355} ; [ DW_TAG_subprogram ]
!658 = metadata !{i32 786478, i32 0, metadata !380, metadata !"to_string", metadata !"to_string", metadata !"_ZNK11ap_int_baseILi33ELb1ELb1EE9to_stringEPci8BaseModeb", metadata !142, i32 2362, metadata !659, i1 false, i1 false, i32 0, i32 0, null, i32 256, i1 false, null, null, i32 0, metadata !154, i32 2362} ; [ DW_TAG_subprogram ]
!659 = metadata !{i32 786453, i32 0, metadata !"", i32 0, i32 0, i64 0, i64 0, i64 0, i32 0, null, metadata !660, i32 0, i32 0} ; [ DW_TAG_subroutine_type ]
!660 = metadata !{null, metadata !514, metadata !661, metadata !158, metadata !662, metadata !160}
!661 = metadata !{i32 786447, null, metadata !"", null, i32 0, i64 64, i64 64, i64 0, i32 0, metadata !241} ; [ DW_TAG_pointer_type ]
!662 = metadata !{i32 786436, null, metadata !"BaseMode", metadata !142, i32 603, i64 5, i64 8, i32 0, i32 0, null, metadata !663, i32 0, i32 0} ; [ DW_TAG_enumeration_type ]
!663 = metadata !{metadata !664, metadata !665, metadata !666, metadata !667}
!664 = metadata !{i32 786472, metadata !"SC_BIN", i64 2} ; [ DW_TAG_enumerator ]
!665 = metadata !{i32 786472, metadata !"SC_OCT", i64 8} ; [ DW_TAG_enumerator ]
!666 = metadata !{i32 786472, metadata !"SC_DEC", i64 10} ; [ DW_TAG_enumerator ]
!667 = metadata !{i32 786472, metadata !"SC_HEX", i64 16} ; [ DW_TAG_enumerator ]
!668 = metadata !{i32 786478, i32 0, metadata !380, metadata !"to_string", metadata !"to_string", metadata !"_ZNK11ap_int_baseILi33ELb1ELb1EE9to_stringE8BaseModeb", metadata !142, i32 2389, metadata !669, i1 false, i1 false, i32 0, i32 0, null, i32 256, i1 false, null, null, i32 0, metadata !154, i32 2389} ; [ DW_TAG_subprogram ]
!669 = metadata !{i32 786453, i32 0, metadata !"", i32 0, i32 0, i64 0, i64 0, i64 0, i32 0, null, metadata !670, i32 0, i32 0} ; [ DW_TAG_subroutine_type ]
!670 = metadata !{metadata !661, metadata !514, metadata !662, metadata !160}
!671 = metadata !{i32 786478, i32 0, metadata !380, metadata !"to_string", metadata !"to_string", metadata !"_ZNK11ap_int_baseILi33ELb1ELb1EE9to_stringEab", metadata !142, i32 2393, metadata !672, i1 false, i1 false, i32 0, i32 0, null, i32 256, i1 false, null, null, i32 0, metadata !154, i32 2393} ; [ DW_TAG_subprogram ]
!672 = metadata !{i32 786453, i32 0, metadata !"", i32 0, i32 0, i64 0, i64 0, i64 0, i32 0, null, metadata !673, i32 0, i32 0} ; [ DW_TAG_subroutine_type ]
!673 = metadata !{metadata !661, metadata !514, metadata !185, metadata !160}
!674 = metadata !{metadata !640, metadata !159, metadata !675}
!675 = metadata !{i32 786480, null, metadata !"_AP_C", metadata !160, i64 1, null, i32 0, i32 0} ; [ DW_TAG_template_value_parameter ]
!676 = metadata !{i32 786478, i32 0, metadata !141, metadata !"range", metadata !"range", metadata !"_ZN11ap_int_baseILi32ELb1ELb1EE5rangeEii", metadata !142, i32 2062, metadata !677, i1 false, i1 false, i32 0, i32 0, null, i32 256, i1 false, null, null, i32 0, metadata !154, i32 2062} ; [ DW_TAG_subprogram ]
!677 = metadata !{i32 786453, i32 0, metadata !"", i32 0, i32 0, i64 0, i64 0, i64 0, i32 0, null, metadata !678, i32 0, i32 0} ; [ DW_TAG_subroutine_type ]
!678 = metadata !{metadata !679, metadata !164, metadata !158, metadata !158}
!679 = metadata !{i32 786434, null, metadata !"ap_range_ref<32, true>", metadata !142, i32 925, i64 128, i64 64, i32 0, i32 0, null, metadata !680, i32 0, null, metadata !3252} ; [ DW_TAG_class_type ]
!680 = metadata !{metadata !681, metadata !682, metadata !683, metadata !684, metadata !690, metadata !694, metadata !999, metadata !1002, metadata !1006, metadata !1849, metadata !1852, metadata !3221, metadata !3225, metadata !3228, metadata !3229, metadata !3232, metadata !3235, metadata !3238, metadata !3241, metadata !3244, metadata !3247, metadata !3248, metadata !3249}
!681 = metadata !{i32 786445, metadata !679, metadata !"d_bv", metadata !142, i32 926, i64 64, i64 64, i64 0, i32 0, metadata !259} ; [ DW_TAG_member ]
!682 = metadata !{i32 786445, metadata !679, metadata !"l_index", metadata !142, i32 927, i64 32, i64 32, i64 64, i32 0, metadata !158} ; [ DW_TAG_member ]
!683 = metadata !{i32 786445, metadata !679, metadata !"h_index", metadata !142, i32 928, i64 32, i64 32, i64 96, i32 0, metadata !158} ; [ DW_TAG_member ]
!684 = metadata !{i32 786478, i32 0, metadata !679, metadata !"ap_range_ref", metadata !"ap_range_ref", metadata !"", metadata !142, i32 931, metadata !685, i1 false, i1 false, i32 0, i32 0, null, i32 256, i1 false, null, null, i32 0, metadata !154, i32 931} ; [ DW_TAG_subprogram ]
!685 = metadata !{i32 786453, i32 0, metadata !"", i32 0, i32 0, i64 0, i64 0, i64 0, i32 0, null, metadata !686, i32 0, i32 0} ; [ DW_TAG_subroutine_type ]
!686 = metadata !{null, metadata !687, metadata !688}
!687 = metadata !{i32 786447, i32 0, metadata !"", i32 0, i32 0, i64 64, i64 64, i64 0, i32 64, metadata !679} ; [ DW_TAG_pointer_type ]
!688 = metadata !{i32 786448, null, null, null, i32 0, i64 0, i64 0, i64 0, i32 0, metadata !689} ; [ DW_TAG_reference_type ]
!689 = metadata !{i32 786470, null, metadata !"", null, i32 0, i64 0, i64 0, i64 0, i32 0, metadata !679} ; [ DW_TAG_const_type ]
!690 = metadata !{i32 786478, i32 0, metadata !679, metadata !"ap_range_ref", metadata !"ap_range_ref", metadata !"", metadata !142, i32 934, metadata !691, i1 false, i1 false, i32 0, i32 0, null, i32 256, i1 false, null, null, i32 0, metadata !154, i32 934} ; [ DW_TAG_subprogram ]
!691 = metadata !{i32 786453, i32 0, metadata !"", i32 0, i32 0, i64 0, i64 0, i64 0, i32 0, null, metadata !692, i32 0, i32 0} ; [ DW_TAG_subroutine_type ]
!692 = metadata !{null, metadata !687, metadata !693, metadata !158, metadata !158}
!693 = metadata !{i32 786447, null, metadata !"", null, i32 0, i64 64, i64 64, i64 0, i32 0, metadata !141} ; [ DW_TAG_pointer_type ]
!694 = metadata !{i32 786478, i32 0, metadata !679, metadata !"operator ap_int_base", metadata !"operator ap_int_base", metadata !"_ZNK12ap_range_refILi32ELb1EEcv11ap_int_baseILi32ELb0ELb1EEEv", metadata !142, i32 939, metadata !695, i1 false, i1 false, i32 0, i32 0, null, i32 256, i1 false, null, null, i32 0, metadata !154, i32 939} ; [ DW_TAG_subprogram ]
!695 = metadata !{i32 786453, i32 0, metadata !"", i32 0, i32 0, i64 0, i64 0, i64 0, i32 0, null, metadata !696, i32 0, i32 0} ; [ DW_TAG_subroutine_type ]
!696 = metadata !{metadata !697, metadata !998}
!697 = metadata !{i32 786434, null, metadata !"ap_int_base<32, false, true>", metadata !142, i32 1453, i64 32, i64 32, i32 0, i32 0, null, metadata !698, i32 0, null, metadata !997} ; [ DW_TAG_class_type ]
!698 = metadata !{metadata !699, metadata !710, metadata !714, metadata !717, metadata !720, metadata !723, metadata !726, metadata !729, metadata !732, metadata !735, metadata !738, metadata !741, metadata !744, metadata !747, metadata !750, metadata !753, metadata !756, metadata !759, metadata !762, metadata !767, metadata !772, metadata !777, metadata !778, metadata !782, metadata !785, metadata !788, metadata !791, metadata !794, metadata !797, metadata !800, metadata !803, metadata !806, metadata !809, metadata !812, metadata !815, metadata !823, metadata !826, metadata !829, metadata !832, metadata !835, metadata !838, metadata !841, metadata !844, metadata !847, metadata !850, metadata !853, metadata !856, metadata !859, metadata !860, metadata !864, metadata !867, metadata !868, metadata !869, metadata !870, metadata !871, metadata !872, metadata !875, metadata !876, metadata !879, metadata !880, metadata !881, metadata !882, metadata !883, metadata !884, metadata !887, metadata !888, metadata !889, metadata !892, metadata !893, metadata !896, metadata !897, metadata !900, metadata !962, metadata !963, metadata !966, metadata !967, metadata !971, metadata !972, metadata !973, metadata !974, metadata !977, metadata !978, metadata !979, metadata !980, metadata !981, metadata !982, metadata !983, metadata !984, metadata !985, metadata !986, metadata !987, metadata !988, metadata !991, metadata !994}
!699 = metadata !{i32 786460, metadata !697, null, metadata !142, i32 0, i64 0, i64 0, i64 0, i32 0, metadata !700} ; [ DW_TAG_inheritance ]
!700 = metadata !{i32 786434, null, metadata !"ssdm_int<32 + 1024 * 0, false>", metadata !146, i32 34, i64 32, i64 32, i32 0, i32 0, null, metadata !701, i32 0, null, metadata !708} ; [ DW_TAG_class_type ]
!701 = metadata !{metadata !702, metadata !704}
!702 = metadata !{i32 786445, metadata !700, metadata !"V", metadata !146, i32 34, i64 32, i64 32, i64 0, i32 0, metadata !703} ; [ DW_TAG_member ]
!703 = metadata !{i32 786468, null, metadata !"uint32", null, i32 0, i64 32, i64 32, i64 0, i32 0, i32 7} ; [ DW_TAG_base_type ]
!704 = metadata !{i32 786478, i32 0, metadata !700, metadata !"ssdm_int", metadata !"ssdm_int", metadata !"", metadata !146, i32 34, metadata !705, i1 false, i1 false, i32 0, i32 0, null, i32 256, i1 false, null, null, i32 0, metadata !154, i32 34} ; [ DW_TAG_subprogram ]
!705 = metadata !{i32 786453, i32 0, metadata !"", i32 0, i32 0, i64 0, i64 0, i64 0, i32 0, null, metadata !706, i32 0, i32 0} ; [ DW_TAG_subroutine_type ]
!706 = metadata !{null, metadata !707}
!707 = metadata !{i32 786447, i32 0, metadata !"", i32 0, i32 0, i64 64, i64 64, i64 0, i32 64, metadata !700} ; [ DW_TAG_pointer_type ]
!708 = metadata !{metadata !157, metadata !709}
!709 = metadata !{i32 786480, null, metadata !"_AP_S", metadata !160, i64 0, null, i32 0, i32 0} ; [ DW_TAG_template_value_parameter ]
!710 = metadata !{i32 786478, i32 0, metadata !697, metadata !"ap_int_base", metadata !"ap_int_base", metadata !"", metadata !142, i32 1494, metadata !711, i1 false, i1 false, i32 0, i32 0, null, i32 256, i1 false, null, null, i32 0, metadata !154, i32 1494} ; [ DW_TAG_subprogram ]
!711 = metadata !{i32 786453, i32 0, metadata !"", i32 0, i32 0, i64 0, i64 0, i64 0, i32 0, null, metadata !712, i32 0, i32 0} ; [ DW_TAG_subroutine_type ]
!712 = metadata !{null, metadata !713}
!713 = metadata !{i32 786447, i32 0, metadata !"", i32 0, i32 0, i64 64, i64 64, i64 0, i32 64, metadata !697} ; [ DW_TAG_pointer_type ]
!714 = metadata !{i32 786478, i32 0, metadata !697, metadata !"ap_int_base", metadata !"ap_int_base", metadata !"", metadata !142, i32 1516, metadata !715, i1 false, i1 false, i32 0, i32 0, null, i32 384, i1 false, null, null, i32 0, metadata !154, i32 1516} ; [ DW_TAG_subprogram ]
!715 = metadata !{i32 786453, i32 0, metadata !"", i32 0, i32 0, i64 0, i64 0, i64 0, i32 0, null, metadata !716, i32 0, i32 0} ; [ DW_TAG_subroutine_type ]
!716 = metadata !{null, metadata !713, metadata !160}
!717 = metadata !{i32 786478, i32 0, metadata !697, metadata !"ap_int_base", metadata !"ap_int_base", metadata !"", metadata !142, i32 1517, metadata !718, i1 false, i1 false, i32 0, i32 0, null, i32 384, i1 false, null, null, i32 0, metadata !154, i32 1517} ; [ DW_TAG_subprogram ]
!718 = metadata !{i32 786453, i32 0, metadata !"", i32 0, i32 0, i64 0, i64 0, i64 0, i32 0, null, metadata !719, i32 0, i32 0} ; [ DW_TAG_subroutine_type ]
!719 = metadata !{null, metadata !713, metadata !185}
!720 = metadata !{i32 786478, i32 0, metadata !697, metadata !"ap_int_base", metadata !"ap_int_base", metadata !"", metadata !142, i32 1518, metadata !721, i1 false, i1 false, i32 0, i32 0, null, i32 384, i1 false, null, null, i32 0, metadata !154, i32 1518} ; [ DW_TAG_subprogram ]
!721 = metadata !{i32 786453, i32 0, metadata !"", i32 0, i32 0, i64 0, i64 0, i64 0, i32 0, null, metadata !722, i32 0, i32 0} ; [ DW_TAG_subroutine_type ]
!722 = metadata !{null, metadata !713, metadata !189}
!723 = metadata !{i32 786478, i32 0, metadata !697, metadata !"ap_int_base", metadata !"ap_int_base", metadata !"", metadata !142, i32 1519, metadata !724, i1 false, i1 false, i32 0, i32 0, null, i32 384, i1 false, null, null, i32 0, metadata !154, i32 1519} ; [ DW_TAG_subprogram ]
!724 = metadata !{i32 786453, i32 0, metadata !"", i32 0, i32 0, i64 0, i64 0, i64 0, i32 0, null, metadata !725, i32 0, i32 0} ; [ DW_TAG_subroutine_type ]
!725 = metadata !{null, metadata !713, metadata !193}
!726 = metadata !{i32 786478, i32 0, metadata !697, metadata !"ap_int_base", metadata !"ap_int_base", metadata !"", metadata !142, i32 1520, metadata !727, i1 false, i1 false, i32 0, i32 0, null, i32 384, i1 false, null, null, i32 0, metadata !154, i32 1520} ; [ DW_TAG_subprogram ]
!727 = metadata !{i32 786453, i32 0, metadata !"", i32 0, i32 0, i64 0, i64 0, i64 0, i32 0, null, metadata !728, i32 0, i32 0} ; [ DW_TAG_subroutine_type ]
!728 = metadata !{null, metadata !713, metadata !197}
!729 = metadata !{i32 786478, i32 0, metadata !697, metadata !"ap_int_base", metadata !"ap_int_base", metadata !"", metadata !142, i32 1521, metadata !730, i1 false, i1 false, i32 0, i32 0, null, i32 384, i1 false, null, null, i32 0, metadata !154, i32 1521} ; [ DW_TAG_subprogram ]
!730 = metadata !{i32 786453, i32 0, metadata !"", i32 0, i32 0, i64 0, i64 0, i64 0, i32 0, null, metadata !731, i32 0, i32 0} ; [ DW_TAG_subroutine_type ]
!731 = metadata !{null, metadata !713, metadata !158}
!732 = metadata !{i32 786478, i32 0, metadata !697, metadata !"ap_int_base", metadata !"ap_int_base", metadata !"", metadata !142, i32 1522, metadata !733, i1 false, i1 false, i32 0, i32 0, null, i32 384, i1 false, null, null, i32 0, metadata !154, i32 1522} ; [ DW_TAG_subprogram ]
!733 = metadata !{i32 786453, i32 0, metadata !"", i32 0, i32 0, i64 0, i64 0, i64 0, i32 0, null, metadata !734, i32 0, i32 0} ; [ DW_TAG_subroutine_type ]
!734 = metadata !{null, metadata !713, metadata !204}
!735 = metadata !{i32 786478, i32 0, metadata !697, metadata !"ap_int_base", metadata !"ap_int_base", metadata !"", metadata !142, i32 1523, metadata !736, i1 false, i1 false, i32 0, i32 0, null, i32 384, i1 false, null, null, i32 0, metadata !154, i32 1523} ; [ DW_TAG_subprogram ]
!736 = metadata !{i32 786453, i32 0, metadata !"", i32 0, i32 0, i64 0, i64 0, i64 0, i32 0, null, metadata !737, i32 0, i32 0} ; [ DW_TAG_subroutine_type ]
!737 = metadata !{null, metadata !713, metadata !208}
!738 = metadata !{i32 786478, i32 0, metadata !697, metadata !"ap_int_base", metadata !"ap_int_base", metadata !"", metadata !142, i32 1524, metadata !739, i1 false, i1 false, i32 0, i32 0, null, i32 384, i1 false, null, null, i32 0, metadata !154, i32 1524} ; [ DW_TAG_subprogram ]
!739 = metadata !{i32 786453, i32 0, metadata !"", i32 0, i32 0, i64 0, i64 0, i64 0, i32 0, null, metadata !740, i32 0, i32 0} ; [ DW_TAG_subroutine_type ]
!740 = metadata !{null, metadata !713, metadata !212}
!741 = metadata !{i32 786478, i32 0, metadata !697, metadata !"ap_int_base", metadata !"ap_int_base", metadata !"", metadata !142, i32 1525, metadata !742, i1 false, i1 false, i32 0, i32 0, null, i32 384, i1 false, null, null, i32 0, metadata !154, i32 1525} ; [ DW_TAG_subprogram ]
!742 = metadata !{i32 786453, i32 0, metadata !"", i32 0, i32 0, i64 0, i64 0, i64 0, i32 0, null, metadata !743, i32 0, i32 0} ; [ DW_TAG_subroutine_type ]
!743 = metadata !{null, metadata !713, metadata !216}
!744 = metadata !{i32 786478, i32 0, metadata !697, metadata !"ap_int_base", metadata !"ap_int_base", metadata !"", metadata !142, i32 1526, metadata !745, i1 false, i1 false, i32 0, i32 0, null, i32 384, i1 false, null, null, i32 0, metadata !154, i32 1526} ; [ DW_TAG_subprogram ]
!745 = metadata !{i32 786453, i32 0, metadata !"", i32 0, i32 0, i64 0, i64 0, i64 0, i32 0, null, metadata !746, i32 0, i32 0} ; [ DW_TAG_subroutine_type ]
!746 = metadata !{null, metadata !713, metadata !221}
!747 = metadata !{i32 786478, i32 0, metadata !697, metadata !"ap_int_base", metadata !"ap_int_base", metadata !"", metadata !142, i32 1527, metadata !748, i1 false, i1 false, i32 0, i32 0, null, i32 384, i1 false, null, null, i32 0, metadata !154, i32 1527} ; [ DW_TAG_subprogram ]
!748 = metadata !{i32 786453, i32 0, metadata !"", i32 0, i32 0, i64 0, i64 0, i64 0, i32 0, null, metadata !749, i32 0, i32 0} ; [ DW_TAG_subroutine_type ]
!749 = metadata !{null, metadata !713, metadata !226}
!750 = metadata !{i32 786478, i32 0, metadata !697, metadata !"ap_int_base", metadata !"ap_int_base", metadata !"", metadata !142, i32 1528, metadata !751, i1 false, i1 false, i32 0, i32 0, null, i32 384, i1 false, null, null, i32 0, metadata !154, i32 1528} ; [ DW_TAG_subprogram ]
!751 = metadata !{i32 786453, i32 0, metadata !"", i32 0, i32 0, i64 0, i64 0, i64 0, i32 0, null, metadata !752, i32 0, i32 0} ; [ DW_TAG_subroutine_type ]
!752 = metadata !{null, metadata !713, metadata !231}
!753 = metadata !{i32 786478, i32 0, metadata !697, metadata !"ap_int_base", metadata !"ap_int_base", metadata !"", metadata !142, i32 1529, metadata !754, i1 false, i1 false, i32 0, i32 0, null, i32 384, i1 false, null, null, i32 0, metadata !154, i32 1529} ; [ DW_TAG_subprogram ]
!754 = metadata !{i32 786453, i32 0, metadata !"", i32 0, i32 0, i64 0, i64 0, i64 0, i32 0, null, metadata !755, i32 0, i32 0} ; [ DW_TAG_subroutine_type ]
!755 = metadata !{null, metadata !713, metadata !235}
!756 = metadata !{i32 786478, i32 0, metadata !697, metadata !"ap_int_base", metadata !"ap_int_base", metadata !"", metadata !142, i32 1556, metadata !757, i1 false, i1 false, i32 0, i32 0, null, i32 256, i1 false, null, null, i32 0, metadata !154, i32 1556} ; [ DW_TAG_subprogram ]
!757 = metadata !{i32 786453, i32 0, metadata !"", i32 0, i32 0, i64 0, i64 0, i64 0, i32 0, null, metadata !758, i32 0, i32 0} ; [ DW_TAG_subroutine_type ]
!758 = metadata !{null, metadata !713, metadata !239}
!759 = metadata !{i32 786478, i32 0, metadata !697, metadata !"ap_int_base", metadata !"ap_int_base", metadata !"", metadata !142, i32 1563, metadata !760, i1 false, i1 false, i32 0, i32 0, null, i32 256, i1 false, null, null, i32 0, metadata !154, i32 1563} ; [ DW_TAG_subprogram ]
!760 = metadata !{i32 786453, i32 0, metadata !"", i32 0, i32 0, i64 0, i64 0, i64 0, i32 0, null, metadata !761, i32 0, i32 0} ; [ DW_TAG_subroutine_type ]
!761 = metadata !{null, metadata !713, metadata !239, metadata !185}
!762 = metadata !{i32 786478, i32 0, metadata !697, metadata !"read", metadata !"read", metadata !"_ZNV11ap_int_baseILi32ELb0ELb1EE4readEv", metadata !142, i32 1584, metadata !763, i1 false, i1 false, i32 0, i32 0, null, i32 256, i1 false, null, null, i32 0, metadata !154, i32 1584} ; [ DW_TAG_subprogram ]
!763 = metadata !{i32 786453, i32 0, metadata !"", i32 0, i32 0, i64 0, i64 0, i64 0, i32 0, null, metadata !764, i32 0, i32 0} ; [ DW_TAG_subroutine_type ]
!764 = metadata !{metadata !697, metadata !765}
!765 = metadata !{i32 786447, i32 0, metadata !"", i32 0, i32 0, i64 64, i64 64, i64 0, i32 64, metadata !766} ; [ DW_TAG_pointer_type ]
!766 = metadata !{i32 786485, null, metadata !"", null, i32 0, i64 0, i64 0, i64 0, i32 0, metadata !697} ; [ DW_TAG_volatile_type ]
!767 = metadata !{i32 786478, i32 0, metadata !697, metadata !"write", metadata !"write", metadata !"_ZNV11ap_int_baseILi32ELb0ELb1EE5writeERKS0_", metadata !142, i32 1590, metadata !768, i1 false, i1 false, i32 0, i32 0, null, i32 256, i1 false, null, null, i32 0, metadata !154, i32 1590} ; [ DW_TAG_subprogram ]
!768 = metadata !{i32 786453, i32 0, metadata !"", i32 0, i32 0, i64 0, i64 0, i64 0, i32 0, null, metadata !769, i32 0, i32 0} ; [ DW_TAG_subroutine_type ]
!769 = metadata !{null, metadata !765, metadata !770}
!770 = metadata !{i32 786448, null, null, null, i32 0, i64 0, i64 0, i64 0, i32 0, metadata !771} ; [ DW_TAG_reference_type ]
!771 = metadata !{i32 786470, null, metadata !"", null, i32 0, i64 0, i64 0, i64 0, i32 0, metadata !697} ; [ DW_TAG_const_type ]
!772 = metadata !{i32 786478, i32 0, metadata !697, metadata !"operator=", metadata !"operator=", metadata !"_ZNV11ap_int_baseILi32ELb0ELb1EEaSERVKS0_", metadata !142, i32 1602, metadata !773, i1 false, i1 false, i32 0, i32 0, null, i32 256, i1 false, null, null, i32 0, metadata !154, i32 1602} ; [ DW_TAG_subprogram ]
!773 = metadata !{i32 786453, i32 0, metadata !"", i32 0, i32 0, i64 0, i64 0, i64 0, i32 0, null, metadata !774, i32 0, i32 0} ; [ DW_TAG_subroutine_type ]
!774 = metadata !{null, metadata !765, metadata !775}
!775 = metadata !{i32 786448, null, null, null, i32 0, i64 0, i64 0, i64 0, i32 0, metadata !776} ; [ DW_TAG_reference_type ]
!776 = metadata !{i32 786470, null, metadata !"", null, i32 0, i64 0, i64 0, i64 0, i32 0, metadata !766} ; [ DW_TAG_const_type ]
!777 = metadata !{i32 786478, i32 0, metadata !697, metadata !"operator=", metadata !"operator=", metadata !"_ZNV11ap_int_baseILi32ELb0ELb1EEaSERKS0_", metadata !142, i32 1611, metadata !768, i1 false, i1 false, i32 0, i32 0, null, i32 256, i1 false, null, null, i32 0, metadata !154, i32 1611} ; [ DW_TAG_subprogram ]
!778 = metadata !{i32 786478, i32 0, metadata !697, metadata !"operator=", metadata !"operator=", metadata !"_ZN11ap_int_baseILi32ELb0ELb1EEaSERVKS0_", metadata !142, i32 1634, metadata !779, i1 false, i1 false, i32 0, i32 0, null, i32 256, i1 false, null, null, i32 0, metadata !154, i32 1634} ; [ DW_TAG_subprogram ]
!779 = metadata !{i32 786453, i32 0, metadata !"", i32 0, i32 0, i64 0, i64 0, i64 0, i32 0, null, metadata !780, i32 0, i32 0} ; [ DW_TAG_subroutine_type ]
!780 = metadata !{metadata !781, metadata !713, metadata !775}
!781 = metadata !{i32 786448, null, null, null, i32 0, i64 0, i64 0, i64 0, i32 0, metadata !697} ; [ DW_TAG_reference_type ]
!782 = metadata !{i32 786478, i32 0, metadata !697, metadata !"operator=", metadata !"operator=", metadata !"_ZN11ap_int_baseILi32ELb0ELb1EEaSERKS0_", metadata !142, i32 1639, metadata !783, i1 false, i1 false, i32 0, i32 0, null, i32 256, i1 false, null, null, i32 0, metadata !154, i32 1639} ; [ DW_TAG_subprogram ]
!783 = metadata !{i32 786453, i32 0, metadata !"", i32 0, i32 0, i64 0, i64 0, i64 0, i32 0, null, metadata !784, i32 0, i32 0} ; [ DW_TAG_subroutine_type ]
!784 = metadata !{metadata !781, metadata !713, metadata !770}
!785 = metadata !{i32 786478, i32 0, metadata !697, metadata !"operator=", metadata !"operator=", metadata !"_ZN11ap_int_baseILi32ELb0ELb1EEaSEPKc", metadata !142, i32 1643, metadata !786, i1 false, i1 false, i32 0, i32 0, null, i32 256, i1 false, null, null, i32 0, metadata !154, i32 1643} ; [ DW_TAG_subprogram ]
!786 = metadata !{i32 786453, i32 0, metadata !"", i32 0, i32 0, i64 0, i64 0, i64 0, i32 0, null, metadata !787, i32 0, i32 0} ; [ DW_TAG_subroutine_type ]
!787 = metadata !{metadata !781, metadata !713, metadata !239}
!788 = metadata !{i32 786478, i32 0, metadata !697, metadata !"set", metadata !"set", metadata !"_ZN11ap_int_baseILi32ELb0ELb1EE3setEPKca", metadata !142, i32 1651, metadata !789, i1 false, i1 false, i32 0, i32 0, null, i32 256, i1 false, null, null, i32 0, metadata !154, i32 1651} ; [ DW_TAG_subprogram ]
!789 = metadata !{i32 786453, i32 0, metadata !"", i32 0, i32 0, i64 0, i64 0, i64 0, i32 0, null, metadata !790, i32 0, i32 0} ; [ DW_TAG_subroutine_type ]
!790 = metadata !{metadata !781, metadata !713, metadata !239, metadata !185}
!791 = metadata !{i32 786478, i32 0, metadata !697, metadata !"operator=", metadata !"operator=", metadata !"_ZN11ap_int_baseILi32ELb0ELb1EEaSEa", metadata !142, i32 1665, metadata !792, i1 false, i1 false, i32 0, i32 0, null, i32 256, i1 false, null, null, i32 0, metadata !154, i32 1665} ; [ DW_TAG_subprogram ]
!792 = metadata !{i32 786453, i32 0, metadata !"", i32 0, i32 0, i64 0, i64 0, i64 0, i32 0, null, metadata !793, i32 0, i32 0} ; [ DW_TAG_subroutine_type ]
!793 = metadata !{metadata !781, metadata !713, metadata !185}
!794 = metadata !{i32 786478, i32 0, metadata !697, metadata !"operator=", metadata !"operator=", metadata !"_ZN11ap_int_baseILi32ELb0ELb1EEaSEh", metadata !142, i32 1666, metadata !795, i1 false, i1 false, i32 0, i32 0, null, i32 256, i1 false, null, null, i32 0, metadata !154, i32 1666} ; [ DW_TAG_subprogram ]
!795 = metadata !{i32 786453, i32 0, metadata !"", i32 0, i32 0, i64 0, i64 0, i64 0, i32 0, null, metadata !796, i32 0, i32 0} ; [ DW_TAG_subroutine_type ]
!796 = metadata !{metadata !781, metadata !713, metadata !189}
!797 = metadata !{i32 786478, i32 0, metadata !697, metadata !"operator=", metadata !"operator=", metadata !"_ZN11ap_int_baseILi32ELb0ELb1EEaSEs", metadata !142, i32 1667, metadata !798, i1 false, i1 false, i32 0, i32 0, null, i32 256, i1 false, null, null, i32 0, metadata !154, i32 1667} ; [ DW_TAG_subprogram ]
!798 = metadata !{i32 786453, i32 0, metadata !"", i32 0, i32 0, i64 0, i64 0, i64 0, i32 0, null, metadata !799, i32 0, i32 0} ; [ DW_TAG_subroutine_type ]
!799 = metadata !{metadata !781, metadata !713, metadata !193}
!800 = metadata !{i32 786478, i32 0, metadata !697, metadata !"operator=", metadata !"operator=", metadata !"_ZN11ap_int_baseILi32ELb0ELb1EEaSEt", metadata !142, i32 1668, metadata !801, i1 false, i1 false, i32 0, i32 0, null, i32 256, i1 false, null, null, i32 0, metadata !154, i32 1668} ; [ DW_TAG_subprogram ]
!801 = metadata !{i32 786453, i32 0, metadata !"", i32 0, i32 0, i64 0, i64 0, i64 0, i32 0, null, metadata !802, i32 0, i32 0} ; [ DW_TAG_subroutine_type ]
!802 = metadata !{metadata !781, metadata !713, metadata !197}
!803 = metadata !{i32 786478, i32 0, metadata !697, metadata !"operator=", metadata !"operator=", metadata !"_ZN11ap_int_baseILi32ELb0ELb1EEaSEi", metadata !142, i32 1669, metadata !804, i1 false, i1 false, i32 0, i32 0, null, i32 256, i1 false, null, null, i32 0, metadata !154, i32 1669} ; [ DW_TAG_subprogram ]
!804 = metadata !{i32 786453, i32 0, metadata !"", i32 0, i32 0, i64 0, i64 0, i64 0, i32 0, null, metadata !805, i32 0, i32 0} ; [ DW_TAG_subroutine_type ]
!805 = metadata !{metadata !781, metadata !713, metadata !158}
!806 = metadata !{i32 786478, i32 0, metadata !697, metadata !"operator=", metadata !"operator=", metadata !"_ZN11ap_int_baseILi32ELb0ELb1EEaSEj", metadata !142, i32 1670, metadata !807, i1 false, i1 false, i32 0, i32 0, null, i32 256, i1 false, null, null, i32 0, metadata !154, i32 1670} ; [ DW_TAG_subprogram ]
!807 = metadata !{i32 786453, i32 0, metadata !"", i32 0, i32 0, i64 0, i64 0, i64 0, i32 0, null, metadata !808, i32 0, i32 0} ; [ DW_TAG_subroutine_type ]
!808 = metadata !{metadata !781, metadata !713, metadata !204}
!809 = metadata !{i32 786478, i32 0, metadata !697, metadata !"operator=", metadata !"operator=", metadata !"_ZN11ap_int_baseILi32ELb0ELb1EEaSEx", metadata !142, i32 1671, metadata !810, i1 false, i1 false, i32 0, i32 0, null, i32 256, i1 false, null, null, i32 0, metadata !154, i32 1671} ; [ DW_TAG_subprogram ]
!810 = metadata !{i32 786453, i32 0, metadata !"", i32 0, i32 0, i64 0, i64 0, i64 0, i32 0, null, metadata !811, i32 0, i32 0} ; [ DW_TAG_subroutine_type ]
!811 = metadata !{metadata !781, metadata !713, metadata !216}
!812 = metadata !{i32 786478, i32 0, metadata !697, metadata !"operator=", metadata !"operator=", metadata !"_ZN11ap_int_baseILi32ELb0ELb1EEaSEy", metadata !142, i32 1672, metadata !813, i1 false, i1 false, i32 0, i32 0, null, i32 256, i1 false, null, null, i32 0, metadata !154, i32 1672} ; [ DW_TAG_subprogram ]
!813 = metadata !{i32 786453, i32 0, metadata !"", i32 0, i32 0, i64 0, i64 0, i64 0, i32 0, null, metadata !814, i32 0, i32 0} ; [ DW_TAG_subroutine_type ]
!814 = metadata !{metadata !781, metadata !713, metadata !221}
!815 = metadata !{i32 786478, i32 0, metadata !697, metadata !"operator unsigned int", metadata !"operator unsigned int", metadata !"_ZNK11ap_int_baseILi32ELb0ELb1EEcvjEv", metadata !142, i32 1710, metadata !816, i1 false, i1 false, i32 0, i32 0, null, i32 256, i1 false, null, null, i32 0, metadata !154, i32 1710} ; [ DW_TAG_subprogram ]
!816 = metadata !{i32 786453, i32 0, metadata !"", i32 0, i32 0, i64 0, i64 0, i64 0, i32 0, null, metadata !817, i32 0, i32 0} ; [ DW_TAG_subroutine_type ]
!817 = metadata !{metadata !818, metadata !822}
!818 = metadata !{i32 786454, metadata !697, metadata !"RetType", metadata !142, i32 1458, i64 0, i64 0, i64 0, i32 0, metadata !819} ; [ DW_TAG_typedef ]
!819 = metadata !{i32 786454, metadata !820, metadata !"Type", metadata !142, i32 1444, i64 0, i64 0, i64 0, i32 0, metadata !204} ; [ DW_TAG_typedef ]
!820 = metadata !{i32 786434, null, metadata !"retval<4, false>", metadata !142, i32 1443, i64 8, i64 8, i32 0, i32 0, null, metadata !299, i32 0, null, metadata !821} ; [ DW_TAG_class_type ]
!821 = metadata !{metadata !301, metadata !709}
!822 = metadata !{i32 786447, i32 0, metadata !"", i32 0, i32 0, i64 64, i64 64, i64 0, i32 64, metadata !771} ; [ DW_TAG_pointer_type ]
!823 = metadata !{i32 786478, i32 0, metadata !697, metadata !"to_bool", metadata !"to_bool", metadata !"_ZNK11ap_int_baseILi32ELb0ELb1EE7to_boolEv", metadata !142, i32 1716, metadata !824, i1 false, i1 false, i32 0, i32 0, null, i32 256, i1 false, null, null, i32 0, metadata !154, i32 1716} ; [ DW_TAG_subprogram ]
!824 = metadata !{i32 786453, i32 0, metadata !"", i32 0, i32 0, i64 0, i64 0, i64 0, i32 0, null, metadata !825, i32 0, i32 0} ; [ DW_TAG_subroutine_type ]
!825 = metadata !{metadata !160, metadata !822}
!826 = metadata !{i32 786478, i32 0, metadata !697, metadata !"to_uchar", metadata !"to_uchar", metadata !"_ZNK11ap_int_baseILi32ELb0ELb1EE8to_ucharEv", metadata !142, i32 1717, metadata !827, i1 false, i1 false, i32 0, i32 0, null, i32 256, i1 false, null, null, i32 0, metadata !154, i32 1717} ; [ DW_TAG_subprogram ]
!827 = metadata !{i32 786453, i32 0, metadata !"", i32 0, i32 0, i64 0, i64 0, i64 0, i32 0, null, metadata !828, i32 0, i32 0} ; [ DW_TAG_subroutine_type ]
!828 = metadata !{metadata !189, metadata !822}
!829 = metadata !{i32 786478, i32 0, metadata !697, metadata !"to_char", metadata !"to_char", metadata !"_ZNK11ap_int_baseILi32ELb0ELb1EE7to_charEv", metadata !142, i32 1718, metadata !830, i1 false, i1 false, i32 0, i32 0, null, i32 256, i1 false, null, null, i32 0, metadata !154, i32 1718} ; [ DW_TAG_subprogram ]
!830 = metadata !{i32 786453, i32 0, metadata !"", i32 0, i32 0, i64 0, i64 0, i64 0, i32 0, null, metadata !831, i32 0, i32 0} ; [ DW_TAG_subroutine_type ]
!831 = metadata !{metadata !185, metadata !822}
!832 = metadata !{i32 786478, i32 0, metadata !697, metadata !"to_ushort", metadata !"to_ushort", metadata !"_ZNK11ap_int_baseILi32ELb0ELb1EE9to_ushortEv", metadata !142, i32 1719, metadata !833, i1 false, i1 false, i32 0, i32 0, null, i32 256, i1 false, null, null, i32 0, metadata !154, i32 1719} ; [ DW_TAG_subprogram ]
!833 = metadata !{i32 786453, i32 0, metadata !"", i32 0, i32 0, i64 0, i64 0, i64 0, i32 0, null, metadata !834, i32 0, i32 0} ; [ DW_TAG_subroutine_type ]
!834 = metadata !{metadata !197, metadata !822}
!835 = metadata !{i32 786478, i32 0, metadata !697, metadata !"to_short", metadata !"to_short", metadata !"_ZNK11ap_int_baseILi32ELb0ELb1EE8to_shortEv", metadata !142, i32 1720, metadata !836, i1 false, i1 false, i32 0, i32 0, null, i32 256, i1 false, null, null, i32 0, metadata !154, i32 1720} ; [ DW_TAG_subprogram ]
!836 = metadata !{i32 786453, i32 0, metadata !"", i32 0, i32 0, i64 0, i64 0, i64 0, i32 0, null, metadata !837, i32 0, i32 0} ; [ DW_TAG_subroutine_type ]
!837 = metadata !{metadata !193, metadata !822}
!838 = metadata !{i32 786478, i32 0, metadata !697, metadata !"to_int", metadata !"to_int", metadata !"_ZNK11ap_int_baseILi32ELb0ELb1EE6to_intEv", metadata !142, i32 1721, metadata !839, i1 false, i1 false, i32 0, i32 0, null, i32 256, i1 false, null, null, i32 0, metadata !154, i32 1721} ; [ DW_TAG_subprogram ]
!839 = metadata !{i32 786453, i32 0, metadata !"", i32 0, i32 0, i64 0, i64 0, i64 0, i32 0, null, metadata !840, i32 0, i32 0} ; [ DW_TAG_subroutine_type ]
!840 = metadata !{metadata !158, metadata !822}
!841 = metadata !{i32 786478, i32 0, metadata !697, metadata !"to_uint", metadata !"to_uint", metadata !"_ZNK11ap_int_baseILi32ELb0ELb1EE7to_uintEv", metadata !142, i32 1722, metadata !842, i1 false, i1 false, i32 0, i32 0, null, i32 256, i1 false, null, null, i32 0, metadata !154, i32 1722} ; [ DW_TAG_subprogram ]
!842 = metadata !{i32 786453, i32 0, metadata !"", i32 0, i32 0, i64 0, i64 0, i64 0, i32 0, null, metadata !843, i32 0, i32 0} ; [ DW_TAG_subroutine_type ]
!843 = metadata !{metadata !204, metadata !822}
!844 = metadata !{i32 786478, i32 0, metadata !697, metadata !"to_long", metadata !"to_long", metadata !"_ZNK11ap_int_baseILi32ELb0ELb1EE7to_longEv", metadata !142, i32 1723, metadata !845, i1 false, i1 false, i32 0, i32 0, null, i32 256, i1 false, null, null, i32 0, metadata !154, i32 1723} ; [ DW_TAG_subprogram ]
!845 = metadata !{i32 786453, i32 0, metadata !"", i32 0, i32 0, i64 0, i64 0, i64 0, i32 0, null, metadata !846, i32 0, i32 0} ; [ DW_TAG_subroutine_type ]
!846 = metadata !{metadata !208, metadata !822}
!847 = metadata !{i32 786478, i32 0, metadata !697, metadata !"to_ulong", metadata !"to_ulong", metadata !"_ZNK11ap_int_baseILi32ELb0ELb1EE8to_ulongEv", metadata !142, i32 1724, metadata !848, i1 false, i1 false, i32 0, i32 0, null, i32 256, i1 false, null, null, i32 0, metadata !154, i32 1724} ; [ DW_TAG_subprogram ]
!848 = metadata !{i32 786453, i32 0, metadata !"", i32 0, i32 0, i64 0, i64 0, i64 0, i32 0, null, metadata !849, i32 0, i32 0} ; [ DW_TAG_subroutine_type ]
!849 = metadata !{metadata !212, metadata !822}
!850 = metadata !{i32 786478, i32 0, metadata !697, metadata !"to_int64", metadata !"to_int64", metadata !"_ZNK11ap_int_baseILi32ELb0ELb1EE8to_int64Ev", metadata !142, i32 1725, metadata !851, i1 false, i1 false, i32 0, i32 0, null, i32 256, i1 false, null, null, i32 0, metadata !154, i32 1725} ; [ DW_TAG_subprogram ]
!851 = metadata !{i32 786453, i32 0, metadata !"", i32 0, i32 0, i64 0, i64 0, i64 0, i32 0, null, metadata !852, i32 0, i32 0} ; [ DW_TAG_subroutine_type ]
!852 = metadata !{metadata !216, metadata !822}
!853 = metadata !{i32 786478, i32 0, metadata !697, metadata !"to_uint64", metadata !"to_uint64", metadata !"_ZNK11ap_int_baseILi32ELb0ELb1EE9to_uint64Ev", metadata !142, i32 1726, metadata !854, i1 false, i1 false, i32 0, i32 0, null, i32 256, i1 false, null, null, i32 0, metadata !154, i32 1726} ; [ DW_TAG_subprogram ]
!854 = metadata !{i32 786453, i32 0, metadata !"", i32 0, i32 0, i64 0, i64 0, i64 0, i32 0, null, metadata !855, i32 0, i32 0} ; [ DW_TAG_subroutine_type ]
!855 = metadata !{metadata !221, metadata !822}
!856 = metadata !{i32 786478, i32 0, metadata !697, metadata !"to_double", metadata !"to_double", metadata !"_ZNK11ap_int_baseILi32ELb0ELb1EE9to_doubleEv", metadata !142, i32 1727, metadata !857, i1 false, i1 false, i32 0, i32 0, null, i32 256, i1 false, null, null, i32 0, metadata !154, i32 1727} ; [ DW_TAG_subprogram ]
!857 = metadata !{i32 786453, i32 0, metadata !"", i32 0, i32 0, i64 0, i64 0, i64 0, i32 0, null, metadata !858, i32 0, i32 0} ; [ DW_TAG_subroutine_type ]
!858 = metadata !{metadata !235, metadata !822}
!859 = metadata !{i32 786478, i32 0, metadata !697, metadata !"length", metadata !"length", metadata !"_ZNK11ap_int_baseILi32ELb0ELb1EE6lengthEv", metadata !142, i32 1741, metadata !839, i1 false, i1 false, i32 0, i32 0, null, i32 256, i1 false, null, null, i32 0, metadata !154, i32 1741} ; [ DW_TAG_subprogram ]
!860 = metadata !{i32 786478, i32 0, metadata !697, metadata !"length", metadata !"length", metadata !"_ZNVK11ap_int_baseILi32ELb0ELb1EE6lengthEv", metadata !142, i32 1742, metadata !861, i1 false, i1 false, i32 0, i32 0, null, i32 256, i1 false, null, null, i32 0, metadata !154, i32 1742} ; [ DW_TAG_subprogram ]
!861 = metadata !{i32 786453, i32 0, metadata !"", i32 0, i32 0, i64 0, i64 0, i64 0, i32 0, null, metadata !862, i32 0, i32 0} ; [ DW_TAG_subroutine_type ]
!862 = metadata !{metadata !158, metadata !863}
!863 = metadata !{i32 786447, i32 0, metadata !"", i32 0, i32 0, i64 64, i64 64, i64 0, i32 64, metadata !776} ; [ DW_TAG_pointer_type ]
!864 = metadata !{i32 786478, i32 0, metadata !697, metadata !"reverse", metadata !"reverse", metadata !"_ZN11ap_int_baseILi32ELb0ELb1EE7reverseEv", metadata !142, i32 1747, metadata !865, i1 false, i1 false, i32 0, i32 0, null, i32 256, i1 false, null, null, i32 0, metadata !154, i32 1747} ; [ DW_TAG_subprogram ]
!865 = metadata !{i32 786453, i32 0, metadata !"", i32 0, i32 0, i64 0, i64 0, i64 0, i32 0, null, metadata !866, i32 0, i32 0} ; [ DW_TAG_subroutine_type ]
!866 = metadata !{metadata !781, metadata !713}
!867 = metadata !{i32 786478, i32 0, metadata !697, metadata !"iszero", metadata !"iszero", metadata !"_ZNK11ap_int_baseILi32ELb0ELb1EE6iszeroEv", metadata !142, i32 1753, metadata !824, i1 false, i1 false, i32 0, i32 0, null, i32 256, i1 false, null, null, i32 0, metadata !154, i32 1753} ; [ DW_TAG_subprogram ]
!868 = metadata !{i32 786478, i32 0, metadata !697, metadata !"is_zero", metadata !"is_zero", metadata !"_ZNK11ap_int_baseILi32ELb0ELb1EE7is_zeroEv", metadata !142, i32 1758, metadata !824, i1 false, i1 false, i32 0, i32 0, null, i32 256, i1 false, null, null, i32 0, metadata !154, i32 1758} ; [ DW_TAG_subprogram ]
!869 = metadata !{i32 786478, i32 0, metadata !697, metadata !"sign", metadata !"sign", metadata !"_ZNK11ap_int_baseILi32ELb0ELb1EE4signEv", metadata !142, i32 1763, metadata !824, i1 false, i1 false, i32 0, i32 0, null, i32 256, i1 false, null, null, i32 0, metadata !154, i32 1763} ; [ DW_TAG_subprogram ]
!870 = metadata !{i32 786478, i32 0, metadata !697, metadata !"clear", metadata !"clear", metadata !"_ZN11ap_int_baseILi32ELb0ELb1EE5clearEi", metadata !142, i32 1771, metadata !730, i1 false, i1 false, i32 0, i32 0, null, i32 256, i1 false, null, null, i32 0, metadata !154, i32 1771} ; [ DW_TAG_subprogram ]
!871 = metadata !{i32 786478, i32 0, metadata !697, metadata !"invert", metadata !"invert", metadata !"_ZN11ap_int_baseILi32ELb0ELb1EE6invertEi", metadata !142, i32 1777, metadata !730, i1 false, i1 false, i32 0, i32 0, null, i32 256, i1 false, null, null, i32 0, metadata !154, i32 1777} ; [ DW_TAG_subprogram ]
!872 = metadata !{i32 786478, i32 0, metadata !697, metadata !"test", metadata !"test", metadata !"_ZNK11ap_int_baseILi32ELb0ELb1EE4testEi", metadata !142, i32 1785, metadata !873, i1 false, i1 false, i32 0, i32 0, null, i32 256, i1 false, null, null, i32 0, metadata !154, i32 1785} ; [ DW_TAG_subprogram ]
!873 = metadata !{i32 786453, i32 0, metadata !"", i32 0, i32 0, i64 0, i64 0, i64 0, i32 0, null, metadata !874, i32 0, i32 0} ; [ DW_TAG_subroutine_type ]
!874 = metadata !{metadata !160, metadata !822, metadata !158}
!875 = metadata !{i32 786478, i32 0, metadata !697, metadata !"set", metadata !"set", metadata !"_ZN11ap_int_baseILi32ELb0ELb1EE3setEi", metadata !142, i32 1791, metadata !730, i1 false, i1 false, i32 0, i32 0, null, i32 256, i1 false, null, null, i32 0, metadata !154, i32 1791} ; [ DW_TAG_subprogram ]
!876 = metadata !{i32 786478, i32 0, metadata !697, metadata !"set", metadata !"set", metadata !"_ZN11ap_int_baseILi32ELb0ELb1EE3setEib", metadata !142, i32 1797, metadata !877, i1 false, i1 false, i32 0, i32 0, null, i32 256, i1 false, null, null, i32 0, metadata !154, i32 1797} ; [ DW_TAG_subprogram ]
!877 = metadata !{i32 786453, i32 0, metadata !"", i32 0, i32 0, i64 0, i64 0, i64 0, i32 0, null, metadata !878, i32 0, i32 0} ; [ DW_TAG_subroutine_type ]
!878 = metadata !{null, metadata !713, metadata !158, metadata !160}
!879 = metadata !{i32 786478, i32 0, metadata !697, metadata !"lrotate", metadata !"lrotate", metadata !"_ZN11ap_int_baseILi32ELb0ELb1EE7lrotateEi", metadata !142, i32 1804, metadata !730, i1 false, i1 false, i32 0, i32 0, null, i32 256, i1 false, null, null, i32 0, metadata !154, i32 1804} ; [ DW_TAG_subprogram ]
!880 = metadata !{i32 786478, i32 0, metadata !697, metadata !"rrotate", metadata !"rrotate", metadata !"_ZN11ap_int_baseILi32ELb0ELb1EE7rrotateEi", metadata !142, i32 1813, metadata !730, i1 false, i1 false, i32 0, i32 0, null, i32 256, i1 false, null, null, i32 0, metadata !154, i32 1813} ; [ DW_TAG_subprogram ]
!881 = metadata !{i32 786478, i32 0, metadata !697, metadata !"set_bit", metadata !"set_bit", metadata !"_ZN11ap_int_baseILi32ELb0ELb1EE7set_bitEib", metadata !142, i32 1821, metadata !877, i1 false, i1 false, i32 0, i32 0, null, i32 256, i1 false, null, null, i32 0, metadata !154, i32 1821} ; [ DW_TAG_subprogram ]
!882 = metadata !{i32 786478, i32 0, metadata !697, metadata !"get_bit", metadata !"get_bit", metadata !"_ZNK11ap_int_baseILi32ELb0ELb1EE7get_bitEi", metadata !142, i32 1826, metadata !873, i1 false, i1 false, i32 0, i32 0, null, i32 256, i1 false, null, null, i32 0, metadata !154, i32 1826} ; [ DW_TAG_subprogram ]
!883 = metadata !{i32 786478, i32 0, metadata !697, metadata !"b_not", metadata !"b_not", metadata !"_ZN11ap_int_baseILi32ELb0ELb1EE5b_notEv", metadata !142, i32 1831, metadata !711, i1 false, i1 false, i32 0, i32 0, null, i32 256, i1 false, null, null, i32 0, metadata !154, i32 1831} ; [ DW_TAG_subprogram ]
!884 = metadata !{i32 786478, i32 0, metadata !697, metadata !"countLeadingZeros", metadata !"countLeadingZeros", metadata !"_ZN11ap_int_baseILi32ELb0ELb1EE17countLeadingZerosEv", metadata !142, i32 1838, metadata !885, i1 false, i1 false, i32 0, i32 0, null, i32 256, i1 false, null, null, i32 0, metadata !154, i32 1838} ; [ DW_TAG_subprogram ]
!885 = metadata !{i32 786453, i32 0, metadata !"", i32 0, i32 0, i64 0, i64 0, i64 0, i32 0, null, metadata !886, i32 0, i32 0} ; [ DW_TAG_subroutine_type ]
!886 = metadata !{metadata !158, metadata !713}
!887 = metadata !{i32 786478, i32 0, metadata !697, metadata !"operator++", metadata !"operator++", metadata !"_ZN11ap_int_baseILi32ELb0ELb1EEppEv", metadata !142, i32 1895, metadata !865, i1 false, i1 false, i32 0, i32 0, null, i32 256, i1 false, null, null, i32 0, metadata !154, i32 1895} ; [ DW_TAG_subprogram ]
!888 = metadata !{i32 786478, i32 0, metadata !697, metadata !"operator--", metadata !"operator--", metadata !"_ZN11ap_int_baseILi32ELb0ELb1EEmmEv", metadata !142, i32 1899, metadata !865, i1 false, i1 false, i32 0, i32 0, null, i32 256, i1 false, null, null, i32 0, metadata !154, i32 1899} ; [ DW_TAG_subprogram ]
!889 = metadata !{i32 786478, i32 0, metadata !697, metadata !"operator++", metadata !"operator++", metadata !"_ZN11ap_int_baseILi32ELb0ELb1EEppEi", metadata !142, i32 1907, metadata !890, i1 false, i1 false, i32 0, i32 0, null, i32 256, i1 false, null, null, i32 0, metadata !154, i32 1907} ; [ DW_TAG_subprogram ]
!890 = metadata !{i32 786453, i32 0, metadata !"", i32 0, i32 0, i64 0, i64 0, i64 0, i32 0, null, metadata !891, i32 0, i32 0} ; [ DW_TAG_subroutine_type ]
!891 = metadata !{metadata !771, metadata !713, metadata !158}
!892 = metadata !{i32 786478, i32 0, metadata !697, metadata !"operator--", metadata !"operator--", metadata !"_ZN11ap_int_baseILi32ELb0ELb1EEmmEi", metadata !142, i32 1912, metadata !890, i1 false, i1 false, i32 0, i32 0, null, i32 256, i1 false, null, null, i32 0, metadata !154, i32 1912} ; [ DW_TAG_subprogram ]
!893 = metadata !{i32 786478, i32 0, metadata !697, metadata !"operator+", metadata !"operator+", metadata !"_ZNK11ap_int_baseILi32ELb0ELb1EEpsEv", metadata !142, i32 1921, metadata !894, i1 false, i1 false, i32 0, i32 0, null, i32 256, i1 false, null, null, i32 0, metadata !154, i32 1921} ; [ DW_TAG_subprogram ]
!894 = metadata !{i32 786453, i32 0, metadata !"", i32 0, i32 0, i64 0, i64 0, i64 0, i32 0, null, metadata !895, i32 0, i32 0} ; [ DW_TAG_subroutine_type ]
!895 = metadata !{metadata !697, metadata !822}
!896 = metadata !{i32 786478, i32 0, metadata !697, metadata !"operator!", metadata !"operator!", metadata !"_ZNK11ap_int_baseILi32ELb0ELb1EEntEv", metadata !142, i32 1927, metadata !824, i1 false, i1 false, i32 0, i32 0, null, i32 256, i1 false, null, null, i32 0, metadata !154, i32 1927} ; [ DW_TAG_subprogram ]
!897 = metadata !{i32 786478, i32 0, metadata !697, metadata !"operator-", metadata !"operator-", metadata !"_ZNK11ap_int_baseILi32ELb0ELb1EEngEv", metadata !142, i32 1932, metadata !898, i1 false, i1 false, i32 0, i32 0, null, i32 256, i1 false, null, null, i32 0, metadata !154, i32 1932} ; [ DW_TAG_subprogram ]
!898 = metadata !{i32 786453, i32 0, metadata !"", i32 0, i32 0, i64 0, i64 0, i64 0, i32 0, null, metadata !899, i32 0, i32 0} ; [ DW_TAG_subroutine_type ]
!899 = metadata !{metadata !380, metadata !822}
!900 = metadata !{i32 786478, i32 0, metadata !697, metadata !"range", metadata !"range", metadata !"_ZN11ap_int_baseILi32ELb0ELb1EE5rangeEii", metadata !142, i32 2062, metadata !901, i1 false, i1 false, i32 0, i32 0, null, i32 256, i1 false, null, null, i32 0, metadata !154, i32 2062} ; [ DW_TAG_subprogram ]
!901 = metadata !{i32 786453, i32 0, metadata !"", i32 0, i32 0, i64 0, i64 0, i64 0, i32 0, null, metadata !902, i32 0, i32 0} ; [ DW_TAG_subroutine_type ]
!902 = metadata !{metadata !903, metadata !713, metadata !158, metadata !158}
!903 = metadata !{i32 786434, null, metadata !"ap_range_ref<32, false>", metadata !142, i32 925, i64 128, i64 64, i32 0, i32 0, null, metadata !904, i32 0, null, metadata !960} ; [ DW_TAG_class_type ]
!904 = metadata !{metadata !905, metadata !906, metadata !907, metadata !908, metadata !914, metadata !918, metadata !922, metadata !925, metadata !929, metadata !932, metadata !936, metadata !939, metadata !940, metadata !943, metadata !946, metadata !949, metadata !952, metadata !955, metadata !958, metadata !959}
!905 = metadata !{i32 786445, metadata !903, metadata !"d_bv", metadata !142, i32 926, i64 64, i64 64, i64 0, i32 0, metadata !781} ; [ DW_TAG_member ]
!906 = metadata !{i32 786445, metadata !903, metadata !"l_index", metadata !142, i32 927, i64 32, i64 32, i64 64, i32 0, metadata !158} ; [ DW_TAG_member ]
!907 = metadata !{i32 786445, metadata !903, metadata !"h_index", metadata !142, i32 928, i64 32, i64 32, i64 96, i32 0, metadata !158} ; [ DW_TAG_member ]
!908 = metadata !{i32 786478, i32 0, metadata !903, metadata !"ap_range_ref", metadata !"ap_range_ref", metadata !"", metadata !142, i32 931, metadata !909, i1 false, i1 false, i32 0, i32 0, null, i32 256, i1 false, null, null, i32 0, metadata !154, i32 931} ; [ DW_TAG_subprogram ]
!909 = metadata !{i32 786453, i32 0, metadata !"", i32 0, i32 0, i64 0, i64 0, i64 0, i32 0, null, metadata !910, i32 0, i32 0} ; [ DW_TAG_subroutine_type ]
!910 = metadata !{null, metadata !911, metadata !912}
!911 = metadata !{i32 786447, i32 0, metadata !"", i32 0, i32 0, i64 64, i64 64, i64 0, i32 64, metadata !903} ; [ DW_TAG_pointer_type ]
!912 = metadata !{i32 786448, null, null, null, i32 0, i64 0, i64 0, i64 0, i32 0, metadata !913} ; [ DW_TAG_reference_type ]
!913 = metadata !{i32 786470, null, metadata !"", null, i32 0, i64 0, i64 0, i64 0, i32 0, metadata !903} ; [ DW_TAG_const_type ]
!914 = metadata !{i32 786478, i32 0, metadata !903, metadata !"ap_range_ref", metadata !"ap_range_ref", metadata !"", metadata !142, i32 934, metadata !915, i1 false, i1 false, i32 0, i32 0, null, i32 256, i1 false, null, null, i32 0, metadata !154, i32 934} ; [ DW_TAG_subprogram ]
!915 = metadata !{i32 786453, i32 0, metadata !"", i32 0, i32 0, i64 0, i64 0, i64 0, i32 0, null, metadata !916, i32 0, i32 0} ; [ DW_TAG_subroutine_type ]
!916 = metadata !{null, metadata !911, metadata !917, metadata !158, metadata !158}
!917 = metadata !{i32 786447, null, metadata !"", null, i32 0, i64 64, i64 64, i64 0, i32 0, metadata !697} ; [ DW_TAG_pointer_type ]
!918 = metadata !{i32 786478, i32 0, metadata !903, metadata !"operator ap_int_base", metadata !"operator ap_int_base", metadata !"_ZNK12ap_range_refILi32ELb0EEcv11ap_int_baseILi32ELb0ELb1EEEv", metadata !142, i32 939, metadata !919, i1 false, i1 false, i32 0, i32 0, null, i32 256, i1 false, null, null, i32 0, metadata !154, i32 939} ; [ DW_TAG_subprogram ]
!919 = metadata !{i32 786453, i32 0, metadata !"", i32 0, i32 0, i64 0, i64 0, i64 0, i32 0, null, metadata !920, i32 0, i32 0} ; [ DW_TAG_subroutine_type ]
!920 = metadata !{metadata !697, metadata !921}
!921 = metadata !{i32 786447, i32 0, metadata !"", i32 0, i32 0, i64 64, i64 64, i64 0, i32 64, metadata !913} ; [ DW_TAG_pointer_type ]
!922 = metadata !{i32 786478, i32 0, metadata !903, metadata !"operator unsigned long long", metadata !"operator unsigned long long", metadata !"_ZNK12ap_range_refILi32ELb0EEcvyEv", metadata !142, i32 945, metadata !923, i1 false, i1 false, i32 0, i32 0, null, i32 256, i1 false, null, null, i32 0, metadata !154, i32 945} ; [ DW_TAG_subprogram ]
!923 = metadata !{i32 786453, i32 0, metadata !"", i32 0, i32 0, i64 0, i64 0, i64 0, i32 0, null, metadata !924, i32 0, i32 0} ; [ DW_TAG_subroutine_type ]
!924 = metadata !{metadata !222, metadata !921}
!925 = metadata !{i32 786478, i32 0, metadata !903, metadata !"operator=", metadata !"operator=", metadata !"_ZN12ap_range_refILi32ELb0EEaSEy", metadata !142, i32 949, metadata !926, i1 false, i1 false, i32 0, i32 0, null, i32 256, i1 false, null, null, i32 0, metadata !154, i32 949} ; [ DW_TAG_subprogram ]
!926 = metadata !{i32 786453, i32 0, metadata !"", i32 0, i32 0, i64 0, i64 0, i64 0, i32 0, null, metadata !927, i32 0, i32 0} ; [ DW_TAG_subroutine_type ]
!927 = metadata !{metadata !928, metadata !911, metadata !222}
!928 = metadata !{i32 786448, null, null, null, i32 0, i64 0, i64 0, i64 0, i32 0, metadata !903} ; [ DW_TAG_reference_type ]
!929 = metadata !{i32 786478, i32 0, metadata !903, metadata !"operator=", metadata !"operator=", metadata !"_ZN12ap_range_refILi32ELb0EEaSERKS0_", metadata !142, i32 967, metadata !930, i1 false, i1 false, i32 0, i32 0, null, i32 256, i1 false, null, null, i32 0, metadata !154, i32 967} ; [ DW_TAG_subprogram ]
!930 = metadata !{i32 786453, i32 0, metadata !"", i32 0, i32 0, i64 0, i64 0, i64 0, i32 0, null, metadata !931, i32 0, i32 0} ; [ DW_TAG_subroutine_type ]
!931 = metadata !{metadata !928, metadata !911, metadata !912}
!932 = metadata !{i32 786478, i32 0, metadata !903, metadata !"operator,", metadata !"operator,", metadata !"_ZN12ap_range_refILi32ELb0EEcmER11ap_int_baseILi32ELb0ELb1EE", metadata !142, i32 1022, metadata !933, i1 false, i1 false, i32 0, i32 0, null, i32 256, i1 false, null, null, i32 0, metadata !154, i32 1022} ; [ DW_TAG_subprogram ]
!933 = metadata !{i32 786453, i32 0, metadata !"", i32 0, i32 0, i64 0, i64 0, i64 0, i32 0, null, metadata !934, i32 0, i32 0} ; [ DW_TAG_subroutine_type ]
!934 = metadata !{metadata !935, metadata !911, metadata !781}
!935 = metadata !{i32 786434, null, metadata !"ap_concat_ref<32, ap_range_ref<32, false>, 32, ap_int_base<32, false, true> >", metadata !142, i32 688, i32 0, i32 0, i32 0, i32 4, null, null, i32 0} ; [ DW_TAG_class_type ]
!936 = metadata !{i32 786478, i32 0, metadata !903, metadata !"length", metadata !"length", metadata !"_ZNK12ap_range_refILi32ELb0EE6lengthEv", metadata !142, i32 1187, metadata !937, i1 false, i1 false, i32 0, i32 0, null, i32 256, i1 false, null, null, i32 0, metadata !154, i32 1187} ; [ DW_TAG_subprogram ]
!937 = metadata !{i32 786453, i32 0, metadata !"", i32 0, i32 0, i64 0, i64 0, i64 0, i32 0, null, metadata !938, i32 0, i32 0} ; [ DW_TAG_subroutine_type ]
!938 = metadata !{metadata !158, metadata !921}
!939 = metadata !{i32 786478, i32 0, metadata !903, metadata !"to_int", metadata !"to_int", metadata !"_ZNK12ap_range_refILi32ELb0EE6to_intEv", metadata !142, i32 1191, metadata !937, i1 false, i1 false, i32 0, i32 0, null, i32 256, i1 false, null, null, i32 0, metadata !154, i32 1191} ; [ DW_TAG_subprogram ]
!940 = metadata !{i32 786478, i32 0, metadata !903, metadata !"to_uint", metadata !"to_uint", metadata !"_ZNK12ap_range_refILi32ELb0EE7to_uintEv", metadata !142, i32 1194, metadata !941, i1 false, i1 false, i32 0, i32 0, null, i32 256, i1 false, null, null, i32 0, metadata !154, i32 1194} ; [ DW_TAG_subprogram ]
!941 = metadata !{i32 786453, i32 0, metadata !"", i32 0, i32 0, i64 0, i64 0, i64 0, i32 0, null, metadata !942, i32 0, i32 0} ; [ DW_TAG_subroutine_type ]
!942 = metadata !{metadata !204, metadata !921}
!943 = metadata !{i32 786478, i32 0, metadata !903, metadata !"to_long", metadata !"to_long", metadata !"_ZNK12ap_range_refILi32ELb0EE7to_longEv", metadata !142, i32 1197, metadata !944, i1 false, i1 false, i32 0, i32 0, null, i32 256, i1 false, null, null, i32 0, metadata !154, i32 1197} ; [ DW_TAG_subprogram ]
!944 = metadata !{i32 786453, i32 0, metadata !"", i32 0, i32 0, i64 0, i64 0, i64 0, i32 0, null, metadata !945, i32 0, i32 0} ; [ DW_TAG_subroutine_type ]
!945 = metadata !{metadata !208, metadata !921}
!946 = metadata !{i32 786478, i32 0, metadata !903, metadata !"to_ulong", metadata !"to_ulong", metadata !"_ZNK12ap_range_refILi32ELb0EE8to_ulongEv", metadata !142, i32 1200, metadata !947, i1 false, i1 false, i32 0, i32 0, null, i32 256, i1 false, null, null, i32 0, metadata !154, i32 1200} ; [ DW_TAG_subprogram ]
!947 = metadata !{i32 786453, i32 0, metadata !"", i32 0, i32 0, i64 0, i64 0, i64 0, i32 0, null, metadata !948, i32 0, i32 0} ; [ DW_TAG_subroutine_type ]
!948 = metadata !{metadata !212, metadata !921}
!949 = metadata !{i32 786478, i32 0, metadata !903, metadata !"to_int64", metadata !"to_int64", metadata !"_ZNK12ap_range_refILi32ELb0EE8to_int64Ev", metadata !142, i32 1203, metadata !950, i1 false, i1 false, i32 0, i32 0, null, i32 256, i1 false, null, null, i32 0, metadata !154, i32 1203} ; [ DW_TAG_subprogram ]
!950 = metadata !{i32 786453, i32 0, metadata !"", i32 0, i32 0, i64 0, i64 0, i64 0, i32 0, null, metadata !951, i32 0, i32 0} ; [ DW_TAG_subroutine_type ]
!951 = metadata !{metadata !216, metadata !921}
!952 = metadata !{i32 786478, i32 0, metadata !903, metadata !"to_uint64", metadata !"to_uint64", metadata !"_ZNK12ap_range_refILi32ELb0EE9to_uint64Ev", metadata !142, i32 1206, metadata !953, i1 false, i1 false, i32 0, i32 0, null, i32 256, i1 false, null, null, i32 0, metadata !154, i32 1206} ; [ DW_TAG_subprogram ]
!953 = metadata !{i32 786453, i32 0, metadata !"", i32 0, i32 0, i64 0, i64 0, i64 0, i32 0, null, metadata !954, i32 0, i32 0} ; [ DW_TAG_subroutine_type ]
!954 = metadata !{metadata !221, metadata !921}
!955 = metadata !{i32 786478, i32 0, metadata !903, metadata !"and_reduce", metadata !"and_reduce", metadata !"_ZNK12ap_range_refILi32ELb0EE10and_reduceEv", metadata !142, i32 1209, metadata !956, i1 false, i1 false, i32 0, i32 0, null, i32 256, i1 false, null, null, i32 0, metadata !154, i32 1209} ; [ DW_TAG_subprogram ]
!956 = metadata !{i32 786453, i32 0, metadata !"", i32 0, i32 0, i64 0, i64 0, i64 0, i32 0, null, metadata !957, i32 0, i32 0} ; [ DW_TAG_subroutine_type ]
!957 = metadata !{metadata !160, metadata !921}
!958 = metadata !{i32 786478, i32 0, metadata !903, metadata !"or_reduce", metadata !"or_reduce", metadata !"_ZNK12ap_range_refILi32ELb0EE9or_reduceEv", metadata !142, i32 1220, metadata !956, i1 false, i1 false, i32 0, i32 0, null, i32 256, i1 false, null, null, i32 0, metadata !154, i32 1220} ; [ DW_TAG_subprogram ]
!959 = metadata !{i32 786478, i32 0, metadata !903, metadata !"xor_reduce", metadata !"xor_reduce", metadata !"_ZNK12ap_range_refILi32ELb0EE10xor_reduceEv", metadata !142, i32 1231, metadata !956, i1 false, i1 false, i32 0, i32 0, null, i32 256, i1 false, null, null, i32 0, metadata !154, i32 1231} ; [ DW_TAG_subprogram ]
!960 = metadata !{metadata !961, metadata !709}
!961 = metadata !{i32 786480, null, metadata !"_AP_W", metadata !158, i64 32, null, i32 0, i32 0} ; [ DW_TAG_template_value_parameter ]
!962 = metadata !{i32 786478, i32 0, metadata !697, metadata !"operator()", metadata !"operator()", metadata !"_ZN11ap_int_baseILi32ELb0ELb1EEclEii", metadata !142, i32 2068, metadata !901, i1 false, i1 false, i32 0, i32 0, null, i32 256, i1 false, null, null, i32 0, metadata !154, i32 2068} ; [ DW_TAG_subprogram ]
!963 = metadata !{i32 786478, i32 0, metadata !697, metadata !"range", metadata !"range", metadata !"_ZNK11ap_int_baseILi32ELb0ELb1EE5rangeEii", metadata !142, i32 2074, metadata !964, i1 false, i1 false, i32 0, i32 0, null, i32 256, i1 false, null, null, i32 0, metadata !154, i32 2074} ; [ DW_TAG_subprogram ]
!964 = metadata !{i32 786453, i32 0, metadata !"", i32 0, i32 0, i64 0, i64 0, i64 0, i32 0, null, metadata !965, i32 0, i32 0} ; [ DW_TAG_subroutine_type ]
!965 = metadata !{metadata !903, metadata !822, metadata !158, metadata !158}
!966 = metadata !{i32 786478, i32 0, metadata !697, metadata !"operator()", metadata !"operator()", metadata !"_ZNK11ap_int_baseILi32ELb0ELb1EEclEii", metadata !142, i32 2080, metadata !964, i1 false, i1 false, i32 0, i32 0, null, i32 256, i1 false, null, null, i32 0, metadata !154, i32 2080} ; [ DW_TAG_subprogram ]
!967 = metadata !{i32 786478, i32 0, metadata !697, metadata !"operator[]", metadata !"operator[]", metadata !"_ZN11ap_int_baseILi32ELb0ELb1EEixEi", metadata !142, i32 2099, metadata !968, i1 false, i1 false, i32 0, i32 0, null, i32 256, i1 false, null, null, i32 0, metadata !154, i32 2099} ; [ DW_TAG_subprogram ]
!968 = metadata !{i32 786453, i32 0, metadata !"", i32 0, i32 0, i64 0, i64 0, i64 0, i32 0, null, metadata !969, i32 0, i32 0} ; [ DW_TAG_subroutine_type ]
!969 = metadata !{metadata !970, metadata !713, metadata !158}
!970 = metadata !{i32 786434, null, metadata !"ap_bit_ref<32, false>", metadata !142, i32 1249, i32 0, i32 0, i32 0, i32 4, null, null, i32 0} ; [ DW_TAG_class_type ]
!971 = metadata !{i32 786478, i32 0, metadata !697, metadata !"operator[]", metadata !"operator[]", metadata !"_ZNK11ap_int_baseILi32ELb0ELb1EEixEi", metadata !142, i32 2113, metadata !873, i1 false, i1 false, i32 0, i32 0, null, i32 256, i1 false, null, null, i32 0, metadata !154, i32 2113} ; [ DW_TAG_subprogram ]
!972 = metadata !{i32 786478, i32 0, metadata !697, metadata !"bit", metadata !"bit", metadata !"_ZN11ap_int_baseILi32ELb0ELb1EE3bitEi", metadata !142, i32 2127, metadata !968, i1 false, i1 false, i32 0, i32 0, null, i32 256, i1 false, null, null, i32 0, metadata !154, i32 2127} ; [ DW_TAG_subprogram ]
!973 = metadata !{i32 786478, i32 0, metadata !697, metadata !"bit", metadata !"bit", metadata !"_ZNK11ap_int_baseILi32ELb0ELb1EE3bitEi", metadata !142, i32 2141, metadata !873, i1 false, i1 false, i32 0, i32 0, null, i32 256, i1 false, null, null, i32 0, metadata !154, i32 2141} ; [ DW_TAG_subprogram ]
!974 = metadata !{i32 786478, i32 0, metadata !697, metadata !"and_reduce", metadata !"and_reduce", metadata !"_ZN11ap_int_baseILi32ELb0ELb1EE10and_reduceEv", metadata !142, i32 2321, metadata !975, i1 false, i1 false, i32 0, i32 0, null, i32 256, i1 false, null, null, i32 0, metadata !154, i32 2321} ; [ DW_TAG_subprogram ]
!975 = metadata !{i32 786453, i32 0, metadata !"", i32 0, i32 0, i64 0, i64 0, i64 0, i32 0, null, metadata !976, i32 0, i32 0} ; [ DW_TAG_subroutine_type ]
!976 = metadata !{metadata !160, metadata !713}
!977 = metadata !{i32 786478, i32 0, metadata !697, metadata !"nand_reduce", metadata !"nand_reduce", metadata !"_ZN11ap_int_baseILi32ELb0ELb1EE11nand_reduceEv", metadata !142, i32 2324, metadata !975, i1 false, i1 false, i32 0, i32 0, null, i32 256, i1 false, null, null, i32 0, metadata !154, i32 2324} ; [ DW_TAG_subprogram ]
!978 = metadata !{i32 786478, i32 0, metadata !697, metadata !"or_reduce", metadata !"or_reduce", metadata !"_ZN11ap_int_baseILi32ELb0ELb1EE9or_reduceEv", metadata !142, i32 2327, metadata !975, i1 false, i1 false, i32 0, i32 0, null, i32 256, i1 false, null, null, i32 0, metadata !154, i32 2327} ; [ DW_TAG_subprogram ]
!979 = metadata !{i32 786478, i32 0, metadata !697, metadata !"nor_reduce", metadata !"nor_reduce", metadata !"_ZN11ap_int_baseILi32ELb0ELb1EE10nor_reduceEv", metadata !142, i32 2330, metadata !975, i1 false, i1 false, i32 0, i32 0, null, i32 256, i1 false, null, null, i32 0, metadata !154, i32 2330} ; [ DW_TAG_subprogram ]
!980 = metadata !{i32 786478, i32 0, metadata !697, metadata !"xor_reduce", metadata !"xor_reduce", metadata !"_ZN11ap_int_baseILi32ELb0ELb1EE10xor_reduceEv", metadata !142, i32 2333, metadata !975, i1 false, i1 false, i32 0, i32 0, null, i32 256, i1 false, null, null, i32 0, metadata !154, i32 2333} ; [ DW_TAG_subprogram ]
!981 = metadata !{i32 786478, i32 0, metadata !697, metadata !"xnor_reduce", metadata !"xnor_reduce", metadata !"_ZN11ap_int_baseILi32ELb0ELb1EE11xnor_reduceEv", metadata !142, i32 2336, metadata !975, i1 false, i1 false, i32 0, i32 0, null, i32 256, i1 false, null, null, i32 0, metadata !154, i32 2336} ; [ DW_TAG_subprogram ]
!982 = metadata !{i32 786478, i32 0, metadata !697, metadata !"and_reduce", metadata !"and_reduce", metadata !"_ZNK11ap_int_baseILi32ELb0ELb1EE10and_reduceEv", metadata !142, i32 2340, metadata !824, i1 false, i1 false, i32 0, i32 0, null, i32 256, i1 false, null, null, i32 0, metadata !154, i32 2340} ; [ DW_TAG_subprogram ]
!983 = metadata !{i32 786478, i32 0, metadata !697, metadata !"nand_reduce", metadata !"nand_reduce", metadata !"_ZNK11ap_int_baseILi32ELb0ELb1EE11nand_reduceEv", metadata !142, i32 2343, metadata !824, i1 false, i1 false, i32 0, i32 0, null, i32 256, i1 false, null, null, i32 0, metadata !154, i32 2343} ; [ DW_TAG_subprogram ]
!984 = metadata !{i32 786478, i32 0, metadata !697, metadata !"or_reduce", metadata !"or_reduce", metadata !"_ZNK11ap_int_baseILi32ELb0ELb1EE9or_reduceEv", metadata !142, i32 2346, metadata !824, i1 false, i1 false, i32 0, i32 0, null, i32 256, i1 false, null, null, i32 0, metadata !154, i32 2346} ; [ DW_TAG_subprogram ]
!985 = metadata !{i32 786478, i32 0, metadata !697, metadata !"nor_reduce", metadata !"nor_reduce", metadata !"_ZNK11ap_int_baseILi32ELb0ELb1EE10nor_reduceEv", metadata !142, i32 2349, metadata !824, i1 false, i1 false, i32 0, i32 0, null, i32 256, i1 false, null, null, i32 0, metadata !154, i32 2349} ; [ DW_TAG_subprogram ]
!986 = metadata !{i32 786478, i32 0, metadata !697, metadata !"xor_reduce", metadata !"xor_reduce", metadata !"_ZNK11ap_int_baseILi32ELb0ELb1EE10xor_reduceEv", metadata !142, i32 2352, metadata !824, i1 false, i1 false, i32 0, i32 0, null, i32 256, i1 false, null, null, i32 0, metadata !154, i32 2352} ; [ DW_TAG_subprogram ]
!987 = metadata !{i32 786478, i32 0, metadata !697, metadata !"xnor_reduce", metadata !"xnor_reduce", metadata !"_ZNK11ap_int_baseILi32ELb0ELb1EE11xnor_reduceEv", metadata !142, i32 2355, metadata !824, i1 false, i1 false, i32 0, i32 0, null, i32 256, i1 false, null, null, i32 0, metadata !154, i32 2355} ; [ DW_TAG_subprogram ]
!988 = metadata !{i32 786478, i32 0, metadata !697, metadata !"to_string", metadata !"to_string", metadata !"_ZNK11ap_int_baseILi32ELb0ELb1EE9to_stringEPci8BaseModeb", metadata !142, i32 2362, metadata !989, i1 false, i1 false, i32 0, i32 0, null, i32 256, i1 false, null, null, i32 0, metadata !154, i32 2362} ; [ DW_TAG_subprogram ]
!989 = metadata !{i32 786453, i32 0, metadata !"", i32 0, i32 0, i64 0, i64 0, i64 0, i32 0, null, metadata !990, i32 0, i32 0} ; [ DW_TAG_subroutine_type ]
!990 = metadata !{null, metadata !822, metadata !661, metadata !158, metadata !662, metadata !160}
!991 = metadata !{i32 786478, i32 0, metadata !697, metadata !"to_string", metadata !"to_string", metadata !"_ZNK11ap_int_baseILi32ELb0ELb1EE9to_stringE8BaseModeb", metadata !142, i32 2389, metadata !992, i1 false, i1 false, i32 0, i32 0, null, i32 256, i1 false, null, null, i32 0, metadata !154, i32 2389} ; [ DW_TAG_subprogram ]
!992 = metadata !{i32 786453, i32 0, metadata !"", i32 0, i32 0, i64 0, i64 0, i64 0, i32 0, null, metadata !993, i32 0, i32 0} ; [ DW_TAG_subroutine_type ]
!993 = metadata !{metadata !661, metadata !822, metadata !662, metadata !160}
!994 = metadata !{i32 786478, i32 0, metadata !697, metadata !"to_string", metadata !"to_string", metadata !"_ZNK11ap_int_baseILi32ELb0ELb1EE9to_stringEab", metadata !142, i32 2393, metadata !995, i1 false, i1 false, i32 0, i32 0, null, i32 256, i1 false, null, null, i32 0, metadata !154, i32 2393} ; [ DW_TAG_subprogram ]
!995 = metadata !{i32 786453, i32 0, metadata !"", i32 0, i32 0, i64 0, i64 0, i64 0, i32 0, null, metadata !996, i32 0, i32 0} ; [ DW_TAG_subroutine_type ]
!996 = metadata !{metadata !661, metadata !822, metadata !185, metadata !160}
!997 = metadata !{metadata !961, metadata !709, metadata !675}
!998 = metadata !{i32 786447, i32 0, metadata !"", i32 0, i32 0, i64 64, i64 64, i64 0, i32 64, metadata !689} ; [ DW_TAG_pointer_type ]
!999 = metadata !{i32 786478, i32 0, metadata !679, metadata !"operator unsigned long long", metadata !"operator unsigned long long", metadata !"_ZNK12ap_range_refILi32ELb1EEcvyEv", metadata !142, i32 945, metadata !1000, i1 false, i1 false, i32 0, i32 0, null, i32 256, i1 false, null, null, i32 0, metadata !154, i32 945} ; [ DW_TAG_subprogram ]
!1000 = metadata !{i32 786453, i32 0, metadata !"", i32 0, i32 0, i64 0, i64 0, i64 0, i32 0, null, metadata !1001, i32 0, i32 0} ; [ DW_TAG_subroutine_type ]
!1001 = metadata !{metadata !222, metadata !998}
!1002 = metadata !{i32 786478, i32 0, metadata !679, metadata !"operator=", metadata !"operator=", metadata !"_ZN12ap_range_refILi32ELb1EEaSEy", metadata !142, i32 949, metadata !1003, i1 false, i1 false, i32 0, i32 0, null, i32 256, i1 false, null, null, i32 0, metadata !154, i32 949} ; [ DW_TAG_subprogram ]
!1003 = metadata !{i32 786453, i32 0, metadata !"", i32 0, i32 0, i64 0, i64 0, i64 0, i32 0, null, metadata !1004, i32 0, i32 0} ; [ DW_TAG_subroutine_type ]
!1004 = metadata !{metadata !1005, metadata !687, metadata !222}
!1005 = metadata !{i32 786448, null, null, null, i32 0, i64 0, i64 0, i64 0, i32 0, metadata !679} ; [ DW_TAG_reference_type ]
!1006 = metadata !{i32 786478, i32 0, metadata !679, metadata !"operator=<16, true>", metadata !"operator=<16, true>", metadata !"_ZN12ap_range_refILi32ELb1EEaSILi16ELb1EEERS0_RKS_IXT_EXT0_EE", metadata !142, i32 963, metadata !1007, i1 false, i1 false, i32 0, i32 0, null, i32 256, i1 false, null, metadata !1042, i32 0, metadata !154, i32 963} ; [ DW_TAG_subprogram ]
!1007 = metadata !{i32 786453, i32 0, metadata !"", i32 0, i32 0, i64 0, i64 0, i64 0, i32 0, null, metadata !1008, i32 0, i32 0} ; [ DW_TAG_subroutine_type ]
!1008 = metadata !{metadata !1005, metadata !687, metadata !1009}
!1009 = metadata !{i32 786448, null, null, null, i32 0, i64 0, i64 0, i64 0, i32 0, metadata !1010} ; [ DW_TAG_reference_type ]
!1010 = metadata !{i32 786470, null, metadata !"", null, i32 0, i64 0, i64 0, i64 0, i32 0, metadata !1011} ; [ DW_TAG_const_type ]
!1011 = metadata !{i32 786434, null, metadata !"ap_range_ref<16, true>", metadata !142, i32 925, i64 128, i64 64, i32 0, i32 0, null, metadata !1012, i32 0, null, metadata !1848} ; [ DW_TAG_class_type ]
!1012 = metadata !{metadata !1013, metadata !1551, metadata !1552, metadata !1553, metadata !1557, metadata !1561, metadata !1807, metadata !1810, metadata !1814, metadata !1817, metadata !1821, metadata !1824, metadata !1825, metadata !1828, metadata !1831, metadata !1834, metadata !1837, metadata !1840, metadata !1843, metadata !1844, metadata !1845}
!1013 = metadata !{i32 786445, metadata !1011, metadata !"d_bv", metadata !142, i32 926, i64 64, i64 64, i64 0, i32 0, metadata !1014} ; [ DW_TAG_member ]
!1014 = metadata !{i32 786448, null, null, null, i32 0, i64 0, i64 0, i64 0, i32 0, metadata !1015} ; [ DW_TAG_reference_type ]
!1015 = metadata !{i32 786434, null, metadata !"ap_int_base<16, true, true>", metadata !142, i32 1453, i64 16, i64 16, i32 0, i32 0, null, metadata !1016, i32 0, null, metadata !1549} ; [ DW_TAG_class_type ]
!1016 = metadata !{metadata !1017, metadata !1033, metadata !1037, metadata !1044, metadata !1050, metadata !1053, metadata !1056, metadata !1059, metadata !1062, metadata !1065, metadata !1068, metadata !1071, metadata !1074, metadata !1077, metadata !1080, metadata !1083, metadata !1086, metadata !1089, metadata !1092, metadata !1095, metadata !1098, metadata !1102, metadata !1105, metadata !1108, metadata !1109, metadata !1112, metadata !1115, metadata !1118, metadata !1121, metadata !1124, metadata !1127, metadata !1130, metadata !1133, metadata !1136, metadata !1139, metadata !1142, metadata !1145, metadata !1154, metadata !1157, metadata !1160, metadata !1163, metadata !1166, metadata !1169, metadata !1172, metadata !1175, metadata !1178, metadata !1181, metadata !1184, metadata !1187, metadata !1190, metadata !1191, metadata !1195, metadata !1198, metadata !1199, metadata !1200, metadata !1201, metadata !1202, metadata !1203, metadata !1206, metadata !1207, metadata !1210, metadata !1211, metadata !1212, metadata !1213, metadata !1214, metadata !1215, metadata !1218, metadata !1219, metadata !1220, metadata !1223, metadata !1224, metadata !1227, metadata !1228, metadata !1511, metadata !1514, metadata !1515, metadata !1518, metadata !1519, metadata !1523, metadata !1524, metadata !1525, metadata !1526, metadata !1529, metadata !1530, metadata !1531, metadata !1532, metadata !1533, metadata !1534, metadata !1535, metadata !1536, metadata !1537, metadata !1538, metadata !1539, metadata !1540, metadata !1543, metadata !1546}
!1017 = metadata !{i32 786460, metadata !1015, null, metadata !142, i32 0, i64 0, i64 0, i64 0, i32 0, metadata !1018} ; [ DW_TAG_inheritance ]
!1018 = metadata !{i32 786434, null, metadata !"ssdm_int<16 + 1024 * 0, true>", metadata !146, i32 18, i64 16, i64 16, i32 0, i32 0, null, metadata !1019, i32 0, null, metadata !1031} ; [ DW_TAG_class_type ]
!1019 = metadata !{metadata !1020, metadata !1022, metadata !1026}
!1020 = metadata !{i32 786445, metadata !1018, metadata !"V", metadata !146, i32 18, i64 16, i64 16, i64 0, i32 0, metadata !1021} ; [ DW_TAG_member ]
!1021 = metadata !{i32 786468, null, metadata !"int16", null, i32 0, i64 16, i64 16, i64 0, i32 0, i32 5} ; [ DW_TAG_base_type ]
!1022 = metadata !{i32 786478, i32 0, metadata !1018, metadata !"ssdm_int", metadata !"ssdm_int", metadata !"", metadata !146, i32 18, metadata !1023, i1 false, i1 false, i32 0, i32 0, null, i32 256, i1 false, null, null, i32 0, metadata !154, i32 18} ; [ DW_TAG_subprogram ]
!1023 = metadata !{i32 786453, i32 0, metadata !"", i32 0, i32 0, i64 0, i64 0, i64 0, i32 0, null, metadata !1024, i32 0, i32 0} ; [ DW_TAG_subroutine_type ]
!1024 = metadata !{null, metadata !1025}
!1025 = metadata !{i32 786447, i32 0, metadata !"", i32 0, i32 0, i64 64, i64 64, i64 0, i32 64, metadata !1018} ; [ DW_TAG_pointer_type ]
!1026 = metadata !{i32 786478, i32 0, metadata !1018, metadata !"ssdm_int", metadata !"ssdm_int", metadata !"", metadata !146, i32 18, metadata !1027, i1 false, i1 false, i32 0, i32 0, null, i32 320, i1 false, null, null, i32 0, metadata !154, i32 18} ; [ DW_TAG_subprogram ]
!1027 = metadata !{i32 786453, i32 0, metadata !"", i32 0, i32 0, i64 0, i64 0, i64 0, i32 0, null, metadata !1028, i32 0, i32 0} ; [ DW_TAG_subroutine_type ]
!1028 = metadata !{null, metadata !1025, metadata !1029}
!1029 = metadata !{i32 786448, null, null, null, i32 0, i64 0, i64 0, i64 0, i32 0, metadata !1030} ; [ DW_TAG_reference_type ]
!1030 = metadata !{i32 786470, null, metadata !"", null, i32 0, i64 0, i64 0, i64 0, i32 0, metadata !1018} ; [ DW_TAG_const_type ]
!1031 = metadata !{metadata !1032, metadata !159}
!1032 = metadata !{i32 786480, null, metadata !"_AP_N", metadata !158, i64 16, null, i32 0, i32 0} ; [ DW_TAG_template_value_parameter ]
!1033 = metadata !{i32 786478, i32 0, metadata !1015, metadata !"ap_int_base", metadata !"ap_int_base", metadata !"", metadata !142, i32 1494, metadata !1034, i1 false, i1 false, i32 0, i32 0, null, i32 256, i1 false, null, null, i32 0, metadata !154, i32 1494} ; [ DW_TAG_subprogram ]
!1034 = metadata !{i32 786453, i32 0, metadata !"", i32 0, i32 0, i64 0, i64 0, i64 0, i32 0, null, metadata !1035, i32 0, i32 0} ; [ DW_TAG_subroutine_type ]
!1035 = metadata !{null, metadata !1036}
!1036 = metadata !{i32 786447, i32 0, metadata !"", i32 0, i32 0, i64 64, i64 64, i64 0, i32 64, metadata !1015} ; [ DW_TAG_pointer_type ]
!1037 = metadata !{i32 786478, i32 0, metadata !1015, metadata !"ap_int_base<16, true>", metadata !"ap_int_base<16, true>", metadata !"", metadata !142, i32 1506, metadata !1038, i1 false, i1 false, i32 0, i32 0, null, i32 256, i1 false, null, metadata !1042, i32 0, metadata !154, i32 1506} ; [ DW_TAG_subprogram ]
!1038 = metadata !{i32 786453, i32 0, metadata !"", i32 0, i32 0, i64 0, i64 0, i64 0, i32 0, null, metadata !1039, i32 0, i32 0} ; [ DW_TAG_subroutine_type ]
!1039 = metadata !{null, metadata !1036, metadata !1040}
!1040 = metadata !{i32 786448, null, null, null, i32 0, i64 0, i64 0, i64 0, i32 0, metadata !1041} ; [ DW_TAG_reference_type ]
!1041 = metadata !{i32 786470, null, metadata !"", null, i32 0, i64 0, i64 0, i64 0, i32 0, metadata !1015} ; [ DW_TAG_const_type ]
!1042 = metadata !{metadata !1043, metadata !172}
!1043 = metadata !{i32 786480, null, metadata !"_AP_W2", metadata !158, i64 16, null, i32 0, i32 0} ; [ DW_TAG_template_value_parameter ]
!1044 = metadata !{i32 786478, i32 0, metadata !1015, metadata !"ap_int_base<16, true>", metadata !"ap_int_base<16, true>", metadata !"", metadata !142, i32 1509, metadata !1045, i1 false, i1 false, i32 0, i32 0, null, i32 256, i1 false, null, metadata !1042, i32 0, metadata !154, i32 1509} ; [ DW_TAG_subprogram ]
!1045 = metadata !{i32 786453, i32 0, metadata !"", i32 0, i32 0, i64 0, i64 0, i64 0, i32 0, null, metadata !1046, i32 0, i32 0} ; [ DW_TAG_subroutine_type ]
!1046 = metadata !{null, metadata !1036, metadata !1047}
!1047 = metadata !{i32 786448, null, null, null, i32 0, i64 0, i64 0, i64 0, i32 0, metadata !1048} ; [ DW_TAG_reference_type ]
!1048 = metadata !{i32 786470, null, metadata !"", null, i32 0, i64 0, i64 0, i64 0, i32 0, metadata !1049} ; [ DW_TAG_const_type ]
!1049 = metadata !{i32 786485, null, metadata !"", null, i32 0, i64 0, i64 0, i64 0, i32 0, metadata !1015} ; [ DW_TAG_volatile_type ]
!1050 = metadata !{i32 786478, i32 0, metadata !1015, metadata !"ap_int_base", metadata !"ap_int_base", metadata !"", metadata !142, i32 1516, metadata !1051, i1 false, i1 false, i32 0, i32 0, null, i32 384, i1 false, null, null, i32 0, metadata !154, i32 1516} ; [ DW_TAG_subprogram ]
!1051 = metadata !{i32 786453, i32 0, metadata !"", i32 0, i32 0, i64 0, i64 0, i64 0, i32 0, null, metadata !1052, i32 0, i32 0} ; [ DW_TAG_subroutine_type ]
!1052 = metadata !{null, metadata !1036, metadata !160}
!1053 = metadata !{i32 786478, i32 0, metadata !1015, metadata !"ap_int_base", metadata !"ap_int_base", metadata !"", metadata !142, i32 1517, metadata !1054, i1 false, i1 false, i32 0, i32 0, null, i32 384, i1 false, null, null, i32 0, metadata !154, i32 1517} ; [ DW_TAG_subprogram ]
!1054 = metadata !{i32 786453, i32 0, metadata !"", i32 0, i32 0, i64 0, i64 0, i64 0, i32 0, null, metadata !1055, i32 0, i32 0} ; [ DW_TAG_subroutine_type ]
!1055 = metadata !{null, metadata !1036, metadata !185}
!1056 = metadata !{i32 786478, i32 0, metadata !1015, metadata !"ap_int_base", metadata !"ap_int_base", metadata !"", metadata !142, i32 1518, metadata !1057, i1 false, i1 false, i32 0, i32 0, null, i32 384, i1 false, null, null, i32 0, metadata !154, i32 1518} ; [ DW_TAG_subprogram ]
!1057 = metadata !{i32 786453, i32 0, metadata !"", i32 0, i32 0, i64 0, i64 0, i64 0, i32 0, null, metadata !1058, i32 0, i32 0} ; [ DW_TAG_subroutine_type ]
!1058 = metadata !{null, metadata !1036, metadata !189}
!1059 = metadata !{i32 786478, i32 0, metadata !1015, metadata !"ap_int_base", metadata !"ap_int_base", metadata !"", metadata !142, i32 1519, metadata !1060, i1 false, i1 false, i32 0, i32 0, null, i32 384, i1 false, null, null, i32 0, metadata !154, i32 1519} ; [ DW_TAG_subprogram ]
!1060 = metadata !{i32 786453, i32 0, metadata !"", i32 0, i32 0, i64 0, i64 0, i64 0, i32 0, null, metadata !1061, i32 0, i32 0} ; [ DW_TAG_subroutine_type ]
!1061 = metadata !{null, metadata !1036, metadata !193}
!1062 = metadata !{i32 786478, i32 0, metadata !1015, metadata !"ap_int_base", metadata !"ap_int_base", metadata !"", metadata !142, i32 1520, metadata !1063, i1 false, i1 false, i32 0, i32 0, null, i32 384, i1 false, null, null, i32 0, metadata !154, i32 1520} ; [ DW_TAG_subprogram ]
!1063 = metadata !{i32 786453, i32 0, metadata !"", i32 0, i32 0, i64 0, i64 0, i64 0, i32 0, null, metadata !1064, i32 0, i32 0} ; [ DW_TAG_subroutine_type ]
!1064 = metadata !{null, metadata !1036, metadata !197}
!1065 = metadata !{i32 786478, i32 0, metadata !1015, metadata !"ap_int_base", metadata !"ap_int_base", metadata !"", metadata !142, i32 1521, metadata !1066, i1 false, i1 false, i32 0, i32 0, null, i32 384, i1 false, null, null, i32 0, metadata !154, i32 1521} ; [ DW_TAG_subprogram ]
!1066 = metadata !{i32 786453, i32 0, metadata !"", i32 0, i32 0, i64 0, i64 0, i64 0, i32 0, null, metadata !1067, i32 0, i32 0} ; [ DW_TAG_subroutine_type ]
!1067 = metadata !{null, metadata !1036, metadata !158}
!1068 = metadata !{i32 786478, i32 0, metadata !1015, metadata !"ap_int_base", metadata !"ap_int_base", metadata !"", metadata !142, i32 1522, metadata !1069, i1 false, i1 false, i32 0, i32 0, null, i32 384, i1 false, null, null, i32 0, metadata !154, i32 1522} ; [ DW_TAG_subprogram ]
!1069 = metadata !{i32 786453, i32 0, metadata !"", i32 0, i32 0, i64 0, i64 0, i64 0, i32 0, null, metadata !1070, i32 0, i32 0} ; [ DW_TAG_subroutine_type ]
!1070 = metadata !{null, metadata !1036, metadata !204}
!1071 = metadata !{i32 786478, i32 0, metadata !1015, metadata !"ap_int_base", metadata !"ap_int_base", metadata !"", metadata !142, i32 1523, metadata !1072, i1 false, i1 false, i32 0, i32 0, null, i32 384, i1 false, null, null, i32 0, metadata !154, i32 1523} ; [ DW_TAG_subprogram ]
!1072 = metadata !{i32 786453, i32 0, metadata !"", i32 0, i32 0, i64 0, i64 0, i64 0, i32 0, null, metadata !1073, i32 0, i32 0} ; [ DW_TAG_subroutine_type ]
!1073 = metadata !{null, metadata !1036, metadata !208}
!1074 = metadata !{i32 786478, i32 0, metadata !1015, metadata !"ap_int_base", metadata !"ap_int_base", metadata !"", metadata !142, i32 1524, metadata !1075, i1 false, i1 false, i32 0, i32 0, null, i32 384, i1 false, null, null, i32 0, metadata !154, i32 1524} ; [ DW_TAG_subprogram ]
!1075 = metadata !{i32 786453, i32 0, metadata !"", i32 0, i32 0, i64 0, i64 0, i64 0, i32 0, null, metadata !1076, i32 0, i32 0} ; [ DW_TAG_subroutine_type ]
!1076 = metadata !{null, metadata !1036, metadata !212}
!1077 = metadata !{i32 786478, i32 0, metadata !1015, metadata !"ap_int_base", metadata !"ap_int_base", metadata !"", metadata !142, i32 1525, metadata !1078, i1 false, i1 false, i32 0, i32 0, null, i32 384, i1 false, null, null, i32 0, metadata !154, i32 1525} ; [ DW_TAG_subprogram ]
!1078 = metadata !{i32 786453, i32 0, metadata !"", i32 0, i32 0, i64 0, i64 0, i64 0, i32 0, null, metadata !1079, i32 0, i32 0} ; [ DW_TAG_subroutine_type ]
!1079 = metadata !{null, metadata !1036, metadata !216}
!1080 = metadata !{i32 786478, i32 0, metadata !1015, metadata !"ap_int_base", metadata !"ap_int_base", metadata !"", metadata !142, i32 1526, metadata !1081, i1 false, i1 false, i32 0, i32 0, null, i32 384, i1 false, null, null, i32 0, metadata !154, i32 1526} ; [ DW_TAG_subprogram ]
!1081 = metadata !{i32 786453, i32 0, metadata !"", i32 0, i32 0, i64 0, i64 0, i64 0, i32 0, null, metadata !1082, i32 0, i32 0} ; [ DW_TAG_subroutine_type ]
!1082 = metadata !{null, metadata !1036, metadata !221}
!1083 = metadata !{i32 786478, i32 0, metadata !1015, metadata !"ap_int_base", metadata !"ap_int_base", metadata !"", metadata !142, i32 1527, metadata !1084, i1 false, i1 false, i32 0, i32 0, null, i32 384, i1 false, null, null, i32 0, metadata !154, i32 1527} ; [ DW_TAG_subprogram ]
!1084 = metadata !{i32 786453, i32 0, metadata !"", i32 0, i32 0, i64 0, i64 0, i64 0, i32 0, null, metadata !1085, i32 0, i32 0} ; [ DW_TAG_subroutine_type ]
!1085 = metadata !{null, metadata !1036, metadata !226}
!1086 = metadata !{i32 786478, i32 0, metadata !1015, metadata !"ap_int_base", metadata !"ap_int_base", metadata !"", metadata !142, i32 1528, metadata !1087, i1 false, i1 false, i32 0, i32 0, null, i32 384, i1 false, null, null, i32 0, metadata !154, i32 1528} ; [ DW_TAG_subprogram ]
!1087 = metadata !{i32 786453, i32 0, metadata !"", i32 0, i32 0, i64 0, i64 0, i64 0, i32 0, null, metadata !1088, i32 0, i32 0} ; [ DW_TAG_subroutine_type ]
!1088 = metadata !{null, metadata !1036, metadata !231}
!1089 = metadata !{i32 786478, i32 0, metadata !1015, metadata !"ap_int_base", metadata !"ap_int_base", metadata !"", metadata !142, i32 1529, metadata !1090, i1 false, i1 false, i32 0, i32 0, null, i32 384, i1 false, null, null, i32 0, metadata !154, i32 1529} ; [ DW_TAG_subprogram ]
!1090 = metadata !{i32 786453, i32 0, metadata !"", i32 0, i32 0, i64 0, i64 0, i64 0, i32 0, null, metadata !1091, i32 0, i32 0} ; [ DW_TAG_subroutine_type ]
!1091 = metadata !{null, metadata !1036, metadata !235}
!1092 = metadata !{i32 786478, i32 0, metadata !1015, metadata !"ap_int_base", metadata !"ap_int_base", metadata !"", metadata !142, i32 1556, metadata !1093, i1 false, i1 false, i32 0, i32 0, null, i32 256, i1 false, null, null, i32 0, metadata !154, i32 1556} ; [ DW_TAG_subprogram ]
!1093 = metadata !{i32 786453, i32 0, metadata !"", i32 0, i32 0, i64 0, i64 0, i64 0, i32 0, null, metadata !1094, i32 0, i32 0} ; [ DW_TAG_subroutine_type ]
!1094 = metadata !{null, metadata !1036, metadata !239}
!1095 = metadata !{i32 786478, i32 0, metadata !1015, metadata !"ap_int_base", metadata !"ap_int_base", metadata !"", metadata !142, i32 1563, metadata !1096, i1 false, i1 false, i32 0, i32 0, null, i32 256, i1 false, null, null, i32 0, metadata !154, i32 1563} ; [ DW_TAG_subprogram ]
!1096 = metadata !{i32 786453, i32 0, metadata !"", i32 0, i32 0, i64 0, i64 0, i64 0, i32 0, null, metadata !1097, i32 0, i32 0} ; [ DW_TAG_subroutine_type ]
!1097 = metadata !{null, metadata !1036, metadata !239, metadata !185}
!1098 = metadata !{i32 786478, i32 0, metadata !1015, metadata !"read", metadata !"read", metadata !"_ZNV11ap_int_baseILi16ELb1ELb1EE4readEv", metadata !142, i32 1584, metadata !1099, i1 false, i1 false, i32 0, i32 0, null, i32 256, i1 false, null, null, i32 0, metadata !154, i32 1584} ; [ DW_TAG_subprogram ]
!1099 = metadata !{i32 786453, i32 0, metadata !"", i32 0, i32 0, i64 0, i64 0, i64 0, i32 0, null, metadata !1100, i32 0, i32 0} ; [ DW_TAG_subroutine_type ]
!1100 = metadata !{metadata !1015, metadata !1101}
!1101 = metadata !{i32 786447, i32 0, metadata !"", i32 0, i32 0, i64 64, i64 64, i64 0, i32 64, metadata !1049} ; [ DW_TAG_pointer_type ]
!1102 = metadata !{i32 786478, i32 0, metadata !1015, metadata !"write", metadata !"write", metadata !"_ZNV11ap_int_baseILi16ELb1ELb1EE5writeERKS0_", metadata !142, i32 1590, metadata !1103, i1 false, i1 false, i32 0, i32 0, null, i32 256, i1 false, null, null, i32 0, metadata !154, i32 1590} ; [ DW_TAG_subprogram ]
!1103 = metadata !{i32 786453, i32 0, metadata !"", i32 0, i32 0, i64 0, i64 0, i64 0, i32 0, null, metadata !1104, i32 0, i32 0} ; [ DW_TAG_subroutine_type ]
!1104 = metadata !{null, metadata !1101, metadata !1040}
!1105 = metadata !{i32 786478, i32 0, metadata !1015, metadata !"operator=", metadata !"operator=", metadata !"_ZNV11ap_int_baseILi16ELb1ELb1EEaSERVKS0_", metadata !142, i32 1602, metadata !1106, i1 false, i1 false, i32 0, i32 0, null, i32 256, i1 false, null, null, i32 0, metadata !154, i32 1602} ; [ DW_TAG_subprogram ]
!1106 = metadata !{i32 786453, i32 0, metadata !"", i32 0, i32 0, i64 0, i64 0, i64 0, i32 0, null, metadata !1107, i32 0, i32 0} ; [ DW_TAG_subroutine_type ]
!1107 = metadata !{null, metadata !1101, metadata !1047}
!1108 = metadata !{i32 786478, i32 0, metadata !1015, metadata !"operator=", metadata !"operator=", metadata !"_ZNV11ap_int_baseILi16ELb1ELb1EEaSERKS0_", metadata !142, i32 1611, metadata !1103, i1 false, i1 false, i32 0, i32 0, null, i32 256, i1 false, null, null, i32 0, metadata !154, i32 1611} ; [ DW_TAG_subprogram ]
!1109 = metadata !{i32 786478, i32 0, metadata !1015, metadata !"operator=", metadata !"operator=", metadata !"_ZN11ap_int_baseILi16ELb1ELb1EEaSERVKS0_", metadata !142, i32 1634, metadata !1110, i1 false, i1 false, i32 0, i32 0, null, i32 256, i1 false, null, null, i32 0, metadata !154, i32 1634} ; [ DW_TAG_subprogram ]
!1110 = metadata !{i32 786453, i32 0, metadata !"", i32 0, i32 0, i64 0, i64 0, i64 0, i32 0, null, metadata !1111, i32 0, i32 0} ; [ DW_TAG_subroutine_type ]
!1111 = metadata !{metadata !1014, metadata !1036, metadata !1047}
!1112 = metadata !{i32 786478, i32 0, metadata !1015, metadata !"operator=", metadata !"operator=", metadata !"_ZN11ap_int_baseILi16ELb1ELb1EEaSERKS0_", metadata !142, i32 1639, metadata !1113, i1 false, i1 false, i32 0, i32 0, null, i32 256, i1 false, null, null, i32 0, metadata !154, i32 1639} ; [ DW_TAG_subprogram ]
!1113 = metadata !{i32 786453, i32 0, metadata !"", i32 0, i32 0, i64 0, i64 0, i64 0, i32 0, null, metadata !1114, i32 0, i32 0} ; [ DW_TAG_subroutine_type ]
!1114 = metadata !{metadata !1014, metadata !1036, metadata !1040}
!1115 = metadata !{i32 786478, i32 0, metadata !1015, metadata !"operator=", metadata !"operator=", metadata !"_ZN11ap_int_baseILi16ELb1ELb1EEaSEPKc", metadata !142, i32 1643, metadata !1116, i1 false, i1 false, i32 0, i32 0, null, i32 256, i1 false, null, null, i32 0, metadata !154, i32 1643} ; [ DW_TAG_subprogram ]
!1116 = metadata !{i32 786453, i32 0, metadata !"", i32 0, i32 0, i64 0, i64 0, i64 0, i32 0, null, metadata !1117, i32 0, i32 0} ; [ DW_TAG_subroutine_type ]
!1117 = metadata !{metadata !1014, metadata !1036, metadata !239}
!1118 = metadata !{i32 786478, i32 0, metadata !1015, metadata !"set", metadata !"set", metadata !"_ZN11ap_int_baseILi16ELb1ELb1EE3setEPKca", metadata !142, i32 1651, metadata !1119, i1 false, i1 false, i32 0, i32 0, null, i32 256, i1 false, null, null, i32 0, metadata !154, i32 1651} ; [ DW_TAG_subprogram ]
!1119 = metadata !{i32 786453, i32 0, metadata !"", i32 0, i32 0, i64 0, i64 0, i64 0, i32 0, null, metadata !1120, i32 0, i32 0} ; [ DW_TAG_subroutine_type ]
!1120 = metadata !{metadata !1014, metadata !1036, metadata !239, metadata !185}
!1121 = metadata !{i32 786478, i32 0, metadata !1015, metadata !"operator=", metadata !"operator=", metadata !"_ZN11ap_int_baseILi16ELb1ELb1EEaSEa", metadata !142, i32 1665, metadata !1122, i1 false, i1 false, i32 0, i32 0, null, i32 256, i1 false, null, null, i32 0, metadata !154, i32 1665} ; [ DW_TAG_subprogram ]
!1122 = metadata !{i32 786453, i32 0, metadata !"", i32 0, i32 0, i64 0, i64 0, i64 0, i32 0, null, metadata !1123, i32 0, i32 0} ; [ DW_TAG_subroutine_type ]
!1123 = metadata !{metadata !1014, metadata !1036, metadata !185}
!1124 = metadata !{i32 786478, i32 0, metadata !1015, metadata !"operator=", metadata !"operator=", metadata !"_ZN11ap_int_baseILi16ELb1ELb1EEaSEh", metadata !142, i32 1666, metadata !1125, i1 false, i1 false, i32 0, i32 0, null, i32 256, i1 false, null, null, i32 0, metadata !154, i32 1666} ; [ DW_TAG_subprogram ]
!1125 = metadata !{i32 786453, i32 0, metadata !"", i32 0, i32 0, i64 0, i64 0, i64 0, i32 0, null, metadata !1126, i32 0, i32 0} ; [ DW_TAG_subroutine_type ]
!1126 = metadata !{metadata !1014, metadata !1036, metadata !189}
!1127 = metadata !{i32 786478, i32 0, metadata !1015, metadata !"operator=", metadata !"operator=", metadata !"_ZN11ap_int_baseILi16ELb1ELb1EEaSEs", metadata !142, i32 1667, metadata !1128, i1 false, i1 false, i32 0, i32 0, null, i32 256, i1 false, null, null, i32 0, metadata !154, i32 1667} ; [ DW_TAG_subprogram ]
!1128 = metadata !{i32 786453, i32 0, metadata !"", i32 0, i32 0, i64 0, i64 0, i64 0, i32 0, null, metadata !1129, i32 0, i32 0} ; [ DW_TAG_subroutine_type ]
!1129 = metadata !{metadata !1014, metadata !1036, metadata !193}
!1130 = metadata !{i32 786478, i32 0, metadata !1015, metadata !"operator=", metadata !"operator=", metadata !"_ZN11ap_int_baseILi16ELb1ELb1EEaSEt", metadata !142, i32 1668, metadata !1131, i1 false, i1 false, i32 0, i32 0, null, i32 256, i1 false, null, null, i32 0, metadata !154, i32 1668} ; [ DW_TAG_subprogram ]
!1131 = metadata !{i32 786453, i32 0, metadata !"", i32 0, i32 0, i64 0, i64 0, i64 0, i32 0, null, metadata !1132, i32 0, i32 0} ; [ DW_TAG_subroutine_type ]
!1132 = metadata !{metadata !1014, metadata !1036, metadata !197}
!1133 = metadata !{i32 786478, i32 0, metadata !1015, metadata !"operator=", metadata !"operator=", metadata !"_ZN11ap_int_baseILi16ELb1ELb1EEaSEi", metadata !142, i32 1669, metadata !1134, i1 false, i1 false, i32 0, i32 0, null, i32 256, i1 false, null, null, i32 0, metadata !154, i32 1669} ; [ DW_TAG_subprogram ]
!1134 = metadata !{i32 786453, i32 0, metadata !"", i32 0, i32 0, i64 0, i64 0, i64 0, i32 0, null, metadata !1135, i32 0, i32 0} ; [ DW_TAG_subroutine_type ]
!1135 = metadata !{metadata !1014, metadata !1036, metadata !158}
!1136 = metadata !{i32 786478, i32 0, metadata !1015, metadata !"operator=", metadata !"operator=", metadata !"_ZN11ap_int_baseILi16ELb1ELb1EEaSEj", metadata !142, i32 1670, metadata !1137, i1 false, i1 false, i32 0, i32 0, null, i32 256, i1 false, null, null, i32 0, metadata !154, i32 1670} ; [ DW_TAG_subprogram ]
!1137 = metadata !{i32 786453, i32 0, metadata !"", i32 0, i32 0, i64 0, i64 0, i64 0, i32 0, null, metadata !1138, i32 0, i32 0} ; [ DW_TAG_subroutine_type ]
!1138 = metadata !{metadata !1014, metadata !1036, metadata !204}
!1139 = metadata !{i32 786478, i32 0, metadata !1015, metadata !"operator=", metadata !"operator=", metadata !"_ZN11ap_int_baseILi16ELb1ELb1EEaSEx", metadata !142, i32 1671, metadata !1140, i1 false, i1 false, i32 0, i32 0, null, i32 256, i1 false, null, null, i32 0, metadata !154, i32 1671} ; [ DW_TAG_subprogram ]
!1140 = metadata !{i32 786453, i32 0, metadata !"", i32 0, i32 0, i64 0, i64 0, i64 0, i32 0, null, metadata !1141, i32 0, i32 0} ; [ DW_TAG_subroutine_type ]
!1141 = metadata !{metadata !1014, metadata !1036, metadata !216}
!1142 = metadata !{i32 786478, i32 0, metadata !1015, metadata !"operator=", metadata !"operator=", metadata !"_ZN11ap_int_baseILi16ELb1ELb1EEaSEy", metadata !142, i32 1672, metadata !1143, i1 false, i1 false, i32 0, i32 0, null, i32 256, i1 false, null, null, i32 0, metadata !154, i32 1672} ; [ DW_TAG_subprogram ]
!1143 = metadata !{i32 786453, i32 0, metadata !"", i32 0, i32 0, i64 0, i64 0, i64 0, i32 0, null, metadata !1144, i32 0, i32 0} ; [ DW_TAG_subroutine_type ]
!1144 = metadata !{metadata !1014, metadata !1036, metadata !221}
!1145 = metadata !{i32 786478, i32 0, metadata !1015, metadata !"operator short", metadata !"operator short", metadata !"_ZNK11ap_int_baseILi16ELb1ELb1EEcvsEv", metadata !142, i32 1710, metadata !1146, i1 false, i1 false, i32 0, i32 0, null, i32 256, i1 false, null, null, i32 0, metadata !154, i32 1710} ; [ DW_TAG_subprogram ]
!1146 = metadata !{i32 786453, i32 0, metadata !"", i32 0, i32 0, i64 0, i64 0, i64 0, i32 0, null, metadata !1147, i32 0, i32 0} ; [ DW_TAG_subroutine_type ]
!1147 = metadata !{metadata !1148, metadata !1153}
!1148 = metadata !{i32 786454, metadata !1015, metadata !"RetType", metadata !142, i32 1458, i64 0, i64 0, i64 0, i32 0, metadata !1149} ; [ DW_TAG_typedef ]
!1149 = metadata !{i32 786454, metadata !1150, metadata !"Type", metadata !142, i32 1429, i64 0, i64 0, i64 0, i32 0, metadata !193} ; [ DW_TAG_typedef ]
!1150 = metadata !{i32 786434, null, metadata !"retval<2, true>", metadata !142, i32 1428, i64 8, i64 8, i32 0, i32 0, null, metadata !299, i32 0, null, metadata !1151} ; [ DW_TAG_class_type ]
!1151 = metadata !{metadata !1152, metadata !159}
!1152 = metadata !{i32 786480, null, metadata !"_AP_N", metadata !158, i64 2, null, i32 0, i32 0} ; [ DW_TAG_template_value_parameter ]
!1153 = metadata !{i32 786447, i32 0, metadata !"", i32 0, i32 0, i64 64, i64 64, i64 0, i32 64, metadata !1041} ; [ DW_TAG_pointer_type ]
!1154 = metadata !{i32 786478, i32 0, metadata !1015, metadata !"to_bool", metadata !"to_bool", metadata !"_ZNK11ap_int_baseILi16ELb1ELb1EE7to_boolEv", metadata !142, i32 1716, metadata !1155, i1 false, i1 false, i32 0, i32 0, null, i32 256, i1 false, null, null, i32 0, metadata !154, i32 1716} ; [ DW_TAG_subprogram ]
!1155 = metadata !{i32 786453, i32 0, metadata !"", i32 0, i32 0, i64 0, i64 0, i64 0, i32 0, null, metadata !1156, i32 0, i32 0} ; [ DW_TAG_subroutine_type ]
!1156 = metadata !{metadata !160, metadata !1153}
!1157 = metadata !{i32 786478, i32 0, metadata !1015, metadata !"to_uchar", metadata !"to_uchar", metadata !"_ZNK11ap_int_baseILi16ELb1ELb1EE8to_ucharEv", metadata !142, i32 1717, metadata !1158, i1 false, i1 false, i32 0, i32 0, null, i32 256, i1 false, null, null, i32 0, metadata !154, i32 1717} ; [ DW_TAG_subprogram ]
!1158 = metadata !{i32 786453, i32 0, metadata !"", i32 0, i32 0, i64 0, i64 0, i64 0, i32 0, null, metadata !1159, i32 0, i32 0} ; [ DW_TAG_subroutine_type ]
!1159 = metadata !{metadata !189, metadata !1153}
!1160 = metadata !{i32 786478, i32 0, metadata !1015, metadata !"to_char", metadata !"to_char", metadata !"_ZNK11ap_int_baseILi16ELb1ELb1EE7to_charEv", metadata !142, i32 1718, metadata !1161, i1 false, i1 false, i32 0, i32 0, null, i32 256, i1 false, null, null, i32 0, metadata !154, i32 1718} ; [ DW_TAG_subprogram ]
!1161 = metadata !{i32 786453, i32 0, metadata !"", i32 0, i32 0, i64 0, i64 0, i64 0, i32 0, null, metadata !1162, i32 0, i32 0} ; [ DW_TAG_subroutine_type ]
!1162 = metadata !{metadata !185, metadata !1153}
!1163 = metadata !{i32 786478, i32 0, metadata !1015, metadata !"to_ushort", metadata !"to_ushort", metadata !"_ZNK11ap_int_baseILi16ELb1ELb1EE9to_ushortEv", metadata !142, i32 1719, metadata !1164, i1 false, i1 false, i32 0, i32 0, null, i32 256, i1 false, null, null, i32 0, metadata !154, i32 1719} ; [ DW_TAG_subprogram ]
!1164 = metadata !{i32 786453, i32 0, metadata !"", i32 0, i32 0, i64 0, i64 0, i64 0, i32 0, null, metadata !1165, i32 0, i32 0} ; [ DW_TAG_subroutine_type ]
!1165 = metadata !{metadata !197, metadata !1153}
!1166 = metadata !{i32 786478, i32 0, metadata !1015, metadata !"to_short", metadata !"to_short", metadata !"_ZNK11ap_int_baseILi16ELb1ELb1EE8to_shortEv", metadata !142, i32 1720, metadata !1167, i1 false, i1 false, i32 0, i32 0, null, i32 256, i1 false, null, null, i32 0, metadata !154, i32 1720} ; [ DW_TAG_subprogram ]
!1167 = metadata !{i32 786453, i32 0, metadata !"", i32 0, i32 0, i64 0, i64 0, i64 0, i32 0, null, metadata !1168, i32 0, i32 0} ; [ DW_TAG_subroutine_type ]
!1168 = metadata !{metadata !193, metadata !1153}
!1169 = metadata !{i32 786478, i32 0, metadata !1015, metadata !"to_int", metadata !"to_int", metadata !"_ZNK11ap_int_baseILi16ELb1ELb1EE6to_intEv", metadata !142, i32 1721, metadata !1170, i1 false, i1 false, i32 0, i32 0, null, i32 256, i1 false, null, null, i32 0, metadata !154, i32 1721} ; [ DW_TAG_subprogram ]
!1170 = metadata !{i32 786453, i32 0, metadata !"", i32 0, i32 0, i64 0, i64 0, i64 0, i32 0, null, metadata !1171, i32 0, i32 0} ; [ DW_TAG_subroutine_type ]
!1171 = metadata !{metadata !158, metadata !1153}
!1172 = metadata !{i32 786478, i32 0, metadata !1015, metadata !"to_uint", metadata !"to_uint", metadata !"_ZNK11ap_int_baseILi16ELb1ELb1EE7to_uintEv", metadata !142, i32 1722, metadata !1173, i1 false, i1 false, i32 0, i32 0, null, i32 256, i1 false, null, null, i32 0, metadata !154, i32 1722} ; [ DW_TAG_subprogram ]
!1173 = metadata !{i32 786453, i32 0, metadata !"", i32 0, i32 0, i64 0, i64 0, i64 0, i32 0, null, metadata !1174, i32 0, i32 0} ; [ DW_TAG_subroutine_type ]
!1174 = metadata !{metadata !204, metadata !1153}
!1175 = metadata !{i32 786478, i32 0, metadata !1015, metadata !"to_long", metadata !"to_long", metadata !"_ZNK11ap_int_baseILi16ELb1ELb1EE7to_longEv", metadata !142, i32 1723, metadata !1176, i1 false, i1 false, i32 0, i32 0, null, i32 256, i1 false, null, null, i32 0, metadata !154, i32 1723} ; [ DW_TAG_subprogram ]
!1176 = metadata !{i32 786453, i32 0, metadata !"", i32 0, i32 0, i64 0, i64 0, i64 0, i32 0, null, metadata !1177, i32 0, i32 0} ; [ DW_TAG_subroutine_type ]
!1177 = metadata !{metadata !208, metadata !1153}
!1178 = metadata !{i32 786478, i32 0, metadata !1015, metadata !"to_ulong", metadata !"to_ulong", metadata !"_ZNK11ap_int_baseILi16ELb1ELb1EE8to_ulongEv", metadata !142, i32 1724, metadata !1179, i1 false, i1 false, i32 0, i32 0, null, i32 256, i1 false, null, null, i32 0, metadata !154, i32 1724} ; [ DW_TAG_subprogram ]
!1179 = metadata !{i32 786453, i32 0, metadata !"", i32 0, i32 0, i64 0, i64 0, i64 0, i32 0, null, metadata !1180, i32 0, i32 0} ; [ DW_TAG_subroutine_type ]
!1180 = metadata !{metadata !212, metadata !1153}
!1181 = metadata !{i32 786478, i32 0, metadata !1015, metadata !"to_int64", metadata !"to_int64", metadata !"_ZNK11ap_int_baseILi16ELb1ELb1EE8to_int64Ev", metadata !142, i32 1725, metadata !1182, i1 false, i1 false, i32 0, i32 0, null, i32 256, i1 false, null, null, i32 0, metadata !154, i32 1725} ; [ DW_TAG_subprogram ]
!1182 = metadata !{i32 786453, i32 0, metadata !"", i32 0, i32 0, i64 0, i64 0, i64 0, i32 0, null, metadata !1183, i32 0, i32 0} ; [ DW_TAG_subroutine_type ]
!1183 = metadata !{metadata !216, metadata !1153}
!1184 = metadata !{i32 786478, i32 0, metadata !1015, metadata !"to_uint64", metadata !"to_uint64", metadata !"_ZNK11ap_int_baseILi16ELb1ELb1EE9to_uint64Ev", metadata !142, i32 1726, metadata !1185, i1 false, i1 false, i32 0, i32 0, null, i32 256, i1 false, null, null, i32 0, metadata !154, i32 1726} ; [ DW_TAG_subprogram ]
!1185 = metadata !{i32 786453, i32 0, metadata !"", i32 0, i32 0, i64 0, i64 0, i64 0, i32 0, null, metadata !1186, i32 0, i32 0} ; [ DW_TAG_subroutine_type ]
!1186 = metadata !{metadata !221, metadata !1153}
!1187 = metadata !{i32 786478, i32 0, metadata !1015, metadata !"to_double", metadata !"to_double", metadata !"_ZNK11ap_int_baseILi16ELb1ELb1EE9to_doubleEv", metadata !142, i32 1727, metadata !1188, i1 false, i1 false, i32 0, i32 0, null, i32 256, i1 false, null, null, i32 0, metadata !154, i32 1727} ; [ DW_TAG_subprogram ]
!1188 = metadata !{i32 786453, i32 0, metadata !"", i32 0, i32 0, i64 0, i64 0, i64 0, i32 0, null, metadata !1189, i32 0, i32 0} ; [ DW_TAG_subroutine_type ]
!1189 = metadata !{metadata !235, metadata !1153}
!1190 = metadata !{i32 786478, i32 0, metadata !1015, metadata !"length", metadata !"length", metadata !"_ZNK11ap_int_baseILi16ELb1ELb1EE6lengthEv", metadata !142, i32 1741, metadata !1170, i1 false, i1 false, i32 0, i32 0, null, i32 256, i1 false, null, null, i32 0, metadata !154, i32 1741} ; [ DW_TAG_subprogram ]
!1191 = metadata !{i32 786478, i32 0, metadata !1015, metadata !"length", metadata !"length", metadata !"_ZNVK11ap_int_baseILi16ELb1ELb1EE6lengthEv", metadata !142, i32 1742, metadata !1192, i1 false, i1 false, i32 0, i32 0, null, i32 256, i1 false, null, null, i32 0, metadata !154, i32 1742} ; [ DW_TAG_subprogram ]
!1192 = metadata !{i32 786453, i32 0, metadata !"", i32 0, i32 0, i64 0, i64 0, i64 0, i32 0, null, metadata !1193, i32 0, i32 0} ; [ DW_TAG_subroutine_type ]
!1193 = metadata !{metadata !158, metadata !1194}
!1194 = metadata !{i32 786447, i32 0, metadata !"", i32 0, i32 0, i64 64, i64 64, i64 0, i32 64, metadata !1048} ; [ DW_TAG_pointer_type ]
!1195 = metadata !{i32 786478, i32 0, metadata !1015, metadata !"reverse", metadata !"reverse", metadata !"_ZN11ap_int_baseILi16ELb1ELb1EE7reverseEv", metadata !142, i32 1747, metadata !1196, i1 false, i1 false, i32 0, i32 0, null, i32 256, i1 false, null, null, i32 0, metadata !154, i32 1747} ; [ DW_TAG_subprogram ]
!1196 = metadata !{i32 786453, i32 0, metadata !"", i32 0, i32 0, i64 0, i64 0, i64 0, i32 0, null, metadata !1197, i32 0, i32 0} ; [ DW_TAG_subroutine_type ]
!1197 = metadata !{metadata !1014, metadata !1036}
!1198 = metadata !{i32 786478, i32 0, metadata !1015, metadata !"iszero", metadata !"iszero", metadata !"_ZNK11ap_int_baseILi16ELb1ELb1EE6iszeroEv", metadata !142, i32 1753, metadata !1155, i1 false, i1 false, i32 0, i32 0, null, i32 256, i1 false, null, null, i32 0, metadata !154, i32 1753} ; [ DW_TAG_subprogram ]
!1199 = metadata !{i32 786478, i32 0, metadata !1015, metadata !"is_zero", metadata !"is_zero", metadata !"_ZNK11ap_int_baseILi16ELb1ELb1EE7is_zeroEv", metadata !142, i32 1758, metadata !1155, i1 false, i1 false, i32 0, i32 0, null, i32 256, i1 false, null, null, i32 0, metadata !154, i32 1758} ; [ DW_TAG_subprogram ]
!1200 = metadata !{i32 786478, i32 0, metadata !1015, metadata !"sign", metadata !"sign", metadata !"_ZNK11ap_int_baseILi16ELb1ELb1EE4signEv", metadata !142, i32 1763, metadata !1155, i1 false, i1 false, i32 0, i32 0, null, i32 256, i1 false, null, null, i32 0, metadata !154, i32 1763} ; [ DW_TAG_subprogram ]
!1201 = metadata !{i32 786478, i32 0, metadata !1015, metadata !"clear", metadata !"clear", metadata !"_ZN11ap_int_baseILi16ELb1ELb1EE5clearEi", metadata !142, i32 1771, metadata !1066, i1 false, i1 false, i32 0, i32 0, null, i32 256, i1 false, null, null, i32 0, metadata !154, i32 1771} ; [ DW_TAG_subprogram ]
!1202 = metadata !{i32 786478, i32 0, metadata !1015, metadata !"invert", metadata !"invert", metadata !"_ZN11ap_int_baseILi16ELb1ELb1EE6invertEi", metadata !142, i32 1777, metadata !1066, i1 false, i1 false, i32 0, i32 0, null, i32 256, i1 false, null, null, i32 0, metadata !154, i32 1777} ; [ DW_TAG_subprogram ]
!1203 = metadata !{i32 786478, i32 0, metadata !1015, metadata !"test", metadata !"test", metadata !"_ZNK11ap_int_baseILi16ELb1ELb1EE4testEi", metadata !142, i32 1785, metadata !1204, i1 false, i1 false, i32 0, i32 0, null, i32 256, i1 false, null, null, i32 0, metadata !154, i32 1785} ; [ DW_TAG_subprogram ]
!1204 = metadata !{i32 786453, i32 0, metadata !"", i32 0, i32 0, i64 0, i64 0, i64 0, i32 0, null, metadata !1205, i32 0, i32 0} ; [ DW_TAG_subroutine_type ]
!1205 = metadata !{metadata !160, metadata !1153, metadata !158}
!1206 = metadata !{i32 786478, i32 0, metadata !1015, metadata !"set", metadata !"set", metadata !"_ZN11ap_int_baseILi16ELb1ELb1EE3setEi", metadata !142, i32 1791, metadata !1066, i1 false, i1 false, i32 0, i32 0, null, i32 256, i1 false, null, null, i32 0, metadata !154, i32 1791} ; [ DW_TAG_subprogram ]
!1207 = metadata !{i32 786478, i32 0, metadata !1015, metadata !"set", metadata !"set", metadata !"_ZN11ap_int_baseILi16ELb1ELb1EE3setEib", metadata !142, i32 1797, metadata !1208, i1 false, i1 false, i32 0, i32 0, null, i32 256, i1 false, null, null, i32 0, metadata !154, i32 1797} ; [ DW_TAG_subprogram ]
!1208 = metadata !{i32 786453, i32 0, metadata !"", i32 0, i32 0, i64 0, i64 0, i64 0, i32 0, null, metadata !1209, i32 0, i32 0} ; [ DW_TAG_subroutine_type ]
!1209 = metadata !{null, metadata !1036, metadata !158, metadata !160}
!1210 = metadata !{i32 786478, i32 0, metadata !1015, metadata !"lrotate", metadata !"lrotate", metadata !"_ZN11ap_int_baseILi16ELb1ELb1EE7lrotateEi", metadata !142, i32 1804, metadata !1066, i1 false, i1 false, i32 0, i32 0, null, i32 256, i1 false, null, null, i32 0, metadata !154, i32 1804} ; [ DW_TAG_subprogram ]
!1211 = metadata !{i32 786478, i32 0, metadata !1015, metadata !"rrotate", metadata !"rrotate", metadata !"_ZN11ap_int_baseILi16ELb1ELb1EE7rrotateEi", metadata !142, i32 1813, metadata !1066, i1 false, i1 false, i32 0, i32 0, null, i32 256, i1 false, null, null, i32 0, metadata !154, i32 1813} ; [ DW_TAG_subprogram ]
