; ModuleID = 'D:/SeniorProject/RFNoCFrameSynchHWAccel/matchedRee/solution1/.autopilot/db/a.o.bc'
target datalayout = "e-p:32:32:32-i1:8:8-i8:8:8-i16:16:16-i32:32:32-i64:64:64-f32:32:32-f64:64:64-f80:128:128-v64:64:64-v128:128:128-a0:0:64-f80:32:32-n8:16:32-S32"
target triple = "i686-pc-mingw32"

%"class.std::ios_base::Init" = type {}
%struct.ap_uint.2 = type { %struct.ap_int_base.3 }
%struct.ap_int_base.3 = type { %struct.ssdm_int.4 }
%struct.ssdm_int.4 = type { i10 }
%struct.ap_uint = type { %struct.ap_int_base.0 }
%struct.ap_int_base.0 = type { %struct.ssdm_int.1 }
%struct.ssdm_int.1 = type { i1 }
%struct.ap_int.5 = type { %struct.ap_int_base.6 }
%struct.ap_int_base.6 = type { %struct.ssdm_int.7 }
%struct.ssdm_int.7 = type { i16 }
%struct.threadlocaleinfostruct = type { i32, i32, i32, [6 x i32], [6 x %struct.tagLC_ID], [6 x %struct.anon], i32, i32, i32*, i32*, i32*, %struct.lconv*, i32*, i16*, i16*, i8*, i8*, %"class.std::ios_base::Init"* }
%struct.tagLC_ID = type { i16, i16, i16 }
%struct.anon = type { i8*, i16*, i32*, i32* }
%struct.lconv = type { i8*, i8*, i8*, i8*, i8*, i8*, i8*, i8*, i8*, i8*, i8, i8, i8, i8, i8, i8, i8, i8 }
%struct.localeinfo_struct = type { %struct.threadlocaleinfostruct*, %"class.std::ios_base::Init"* }
%struct.__gthread_once_t = type { i32, i32 }
%"class.std::locale::id" = type { i32 }
%"class.std::basic_istream" = type { i32 (...)**, i32, %"class.std::basic_ios" }
%"class.std::basic_ios" = type { %"class.std::ios_base", %"class.std::basic_ostream"*, i8, i1, %"class.std::basic_streambuf"*, %"class.std::ctype"*, %"class.std::num_put"*, %"class.std::num_get"* }
%"class.std::ios_base" = type { i32 (...)**, i32, i32, i17, i17, i17, %"struct.std::ios_base::_Callback_list"*, %"struct.std::ios_base::_Words", [8 x %"struct.std::ios_base::_Words"], i32, %"struct.std::ios_base::_Words"*, %"class.std::locale" }
%"struct.std::ios_base::_Callback_list" = type { %"struct.std::ios_base::_Callback_list"*, void (i2, %"class.std::ios_base"*, i32)*, i32, i32 }
%"struct.std::ios_base::_Words" = type { i8*, i32 }
%"class.std::locale" = type { %"class.std::locale::_Impl"* }
%"class.std::locale::_Impl" = type { i32, %"class.std::locale::facet"**, i32, %"class.std::locale::facet"**, i8** }
%"class.std::locale::facet" = type { i32 (...)**, i32 }
%"class.std::basic_ostream" = type { i32 (...)**, %"class.std::basic_ios" }
%"class.std::basic_streambuf" = type { i32 (...)**, i8*, i8*, i8*, i8*, i8*, i8*, %"class.std::locale" }
%"class.std::ctype" = type { %"class.std::locale::facet", i32*, i1, i32*, i32*, i16*, i8, [256 x i8], [256 x i8], i8 }
%"class.std::num_put" = type { %"class.std::locale::facet" }
%"class.std::num_get" = type { %"class.std::locale::facet" }
%"class.std::basic_istream.11" = type { i32 (...)**, i32, %"class.std::basic_ios.13" }
%"class.std::basic_ios.13" = type { %"class.std::ios_base", %"class.std::basic_ostream.14"*, i16, i1, %"class.std::basic_streambuf.15"*, %"class.std::ctype.16"*, %"class.std::num_put.17"*, %"class.std::num_get.18"* }
%"class.std::basic_ostream.14" = type { i32 (...)**, %"class.std::basic_ios.13" }
%"class.std::basic_streambuf.15" = type { i32 (...)**, i16*, i16*, i16*, i16*, i16*, i16*, %"class.std::locale" }
%"class.std::ctype.16" = type { %"class.std::__ctype_abstract_base", i32*, i1, [128 x i8], [256 x i16], [16 x i16], [16 x i16] }
%"class.std::__ctype_abstract_base" = type { %"class.std::locale::facet" }
%"class.std::num_put.17" = type { %"class.std::locale::facet" }
%"class.std::num_get.18" = type { %"class.std::locale::facet" }
%"class.hls::stream" = type { %struct.rfnoc_axis }
%struct.rfnoc_axis = type { %struct.ap_int, %struct.ap_uint }
%struct.ap_int = type { %struct.ap_int_base }
%struct.ap_int_base = type { %"class.std::locale::id" }
%struct.ap_range_ref = type { %struct.ap_int_base*, i32, i32 }
%struct.ap_fixed_base.8 = type { %struct.ssdm_int.9 }
%struct.ssdm_int.9 = type { i33 }
%struct.af_range_ref = type { %struct.ap_int_base.6*, i32, i32 }
%struct.ap_int_base.25 = type { %struct.ssdm_int.26 }
%struct.ssdm_int.26 = type { i64 }
%struct.ap_int_base.27 = type { %struct.ssdm_int.28 }
%struct.ssdm_int.28 = type { i12 }
%struct.ap_int_base.29 = type { %struct.ssdm_int.30 }
%struct.ssdm_int.30 = type { i11 }
%struct.ap_int_base.32 = type { %struct.ssdm_int.33 }
%struct.ssdm_int.33 = type { i54 }
%struct.ap_int_base.34 = type { %struct.ssdm_int.35 }
%struct.ssdm_int.35 = type { i55 }

@_ZStL8__ioinit = internal global %"class.std::ios_base::Init" zeroinitializer, align 1 ; [#uses=2 type=%"class.std::ios_base::Init"*]
@.str = private unnamed_addr constant [1 x i8] zeroinitializer, align 1 ; [#uses=1 type=[1 x i8]*]
@.str1 = private unnamed_addr constant [13 x i8] c"ap_ctrl_none\00", align 1 ; [#uses=1 type=[13 x i8]*]
@.str2 = private unnamed_addr constant [5 x i8] c"axis\00", align 1 ; [#uses=1 type=[5 x i8]*]
@.str3 = private unnamed_addr constant [5 x i8] c"both\00", align 1 ; [#uses=1 type=[5 x i8]*]
@_ZZ10MatcherReeN3hls6streamI10rfnoc_axisEES2_7ap_uintILi1EEE14out_sample_cnt = internal global %struct.ap_uint.2 zeroinitializer, align 2 ; [#uses=2 type=%struct.ap_uint.2*]
@_ZGVZ10MatcherReeN3hls6streamI10rfnoc_axisEES2_7ap_uintILi1EEE14out_sample_cnt = internal global i8 0 ; [#uses=2 type=i8*]
@_ZZ10MatcherReeN3hls6streamI10rfnoc_axisEES2_7ap_uintILi1EEE9firstLoad = internal global %struct.ap_uint zeroinitializer, align 1 ; [#uses=2 type=%struct.ap_uint*]
@_ZGVZ10MatcherReeN3hls6streamI10rfnoc_axisEES2_7ap_uintILi1EEE9firstLoad = internal global i8 0 ; [#uses=2 type=i8*]
@_ZZ10MatcherReeN3hls6streamI10rfnoc_axisEES2_7ap_uintILi1EEE5zeros = internal global %struct.ap_int.5 zeroinitializer, align 2 ; [#uses=2 type=%struct.ap_int.5*]
@_ZGVZ10MatcherReeN3hls6streamI10rfnoc_axisEES2_7ap_uintILi1EEE5zeros = internal global i8 0 ; [#uses=2 type=i8*]
@_ZZ10MatcherReeN3hls6streamI10rfnoc_axisEES2_7ap_uintILi1EEE5buffI = internal global [16 x %struct.ap_int.5] zeroinitializer, align 2 ; [#uses=19 type=[16 x %struct.ap_int.5]*]
@_ZGVZ10MatcherReeN3hls6streamI10rfnoc_axisEES2_7ap_uintILi1EEE5buffI = internal global i8 0 ; [#uses=2 type=i8*]
@.str4 = private unnamed_addr constant [9 x i8] c"COMPLETE\00", align 1 ; [#uses=1 type=[9 x i8]*]
@_ZZ10MatcherReeN3hls6streamI10rfnoc_axisEES2_7ap_uintILi1EEE5buffQ = internal global [16 x %struct.ap_int.5] zeroinitializer, align 2 ; [#uses=19 type=[16 x %struct.ap_int.5]*]
@_ZGVZ10MatcherReeN3hls6streamI10rfnoc_axisEES2_7ap_uintILi1EEE5buffQ = internal global i8 0 ; [#uses=2 type=i8*]
@_ZZ10MatcherReeN3hls6streamI10rfnoc_axisEES2_7ap_uintILi1EEE8preamble = internal global [16 x %struct.ap_int.5] zeroinitializer, align 2 ; [#uses=18 type=[16 x %struct.ap_int.5]*]
@_ZGVZ10MatcherReeN3hls6streamI10rfnoc_axisEES2_7ap_uintILi1EEE8preamble = internal global i8 0 ; [#uses=2 type=i8*]
@_ZZ10MatcherReeN3hls6streamI10rfnoc_axisEES2_7ap_uintILi1EEE9matchQSum = internal global %struct.ap_int.5 zeroinitializer, align 2 ; [#uses=4 type=%struct.ap_int.5*]
@_ZGVZ10MatcherReeN3hls6streamI10rfnoc_axisEES2_7ap_uintILi1EEE9matchQSum = internal global i8 0 ; [#uses=2 type=i8*]
@_ZZ10MatcherReeN3hls6streamI10rfnoc_axisEES2_7ap_uintILi1EEE9matchISum = internal global %struct.ap_int.5 zeroinitializer, align 2 ; [#uses=4 type=%struct.ap_int.5*]
@_ZGVZ10MatcherReeN3hls6streamI10rfnoc_axisEES2_7ap_uintILi1EEE9matchISum = internal global i8 0 ; [#uses=2 type=i8*]
@_ZZ10MatcherReeN3hls6streamI10rfnoc_axisEES2_7ap_uintILi1EEE12currentState = internal global i1 false, align 1 ; [#uses=3 type=i1*]
@_ZZ10MatcherReeN3hls6streamI10rfnoc_axisEES2_7ap_uintILi1EEE14currentwrState = internal global i1 false, align 1 ; [#uses=1 type=i1*]
@.str5 = private unnamed_addr constant [11 x i8] c"SHIFT_DATA\00", align 1 ; [#uses=1 type=[11 x i8]*]
@.str6 = private unnamed_addr constant [10 x i8] c"CAL_MATCH\00", align 1 ; [#uses=1 type=[10 x i8]*]
@_ZN9__gnu_cxx24__numeric_traits_integer8__digitsE = external constant i32 ; [#uses=0 type=i32*]
@_ZN9__gnu_cxx25__numeric_traits_floating14__max_digits10E = external constant i32 ; [#uses=0 type=i32*]
@_ZN9__gnu_cxx25__numeric_traits_floating10__digits10E = external constant i32 ; [#uses=0 type=i32*]
@_ZN9__gnu_cxx25__numeric_traits_floating16__max_exponent10E = external constant i32 ; [#uses=0 type=i32*]
@__globallocalestatus = external global i32       ; [#uses=0 type=i32*]
@__locale_changed = external global i32           ; [#uses=0 type=i32*]
@__initiallocinfo = external global %struct.threadlocaleinfostruct ; [#uses=0 type=%struct.threadlocaleinfostruct*]
@__initiallocalestructinfo = external global %struct.localeinfo_struct ; [#uses=0 type=%struct.localeinfo_struct*]
@_imp____mb_cur_max = external global i32*        ; [#uses=0 type=i32**]
@_CRT_MT = external global i32                    ; [#uses=0 type=i32*]
@_ZSt7nothrow = external global %"class.std::ios_base::Init" ; [#uses=0 type=%"class.std::ios_base::Init"*]
@_ZNSt6locale7_S_onceE = external global %struct.__gthread_once_t ; [#uses=0 type=%struct.__gthread_once_t*]
@_ZNSt6locale5facet11_S_c_localeE = external global i32* ; [#uses=0 type=i32**]
@_ZNSt6locale5facet7_S_onceE = external global %struct.__gthread_once_t ; [#uses=0 type=%struct.__gthread_once_t*]
@_ZNSt6locale2id11_S_refcountE = external global i32 ; [#uses=0 type=i32*]
@_ZNSt7collate2idE = external global %"class.std::locale::id" ; [#uses=0 type=%"class.std::locale::id"*]
@_ZNSt8ios_base4Init11_S_refcountE = external global i32 ; [#uses=0 type=i32*]
@_ZNSt5ctype2idE = external global %"class.std::locale::id" ; [#uses=0 type=%"class.std::locale::id"*]
@_ZNSt5ctypeIcE2idE = external global %"class.std::locale::id" ; [#uses=0 type=%"class.std::locale::id"*]
@_ZNSt5ctypeIwE2idE = external global %"class.std::locale::id" ; [#uses=0 type=%"class.std::locale::id"*]
@_ZNSt10__num_base12_S_atoms_outE = external global i8* ; [#uses=0 type=i8**]
@_ZNSt10__num_base11_S_atoms_inE = external global i8* ; [#uses=0 type=i8**]
@_ZNSt8numpunct2idE = external global %"class.std::locale::id" ; [#uses=0 type=%"class.std::locale::id"*]
@_ZNSt7num_get2idE = external global %"class.std::locale::id" ; [#uses=0 type=%"class.std::locale::id"*]
@_ZNSt7num_put2idE = external global %"class.std::locale::id" ; [#uses=0 type=%"class.std::locale::id"*]
@_ZSt3cin = external global %"class.std::basic_istream" ; [#uses=0 type=%"class.std::basic_istream"*]
@_ZSt4cout = external global %"class.std::basic_ostream" ; [#uses=0 type=%"class.std::basic_ostream"*]
@_ZSt4cerr = external global %"class.std::basic_ostream" ; [#uses=0 type=%"class.std::basic_ostream"*]
@_ZSt4clog = external global %"class.std::basic_ostream" ; [#uses=0 type=%"class.std::basic_ostream"*]
@_ZSt4wcin = external global %"class.std::basic_istream.11" ; [#uses=0 type=%"class.std::basic_istream.11"*]
@_ZSt5wcout = external global %"class.std::basic_ostream.14" ; [#uses=0 type=%"class.std::basic_ostream.14"*]
@_ZSt5wcerr = external global %"class.std::basic_ostream.14" ; [#uses=0 type=%"class.std::basic_ostream.14"*]
@_ZSt5wclog = external global %"class.std::basic_ostream.14" ; [#uses=0 type=%"class.std::basic_ostream.14"*]
@_ZZN13ap_fixed_baseILi16ELi11ELb1EL9ap_q_mode5EL9ap_o_mode3ELi0EEC1ILi33ELi23ELb1ELS0_5ELS1_3ELi0EEERKS_IXT_EXT0_EXT1_EXT2_EXT3_EXT4_EEE10AllOnesInt = linkonce_odr global i32 -1, align 4 ; [#uses=1 type=i32*]
@_ZZN13ap_fixed_baseILi16ELi11ELb1EL9ap_q_mode5EL9ap_o_mode3ELi0EEC1EdE10AllOnesInt = linkonce_odr global i32 -1, align 4 ; [#uses=1 type=i32*]
@llvm.global_ctors = appending global [1 x { i32, void ()* }] [{ i32, void ()* } { i32 65535, void ()* @_GLOBAL__I_a }] ; [#uses=0 type=[1 x { i32, void ()* }]*]

; [#uses=1]
define internal void @__cxx_global_var_init() nounwind {
  call void @_ZNSt8ios_base4InitC1Ev(%"class.std::ios_base::Init"* @_ZStL8__ioinit)
  %1 = call i32 @atexit(void ()* @__dtor__ZStL8__ioinit) ; [#uses=0 type=i32]
  ret void
}

; [#uses=1]
declare void @_ZNSt8ios_base4InitC1Ev(%"class.std::ios_base::Init"*)

; [#uses=1]
declare void @_ZNSt8ios_base4InitD1Ev(%"class.std::ios_base::Init"*)

; [#uses=1]
define internal void @__dtor__ZStL8__ioinit() nounwind {
  call void @_ZNSt8ios_base4InitD1Ev(%"class.std::ios_base::Init"* @_ZStL8__ioinit)
  ret void
}

; [#uses=1]
declare i32 @atexit(void ()*) nounwind

; [#uses=0]
define void @_Z10MatcherReeN3hls6streamI10rfnoc_axisEES2_7ap_uintILi1EE(%"class.hls::stream"* %i_data, %"class.hls::stream"* %o_data, %struct.ap_uint* byval align 4 %start) nounwind {
  %COR_SIZE = alloca i32, align 4                 ; [#uses=1 type=i32*]
  %out_sample = alloca %struct.rfnoc_axis, align 4 ; [#uses=4 type=%struct.rfnoc_axis*]
  %tmp_data = alloca %struct.rfnoc_axis, align 4  ; [#uses=4 type=%struct.rfnoc_axis*]
  %1 = alloca %struct.ap_int.5, align 2           ; [#uses=2 type=%struct.ap_int.5*]
  %a = alloca i32, align 4                        ; [#uses=8 type=i32*]
  %2 = alloca %struct.ap_int.5, align 2           ; [#uses=2 type=%struct.ap_int.5*]
  %3 = alloca %struct.ap_range_ref, align 4       ; [#uses=2 type=%struct.ap_range_ref*]
  %4 = alloca %struct.ap_int.5, align 2           ; [#uses=2 type=%struct.ap_int.5*]
  %5 = alloca %struct.ap_range_ref, align 4       ; [#uses=2 type=%struct.ap_range_ref*]
  %6 = alloca %struct.ap_int.5, align 2           ; [#uses=2 type=%struct.ap_int.5*]
  %7 = alloca %struct.ap_int.5, align 2           ; [#uses=2 type=%struct.ap_int.5*]
  %b = alloca i32, align 4                        ; [#uses=8 type=i32*]
  %8 = alloca %struct.ap_int.5, align 2           ; [#uses=2 type=%struct.ap_int.5*]
  %9 = alloca %struct.ap_fixed_base.8, align 8    ; [#uses=2 type=%struct.ap_fixed_base.8*]
  %10 = alloca %struct.ap_int_base, align 4       ; [#uses=2 type=%struct.ap_int_base*]
  %11 = alloca %struct.ap_int.5, align 2          ; [#uses=2 type=%struct.ap_int.5*]
  %12 = alloca %struct.ap_fixed_base.8, align 8   ; [#uses=2 type=%struct.ap_fixed_base.8*]
  %13 = alloca %struct.ap_int_base, align 4       ; [#uses=2 type=%struct.ap_int_base*]
  %14 = alloca %struct.ap_range_ref, align 4      ; [#uses=2 type=%struct.ap_range_ref*]
  %15 = alloca %struct.af_range_ref, align 4      ; [#uses=2 type=%struct.af_range_ref*]
  %16 = alloca %struct.ap_range_ref, align 4      ; [#uses=2 type=%struct.ap_range_ref*]
  %17 = alloca %struct.af_range_ref, align 4      ; [#uses=2 type=%struct.af_range_ref*]
  call void @llvm.dbg.declare(metadata !{%"class.hls::stream"* %i_data}, metadata !9020), !dbg !9021 ; [debug line = 29:42] [debug variable = i_data]
  call void @llvm.dbg.declare(metadata !{%"class.hls::stream"* %o_data}, metadata !9022), !dbg !9023 ; [debug line = 29:74] [debug variable = o_data]
  call void @llvm.dbg.declare(metadata !{%struct.ap_uint* %start}, metadata !9024), !dbg !9025 ; [debug line = 29:93] [debug variable = start]
  call void @llvm.dbg.declare(metadata !{i32* %COR_SIZE}, metadata !9026), !dbg !9028 ; [debug line = 33:11] [debug variable = COR_SIZE]
  store i32 16, i32* %COR_SIZE, align 4, !dbg !9029 ; [debug line = 33:24]
  call void (...)* @_ssdm_op_SpecResource(%"class.hls::stream"* %o_data, i8* getelementptr inbounds ([1 x i8]* @.str, i32 0, i32 0), i8* getelementptr inbounds ([1 x i8]* @.str, i32 0, i32 0), i8* getelementptr inbounds ([1 x i8]* @.str, i32 0, i32 0), i32 1, i8* getelementptr inbounds ([1 x i8]* @.str, i32 0, i32 0), i8* getelementptr inbounds ([1 x i8]* @.str, i32 0, i32 0), i8* getelementptr inbounds ([1 x i8]* @.str, i32 0, i32 0), i8* getelementptr inbounds ([1 x i8]* @.str, i32 0, i32 0), i8* getelementptr inbounds ([1 x i8]* @.str, i32 0, i32 0)) nounwind, !dbg !9030 ; [debug line = 36:1]
  call void (...)* @_ssdm_op_SpecInterface(i32 0, i8* getelementptr inbounds ([13 x i8]* @.str1, i32 0, i32 0), i32 0, i32 0, i8* getelementptr inbounds ([1 x i8]* @.str, i32 0, i32 0), i32 0, i32 0, i8* getelementptr inbounds ([1 x i8]* @.str, i32 0, i32 0), i8* getelementptr inbounds ([1 x i8]* @.str, i32 0, i32 0), i8* getelementptr inbounds ([1 x i8]* @.str, i32 0, i32 0), i32 0, i32 0, i32 0, i32 0, i8* getelementptr inbounds ([1 x i8]* @.str, i32 0, i32 0), i8* getelementptr inbounds ([1 x i8]* @.str, i32 0, i32 0)) nounwind, !dbg !9031 ; [debug line = 38:1]
  call void (...)* @_ssdm_op_SpecInterface(%"class.hls::stream"* %o_data, i8* getelementptr inbounds ([5 x i8]* @.str2, i32 0, i32 0), i32 1, i32 1, i8* getelementptr inbounds ([5 x i8]* @.str3, i32 0, i32 0), i32 0, i32 0, i8* getelementptr inbounds ([1 x i8]* @.str, i32 0, i32 0), i8* getelementptr inbounds ([1 x i8]* @.str, i32 0, i32 0), i8* getelementptr inbounds ([1 x i8]* @.str, i32 0, i32 0), i32 0, i32 0, i32 0, i32 0, i8* getelementptr inbounds ([1 x i8]* @.str, i32 0, i32 0), i8* getelementptr inbounds ([1 x i8]* @.str, i32 0, i32 0)) nounwind, !dbg !9032 ; [debug line = 39:1]
  call void (...)* @_ssdm_op_SpecInterface(%"class.hls::stream"* %i_data, i8* getelementptr inbounds ([5 x i8]* @.str2, i32 0, i32 0), i32 1, i32 1, i8* getelementptr inbounds ([5 x i8]* @.str3, i32 0, i32 0), i32 0, i32 0, i8* getelementptr inbounds ([1 x i8]* @.str, i32 0, i32 0), i8* getelementptr inbounds ([1 x i8]* @.str, i32 0, i32 0), i8* getelementptr inbounds ([1 x i8]* @.str, i32 0, i32 0), i32 0, i32 0, i32 0, i32 0, i8* getelementptr inbounds ([1 x i8]* @.str, i32 0, i32 0), i8* getelementptr inbounds ([1 x i8]* @.str, i32 0, i32 0)) nounwind, !dbg !9033 ; [debug line = 40:1]
  call void (...)* @_ssdm_op_SpecPipeline(i32 1, i32 1, i32 1, i32 0, i8* getelementptr inbounds ([1 x i8]* @.str, i32 0, i32 0)) nounwind, !dbg !9034 ; [debug line = 41:1]
  call void @llvm.dbg.declare(metadata !{%struct.rfnoc_axis* %out_sample}, metadata !9035), !dbg !9036 ; [debug line = 45:13] [debug variable = out_sample]
  call void @_ZN10rfnoc_axisC1Ev(%struct.rfnoc_axis* %out_sample), !dbg !9037 ; [debug line = 45:23]
  %18 = load i8* @_ZGVZ10MatcherReeN3hls6streamI10rfnoc_axisEES2_7ap_uintILi1EEE14out_sample_cnt, align 1, !dbg !9038 ; [#uses=1 type=i8] [debug line = 47:36]
  %19 = icmp eq i8 %18, 0, !dbg !9038             ; [#uses=1 type=i1] [debug line = 47:36]
  br i1 %19, label %20, label %21, !dbg !9038     ; [debug line = 47:36]

; <label>:20                                      ; preds = %0
  call void @_ZN7ap_uintILi10EEC1Ev(%struct.ap_uint.2* @_ZZ10MatcherReeN3hls6streamI10rfnoc_axisEES2_7ap_uintILi1EEE14out_sample_cnt), !dbg !9038 ; [debug line = 47:36]
  store i8 1, i8* @_ZGVZ10MatcherReeN3hls6streamI10rfnoc_axisEES2_7ap_uintILi1EEE14out_sample_cnt, !dbg !9038 ; [debug line = 47:36]
  br label %21, !dbg !9038                        ; [debug line = 47:36]

; <label>:21                                      ; preds = %20, %0
  call void (...)* @_ssdm_op_SpecReset(%struct.ap_uint.2* @_ZZ10MatcherReeN3hls6streamI10rfnoc_axisEES2_7ap_uintILi1EEE14out_sample_cnt, i32 1, i8* getelementptr inbounds ([1 x i8]* @.str, i32 0, i32 0)) nounwind, !dbg !9039 ; [debug line = 48:1]
  %22 = load i8* @_ZGVZ10MatcherReeN3hls6streamI10rfnoc_axisEES2_7ap_uintILi1EEE9firstLoad, align 1, !dbg !9040 ; [#uses=1 type=i8] [debug line = 49:29]
  %23 = icmp eq i8 %22, 0, !dbg !9040             ; [#uses=1 type=i1] [debug line = 49:29]
  br i1 %23, label %24, label %25, !dbg !9040     ; [debug line = 49:29]

; <label>:24                                      ; preds = %21
  call void @_ZN7ap_uintILi1EEC1Ev(%struct.ap_uint* @_ZZ10MatcherReeN3hls6streamI10rfnoc_axisEES2_7ap_uintILi1EEE9firstLoad), !dbg !9040 ; [debug line = 49:29]
  store i8 1, i8* @_ZGVZ10MatcherReeN3hls6streamI10rfnoc_axisEES2_7ap_uintILi1EEE9firstLoad, !dbg !9040 ; [debug line = 49:29]
  br label %25, !dbg !9040                        ; [debug line = 49:29]

; <label>:25                                      ; preds = %24, %21
  call void (...)* @_ssdm_op_SpecReset(%struct.ap_uint* @_ZZ10MatcherReeN3hls6streamI10rfnoc_axisEES2_7ap_uintILi1EEE9firstLoad, i32 1, i8* getelementptr inbounds ([1 x i8]* @.str, i32 0, i32 0)) nounwind, !dbg !9041 ; [debug line = 50:1]
  call void @llvm.dbg.declare(metadata !{%struct.rfnoc_axis* %tmp_data}, metadata !9042), !dbg !9043 ; [debug line = 53:13] [debug variable = tmp_data]
  call void @_ZN10rfnoc_axisC1Ev(%struct.rfnoc_axis* %tmp_data), !dbg !9044 ; [debug line = 53:21]
  %26 = load i8* @_ZGVZ10MatcherReeN3hls6streamI10rfnoc_axisEES2_7ap_uintILi1EEE5zeros, align 1, !dbg !9045 ; [#uses=1 type=i8] [debug line = 54:26]
  %27 = icmp eq i8 %26, 0, !dbg !9045             ; [#uses=1 type=i1] [debug line = 54:26]
  br i1 %27, label %28, label %29, !dbg !9045     ; [debug line = 54:26]

; <label>:28                                      ; preds = %25
  call void @_ZN6ap_intILi16EEC1Ev(%struct.ap_int.5* @_ZZ10MatcherReeN3hls6streamI10rfnoc_axisEES2_7ap_uintILi1EEE5zeros), !dbg !9045 ; [debug line = 54:26]
  store i8 1, i8* @_ZGVZ10MatcherReeN3hls6streamI10rfnoc_axisEES2_7ap_uintILi1EEE5zeros, !dbg !9045 ; [debug line = 54:26]
  br label %29, !dbg !9045                        ; [debug line = 54:26]

; <label>:29                                      ; preds = %28, %25
  call void @_ZN6ap_intILi16EEC1Ei(%struct.ap_int.5* %1, i32 0), !dbg !9046 ; [debug line = 55:3]
  %30 = call %struct.ap_int.5* @_ZN6ap_intILi16EEaSERKS0_(%struct.ap_int.5* @_ZZ10MatcherReeN3hls6streamI10rfnoc_axisEES2_7ap_uintILi1EEE5zeros, %struct.ap_int.5* %1), !dbg !9046 ; [#uses=0 type=%struct.ap_int.5*] [debug line = 55:3]
  %31 = load i8* @_ZGVZ10MatcherReeN3hls6streamI10rfnoc_axisEES2_7ap_uintILi1EEE5buffI, align 1, !dbg !9047 ; [#uses=1 type=i8] [debug line = 56:102]
  %32 = icmp eq i8 %31, 0, !dbg !9047             ; [#uses=1 type=i1] [debug line = 56:102]
  br i1 %32, label %33, label %34, !dbg !9047     ; [debug line = 56:102]

; <label>:33                                      ; preds = %29
  call void @_ZN8ap_fixedILi16ELi11EL9ap_q_mode5EL9ap_o_mode3ELi0EEC1Ed(%struct.ap_int.5* getelementptr inbounds ([16 x %struct.ap_int.5]* @_ZZ10MatcherReeN3hls6streamI10rfnoc_axisEES2_7ap_uintILi1EEE5buffI, i32 0, i32 0), double 0.000000e+00), !dbg !9047 ; [debug line = 56:102]
  call void @_ZN8ap_fixedILi16ELi11EL9ap_q_mode5EL9ap_o_mode3ELi0EEC1Ed(%struct.ap_int.5* getelementptr inbounds ([16 x %struct.ap_int.5]* @_ZZ10MatcherReeN3hls6streamI10rfnoc_axisEES2_7ap_uintILi1EEE5buffI, i32 0, i32 1), double 0.000000e+00), !dbg !9047 ; [debug line = 56:102]
  call void @_ZN8ap_fixedILi16ELi11EL9ap_q_mode5EL9ap_o_mode3ELi0EEC1Ed(%struct.ap_int.5* getelementptr inbounds ([16 x %struct.ap_int.5]* @_ZZ10MatcherReeN3hls6streamI10rfnoc_axisEES2_7ap_uintILi1EEE5buffI, i32 0, i32 2), double 0.000000e+00), !dbg !9047 ; [debug line = 56:102]
  call void @_ZN8ap_fixedILi16ELi11EL9ap_q_mode5EL9ap_o_mode3ELi0EEC1Ed(%struct.ap_int.5* getelementptr inbounds ([16 x %struct.ap_int.5]* @_ZZ10MatcherReeN3hls6streamI10rfnoc_axisEES2_7ap_uintILi1EEE5buffI, i32 0, i32 3), double 0.000000e+00), !dbg !9047 ; [debug line = 56:102]
  call void @_ZN8ap_fixedILi16ELi11EL9ap_q_mode5EL9ap_o_mode3ELi0EEC1Ed(%struct.ap_int.5* getelementptr inbounds ([16 x %struct.ap_int.5]* @_ZZ10MatcherReeN3hls6streamI10rfnoc_axisEES2_7ap_uintILi1EEE5buffI, i32 0, i32 4), double 0.000000e+00), !dbg !9047 ; [debug line = 56:102]
  call void @_ZN8ap_fixedILi16ELi11EL9ap_q_mode5EL9ap_o_mode3ELi0EEC1Ed(%struct.ap_int.5* getelementptr inbounds ([16 x %struct.ap_int.5]* @_ZZ10MatcherReeN3hls6streamI10rfnoc_axisEES2_7ap_uintILi1EEE5buffI, i32 0, i32 5), double 0.000000e+00), !dbg !9047 ; [debug line = 56:102]
  call void @_ZN8ap_fixedILi16ELi11EL9ap_q_mode5EL9ap_o_mode3ELi0EEC1Ed(%struct.ap_int.5* getelementptr inbounds ([16 x %struct.ap_int.5]* @_ZZ10MatcherReeN3hls6streamI10rfnoc_axisEES2_7ap_uintILi1EEE5buffI, i32 0, i32 6), double 0.000000e+00), !dbg !9047 ; [debug line = 56:102]
  call void @_ZN8ap_fixedILi16ELi11EL9ap_q_mode5EL9ap_o_mode3ELi0EEC1Ed(%struct.ap_int.5* getelementptr inbounds ([16 x %struct.ap_int.5]* @_ZZ10MatcherReeN3hls6streamI10rfnoc_axisEES2_7ap_uintILi1EEE5buffI, i32 0, i32 7), double 0.000000e+00), !dbg !9047 ; [debug line = 56:102]
  call void @_ZN8ap_fixedILi16ELi11EL9ap_q_mode5EL9ap_o_mode3ELi0EEC1Ed(%struct.ap_int.5* getelementptr inbounds ([16 x %struct.ap_int.5]* @_ZZ10MatcherReeN3hls6streamI10rfnoc_axisEES2_7ap_uintILi1EEE5buffI, i32 0, i32 8), double 0.000000e+00), !dbg !9047 ; [debug line = 56:102]
  call void @_ZN8ap_fixedILi16ELi11EL9ap_q_mode5EL9ap_o_mode3ELi0EEC1Ed(%struct.ap_int.5* getelementptr inbounds ([16 x %struct.ap_int.5]* @_ZZ10MatcherReeN3hls6streamI10rfnoc_axisEES2_7ap_uintILi1EEE5buffI, i32 0, i32 9), double 0.000000e+00), !dbg !9047 ; [debug line = 56:102]
  call void @_ZN8ap_fixedILi16ELi11EL9ap_q_mode5EL9ap_o_mode3ELi0EEC1Ed(%struct.ap_int.5* getelementptr inbounds ([16 x %struct.ap_int.5]* @_ZZ10MatcherReeN3hls6streamI10rfnoc_axisEES2_7ap_uintILi1EEE5buffI, i32 0, i32 10), double 0.000000e+00), !dbg !9047 ; [debug line = 56:102]
  call void @_ZN8ap_fixedILi16ELi11EL9ap_q_mode5EL9ap_o_mode3ELi0EEC1Ed(%struct.ap_int.5* getelementptr inbounds ([16 x %struct.ap_int.5]* @_ZZ10MatcherReeN3hls6streamI10rfnoc_axisEES2_7ap_uintILi1EEE5buffI, i32 0, i32 11), double 0.000000e+00), !dbg !9047 ; [debug line = 56:102]
  call void @_ZN8ap_fixedILi16ELi11EL9ap_q_mode5EL9ap_o_mode3ELi0EEC1Ed(%struct.ap_int.5* getelementptr inbounds ([16 x %struct.ap_int.5]* @_ZZ10MatcherReeN3hls6streamI10rfnoc_axisEES2_7ap_uintILi1EEE5buffI, i32 0, i32 12), double 0.000000e+00), !dbg !9047 ; [debug line = 56:102]
  call void @_ZN8ap_fixedILi16ELi11EL9ap_q_mode5EL9ap_o_mode3ELi0EEC1Ed(%struct.ap_int.5* getelementptr inbounds ([16 x %struct.ap_int.5]* @_ZZ10MatcherReeN3hls6streamI10rfnoc_axisEES2_7ap_uintILi1EEE5buffI, i32 0, i32 13), double 0.000000e+00), !dbg !9047 ; [debug line = 56:102]
  call void @_ZN8ap_fixedILi16ELi11EL9ap_q_mode5EL9ap_o_mode3ELi0EEC1Ed(%struct.ap_int.5* getelementptr inbounds ([16 x %struct.ap_int.5]* @_ZZ10MatcherReeN3hls6streamI10rfnoc_axisEES2_7ap_uintILi1EEE5buffI, i32 0, i32 14), double 0.000000e+00), !dbg !9047 ; [debug line = 56:102]
  call void @_ZN8ap_fixedILi16ELi11EL9ap_q_mode5EL9ap_o_mode3ELi0EEC1Ed(%struct.ap_int.5* getelementptr inbounds ([16 x %struct.ap_int.5]* @_ZZ10MatcherReeN3hls6streamI10rfnoc_axisEES2_7ap_uintILi1EEE5buffI, i32 0, i32 15), double 0.000000e+00), !dbg !9047 ; [debug line = 56:102]
  store i8 1, i8* @_ZGVZ10MatcherReeN3hls6streamI10rfnoc_axisEES2_7ap_uintILi1EEE5buffI, !dbg !9047 ; [debug line = 56:102]
  br label %34, !dbg !9047                        ; [debug line = 56:102]

; <label>:34                                      ; preds = %33, %29
  call void (...)* @_ssdm_SpecArrayPartition(%struct.ap_int.5* getelementptr inbounds ([16 x %struct.ap_int.5]* @_ZZ10MatcherReeN3hls6streamI10rfnoc_axisEES2_7ap_uintILi1EEE5buffI, i32 0, i32 0), i32 1, i8* getelementptr inbounds ([9 x i8]* @.str4, i32 0, i32 0), i32 0, i8* getelementptr inbounds ([1 x i8]* @.str, i32 0, i32 0)) nounwind, !dbg !9048 ; [debug line = 57:1]
  %35 = load i8* @_ZGVZ10MatcherReeN3hls6streamI10rfnoc_axisEES2_7ap_uintILi1EEE5buffQ, align 1, !dbg !9049 ; [#uses=1 type=i8] [debug line = 58:101]
  %36 = icmp eq i8 %35, 0, !dbg !9049             ; [#uses=1 type=i1] [debug line = 58:101]
  br i1 %36, label %37, label %38, !dbg !9049     ; [debug line = 58:101]

; <label>:37                                      ; preds = %34
  call void @_ZN8ap_fixedILi16ELi11EL9ap_q_mode5EL9ap_o_mode3ELi0EEC1Ed(%struct.ap_int.5* getelementptr inbounds ([16 x %struct.ap_int.5]* @_ZZ10MatcherReeN3hls6streamI10rfnoc_axisEES2_7ap_uintILi1EEE5buffQ, i32 0, i32 0), double 0.000000e+00), !dbg !9049 ; [debug line = 58:101]
  call void @_ZN8ap_fixedILi16ELi11EL9ap_q_mode5EL9ap_o_mode3ELi0EEC1Ed(%struct.ap_int.5* getelementptr inbounds ([16 x %struct.ap_int.5]* @_ZZ10MatcherReeN3hls6streamI10rfnoc_axisEES2_7ap_uintILi1EEE5buffQ, i32 0, i32 1), double 0.000000e+00), !dbg !9049 ; [debug line = 58:101]
  call void @_ZN8ap_fixedILi16ELi11EL9ap_q_mode5EL9ap_o_mode3ELi0EEC1Ed(%struct.ap_int.5* getelementptr inbounds ([16 x %struct.ap_int.5]* @_ZZ10MatcherReeN3hls6streamI10rfnoc_axisEES2_7ap_uintILi1EEE5buffQ, i32 0, i32 2), double 0.000000e+00), !dbg !9049 ; [debug line = 58:101]
  call void @_ZN8ap_fixedILi16ELi11EL9ap_q_mode5EL9ap_o_mode3ELi0EEC1Ed(%struct.ap_int.5* getelementptr inbounds ([16 x %struct.ap_int.5]* @_ZZ10MatcherReeN3hls6streamI10rfnoc_axisEES2_7ap_uintILi1EEE5buffQ, i32 0, i32 3), double 0.000000e+00), !dbg !9049 ; [debug line = 58:101]
  call void @_ZN8ap_fixedILi16ELi11EL9ap_q_mode5EL9ap_o_mode3ELi0EEC1Ed(%struct.ap_int.5* getelementptr inbounds ([16 x %struct.ap_int.5]* @_ZZ10MatcherReeN3hls6streamI10rfnoc_axisEES2_7ap_uintILi1EEE5buffQ, i32 0, i32 4), double 0.000000e+00), !dbg !9049 ; [debug line = 58:101]
  call void @_ZN8ap_fixedILi16ELi11EL9ap_q_mode5EL9ap_o_mode3ELi0EEC1Ed(%struct.ap_int.5* getelementptr inbounds ([16 x %struct.ap_int.5]* @_ZZ10MatcherReeN3hls6streamI10rfnoc_axisEES2_7ap_uintILi1EEE5buffQ, i32 0, i32 5), double 0.000000e+00), !dbg !9049 ; [debug line = 58:101]
  call void @_ZN8ap_fixedILi16ELi11EL9ap_q_mode5EL9ap_o_mode3ELi0EEC1Ed(%struct.ap_int.5* getelementptr inbounds ([16 x %struct.ap_int.5]* @_ZZ10MatcherReeN3hls6streamI10rfnoc_axisEES2_7ap_uintILi1EEE5buffQ, i32 0, i32 6), double 0.000000e+00), !dbg !9049 ; [debug line = 58:101]
  call void @_ZN8ap_fixedILi16ELi11EL9ap_q_mode5EL9ap_o_mode3ELi0EEC1Ed(%struct.ap_int.5* getelementptr inbounds ([16 x %struct.ap_int.5]* @_ZZ10MatcherReeN3hls6streamI10rfnoc_axisEES2_7ap_uintILi1EEE5buffQ, i32 0, i32 7), double 0.000000e+00), !dbg !9049 ; [debug line = 58:101]
  call void @_ZN8ap_fixedILi16ELi11EL9ap_q_mode5EL9ap_o_mode3ELi0EEC1Ed(%struct.ap_int.5* getelementptr inbounds ([16 x %struct.ap_int.5]* @_ZZ10MatcherReeN3hls6streamI10rfnoc_axisEES2_7ap_uintILi1EEE5buffQ, i32 0, i32 8), double 0.000000e+00), !dbg !9049 ; [debug line = 58:101]
  call void @_ZN8ap_fixedILi16ELi11EL9ap_q_mode5EL9ap_o_mode3ELi0EEC1Ed(%struct.ap_int.5* getelementptr inbounds ([16 x %struct.ap_int.5]* @_ZZ10MatcherReeN3hls6streamI10rfnoc_axisEES2_7ap_uintILi1EEE5buffQ, i32 0, i32 9), double 0.000000e+00), !dbg !9049 ; [debug line = 58:101]
  call void @_ZN8ap_fixedILi16ELi11EL9ap_q_mode5EL9ap_o_mode3ELi0EEC1Ed(%struct.ap_int.5* getelementptr inbounds ([16 x %struct.ap_int.5]* @_ZZ10MatcherReeN3hls6streamI10rfnoc_axisEES2_7ap_uintILi1EEE5buffQ, i32 0, i32 10), double 0.000000e+00), !dbg !9049 ; [debug line = 58:101]
  call void @_ZN8ap_fixedILi16ELi11EL9ap_q_mode5EL9ap_o_mode3ELi0EEC1Ed(%struct.ap_int.5* getelementptr inbounds ([16 x %struct.ap_int.5]* @_ZZ10MatcherReeN3hls6streamI10rfnoc_axisEES2_7ap_uintILi1EEE5buffQ, i32 0, i32 11), double 0.000000e+00), !dbg !9049 ; [debug line = 58:101]
  call void @_ZN8ap_fixedILi16ELi11EL9ap_q_mode5EL9ap_o_mode3ELi0EEC1Ed(%struct.ap_int.5* getelementptr inbounds ([16 x %struct.ap_int.5]* @_ZZ10MatcherReeN3hls6streamI10rfnoc_axisEES2_7ap_uintILi1EEE5buffQ, i32 0, i32 12), double 0.000000e+00), !dbg !9049 ; [debug line = 58:101]
  call void @_ZN8ap_fixedILi16ELi11EL9ap_q_mode5EL9ap_o_mode3ELi0EEC1Ed(%struct.ap_int.5* getelementptr inbounds ([16 x %struct.ap_int.5]* @_ZZ10MatcherReeN3hls6streamI10rfnoc_axisEES2_7ap_uintILi1EEE5buffQ, i32 0, i32 13), double 0.000000e+00), !dbg !9049 ; [debug line = 58:101]
  call void @_ZN8ap_fixedILi16ELi11EL9ap_q_mode5EL9ap_o_mode3ELi0EEC1Ed(%struct.ap_int.5* getelementptr inbounds ([16 x %struct.ap_int.5]* @_ZZ10MatcherReeN3hls6streamI10rfnoc_axisEES2_7ap_uintILi1EEE5buffQ, i32 0, i32 14), double 0.000000e+00), !dbg !9049 ; [debug line = 58:101]
  call void @_ZN8ap_fixedILi16ELi11EL9ap_q_mode5EL9ap_o_mode3ELi0EEC1Ed(%struct.ap_int.5* getelementptr inbounds ([16 x %struct.ap_int.5]* @_ZZ10MatcherReeN3hls6streamI10rfnoc_axisEES2_7ap_uintILi1EEE5buffQ, i32 0, i32 15), double 0.000000e+00), !dbg !9049 ; [debug line = 58:101]
  store i8 1, i8* @_ZGVZ10MatcherReeN3hls6streamI10rfnoc_axisEES2_7ap_uintILi1EEE5buffQ, !dbg !9049 ; [debug line = 58:101]
  br label %38, !dbg !9049                        ; [debug line = 58:101]

; <label>:38                                      ; preds = %37, %34
  call void (...)* @_ssdm_SpecArrayPartition(%struct.ap_int.5* getelementptr inbounds ([16 x %struct.ap_int.5]* @_ZZ10MatcherReeN3hls6streamI10rfnoc_axisEES2_7ap_uintILi1EEE5buffQ, i32 0, i32 0), i32 1, i8* getelementptr inbounds ([9 x i8]* @.str4, i32 0, i32 0), i32 0, i8* getelementptr inbounds ([1 x i8]* @.str, i32 0, i32 0)) nounwind, !dbg !9050 ; [debug line = 59:1]
  %39 = load i8* @_ZGVZ10MatcherReeN3hls6streamI10rfnoc_axisEES2_7ap_uintILi1EEE8preamble, align 1, !dbg !9051 ; [#uses=1 type=i8] [debug line = 61:104]
  %40 = icmp eq i8 %39, 0, !dbg !9051             ; [#uses=1 type=i1] [debug line = 61:104]
  br i1 %40, label %41, label %42, !dbg !9051     ; [debug line = 61:104]

; <label>:41                                      ; preds = %38
  call void @_ZN8ap_fixedILi16ELi11EL9ap_q_mode5EL9ap_o_mode3ELi0EEC1Ed(%struct.ap_int.5* getelementptr inbounds ([16 x %struct.ap_int.5]* @_ZZ10MatcherReeN3hls6streamI10rfnoc_axisEES2_7ap_uintILi1EEE8preamble, i32 0, i32 0), double 1.500000e+00), !dbg !9051 ; [debug line = 61:104]
  call void @_ZN8ap_fixedILi16ELi11EL9ap_q_mode5EL9ap_o_mode3ELi0EEC1Ed(%struct.ap_int.5* getelementptr inbounds ([16 x %struct.ap_int.5]* @_ZZ10MatcherReeN3hls6streamI10rfnoc_axisEES2_7ap_uintILi1EEE8preamble, i32 0, i32 1), double 2.500000e+00), !dbg !9051 ; [debug line = 61:104]
  call void @_ZN8ap_fixedILi16ELi11EL9ap_q_mode5EL9ap_o_mode3ELi0EEC1Ed(%struct.ap_int.5* getelementptr inbounds ([16 x %struct.ap_int.5]* @_ZZ10MatcherReeN3hls6streamI10rfnoc_axisEES2_7ap_uintILi1EEE8preamble, i32 0, i32 2), double 3.700000e+00), !dbg !9051 ; [debug line = 61:104]
  call void @_ZN8ap_fixedILi16ELi11EL9ap_q_mode5EL9ap_o_mode3ELi0EEC1Ed(%struct.ap_int.5* getelementptr inbounds ([16 x %struct.ap_int.5]* @_ZZ10MatcherReeN3hls6streamI10rfnoc_axisEES2_7ap_uintILi1EEE8preamble, i32 0, i32 3), double 4.900000e+00), !dbg !9051 ; [debug line = 61:104]
  call void @_ZN8ap_fixedILi16ELi11EL9ap_q_mode5EL9ap_o_mode3ELi0EEC1Ed(%struct.ap_int.5* getelementptr inbounds ([16 x %struct.ap_int.5]* @_ZZ10MatcherReeN3hls6streamI10rfnoc_axisEES2_7ap_uintILi1EEE8preamble, i32 0, i32 4), double 5.300000e+00), !dbg !9051 ; [debug line = 61:104]
  call void @_ZN8ap_fixedILi16ELi11EL9ap_q_mode5EL9ap_o_mode3ELi0EEC1Ed(%struct.ap_int.5* getelementptr inbounds ([16 x %struct.ap_int.5]* @_ZZ10MatcherReeN3hls6streamI10rfnoc_axisEES2_7ap_uintILi1EEE8preamble, i32 0, i32 5), double 6.400000e+00), !dbg !9051 ; [debug line = 61:104]
  call void @_ZN8ap_fixedILi16ELi11EL9ap_q_mode5EL9ap_o_mode3ELi0EEC1Ed(%struct.ap_int.5* getelementptr inbounds ([16 x %struct.ap_int.5]* @_ZZ10MatcherReeN3hls6streamI10rfnoc_axisEES2_7ap_uintILi1EEE8preamble, i32 0, i32 6), double 5.700000e+00), !dbg !9051 ; [debug line = 61:104]
  call void @_ZN8ap_fixedILi16ELi11EL9ap_q_mode5EL9ap_o_mode3ELi0EEC1Ed(%struct.ap_int.5* getelementptr inbounds ([16 x %struct.ap_int.5]* @_ZZ10MatcherReeN3hls6streamI10rfnoc_axisEES2_7ap_uintILi1EEE8preamble, i32 0, i32 7), double 4.400000e+00), !dbg !9051 ; [debug line = 61:104]
  call void @_ZN8ap_fixedILi16ELi11EL9ap_q_mode5EL9ap_o_mode3ELi0EEC1Ed(%struct.ap_int.5* getelementptr inbounds ([16 x %struct.ap_int.5]* @_ZZ10MatcherReeN3hls6streamI10rfnoc_axisEES2_7ap_uintILi1EEE8preamble, i32 0, i32 8), double 3.800000e+00), !dbg !9051 ; [debug line = 61:104]
  call void @_ZN8ap_fixedILi16ELi11EL9ap_q_mode5EL9ap_o_mode3ELi0EEC1Ed(%struct.ap_int.5* getelementptr inbounds ([16 x %struct.ap_int.5]* @_ZZ10MatcherReeN3hls6streamI10rfnoc_axisEES2_7ap_uintILi1EEE8preamble, i32 0, i32 9), double 2.900000e+00), !dbg !9051 ; [debug line = 61:104]
  call void @_ZN8ap_fixedILi16ELi11EL9ap_q_mode5EL9ap_o_mode3ELi0EEC1Ed(%struct.ap_int.5* getelementptr inbounds ([16 x %struct.ap_int.5]* @_ZZ10MatcherReeN3hls6streamI10rfnoc_axisEES2_7ap_uintILi1EEE8preamble, i32 0, i32 10), double 2.300000e+00), !dbg !9051 ; [debug line = 61:104]
  call void @_ZN8ap_fixedILi16ELi11EL9ap_q_mode5EL9ap_o_mode3ELi0EEC1Ed(%struct.ap_int.5* getelementptr inbounds ([16 x %struct.ap_int.5]* @_ZZ10MatcherReeN3hls6streamI10rfnoc_axisEES2_7ap_uintILi1EEE8preamble, i32 0, i32 11), double 3.300000e+00), !dbg !9051 ; [debug line = 61:104]
  call void @_ZN8ap_fixedILi16ELi11EL9ap_q_mode5EL9ap_o_mode3ELi0EEC1Ed(%struct.ap_int.5* getelementptr inbounds ([16 x %struct.ap_int.5]* @_ZZ10MatcherReeN3hls6streamI10rfnoc_axisEES2_7ap_uintILi1EEE8preamble, i32 0, i32 12), double 4.600000e+00), !dbg !9051 ; [debug line = 61:104]
  call void @_ZN8ap_fixedILi16ELi11EL9ap_q_mode5EL9ap_o_mode3ELi0EEC1Ed(%struct.ap_int.5* getelementptr inbounds ([16 x %struct.ap_int.5]* @_ZZ10MatcherReeN3hls6streamI10rfnoc_axisEES2_7ap_uintILi1EEE8preamble, i32 0, i32 13), double 5.600000e+00), !dbg !9051 ; [debug line = 61:104]
  call void @_ZN8ap_fixedILi16ELi11EL9ap_q_mode5EL9ap_o_mode3ELi0EEC1Ed(%struct.ap_int.5* getelementptr inbounds ([16 x %struct.ap_int.5]* @_ZZ10MatcherReeN3hls6streamI10rfnoc_axisEES2_7ap_uintILi1EEE8preamble, i32 0, i32 14), double 6.600000e+00), !dbg !9051 ; [debug line = 61:104]
  call void @_ZN8ap_fixedILi16ELi11EL9ap_q_mode5EL9ap_o_mode3ELi0EEC1Ed(%struct.ap_int.5* getelementptr inbounds ([16 x %struct.ap_int.5]* @_ZZ10MatcherReeN3hls6streamI10rfnoc_axisEES2_7ap_uintILi1EEE8preamble, i32 0, i32 15), double 6.500000e+00), !dbg !9051 ; [debug line = 61:104]
  store i8 1, i8* @_ZGVZ10MatcherReeN3hls6streamI10rfnoc_axisEES2_7ap_uintILi1EEE8preamble, !dbg !9051 ; [debug line = 61:104]
  br label %42, !dbg !9051                        ; [debug line = 61:104]

; <label>:42                                      ; preds = %41, %38
  call void (...)* @_ssdm_SpecArrayPartition(%struct.ap_int.5* getelementptr inbounds ([16 x %struct.ap_int.5]* @_ZZ10MatcherReeN3hls6streamI10rfnoc_axisEES2_7ap_uintILi1EEE8preamble, i32 0, i32 0), i32 1, i8* getelementptr inbounds ([9 x i8]* @.str4, i32 0, i32 0), i32 0, i8* getelementptr inbounds ([1 x i8]* @.str, i32 0, i32 0)) nounwind, !dbg !9052 ; [debug line = 62:1]
  %43 = load i8* @_ZGVZ10MatcherReeN3hls6streamI10rfnoc_axisEES2_7ap_uintILi1EEE9matchQSum, align 1, !dbg !9053 ; [#uses=1 type=i8] [debug line = 64:40]
  %44 = icmp eq i8 %43, 0, !dbg !9053             ; [#uses=1 type=i1] [debug line = 64:40]
  br i1 %44, label %45, label %46, !dbg !9053     ; [debug line = 64:40]

; <label>:45                                      ; preds = %42
  call void @_ZN8ap_fixedILi16ELi11EL9ap_q_mode5EL9ap_o_mode3ELi0EEC1Ed(%struct.ap_int.5* @_ZZ10MatcherReeN3hls6streamI10rfnoc_axisEES2_7ap_uintILi1EEE9matchQSum, double 0.000000e+00), !dbg !9053 ; [debug line = 64:40]
  store i8 1, i8* @_ZGVZ10MatcherReeN3hls6streamI10rfnoc_axisEES2_7ap_uintILi1EEE9matchQSum, !dbg !9053 ; [debug line = 64:40]
  br label %46, !dbg !9053                        ; [debug line = 64:40]

; <label>:46                                      ; preds = %45, %42
  %47 = load i8* @_ZGVZ10MatcherReeN3hls6streamI10rfnoc_axisEES2_7ap_uintILi1EEE9matchISum, align 1, !dbg !9054 ; [#uses=1 type=i8] [debug line = 65:41]
  %48 = icmp eq i8 %47, 0, !dbg !9054             ; [#uses=1 type=i1] [debug line = 65:41]
  br i1 %48, label %49, label %50, !dbg !9054     ; [debug line = 65:41]

; <label>:49                                      ; preds = %46
  call void @_ZN8ap_fixedILi16ELi11EL9ap_q_mode5EL9ap_o_mode3ELi0EEC1Ed(%struct.ap_int.5* @_ZZ10MatcherReeN3hls6streamI10rfnoc_axisEES2_7ap_uintILi1EEE9matchISum, double 0.000000e+00), !dbg !9054 ; [debug line = 65:41]
  store i8 1, i8* @_ZGVZ10MatcherReeN3hls6streamI10rfnoc_axisEES2_7ap_uintILi1EEE9matchISum, !dbg !9054 ; [debug line = 65:41]
  br label %50, !dbg !9054                        ; [debug line = 65:41]

; <label>:50                                      ; preds = %49, %46
  %51 = load i1* @_ZZ10MatcherReeN3hls6streamI10rfnoc_axisEES2_7ap_uintILi1EEE12currentState, align 1, !dbg !9055 ; [#uses=1 type=i1] [debug line = 69:1]
  %52 = zext i1 %51 to i32, !dbg !9055            ; [#uses=1 type=i32] [debug line = 69:1]
  call void (...)* @_ssdm_op_SpecReset(i32 %52, i32 1, i8* getelementptr inbounds ([1 x i8]* @.str, i32 0, i32 0)) nounwind, !dbg !9055 ; [debug line = 69:1]
  %53 = load i1* @_ZZ10MatcherReeN3hls6streamI10rfnoc_axisEES2_7ap_uintILi1EEE14currentwrState, align 1, !dbg !9056 ; [#uses=1 type=i1] [debug line = 73:1]
  %54 = zext i1 %53 to i32, !dbg !9056            ; [#uses=1 type=i32] [debug line = 73:1]
  call void (...)* @_ssdm_op_SpecReset(i32 %54, i32 1, i8* getelementptr inbounds ([1 x i8]* @.str, i32 0, i32 0)) nounwind, !dbg !9056 ; [debug line = 73:1]
  %55 = load i1* @_ZZ10MatcherReeN3hls6streamI10rfnoc_axisEES2_7ap_uintILi1EEE12currentState, align 1, !dbg !9057 ; [#uses=1 type=i1] [debug line = 76:3]
  %56 = zext i1 %55 to i32, !dbg !9057            ; [#uses=1 type=i32] [debug line = 76:3]
  switch i32 %56, label %122 [
    i32 0, label %57
    i32 1, label %63
  ], !dbg !9057                                   ; [debug line = 76:3]

; <label>:57                                      ; preds = %50
  %58 = bitcast %struct.ap_uint* %start to %struct.ap_int_base.0*, !dbg !9058 ; [#uses=1 type=%struct.ap_int_base.0*] [debug line = 78:12]
  %59 = call zeroext i8 @_ZNK11ap_int_baseILi1ELb0ELb1EEcvhEv(%struct.ap_int_base.0* %58), !dbg !9058 ; [#uses=1 type=i8] [debug line = 78:12]
  %60 = icmp ne i8 %59, 0, !dbg !9058             ; [#uses=1 type=i1] [debug line = 78:12]
  br i1 %60, label %61, label %62, !dbg !9058     ; [debug line = 78:12]

; <label>:61                                      ; preds = %57
  store i1 true, i1* @_ZZ10MatcherReeN3hls6streamI10rfnoc_axisEES2_7ap_uintILi1EEE12currentState, align 1, !dbg !9060 ; [debug line = 79:10]
  br label %62, !dbg !9062                        ; [debug line = 81:9]

; <label>:62                                      ; preds = %61, %57
  br label %122, !dbg !9063                       ; [debug line = 82:9]

; <label>:63                                      ; preds = %50
  call void @_ZN3hls6streamI10rfnoc_axisE4readERS1_(%"class.hls::stream"* %i_data, %struct.rfnoc_axis* %tmp_data), !dbg !9064 ; [debug line = 84:6]
  br label %64, !dbg !9064                        ; [debug line = 84:6]

; <label>:64                                      ; preds = %63
  call void @llvm.dbg.declare(metadata !{i32* %a}, metadata !9065), !dbg !9067 ; [debug line = 86:23] [debug variable = a]
  store i32 15, i32* %a, align 4, !dbg !9068      ; [debug line = 86:31]
  br label %65, !dbg !9068                        ; [debug line = 86:31]

; <label>:65                                      ; preds = %81, %64
  %66 = load i32* %a, align 4, !dbg !9068         ; [#uses=1 type=i32] [debug line = 86:31]
  %67 = icmp sgt i32 %66, 0, !dbg !9068           ; [#uses=1 type=i1] [debug line = 86:31]
  br i1 %67, label %68, label %84, !dbg !9068     ; [debug line = 86:31]

; <label>:68                                      ; preds = %65
  call void (...)* @_ssdm_op_SpecLoopName(i8* getelementptr inbounds ([11 x i8]* @.str5, i32 0, i32 0)) nounwind, !dbg !9069 ; [debug line = 86:45]
  call void (...)* @_ssdm_RegionBegin(i8* getelementptr inbounds ([11 x i8]* @.str5, i32 0, i32 0)) nounwind, !dbg !9069 ; [debug line = 86:45]
  call void (...)* @_ssdm_Unroll(i32 0, i32 0, i32 0, i8* getelementptr inbounds ([1 x i8]* @.str, i32 0, i32 0)) nounwind, !dbg !9071 ; [debug line = 87:1]
  %69 = load i32* %a, align 4, !dbg !9072         ; [#uses=1 type=i32] [debug line = 88:2]
  %70 = getelementptr inbounds [16 x %struct.ap_int.5]* @_ZZ10MatcherReeN3hls6streamI10rfnoc_axisEES2_7ap_uintILi1EEE5buffQ, i32 0, i32 %69, !dbg !9072 ; [#uses=1 type=%struct.ap_int.5*] [debug line = 88:2]
  %71 = load i32* %a, align 4, !dbg !9072         ; [#uses=1 type=i32] [debug line = 88:2]
  %72 = sub nsw i32 %71, 1, !dbg !9072            ; [#uses=1 type=i32] [debug line = 88:2]
  %73 = getelementptr inbounds [16 x %struct.ap_int.5]* @_ZZ10MatcherReeN3hls6streamI10rfnoc_axisEES2_7ap_uintILi1EEE5buffQ, i32 0, i32 %72, !dbg !9072 ; [#uses=1 type=%struct.ap_int.5*] [debug line = 88:2]
  %74 = call %struct.ap_int.5* @_ZN8ap_fixedILi16ELi11EL9ap_q_mode5EL9ap_o_mode3ELi0EEaSERKS2_(%struct.ap_int.5* %70, %struct.ap_int.5* %73), !dbg !9072 ; [#uses=0 type=%struct.ap_int.5*] [debug line = 88:2]
  %75 = load i32* %a, align 4, !dbg !9073         ; [#uses=1 type=i32] [debug line = 89:4]
  %76 = getelementptr inbounds [16 x %struct.ap_int.5]* @_ZZ10MatcherReeN3hls6streamI10rfnoc_axisEES2_7ap_uintILi1EEE5buffI, i32 0, i32 %75, !dbg !9073 ; [#uses=1 type=%struct.ap_int.5*] [debug line = 89:4]
  %77 = load i32* %a, align 4, !dbg !9073         ; [#uses=1 type=i32] [debug line = 89:4]
  %78 = sub nsw i32 %77, 1, !dbg !9073            ; [#uses=1 type=i32] [debug line = 89:4]
  %79 = getelementptr inbounds [16 x %struct.ap_int.5]* @_ZZ10MatcherReeN3hls6streamI10rfnoc_axisEES2_7ap_uintILi1EEE5buffI, i32 0, i32 %78, !dbg !9073 ; [#uses=1 type=%struct.ap_int.5*] [debug line = 89:4]
  %80 = call %struct.ap_int.5* @_ZN8ap_fixedILi16ELi11EL9ap_q_mode5EL9ap_o_mode3ELi0EEaSERKS2_(%struct.ap_int.5* %76, %struct.ap_int.5* %79), !dbg !9073 ; [#uses=0 type=%struct.ap_int.5*] [debug line = 89:4]
  call void (...)* @_ssdm_RegionEnd(i8* getelementptr inbounds ([11 x i8]* @.str5, i32 0, i32 0)) nounwind, !dbg !9074 ; [debug line = 90:3]
  br label %81, !dbg !9074                        ; [debug line = 90:3]

; <label>:81                                      ; preds = %68
  %82 = load i32* %a, align 4, !dbg !9075         ; [#uses=1 type=i32] [debug line = 86:40]
  %83 = add nsw i32 %82, -1, !dbg !9075           ; [#uses=1 type=i32] [debug line = 86:40]
  store i32 %83, i32* %a, align 4, !dbg !9075     ; [debug line = 86:40]
  br label %65, !dbg !9075                        ; [debug line = 86:40]

; <label>:84                                      ; preds = %65
  %85 = getelementptr inbounds %struct.rfnoc_axis* %tmp_data, i32 0, i32 0, !dbg !9076 ; [#uses=1 type=%struct.ap_int*] [debug line = 92:14]
  %86 = bitcast %struct.ap_int* %85 to %struct.ap_int_base*, !dbg !9076 ; [#uses=1 type=%struct.ap_int_base*] [debug line = 92:14]
  call void @_ZN11ap_int_baseILi32ELb1ELb1EE5rangeEii(%struct.ap_range_ref* sret %3, %struct.ap_int_base* %86, i32 15, i32 0), !dbg !9076 ; [debug line = 92:14]
  call void @_ZN8ap_fixedILi16ELi11EL9ap_q_mode5EL9ap_o_mode3ELi0EEC1ILi32ELb1EEERK12ap_range_refIXT_EXT0_EE(%struct.ap_int.5* %2, %struct.ap_range_ref* %3), !dbg !9076 ; [debug line = 92:14]
  %87 = call %struct.ap_int.5* @_ZN8ap_fixedILi16ELi11EL9ap_q_mode5EL9ap_o_mode3ELi0EEaSERKS2_(%struct.ap_int.5* getelementptr inbounds ([16 x %struct.ap_int.5]* @_ZZ10MatcherReeN3hls6streamI10rfnoc_axisEES2_7ap_uintILi1EEE5buffQ, i32 0, i32 0), %struct.ap_int.5* %2), !dbg !9076 ; [#uses=0 type=%struct.ap_int.5*] [debug line = 92:14]
  %88 = getelementptr inbounds %struct.rfnoc_axis* %tmp_data, i32 0, i32 0, !dbg !9077 ; [#uses=1 type=%struct.ap_int*] [debug line = 93:14]
  %89 = bitcast %struct.ap_int* %88 to %struct.ap_int_base*, !dbg !9077 ; [#uses=1 type=%struct.ap_int_base*] [debug line = 93:14]
  call void @_ZN11ap_int_baseILi32ELb1ELb1EE5rangeEii(%struct.ap_range_ref* sret %5, %struct.ap_int_base* %89, i32 31, i32 16), !dbg !9077 ; [debug line = 93:14]
  call void @_ZN8ap_fixedILi16ELi11EL9ap_q_mode5EL9ap_o_mode3ELi0EEC1ILi32ELb1EEERK12ap_range_refIXT_EXT0_EE(%struct.ap_int.5* %4, %struct.ap_range_ref* %5), !dbg !9077 ; [debug line = 93:14]
  %90 = call %struct.ap_int.5* @_ZN8ap_fixedILi16ELi11EL9ap_q_mode5EL9ap_o_mode3ELi0EEaSERKS2_(%struct.ap_int.5* getelementptr inbounds ([16 x %struct.ap_int.5]* @_ZZ10MatcherReeN3hls6streamI10rfnoc_axisEES2_7ap_uintILi1EEE5buffI, i32 0, i32 0), %struct.ap_int.5* %4), !dbg !9077 ; [#uses=0 type=%struct.ap_int.5*] [debug line = 93:14]
  call void @_ZN8ap_fixedILi16ELi11EL9ap_q_mode5EL9ap_o_mode3ELi0EEC1Ed(%struct.ap_int.5* %6, double 0.000000e+00), !dbg !9078 ; [debug line = 95:3]
  %91 = call %struct.ap_int.5* @_ZN8ap_fixedILi16ELi11EL9ap_q_mode5EL9ap_o_mode3ELi0EEaSERKS2_(%struct.ap_int.5* @_ZZ10MatcherReeN3hls6streamI10rfnoc_axisEES2_7ap_uintILi1EEE9matchQSum, %struct.ap_int.5* %6), !dbg !9078 ; [#uses=0 type=%struct.ap_int.5*] [debug line = 95:3]
  call void @_ZN8ap_fixedILi16ELi11EL9ap_q_mode5EL9ap_o_mode3ELi0EEC1Ed(%struct.ap_int.5* %7, double 0.000000e+00), !dbg !9079 ; [debug line = 96:3]
  %92 = call %struct.ap_int.5* @_ZN8ap_fixedILi16ELi11EL9ap_q_mode5EL9ap_o_mode3ELi0EEaSERKS2_(%struct.ap_int.5* @_ZZ10MatcherReeN3hls6streamI10rfnoc_axisEES2_7ap_uintILi1EEE9matchISum, %struct.ap_int.5* %7), !dbg !9079 ; [#uses=0 type=%struct.ap_int.5*] [debug line = 96:3]
  br label %93, !dbg !9079                        ; [debug line = 96:3]

; <label>:93                                      ; preds = %84
  call void @llvm.dbg.declare(metadata !{i32* %b}, metadata !9080), !dbg !9082 ; [debug line = 97:22] [debug variable = b]
  store i32 0, i32* %b, align 4, !dbg !9083       ; [debug line = 97:27]
  br label %94, !dbg !9083                        ; [debug line = 97:27]

; <label>:94                                      ; preds = %112, %93
  %95 = load i32* %b, align 4, !dbg !9083         ; [#uses=1 type=i32] [debug line = 97:27]
  %96 = icmp slt i32 %95, 16, !dbg !9083          ; [#uses=1 type=i1] [debug line = 97:27]
  br i1 %96, label %97, label %115, !dbg !9083    ; [debug line = 97:27]

; <label>:97                                      ; preds = %94
  call void (...)* @_ssdm_op_SpecLoopName(i8* getelementptr inbounds ([10 x i8]* @.str6, i32 0, i32 0)) nounwind, !dbg !9084 ; [debug line = 97:40]
  call void (...)* @_ssdm_RegionBegin(i8* getelementptr inbounds ([10 x i8]* @.str6, i32 0, i32 0)) nounwind, !dbg !9084 ; [debug line = 97:40]
  %98 = load i32* %b, align 4, !dbg !9086         ; [#uses=1 type=i32] [debug line = 98:29]
  %99 = getelementptr inbounds [16 x %struct.ap_int.5]* @_ZZ10MatcherReeN3hls6streamI10rfnoc_axisEES2_7ap_uintILi1EEE5buffQ, i32 0, i32 %98, !dbg !9086 ; [#uses=1 type=%struct.ap_int.5*] [debug line = 98:29]
  %100 = bitcast %struct.ap_int.5* %99 to %struct.ap_int_base.6*, !dbg !9086 ; [#uses=1 type=%struct.ap_int_base.6*] [debug line = 98:29]
  %101 = load i32* %b, align 4, !dbg !9086        ; [#uses=1 type=i32] [debug line = 98:29]
  %102 = getelementptr inbounds [16 x %struct.ap_int.5]* @_ZZ10MatcherReeN3hls6streamI10rfnoc_axisEES2_7ap_uintILi1EEE8preamble, i32 0, i32 %101, !dbg !9086 ; [#uses=1 type=%struct.ap_int.5*] [debug line = 98:29]
  %103 = bitcast %struct.ap_int.5* %102 to %struct.ap_int_base.6*, !dbg !9086 ; [#uses=1 type=%struct.ap_int_base.6*] [debug line = 98:29]
  call void @_ZNK13ap_fixed_baseILi16ELi11ELb1EL9ap_q_mode5EL9ap_o_mode3ELi0EEmlILi16ELi11ELb1ELS0_5ELS1_3ELi0EEENS2_5RTypeIXT_EXT0_EXT1_EE4multERKS_IXT_EXT0_EXT1_EXT2_EXT3_EXT4_EE(%struct.ap_int_base* sret %10, %struct.ap_int_base.6* %100, %struct.ap_int_base.6* %103), !dbg !9086 ; [debug line = 98:29]
  call void @_ZNK13ap_fixed_baseILi16ELi11ELb1EL9ap_q_mode5EL9ap_o_mode3ELi0EEplILi32ELi22ELb1ELS0_5ELS1_3ELi0EEENS2_5RTypeIXT_EXT0_EXT1_EE4plusERKS_IXT_EXT0_EXT1_EXT2_EXT3_EXT4_EE(%struct.ap_fixed_base.8* sret %9, %struct.ap_int_base.6* getelementptr inbounds (%struct.ap_int.5* @_ZZ10MatcherReeN3hls6streamI10rfnoc_axisEES2_7ap_uintILi1EEE9matchQSum, i32 0, i32 0), %struct.ap_int_base* %10), !dbg !9086 ; [debug line = 98:29]
  call void @_ZN8ap_fixedILi16ELi11EL9ap_q_mode5EL9ap_o_mode3ELi0EEC1ILi33ELi23ELb1ELS0_5ELS1_3ELi0EEERK13ap_fixed_baseIXT_EXT0_EXT1_EXT2_EXT3_EXT4_EE(%struct.ap_int.5* %8, %struct.ap_fixed_base.8* %9), !dbg !9086 ; [debug line = 98:29]
  %104 = call %struct.ap_int.5* @_ZN8ap_fixedILi16ELi11EL9ap_q_mode5EL9ap_o_mode3ELi0EEaSERKS2_(%struct.ap_int.5* @_ZZ10MatcherReeN3hls6streamI10rfnoc_axisEES2_7ap_uintILi1EEE9matchQSum, %struct.ap_int.5* %8), !dbg !9086 ; [#uses=0 type=%struct.ap_int.5*] [debug line = 98:29]
  %105 = load i32* %b, align 4, !dbg !9087        ; [#uses=1 type=i32] [debug line = 99:29]
  %106 = getelementptr inbounds [16 x %struct.ap_int.5]* @_ZZ10MatcherReeN3hls6streamI10rfnoc_axisEES2_7ap_uintILi1EEE5buffI, i32 0, i32 %105, !dbg !9087 ; [#uses=1 type=%struct.ap_int.5*] [debug line = 99:29]
  %107 = bitcast %struct.ap_int.5* %106 to %struct.ap_int_base.6*, !dbg !9087 ; [#uses=1 type=%struct.ap_int_base.6*] [debug line = 99:29]
  %108 = load i32* %b, align 4, !dbg !9087        ; [#uses=1 type=i32] [debug line = 99:29]
  %109 = getelementptr inbounds [16 x %struct.ap_int.5]* @_ZZ10MatcherReeN3hls6streamI10rfnoc_axisEES2_7ap_uintILi1EEE8preamble, i32 0, i32 %108, !dbg !9087 ; [#uses=1 type=%struct.ap_int.5*] [debug line = 99:29]
  %110 = bitcast %struct.ap_int.5* %109 to %struct.ap_int_base.6*, !dbg !9087 ; [#uses=1 type=%struct.ap_int_base.6*] [debug line = 99:29]
  call void @_ZNK13ap_fixed_baseILi16ELi11ELb1EL9ap_q_mode5EL9ap_o_mode3ELi0EEmlILi16ELi11ELb1ELS0_5ELS1_3ELi0EEENS2_5RTypeIXT_EXT0_EXT1_EE4multERKS_IXT_EXT0_EXT1_EXT2_EXT3_EXT4_EE(%struct.ap_int_base* sret %13, %struct.ap_int_base.6* %107, %struct.ap_int_base.6* %110), !dbg !9087 ; [debug line = 99:29]
  call void @_ZNK13ap_fixed_baseILi16ELi11ELb1EL9ap_q_mode5EL9ap_o_mode3ELi0EEplILi32ELi22ELb1ELS0_5ELS1_3ELi0EEENS2_5RTypeIXT_EXT0_EXT1_EE4plusERKS_IXT_EXT0_EXT1_EXT2_EXT3_EXT4_EE(%struct.ap_fixed_base.8* sret %12, %struct.ap_int_base.6* getelementptr inbounds (%struct.ap_int.5* @_ZZ10MatcherReeN3hls6streamI10rfnoc_axisEES2_7ap_uintILi1EEE9matchISum, i32 0, i32 0), %struct.ap_int_base* %13), !dbg !9087 ; [debug line = 99:29]
  call void @_ZN8ap_fixedILi16ELi11EL9ap_q_mode5EL9ap_o_mode3ELi0EEC1ILi33ELi23ELb1ELS0_5ELS1_3ELi0EEERK13ap_fixed_baseIXT_EXT0_EXT1_EXT2_EXT3_EXT4_EE(%struct.ap_int.5* %11, %struct.ap_fixed_base.8* %12), !dbg !9087 ; [debug line = 99:29]
  %111 = call %struct.ap_int.5* @_ZN8ap_fixedILi16ELi11EL9ap_q_mode5EL9ap_o_mode3ELi0EEaSERKS2_(%struct.ap_int.5* @_ZZ10MatcherReeN3hls6streamI10rfnoc_axisEES2_7ap_uintILi1EEE9matchISum, %struct.ap_int.5* %11), !dbg !9087 ; [#uses=0 type=%struct.ap_int.5*] [debug line = 99:29]
  call void (...)* @_ssdm_RegionEnd(i8* getelementptr inbounds ([10 x i8]* @.str6, i32 0, i32 0)) nounwind, !dbg !9088 ; [debug line = 100:3]
  br label %112, !dbg !9088                       ; [debug line = 100:3]

; <label>:112                                     ; preds = %97
  %113 = load i32* %b, align 4, !dbg !9089        ; [#uses=1 type=i32] [debug line = 97:35]
  %114 = add nsw i32 %113, 1, !dbg !9089          ; [#uses=1 type=i32] [debug line = 97:35]
  store i32 %114, i32* %b, align 4, !dbg !9089    ; [debug line = 97:35]
  br label %94, !dbg !9089                        ; [debug line = 97:35]

; <label>:115                                     ; preds = %94
  %116 = getelementptr inbounds %struct.rfnoc_axis* %out_sample, i32 0, i32 0, !dbg !9090 ; [#uses=1 type=%struct.ap_int*] [debug line = 104:6]
  %117 = bitcast %struct.ap_int* %116 to %struct.ap_int_base*, !dbg !9090 ; [#uses=1 type=%struct.ap_int_base*] [debug line = 104:6]
  call void @_ZN11ap_int_baseILi32ELb1ELb1EE5rangeEii(%struct.ap_range_ref* sret %14, %struct.ap_int_base* %117, i32 31, i32 16), !dbg !9090 ; [debug line = 104:6]
  call void @_ZN13ap_fixed_baseILi16ELi11ELb1EL9ap_q_mode5EL9ap_o_mode3ELi0EE5rangeEii(%struct.af_range_ref* sret %15, %struct.ap_int_base.6* getelementptr inbounds (%struct.ap_int.5* @_ZZ10MatcherReeN3hls6streamI10rfnoc_axisEES2_7ap_uintILi1EEE9matchISum, i32 0, i32 0), i32 15, i32 0), !dbg !9091 ; [debug line = 104:37]
  %118 = call %struct.ap_range_ref* @_ZN12ap_range_refILi32ELb1EEaSILi16ELi11ELb1EL9ap_q_mode5EL9ap_o_mode3ELi0EEERS0_RK12af_range_refIXT_EXT0_EXT1_EXT2_EXT3_EXT4_EE(%struct.ap_range_ref* %14, %struct.af_range_ref* %15), !dbg !9091 ; [#uses=0 type=%struct.ap_range_ref*] [debug line = 104:37]
  %119 = getelementptr inbounds %struct.rfnoc_axis* %out_sample, i32 0, i32 0, !dbg !9092 ; [#uses=1 type=%struct.ap_int*] [debug line = 105:6]
  %120 = bitcast %struct.ap_int* %119 to %struct.ap_int_base*, !dbg !9092 ; [#uses=1 type=%struct.ap_int_base*] [debug line = 105:6]
  call void @_ZN11ap_int_baseILi32ELb1ELb1EE5rangeEii(%struct.ap_range_ref* sret %16, %struct.ap_int_base* %120, i32 15, i32 0), !dbg !9092 ; [debug line = 105:6]
  call void @_ZN13ap_fixed_baseILi16ELi11ELb1EL9ap_q_mode5EL9ap_o_mode3ELi0EE5rangeEii(%struct.af_range_ref* sret %17, %struct.ap_int_base.6* getelementptr inbounds (%struct.ap_int.5* @_ZZ10MatcherReeN3hls6streamI10rfnoc_axisEES2_7ap_uintILi1EEE9matchQSum, i32 0, i32 0), i32 15, i32 0), !dbg !9093 ; [debug line = 105:36]
  %121 = call %struct.ap_range_ref* @_ZN12ap_range_refILi32ELb1EEaSILi16ELi11ELb1EL9ap_q_mode5EL9ap_o_mode3ELi0EEERS0_RK12af_range_refIXT_EXT0_EXT1_EXT2_EXT3_EXT4_EE(%struct.ap_range_ref* %16, %struct.af_range_ref* %17), !dbg !9093 ; [#uses=0 type=%struct.ap_range_ref*] [debug line = 105:36]
  call void @_ZN3hls6streamI10rfnoc_axisE5writeERKS1_(%"class.hls::stream"* %o_data, %struct.rfnoc_axis* %out_sample), !dbg !9094 ; [debug line = 106:6]
  br label %122, !dbg !9095                       ; [debug line = 107:2]

; <label>:122                                     ; preds = %115, %62, %50
  ret void, !dbg !9096                            ; [debug line = 110:1]
}

; [#uses=264]
declare void @llvm.dbg.declare(metadata, metadata) nounwind readnone

; [#uses=1]
declare void @_ssdm_op_SpecResource(...) nounwind

; [#uses=3]
declare void @_ssdm_op_SpecInterface(...) nounwind

; [#uses=1]
declare void @_ssdm_op_SpecPipeline(...) nounwind

; [#uses=3]
define linkonce_odr void @_ZN10rfnoc_axisC1Ev(%struct.rfnoc_axis* %this) unnamed_addr nounwind inlinehint align 2 {
  %1 = alloca %struct.rfnoc_axis*, align 4        ; [#uses=2 type=%struct.rfnoc_axis**]
  store %struct.rfnoc_axis* %this, %struct.rfnoc_axis** %1, align 4
  call void @llvm.dbg.declare(metadata !{%struct.rfnoc_axis** %1}, metadata !9097), !dbg !9099 ; [debug line = 28:9] [debug variable = this]
  %2 = load %struct.rfnoc_axis** %1               ; [#uses=1 type=%struct.rfnoc_axis*]
  call void @_ZN10rfnoc_axisC2Ev(%struct.rfnoc_axis* %2), !dbg !9099 ; [debug line = 28:9]
  ret void, !dbg !9099                            ; [debug line = 28:9]
}

; [#uses=1]
define linkonce_odr void @_ZN7ap_uintILi10EEC1Ev(%struct.ap_uint.2* %this) unnamed_addr nounwind inlinehint alwaysinline align 2 {
  %1 = alloca %struct.ap_uint.2*, align 4         ; [#uses=2 type=%struct.ap_uint.2**]
  store %struct.ap_uint.2* %this, %struct.ap_uint.2** %1, align 4
  call void @llvm.dbg.declare(metadata !{%struct.ap_uint.2** %1}, metadata !9100), !dbg !9102 ; [debug line = 185:43] [debug variable = this]
  %2 = load %struct.ap_uint.2** %1                ; [#uses=1 type=%struct.ap_uint.2*]
  call void @_ZN7ap_uintILi10EEC2Ev(%struct.ap_uint.2* %2), !dbg !9103 ; [debug line = 185:62]
  ret void, !dbg !9103                            ; [debug line = 185:62]
}

; [#uses=4]
declare void @_ssdm_op_SpecReset(...) nounwind

; [#uses=2]
define linkonce_odr void @_ZN7ap_uintILi1EEC1Ev(%struct.ap_uint* %this) unnamed_addr nounwind inlinehint alwaysinline align 2 {
  %1 = alloca %struct.ap_uint*, align 4           ; [#uses=2 type=%struct.ap_uint**]
  store %struct.ap_uint* %this, %struct.ap_uint** %1, align 4
  call void @llvm.dbg.declare(metadata !{%struct.ap_uint** %1}, metadata !9104), !dbg !9106 ; [debug line = 185:43] [debug variable = this]
  %2 = load %struct.ap_uint** %1                  ; [#uses=1 type=%struct.ap_uint*]
  call void @_ZN7ap_uintILi1EEC2Ev(%struct.ap_uint* %2), !dbg !9107 ; [debug line = 185:62]
  ret void, !dbg !9107                            ; [debug line = 185:62]
}

; [#uses=1]
define linkonce_odr void @_ZN6ap_intILi16EEC1Ev(%struct.ap_int.5* %this) unnamed_addr nounwind inlinehint alwaysinline align 2 {
  %1 = alloca %struct.ap_int.5*, align 4          ; [#uses=2 type=%struct.ap_int.5**]
  store %struct.ap_int.5* %this, %struct.ap_int.5** %1, align 4
  call void @llvm.dbg.declare(metadata !{%struct.ap_int.5** %1}, metadata !9108), !dbg !9110 ; [debug line = 77:43] [debug variable = this]
  %2 = load %struct.ap_int.5** %1                 ; [#uses=1 type=%struct.ap_int.5*]
  call void @_ZN6ap_intILi16EEC2Ev(%struct.ap_int.5* %2), !dbg !9111 ; [debug line = 77:61]
  ret void, !dbg !9111                            ; [debug line = 77:61]
}

; [#uses=1]
define linkonce_odr %struct.ap_int.5* @_ZN6ap_intILi16EEaSERKS0_(%struct.ap_int.5* %this, %struct.ap_int.5* %op2) nounwind inlinehint alwaysinline align 2 {
  %1 = alloca %struct.ap_int.5*, align 4          ; [#uses=2 type=%struct.ap_int.5**]
  %2 = alloca %struct.ap_int.5*, align 4          ; [#uses=2 type=%struct.ap_int.5**]
  store %struct.ap_int.5* %this, %struct.ap_int.5** %1, align 4
  call void @llvm.dbg.declare(metadata !{%struct.ap_int.5** %1}, metadata !9112), !dbg !9113 ; [debug line = 173:52] [debug variable = this]
  store %struct.ap_int.5* %op2, %struct.ap_int.5** %2, align 4
  call void @llvm.dbg.declare(metadata !{%struct.ap_int.5** %2}, metadata !9114), !dbg !9115 ; [debug line = 173:85] [debug variable = op2]
  %3 = load %struct.ap_int.5** %1                 ; [#uses=2 type=%struct.ap_int.5*]
  %4 = load %struct.ap_int.5** %2, align 4, !dbg !9116 ; [#uses=1 type=%struct.ap_int.5*] [debug line = 174:10]
  %5 = bitcast %struct.ap_int.5* %4 to %struct.ssdm_int.7*, !dbg !9116 ; [#uses=1 type=%struct.ssdm_int.7*] [debug line = 174:10]
  %6 = getelementptr inbounds %struct.ssdm_int.7* %5, i32 0, i32 0, !dbg !9116 ; [#uses=1 type=i16*] [debug line = 174:10]
  %7 = load i16* %6, align 2, !dbg !9116          ; [#uses=1 type=i16] [debug line = 174:10]
  %8 = bitcast %struct.ap_int.5* %3 to %struct.ap_int_base.6*, !dbg !9116 ; [#uses=1 type=%struct.ap_int_base.6*] [debug line = 174:10]
  %9 = bitcast %struct.ap_int_base.6* %8 to %struct.ssdm_int.7*, !dbg !9116 ; [#uses=1 type=%struct.ssdm_int.7*] [debug line = 174:10]
  %10 = getelementptr inbounds %struct.ssdm_int.7* %9, i32 0, i32 0, !dbg !9116 ; [#uses=1 type=i16*] [debug line = 174:10]
  store i16 %7, i16* %10, align 2, !dbg !9116     ; [debug line = 174:10]
  ret %struct.ap_int.5* %3, !dbg !9118            ; [debug line = 175:10]
}

; [#uses=1]
define linkonce_odr void @_ZN6ap_intILi16EEC1Ei(%struct.ap_int.5* %this, i32 %val) unnamed_addr nounwind inlinehint alwaysinline align 2 {
  %1 = alloca %struct.ap_int.5*, align 4          ; [#uses=2 type=%struct.ap_int.5**]
  %2 = alloca i32, align 4                        ; [#uses=2 type=i32*]
  store %struct.ap_int.5* %this, %struct.ap_int.5** %1, align 4
  call void @llvm.dbg.declare(metadata !{%struct.ap_int.5** %1}, metadata !9119), !dbg !9120 ; [debug line = 145:43] [debug variable = this]
  store i32 %val, i32* %2, align 4
  call void @llvm.dbg.declare(metadata !{i32* %2}, metadata !9121), !dbg !9122 ; [debug line = 145:54] [debug variable = val]
  %3 = load %struct.ap_int.5** %1                 ; [#uses=1 type=%struct.ap_int.5*]
  %4 = load i32* %2, align 4, !dbg !9123          ; [#uses=1 type=i32] [debug line = 145:75]
  call void @_ZN6ap_intILi16EEC2Ei(%struct.ap_int.5* %3, i32 %4), !dbg !9123 ; [debug line = 145:75]
  ret void, !dbg !9123                            ; [debug line = 145:75]
}

; [#uses=52]
define linkonce_odr void @_ZN8ap_fixedILi16ELi11EL9ap_q_mode5EL9ap_o_mode3ELi0EEC1Ed(%struct.ap_int.5* %this, double %v) unnamed_addr nounwind inlinehint alwaysinline align 2 {
  %1 = alloca %struct.ap_int.5*, align 4          ; [#uses=2 type=%struct.ap_int.5**]
  %2 = alloca double, align 8                     ; [#uses=2 type=double*]
  store %struct.ap_int.5* %this, %struct.ap_int.5** %1, align 4
  call void @llvm.dbg.declare(metadata !{%struct.ap_int.5** %1}, metadata !9124), !dbg !9126 ; [debug line = 378:43] [debug variable = this]
  store double %v, double* %2, align 8
  call void @llvm.dbg.declare(metadata !{double* %2}, metadata !9127), !dbg !9128 ; [debug line = 378:59] [debug variable = v]
  %3 = load %struct.ap_int.5** %1                 ; [#uses=1 type=%struct.ap_int.5*]
  %4 = load double* %2, align 8, !dbg !9129       ; [#uses=1 type=double] [debug line = 378:71]
  call void @_ZN8ap_fixedILi16ELi11EL9ap_q_mode5EL9ap_o_mode3ELi0EEC2Ed(%struct.ap_int.5* %3, double %4), !dbg !9129 ; [debug line = 378:71]
  ret void, !dbg !9129                            ; [debug line = 378:71]
}

; [#uses=3]
declare void @_ssdm_SpecArrayPartition(...) nounwind

; [#uses=1]
define linkonce_odr zeroext i8 @_ZNK11ap_int_baseILi1ELb0ELb1EEcvhEv(%struct.ap_int_base.0* %this) nounwind inlinehint alwaysinline align 2 {
  %1 = alloca %struct.ap_int_base.0*, align 4     ; [#uses=2 type=%struct.ap_int_base.0**]
  store %struct.ap_int_base.0* %this, %struct.ap_int_base.0** %1, align 4
  call void @llvm.dbg.declare(metadata !{%struct.ap_int_base.0** %1}, metadata !9130), !dbg !9132 ; [debug line = 1655:43] [debug variable = this]
  %2 = load %struct.ap_int_base.0** %1            ; [#uses=1 type=%struct.ap_int_base.0*]
  %3 = bitcast %struct.ap_int_base.0* %2 to %struct.ssdm_int.1*, !dbg !9133 ; [#uses=1 type=%struct.ssdm_int.1*] [debug line = 1655:70]
  %4 = getelementptr inbounds %struct.ssdm_int.1* %3, i32 0, i32 0, !dbg !9133 ; [#uses=1 type=i1*] [debug line = 1655:70]
  %5 = load i1* %4, align 1, !dbg !9133           ; [#uses=1 type=i1] [debug line = 1655:70]
  %6 = zext i1 %5 to i8, !dbg !9133               ; [#uses=1 type=i8] [debug line = 1655:70]
  ret i8 %6, !dbg !9133                           ; [debug line = 1655:70]
}

; [#uses=1]
define linkonce_odr void @_ZN3hls6streamI10rfnoc_axisE4readERS1_(%"class.hls::stream"* %this, %struct.rfnoc_axis* %dout) nounwind inlinehint alwaysinline align 2 {
  %1 = alloca %"class.hls::stream"*, align 4      ; [#uses=2 type=%"class.hls::stream"**]
  %2 = alloca %struct.rfnoc_axis*, align 4        ; [#uses=2 type=%struct.rfnoc_axis**]
  %tmp = alloca %struct.rfnoc_axis, align 4       ; [#uses=3 type=%struct.rfnoc_axis*]
  store %"class.hls::stream"* %this, %"class.hls::stream"** %1, align 4
  call void @llvm.dbg.declare(metadata !{%"class.hls::stream"** %1}, metadata !9135), !dbg !9137 ; [debug line = 123:48] [debug variable = this]
  store %struct.rfnoc_axis* %dout, %struct.rfnoc_axis** %2, align 4
  call void @llvm.dbg.declare(metadata !{%struct.rfnoc_axis** %2}, metadata !9138), !dbg !9139 ; [debug line = 123:67] [debug variable = dout]
  %3 = load %"class.hls::stream"** %1             ; [#uses=1 type=%"class.hls::stream"*]
  call void @llvm.dbg.declare(metadata !{%struct.rfnoc_axis* %tmp}, metadata !9140), !dbg !9142 ; [debug line = 124:22] [debug variable = tmp]
  call void @_ZN10rfnoc_axisC1Ev(%struct.rfnoc_axis* %tmp), !dbg !9143 ; [debug line = 124:25]
  %4 = getelementptr inbounds %"class.hls::stream"* %3, i32 0, i32 0, !dbg !9144 ; [#uses=1 type=%struct.rfnoc_axis*] [debug line = 125:9]
  call void (...)* @_ssdm_StreamRead(%struct.rfnoc_axis* %4, %struct.rfnoc_axis* %tmp) nounwind, !dbg !9144 ; [debug line = 125:9]
  %5 = load %struct.rfnoc_axis** %2, align 4, !dbg !9145 ; [#uses=1 type=%struct.rfnoc_axis*] [debug line = 126:9]
  %6 = call %struct.rfnoc_axis* @_ZN10rfnoc_axisaSERKS_(%struct.rfnoc_axis* %5, %struct.rfnoc_axis* %tmp), !dbg !9145 ; [#uses=0 type=%struct.rfnoc_axis*] [debug line = 126:9]
  ret void, !dbg !9146                            ; [debug line = 127:5]
}

; [#uses=2]
declare void @_ssdm_op_SpecLoopName(...) nounwind

; [#uses=2]
declare void @_ssdm_RegionBegin(...) nounwind

; [#uses=1]
declare void @_ssdm_Unroll(...) nounwind

; [#uses=8]
define linkonce_odr %struct.ap_int.5* @_ZN8ap_fixedILi16ELi11EL9ap_q_mode5EL9ap_o_mode3ELi0EEaSERKS2_(%struct.ap_int.5* %this, %struct.ap_int.5* %op) nounwind inlinehint alwaysinline align 2 {
  %1 = alloca %struct.ap_int.5*, align 4          ; [#uses=2 type=%struct.ap_int.5**]
  %2 = alloca %struct.ap_int.5*, align 4          ; [#uses=2 type=%struct.ap_int.5**]
  store %struct.ap_int.5* %this, %struct.ap_int.5** %1, align 4
  call void @llvm.dbg.declare(metadata !{%struct.ap_int.5** %1}, metadata !9147), !dbg !9148 ; [debug line = 384:53] [debug variable = this]
  store %struct.ap_int.5* %op, %struct.ap_int.5** %2, align 4
  call void @llvm.dbg.declare(metadata !{%struct.ap_int.5** %2}, metadata !9149), !dbg !9150 ; [debug line = 385:49] [debug variable = op]
  %3 = load %struct.ap_int.5** %1                 ; [#uses=2 type=%struct.ap_int.5*]
  %4 = load %struct.ap_int.5** %2, align 4, !dbg !9151 ; [#uses=1 type=%struct.ap_int.5*] [debug line = 386:9]
  %5 = bitcast %struct.ap_int.5* %4 to %struct.ssdm_int.7*, !dbg !9151 ; [#uses=1 type=%struct.ssdm_int.7*] [debug line = 386:9]
  %6 = getelementptr inbounds %struct.ssdm_int.7* %5, i32 0, i32 0, !dbg !9151 ; [#uses=1 type=i16*] [debug line = 386:9]
  %7 = load i16* %6, align 2, !dbg !9151          ; [#uses=1 type=i16] [debug line = 386:9]
  %8 = bitcast %struct.ap_int.5* %3 to %struct.ap_int_base.6*, !dbg !9151 ; [#uses=1 type=%struct.ap_int_base.6*] [debug line = 386:9]
  %9 = bitcast %struct.ap_int_base.6* %8 to %struct.ssdm_int.7*, !dbg !9151 ; [#uses=1 type=%struct.ssdm_int.7*] [debug line = 386:9]
  %10 = getelementptr inbounds %struct.ssdm_int.7* %9, i32 0, i32 0, !dbg !9151 ; [#uses=1 type=i16*] [debug line = 386:9]
  store i16 %7, i16* %10, align 2, !dbg !9151     ; [debug line = 386:9]
  ret %struct.ap_int.5* %3, !dbg !9153            ; [debug line = 387:9]
}

; [#uses=2]
declare void @_ssdm_RegionEnd(...) nounwind

; [#uses=2]
define linkonce_odr void @_ZN8ap_fixedILi16ELi11EL9ap_q_mode5EL9ap_o_mode3ELi0EEC1ILi32ELb1EEERK12ap_range_refIXT_EXT0_EE(%struct.ap_int.5* %this, %struct.ap_range_ref* %op) unnamed_addr nounwind inlinehint alwaysinline align 2 {
  %1 = alloca %struct.ap_int.5*, align 4          ; [#uses=2 type=%struct.ap_int.5**]
  %2 = alloca %struct.ap_range_ref*, align 4      ; [#uses=2 type=%struct.ap_range_ref**]
  store %struct.ap_int.5* %this, %struct.ap_int.5** %1, align 4
  call void @llvm.dbg.declare(metadata !{%struct.ap_int.5** %1}, metadata !9154), !dbg !9155 ; [debug line = 343:43] [debug variable = this]
  store %struct.ap_range_ref* %op, %struct.ap_range_ref** %2, align 4
  call void @llvm.dbg.declare(metadata !{%struct.ap_range_ref** %2}, metadata !9156), !dbg !9157 ; [debug line = 343:88] [debug variable = op]
  %3 = load %struct.ap_int.5** %1                 ; [#uses=1 type=%struct.ap_int.5*]
  %4 = load %struct.ap_range_ref** %2, !dbg !9158 ; [#uses=1 type=%struct.ap_range_ref*] [debug line = 344:30]
  call void @_ZN8ap_fixedILi16ELi11EL9ap_q_mode5EL9ap_o_mode3ELi0EEC2ILi32ELb1EEERK12ap_range_refIXT_EXT0_EE(%struct.ap_int.5* %3, %struct.ap_range_ref* %4), !dbg !9158 ; [debug line = 344:30]
  ret void, !dbg !9158                            ; [debug line = 344:30]
}

; [#uses=4]
define linkonce_odr void @_ZN11ap_int_baseILi32ELb1ELb1EE5rangeEii(%struct.ap_range_ref* noalias sret %agg.result, %struct.ap_int_base* %this, i32 %Hi, i32 %Lo) nounwind inlinehint alwaysinline align 2 {
  %1 = alloca %struct.ap_int_base*, align 4       ; [#uses=2 type=%struct.ap_int_base**]
  %2 = alloca i32, align 4                        ; [#uses=2 type=i32*]
  %3 = alloca i32, align 4                        ; [#uses=2 type=i32*]
  store %struct.ap_int_base* %this, %struct.ap_int_base** %1, align 4
  call void @llvm.dbg.declare(metadata !{%struct.ap_int_base** %1}, metadata !9159), !dbg !9160 ; [debug line = 2007:5] [debug variable = this]
  store i32 %Hi, i32* %2, align 4
  call void @llvm.dbg.declare(metadata !{i32* %2}, metadata !9161), !dbg !9162 ; [debug line = 2007:16] [debug variable = Hi]
  store i32 %Lo, i32* %3, align 4
  call void @llvm.dbg.declare(metadata !{i32* %3}, metadata !9163), !dbg !9164 ; [debug line = 2007:24] [debug variable = Lo]
  %4 = load %struct.ap_int_base** %1              ; [#uses=1 type=%struct.ap_int_base*]
  %5 = load i32* %2, align 4, !dbg !9165          ; [#uses=1 type=i32] [debug line = 2009:9]
  %6 = load i32* %3, align 4, !dbg !9165          ; [#uses=1 type=i32] [debug line = 2009:9]
  call void @_ZN12ap_range_refILi32ELb1EEC1EP11ap_int_baseILi32ELb1ELb1EEii(%struct.ap_range_ref* %agg.result, %struct.ap_int_base* %4, i32 %5, i32 %6), !dbg !9165 ; [debug line = 2009:9]
  ret void, !dbg !9165                            ; [debug line = 2009:9]
}

; [#uses=2]
define linkonce_odr void @_ZN8ap_fixedILi16ELi11EL9ap_q_mode5EL9ap_o_mode3ELi0EEC1ILi33ELi23ELb1ELS0_5ELS1_3ELi0EEERK13ap_fixed_baseIXT_EXT0_EXT1_EXT2_EXT3_EXT4_EE(%struct.ap_int.5* %this, %struct.ap_fixed_base.8* %op) unnamed_addr nounwind inlinehint alwaysinline align 2 {
  %1 = alloca %struct.ap_int.5*, align 4          ; [#uses=2 type=%struct.ap_int.5**]
  %2 = alloca %struct.ap_fixed_base.8*, align 4   ; [#uses=2 type=%struct.ap_fixed_base.8**]
  store %struct.ap_int.5* %this, %struct.ap_int.5** %1, align 4
  call void @llvm.dbg.declare(metadata !{%struct.ap_int.5** %1}, metadata !9167), !dbg !9168 ; [debug line = 335:43] [debug variable = this]
  store %struct.ap_fixed_base.8* %op, %struct.ap_fixed_base.8** %2, align 4
  call void @llvm.dbg.declare(metadata !{%struct.ap_fixed_base.8** %2}, metadata !9169), !dbg !9170 ; [debug line = 336:46] [debug variable = op]
  %3 = load %struct.ap_int.5** %1                 ; [#uses=1 type=%struct.ap_int.5*]
  %4 = load %struct.ap_fixed_base.8** %2, !dbg !9171 ; [#uses=1 type=%struct.ap_fixed_base.8*] [debug line = 336:60]
  call void @_ZN8ap_fixedILi16ELi11EL9ap_q_mode5EL9ap_o_mode3ELi0EEC2ILi33ELi23ELb1ELS0_5ELS1_3ELi0EEERK13ap_fixed_baseIXT_EXT0_EXT1_EXT2_EXT3_EXT4_EE(%struct.ap_int.5* %3, %struct.ap_fixed_base.8* %4), !dbg !9171 ; [debug line = 336:60]
  ret void, !dbg !9171                            ; [debug line = 336:60]
}

; [#uses=2]
define linkonce_odr void @_ZNK13ap_fixed_baseILi16ELi11ELb1EL9ap_q_mode5EL9ap_o_mode3ELi0EEplILi32ELi22ELb1ELS0_5ELS1_3ELi0EEENS2_5RTypeIXT_EXT0_EXT1_EE4plusERKS_IXT_EXT0_EXT1_EXT2_EXT3_EXT4_EE(%struct.ap_fixed_base.8* noalias sret %agg.result, %struct.ap_int_base.6* %this, %struct.ap_int_base* %op2) nounwind inlinehint alwaysinline align 2 {
  %1 = alloca %struct.ap_int_base.6*, align 4     ; [#uses=2 type=%struct.ap_int_base.6**]
  %2 = alloca %struct.ap_int_base*, align 4       ; [#uses=2 type=%struct.ap_int_base**]
  %lhs = alloca %struct.ap_fixed_base.8, align 8  ; [#uses=2 type=%struct.ap_fixed_base.8*]
  %rhs = alloca %struct.ap_fixed_base.8, align 8  ; [#uses=2 type=%struct.ap_fixed_base.8*]
  store %struct.ap_int_base.6* %this, %struct.ap_int_base.6** %1, align 4
  call void @llvm.dbg.declare(metadata !{%struct.ap_int_base.6** %1}, metadata !9172), !dbg !9174 ; [debug line = 1406:177] [debug variable = this]
  store %struct.ap_int_base* %op2, %struct.ap_int_base** %2, align 4
  call void @llvm.dbg.declare(metadata !{%struct.ap_int_base** %2}, metadata !9175), !dbg !9176 ; [debug line = 1406:254] [debug variable = op2]
  %3 = load %struct.ap_int_base.6** %1            ; [#uses=1 type=%struct.ap_int_base.6*]
  call void @llvm.dbg.declare(metadata !{%struct.ap_fixed_base.8* %agg.result}, metadata !9177), !dbg !9180 ; [debug line = 1406:0] [debug variable = r]
  call void @_ZN13ap_fixed_baseILi33ELi23ELb1EL9ap_q_mode5EL9ap_o_mode3ELi0EEC1Ev(%struct.ap_fixed_base.8* %agg.result), !dbg !9180 ; [debug line = 1406:0]
  call void @llvm.dbg.declare(metadata !{%struct.ap_fixed_base.8* %lhs}, metadata !9181), !dbg !9180 ; [debug line = 1406:0] [debug variable = lhs]
  call void @_ZN13ap_fixed_baseILi33ELi23ELb1EL9ap_q_mode5EL9ap_o_mode3ELi0EEC1ILi16ELi11ELb1ELS0_5ELS1_3ELi0EEERKS_IXT_EXT0_EXT1_EXT2_EXT3_EXT4_EE(%struct.ap_fixed_base.8* %lhs, %struct.ap_int_base.6* %3), !dbg !9180 ; [debug line = 1406:0]
  call void @llvm.dbg.declare(metadata !{%struct.ap_fixed_base.8* %rhs}, metadata !9182), !dbg !9180 ; [debug line = 1406:0] [debug variable = rhs]
  %4 = load %struct.ap_int_base** %2, align 4, !dbg !9180 ; [#uses=1 type=%struct.ap_int_base*] [debug line = 1406:0]
  call void @_ZN13ap_fixed_baseILi33ELi23ELb1EL9ap_q_mode5EL9ap_o_mode3ELi0EEC1ILi32ELi22ELb1ELS0_5ELS1_3ELi0EEERKS_IXT_EXT0_EXT1_EXT2_EXT3_EXT4_EE(%struct.ap_fixed_base.8* %rhs, %struct.ap_int_base* %4), !dbg !9180 ; [debug line = 1406:0]
  %5 = bitcast %struct.ap_fixed_base.8* %lhs to %struct.ssdm_int.9*, !dbg !9180 ; [#uses=1 type=%struct.ssdm_int.9*] [debug line = 1406:0]
  %6 = getelementptr inbounds %struct.ssdm_int.9* %5, i32 0, i32 0, !dbg !9180 ; [#uses=1 type=i33*] [debug line = 1406:0]
  %7 = load i33* %6, align 8, !dbg !9180          ; [#uses=1 type=i33] [debug line = 1406:0]
  %8 = bitcast %struct.ap_fixed_base.8* %rhs to %struct.ssdm_int.9*, !dbg !9180 ; [#uses=1 type=%struct.ssdm_int.9*] [debug line = 1406:0]
  %9 = getelementptr inbounds %struct.ssdm_int.9* %8, i32 0, i32 0, !dbg !9180 ; [#uses=1 type=i33*] [debug line = 1406:0]
  %10 = load i33* %9, align 8, !dbg !9180         ; [#uses=1 type=i33] [debug line = 1406:0]
  %11 = add nsw i33 %7, %10, !dbg !9180           ; [#uses=1 type=i33] [debug line = 1406:0]
  %12 = bitcast %struct.ap_fixed_base.8* %agg.result to %struct.ssdm_int.9*, !dbg !9180 ; [#uses=1 type=%struct.ssdm_int.9*] [debug line = 1406:0]
  %13 = getelementptr inbounds %struct.ssdm_int.9* %12, i32 0, i32 0, !dbg !9180 ; [#uses=1 type=i33*] [debug line = 1406:0]
  store i33 %11, i33* %13, align 8, !dbg !9180    ; [debug line = 1406:0]
  ret void, !dbg !9180                            ; [debug line = 1406:0]
}

; [#uses=2]
define linkonce_odr void @_ZNK13ap_fixed_baseILi16ELi11ELb1EL9ap_q_mode5EL9ap_o_mode3ELi0EEmlILi16ELi11ELb1ELS0_5ELS1_3ELi0EEENS2_5RTypeIXT_EXT0_EXT1_EE4multERKS_IXT_EXT0_EXT1_EXT2_EXT3_EXT4_EE(%struct.ap_int_base* noalias sret %agg.result, %struct.ap_int_base.6* %this, %struct.ap_int_base.6* %op2) nounwind inlinehint alwaysinline align 2 {
  %1 = alloca %struct.ap_int_base.6*, align 4     ; [#uses=2 type=%struct.ap_int_base.6**]
  %2 = alloca %struct.ap_int_base.6*, align 4     ; [#uses=2 type=%struct.ap_int_base.6**]
  %OP1 = alloca %struct.ap_int_base, align 4      ; [#uses=3 type=%struct.ap_int_base*]
  %OP2 = alloca %struct.ap_int_base, align 4      ; [#uses=3 type=%struct.ap_int_base*]
  store %struct.ap_int_base.6* %this, %struct.ap_int_base.6** %1, align 4
  call void @llvm.dbg.declare(metadata !{%struct.ap_int_base.6** %1}, metadata !9183), !dbg !9184 ; [debug line = 1367:5] [debug variable = this]
  store %struct.ap_int_base.6* %op2, %struct.ap_int_base.6** %2, align 4
  call void @llvm.dbg.declare(metadata !{%struct.ap_int_base.6** %2}, metadata !9185), !dbg !9186 ; [debug line = 1367:81] [debug variable = op2]
  %3 = load %struct.ap_int_base.6** %1            ; [#uses=1 type=%struct.ap_int_base.6*]
  call void @llvm.dbg.declare(metadata !{%struct.ap_int_base* %agg.result}, metadata !9187), !dbg !9190 ; [debug line = 1368:52] [debug variable = r]
  call void @_ZN13ap_fixed_baseILi32ELi22ELb1EL9ap_q_mode5EL9ap_o_mode3ELi0EEC1Ev(%struct.ap_int_base* %agg.result), !dbg !9191 ; [debug line = 1368:53]
  call void @llvm.dbg.declare(metadata !{%struct.ap_int_base* %OP1}, metadata !9192), !dbg !9193 ; [debug line = 1369:41] [debug variable = OP1]
  call void @_ZN11ap_int_baseILi32ELb1ELb1EEC1Ev(%struct.ap_int_base* %OP1), !dbg !9194 ; [debug line = 1369:44]
  %4 = bitcast %struct.ap_int_base.6* %3 to %struct.ssdm_int.7*, !dbg !9195 ; [#uses=1 type=%struct.ssdm_int.7*] [debug line = 1370:9]
  %5 = getelementptr inbounds %struct.ssdm_int.7* %4, i32 0, i32 0, !dbg !9195 ; [#uses=1 type=i16*] [debug line = 1370:9]
  %6 = load i16* %5, align 2, !dbg !9195          ; [#uses=1 type=i16] [debug line = 1370:9]
  %7 = sext i16 %6 to i32, !dbg !9195             ; [#uses=1 type=i32] [debug line = 1370:9]
  %8 = bitcast %struct.ap_int_base* %OP1 to %"class.std::locale::id"*, !dbg !9195 ; [#uses=1 type=%"class.std::locale::id"*] [debug line = 1370:9]
  %9 = getelementptr inbounds %"class.std::locale::id"* %8, i32 0, i32 0, !dbg !9195 ; [#uses=1 type=i32*] [debug line = 1370:9]
  store i32 %7, i32* %9, align 4, !dbg !9195      ; [debug line = 1370:9]
  call void @llvm.dbg.declare(metadata !{%struct.ap_int_base* %OP2}, metadata !9196), !dbg !9197 ; [debug line = 1371:42] [debug variable = OP2]
  call void @_ZN11ap_int_baseILi32ELb1ELb1EEC1Ev(%struct.ap_int_base* %OP2), !dbg !9198 ; [debug line = 1371:45]
  %10 = load %struct.ap_int_base.6** %2, align 4, !dbg !9199 ; [#uses=1 type=%struct.ap_int_base.6*] [debug line = 1372:9]
  %11 = bitcast %struct.ap_int_base.6* %10 to %struct.ssdm_int.7*, !dbg !9199 ; [#uses=1 type=%struct.ssdm_int.7*] [debug line = 1372:9]
  %12 = getelementptr inbounds %struct.ssdm_int.7* %11, i32 0, i32 0, !dbg !9199 ; [#uses=1 type=i16*] [debug line = 1372:9]
  %13 = load i16* %12, align 2, !dbg !9199        ; [#uses=1 type=i16] [debug line = 1372:9]
  %14 = sext i16 %13 to i32, !dbg !9199           ; [#uses=1 type=i32] [debug line = 1372:9]
  %15 = bitcast %struct.ap_int_base* %OP2 to %"class.std::locale::id"*, !dbg !9199 ; [#uses=1 type=%"class.std::locale::id"*] [debug line = 1372:9]
  %16 = getelementptr inbounds %"class.std::locale::id"* %15, i32 0, i32 0, !dbg !9199 ; [#uses=1 type=i32*] [debug line = 1372:9]
  store i32 %14, i32* %16, align 4, !dbg !9199    ; [debug line = 1372:9]
  %17 = bitcast %struct.ap_int_base* %OP1 to %"class.std::locale::id"*, !dbg !9200 ; [#uses=1 type=%"class.std::locale::id"*] [debug line = 1373:9]
  %18 = getelementptr inbounds %"class.std::locale::id"* %17, i32 0, i32 0, !dbg !9200 ; [#uses=1 type=i32*] [debug line = 1373:9]
  %19 = load i32* %18, align 4, !dbg !9200        ; [#uses=1 type=i32] [debug line = 1373:9]
  %20 = bitcast %struct.ap_int_base* %OP2 to %"class.std::locale::id"*, !dbg !9200 ; [#uses=1 type=%"class.std::locale::id"*] [debug line = 1373:9]
  %21 = getelementptr inbounds %"class.std::locale::id"* %20, i32 0, i32 0, !dbg !9200 ; [#uses=1 type=i32*] [debug line = 1373:9]
  %22 = load i32* %21, align 4, !dbg !9200        ; [#uses=1 type=i32] [debug line = 1373:9]
  %23 = mul nsw i32 %19, %22, !dbg !9200          ; [#uses=1 type=i32] [debug line = 1373:9]
  %24 = bitcast %struct.ap_int_base* %agg.result to %"class.std::locale::id"*, !dbg !9200 ; [#uses=1 type=%"class.std::locale::id"*] [debug line = 1373:9]
  %25 = getelementptr inbounds %"class.std::locale::id"* %24, i32 0, i32 0, !dbg !9200 ; [#uses=1 type=i32*] [debug line = 1373:9]
  store i32 %23, i32* %25, align 4, !dbg !9200    ; [debug line = 1373:9]
  ret void, !dbg !9201                            ; [debug line = 1374:9]
}

; [#uses=2]
define linkonce_odr %struct.ap_range_ref* @_ZN12ap_range_refILi32ELb1EEaSILi16ELi11ELb1EL9ap_q_mode5EL9ap_o_mode3ELi0EEERS0_RK12af_range_refIXT_EXT0_EXT1_EXT2_EXT3_EXT4_EE(%struct.ap_range_ref* %this, %struct.af_range_ref* %val) nounwind inlinehint alwaysinline align 2 {
  %1 = alloca %struct.ap_range_ref*, align 4      ; [#uses=2 type=%struct.ap_range_ref**]
  %2 = alloca %struct.af_range_ref*, align 4      ; [#uses=2 type=%struct.af_range_ref**]
  %3 = alloca %struct.ap_int_base.6, align 2      ; [#uses=2 type=%struct.ap_int_base.6*]
  store %struct.ap_range_ref* %this, %struct.ap_range_ref** %1, align 4
  call void @llvm.dbg.declare(metadata !{%struct.ap_range_ref** %1}, metadata !9202), !dbg !9204 ; [debug line = 972:57] [debug variable = this]
  store %struct.af_range_ref* %val, %struct.af_range_ref** %2, align 4
  call void @llvm.dbg.declare(metadata !{%struct.af_range_ref** %2}, metadata !9205), !dbg !9206 ; [debug line = 973:62] [debug variable = val]
  %4 = load %struct.ap_range_ref** %1             ; [#uses=1 type=%struct.ap_range_ref*]
  %5 = load %struct.af_range_ref** %2, align 4, !dbg !9207 ; [#uses=1 type=%struct.af_range_ref*] [debug line = 974:16]
  call void @_ZN11ap_int_baseILi16ELb0ELb1EEC1ILi16ELi11ELb1EL9ap_q_mode5EL9ap_o_mode3ELi0EEERK12af_range_refIXT_EXT0_EXT1_EXT2_EXT3_EXT4_EE(%struct.ap_int_base.6* %3, %struct.af_range_ref* %5), !dbg !9207 ; [debug line = 974:16]
  %6 = call %struct.ap_range_ref* @_ZN12ap_range_refILi32ELb1EEaSILi16ELb0EEERS0_RK11ap_int_baseIXT_EXT0_EXleT_Li64EEE(%struct.ap_range_ref* %4, %struct.ap_int_base.6* %3), !dbg !9207 ; [#uses=1 type=%struct.ap_range_ref*] [debug line = 974:16]
  ret %struct.ap_range_ref* %6, !dbg !9207        ; [debug line = 974:16]
}

; [#uses=2]
define linkonce_odr void @_ZN13ap_fixed_baseILi16ELi11ELb1EL9ap_q_mode5EL9ap_o_mode3ELi0EE5rangeEii(%struct.af_range_ref* noalias sret %agg.result, %struct.ap_int_base.6* %this, i32 %Hi, i32 %Lo) nounwind inlinehint alwaysinline align 2 {
  %1 = alloca %struct.ap_int_base.6*, align 4     ; [#uses=2 type=%struct.ap_int_base.6**]
  %2 = alloca i32, align 4                        ; [#uses=2 type=i32*]
  %3 = alloca i32, align 4                        ; [#uses=2 type=i32*]
  store %struct.ap_int_base.6* %this, %struct.ap_int_base.6** %1, align 4
  call void @llvm.dbg.declare(metadata !{%struct.ap_int_base.6** %1}, metadata !9209), !dbg !9210 ; [debug line = 2042:5] [debug variable = this]
  store i32 %Hi, i32* %2, align 4
  call void @llvm.dbg.declare(metadata !{i32* %2}, metadata !9211), !dbg !9212 ; [debug line = 2042:15] [debug variable = Hi]
  store i32 %Lo, i32* %3, align 4
  call void @llvm.dbg.declare(metadata !{i32* %3}, metadata !9213), !dbg !9214 ; [debug line = 2042:23] [debug variable = Lo]
  %4 = load %struct.ap_int_base.6** %1            ; [#uses=1 type=%struct.ap_int_base.6*]
  %5 = load i32* %2, align 4, !dbg !9215          ; [#uses=1 type=i32] [debug line = 2044:9]
  %6 = load i32* %3, align 4, !dbg !9215          ; [#uses=1 type=i32] [debug line = 2044:9]
  call void @_ZN12af_range_refILi16ELi11ELb1EL9ap_q_mode5EL9ap_o_mode3ELi0EEC1EP13ap_fixed_baseILi16ELi11ELb1ELS0_5ELS1_3ELi0EEii(%struct.af_range_ref* %agg.result, %struct.ap_int_base.6* %4, i32 %5, i32 %6), !dbg !9215 ; [debug line = 2044:9]
  ret void, !dbg !9215                            ; [debug line = 2044:9]
}

; [#uses=1]
define linkonce_odr void @_ZN3hls6streamI10rfnoc_axisE5writeERKS1_(%"class.hls::stream"* %this, %struct.rfnoc_axis* %din) nounwind inlinehint alwaysinline align 2 {
  %1 = alloca %"class.hls::stream"*, align 4      ; [#uses=2 type=%"class.hls::stream"**]
  %2 = alloca %struct.rfnoc_axis*, align 4        ; [#uses=2 type=%struct.rfnoc_axis**]
  %tmp = alloca %struct.rfnoc_axis, align 4       ; [#uses=4 type=%struct.rfnoc_axis*]
  store %"class.hls::stream"* %this, %"class.hls::stream"** %1, align 4
  call void @llvm.dbg.declare(metadata !{%"class.hls::stream"** %1}, metadata !9217), !dbg !9218 ; [debug line = 144:48] [debug variable = this]
  store %struct.rfnoc_axis* %din, %struct.rfnoc_axis** %2, align 4
  call void @llvm.dbg.declare(metadata !{%struct.rfnoc_axis** %2}, metadata !9219), !dbg !9220 ; [debug line = 144:74] [debug variable = din]
  %3 = load %"class.hls::stream"** %1             ; [#uses=1 type=%"class.hls::stream"*]
  call void @llvm.dbg.declare(metadata !{%struct.rfnoc_axis* %tmp}, metadata !9221), !dbg !9223 ; [debug line = 145:22] [debug variable = tmp]
  %4 = load %struct.rfnoc_axis** %2, align 4, !dbg !9224 ; [#uses=3 type=%struct.rfnoc_axis*] [debug line = 145:31]
  %5 = bitcast %struct.rfnoc_axis* %tmp to i8*, !dbg !9224 ; [#uses=0 type=i8*] [debug line = 145:31]
  %6 = bitcast %struct.rfnoc_axis* %4 to i8*, !dbg !9224 ; [#uses=0 type=i8*] [debug line = 145:31]
  %7 = getelementptr inbounds %struct.rfnoc_axis* %tmp, i32 0, i32 0, !dbg !9224 ; [#uses=1 type=%struct.ap_int*] [debug line = 145:31]
  %8 = getelementptr inbounds %struct.rfnoc_axis* %4, i32 0, i32 0, !dbg !9224 ; [#uses=1 type=%struct.ap_int*] [debug line = 145:31]
  %9 = getelementptr inbounds %struct.ap_int* %7, i32 0, i32 0, !dbg !9224 ; [#uses=1 type=%struct.ap_int_base*] [debug line = 145:31]
  %10 = getelementptr inbounds %struct.ap_int* %8, i32 0, i32 0, !dbg !9224 ; [#uses=1 type=%struct.ap_int_base*] [debug line = 145:31]
  %11 = getelementptr inbounds %struct.ap_int_base* %9, i32 0, i32 0, !dbg !9224 ; [#uses=1 type=%"class.std::locale::id"*] [debug line = 145:31]
  %12 = getelementptr inbounds %struct.ap_int_base* %10, i32 0, i32 0, !dbg !9224 ; [#uses=1 type=%"class.std::locale::id"*] [debug line = 145:31]
  %13 = getelementptr inbounds %"class.std::locale::id"* %11, i32 0, i32 0, !dbg !9224 ; [#uses=1 type=i32*] [debug line = 145:31]
  %14 = getelementptr inbounds %"class.std::locale::id"* %12, i32 0, i32 0, !dbg !9224 ; [#uses=1 type=i32*] [debug line = 145:31]
  %15 = load i32* %14, !dbg !9224                 ; [#uses=1 type=i32] [debug line = 145:31]
  store i32 %15, i32* %13, !dbg !9224             ; [debug line = 145:31]
  %16 = getelementptr inbounds %struct.rfnoc_axis* %tmp, i32 0, i32 1, !dbg !9224 ; [#uses=1 type=%struct.ap_uint*] [debug line = 145:31]
  %17 = getelementptr inbounds %struct.rfnoc_axis* %4, i32 0, i32 1, !dbg !9224 ; [#uses=1 type=%struct.ap_uint*] [debug line = 145:31]
  %18 = getelementptr inbounds %struct.ap_uint* %16, i32 0, i32 0, !dbg !9224 ; [#uses=1 type=%struct.ap_int_base.0*] [debug line = 145:31]
  %19 = getelementptr inbounds %struct.ap_uint* %17, i32 0, i32 0, !dbg !9224 ; [#uses=1 type=%struct.ap_int_base.0*] [debug line = 145:31]
  %20 = getelementptr inbounds %struct.ap_int_base.0* %18, i32 0, i32 0, !dbg !9224 ; [#uses=1 type=%struct.ssdm_int.1*] [debug line = 145:31]
  %21 = getelementptr inbounds %struct.ap_int_base.0* %19, i32 0, i32 0, !dbg !9224 ; [#uses=1 type=%struct.ssdm_int.1*] [debug line = 145:31]
  %22 = getelementptr inbounds %struct.ssdm_int.1* %20, i32 0, i32 0, !dbg !9224 ; [#uses=1 type=i1*] [debug line = 145:31]
  %23 = getelementptr inbounds %struct.ssdm_int.1* %21, i32 0, i32 0, !dbg !9224 ; [#uses=1 type=i1*] [debug line = 145:31]
  %24 = load i1* %23, !dbg !9224                  ; [#uses=1 type=i1] [debug line = 145:31]
  store i1 %24, i1* %22, !dbg !9224               ; [debug line = 145:31]
  %25 = getelementptr inbounds %"class.hls::stream"* %3, i32 0, i32 0, !dbg !9225 ; [#uses=1 type=%struct.rfnoc_axis*] [debug line = 146:9]
  call void (...)* @_ssdm_StreamWrite(%struct.rfnoc_axis* %25, %struct.rfnoc_axis* %tmp) nounwind, !dbg !9225 ; [debug line = 146:9]
  ret void, !dbg !9226                            ; [debug line = 147:5]
}

; [#uses=1]
declare void @_ssdm_StreamWrite(...) nounwind

; [#uses=1]
define linkonce_odr %struct.ap_range_ref* @_ZN12ap_range_refILi32ELb1EEaSILi16ELb0EEERS0_RK11ap_int_baseIXT_EXT0_EXleT_Li64EEE(%struct.ap_range_ref* %this, %struct.ap_int_base.6* %val) nounwind inlinehint alwaysinline align 2 {
  %1 = alloca %struct.ap_range_ref*, align 4      ; [#uses=2 type=%struct.ap_range_ref**]
  %2 = alloca %struct.ap_int_base.6*, align 4     ; [#uses=2 type=%struct.ap_int_base.6**]
  %loc = alloca %struct.ap_int_base, align 4      ; [#uses=2 type=%struct.ap_int_base*]
  %__Result__ = alloca i32, align 4               ; [#uses=4 type=i32*]
  %__Val2__ = alloca i32, align 4                 ; [#uses=3 type=i32*]
  %__Repl2__ = alloca i32, align 4                ; [#uses=3 type=i32*]
  store %struct.ap_range_ref* %this, %struct.ap_range_ref** %1, align 4
  call void @llvm.dbg.declare(metadata !{%struct.ap_range_ref** %1}, metadata !9227), !dbg !9228 ; [debug line = 955:57] [debug variable = this]
  store %struct.ap_int_base.6* %val, %struct.ap_int_base.6** %2, align 4
  call void @llvm.dbg.declare(metadata !{%struct.ap_int_base.6** %2}, metadata !9229), !dbg !9230 ; [debug line = 955:103] [debug variable = val]
  %3 = load %struct.ap_range_ref** %1             ; [#uses=5 type=%struct.ap_range_ref*]
  call void @llvm.dbg.declare(metadata !{%struct.ap_int_base* %loc}, metadata !9231), !dbg !9233 ; [debug line = 956:35] [debug variable = loc]
  %4 = load %struct.ap_int_base.6** %2, align 4, !dbg !9234 ; [#uses=1 type=%struct.ap_int_base.6*] [debug line = 956:43]
  call void @_ZN11ap_int_baseILi32ELb0ELb1EEC1ILi16ELb0EEERKS_IXT_EXT0_EXleT_Li64EEE(%struct.ap_int_base* %loc, %struct.ap_int_base.6* %4), !dbg !9234 ; [debug line = 956:43]
  call void @llvm.dbg.declare(metadata !{i32* %__Result__}, metadata !9235), !dbg !9237 ; [debug line = 957:36] [debug variable = __Result__]
  store i32 0, i32* %__Result__, align 4, !dbg !9238 ; [debug line = 957:50]
  call void @llvm.dbg.declare(metadata !{i32* %__Val2__}, metadata !9239), !dbg !9240 ; [debug line = 957:67] [debug variable = __Val2__]
  %5 = getelementptr inbounds %struct.ap_range_ref* %3, i32 0, i32 0, !dbg !9241 ; [#uses=1 type=%struct.ap_int_base**] [debug line = 957:84]
  %6 = load %struct.ap_int_base** %5, align 4, !dbg !9241 ; [#uses=1 type=%struct.ap_int_base*] [debug line = 957:84]
  %7 = bitcast %struct.ap_int_base* %6 to %"class.std::locale::id"*, !dbg !9241 ; [#uses=1 type=%"class.std::locale::id"*] [debug line = 957:84]
  %8 = getelementptr inbounds %"class.std::locale::id"* %7, i32 0, i32 0, !dbg !9241 ; [#uses=1 type=i32*] [debug line = 957:84]
  %9 = load i32* %8, align 4, !dbg !9241          ; [#uses=1 type=i32] [debug line = 957:84]
  store i32 %9, i32* %__Val2__, align 4, !dbg !9241 ; [debug line = 957:84]
  call void @llvm.dbg.declare(metadata !{i32* %__Repl2__}, metadata !9242), !dbg !9243 ; [debug line = 957:100] [debug variable = __Repl2__]
  %10 = bitcast %struct.ap_int_base* %loc to %"class.std::locale::id"*, !dbg !9244 ; [#uses=1 type=%"class.std::locale::id"*] [debug line = 957:117]
  %11 = getelementptr inbounds %"class.std::locale::id"* %10, i32 0, i32 0, !dbg !9244 ; [#uses=1 type=i32*] [debug line = 957:117]
  %12 = load i32* %11, align 4, !dbg !9244        ; [#uses=1 type=i32] [debug line = 957:117]
  store i32 %12, i32* %__Repl2__, align 4, !dbg !9244 ; [debug line = 957:117]
  %13 = bitcast i32* %__Result__ to i8*, !dbg !9245 ; [#uses=0 type=i8*] [debug line = 957:119]
  %14 = bitcast i32* %__Val2__ to i8*, !dbg !9245 ; [#uses=0 type=i8*] [debug line = 957:119]
  %15 = bitcast i32* %__Repl2__ to i8*, !dbg !9245 ; [#uses=0 type=i8*] [debug line = 957:119]
  %16 = getelementptr inbounds %struct.ap_range_ref* %3, i32 0, i32 1, !dbg !9245 ; [#uses=1 type=i32*] [debug line = 957:119]
  %17 = load i32* %16, align 4, !dbg !9245        ; [#uses=1 type=i32] [debug line = 957:119]
  %18 = getelementptr inbounds %struct.ap_range_ref* %3, i32 0, i32 2, !dbg !9245 ; [#uses=1 type=i32*] [debug line = 957:119]
  %19 = load i32* %18, align 4, !dbg !9245        ; [#uses=1 type=i32] [debug line = 957:119]
  %20 = load i32* %__Val2__, !dbg !9245           ; [#uses=1 type=i32] [debug line = 957:119]
  %21 = load i32* %__Repl2__, !dbg !9245          ; [#uses=1 type=i32] [debug line = 957:119]
  %22 = call i32 @llvm.part.set.i32.i32(i32 %20, i32 %21, i32 %17, i32 %19), !dbg !9245 ; [#uses=1 type=i32] [debug line = 957:119]
  store i32 %22, i32* %__Result__, !dbg !9245     ; [debug line = 957:119]
  %23 = load i32* %__Result__, align 4, !dbg !9245 ; [#uses=1 type=i32] [debug line = 957:119]
  %24 = getelementptr inbounds %struct.ap_range_ref* %3, i32 0, i32 0, !dbg !9246 ; [#uses=1 type=%struct.ap_int_base**] [debug line = 957:236]
  %25 = load %struct.ap_int_base** %24, align 4, !dbg !9246 ; [#uses=1 type=%struct.ap_int_base*] [debug line = 957:236]
  %26 = bitcast %struct.ap_int_base* %25 to %"class.std::locale::id"*, !dbg !9246 ; [#uses=1 type=%"class.std::locale::id"*] [debug line = 957:236]
  %27 = getelementptr inbounds %"class.std::locale::id"* %26, i32 0, i32 0, !dbg !9246 ; [#uses=1 type=i32*] [debug line = 957:236]
  store i32 %23, i32* %27, align 4, !dbg !9246    ; [debug line = 957:236]
  ret %struct.ap_range_ref* %3, !dbg !9247        ; [debug line = 958:9]
}

; [#uses=1]
define linkonce_odr void @_ZN11ap_int_baseILi16ELb0ELb1EEC1ILi16ELi11ELb1EL9ap_q_mode5EL9ap_o_mode3ELi0EEERK12af_range_refIXT_EXT0_EXT1_EXT2_EXT3_EXT4_EE(%struct.ap_int_base.6* %this, %struct.af_range_ref* %val) unnamed_addr nounwind inlinehint alwaysinline align 2 {
  %1 = alloca %struct.ap_int_base.6*, align 4     ; [#uses=2 type=%struct.ap_int_base.6**]
  %2 = alloca %struct.af_range_ref*, align 4      ; [#uses=2 type=%struct.af_range_ref**]
  store %struct.ap_int_base.6* %this, %struct.ap_int_base.6** %1, align 4
  call void @llvm.dbg.declare(metadata !{%struct.ap_int_base.6** %1}, metadata !9248), !dbg !9250 ; [debug line = 1517:43] [debug variable = this]
  store %struct.af_range_ref* %val, %struct.af_range_ref** %2, align 4
  call void @llvm.dbg.declare(metadata !{%struct.af_range_ref** %2}, metadata !9251), !dbg !9252 ; [debug line = 1518:49] [debug variable = val]
  %3 = load %struct.ap_int_base.6** %1            ; [#uses=1 type=%struct.ap_int_base.6*]
  %4 = load %struct.af_range_ref** %2, !dbg !9253 ; [#uses=1 type=%struct.af_range_ref*] [debug line = 1520:5]
  call void @_ZN11ap_int_baseILi16ELb0ELb1EEC2ILi16ELi11ELb1EL9ap_q_mode5EL9ap_o_mode3ELi0EEERK12af_range_refIXT_EXT0_EXT1_EXT2_EXT3_EXT4_EE(%struct.ap_int_base.6* %3, %struct.af_range_ref* %4), !dbg !9253 ; [debug line = 1520:5]
  ret void, !dbg !9253                            ; [debug line = 1520:5]
}

; [#uses=1]
define linkonce_odr void @_ZN11ap_int_baseILi16ELb0ELb1EEC2ILi16ELi11ELb1EL9ap_q_mode5EL9ap_o_mode3ELi0EEERK12af_range_refIXT_EXT0_EXT1_EXT2_EXT3_EXT4_EE(%struct.ap_int_base.6* %this, %struct.af_range_ref* %val) unnamed_addr nounwind inlinehint alwaysinline align 2 {
  %1 = alloca %struct.ap_int_base.6*, align 4     ; [#uses=2 type=%struct.ap_int_base.6**]
  %2 = alloca %struct.af_range_ref*, align 4      ; [#uses=2 type=%struct.af_range_ref**]
  %3 = alloca %struct.ap_int_base.6, align 2      ; [#uses=2 type=%struct.ap_int_base.6*]
  store %struct.ap_int_base.6* %this, %struct.ap_int_base.6** %1, align 4
  call void @llvm.dbg.declare(metadata !{%struct.ap_int_base.6** %1}, metadata !9254), !dbg !9255 ; [debug line = 1517:43] [debug variable = this]
  store %struct.af_range_ref* %val, %struct.af_range_ref** %2, align 4
  call void @llvm.dbg.declare(metadata !{%struct.af_range_ref** %2}, metadata !9256), !dbg !9257 ; [debug line = 1518:49] [debug variable = val]
  %4 = load %struct.ap_int_base.6** %1            ; [#uses=2 type=%struct.ap_int_base.6*]
  %5 = bitcast %struct.ap_int_base.6* %4 to %struct.ssdm_int.7*, !dbg !9258 ; [#uses=1 type=%struct.ssdm_int.7*] [debug line = 1518:54]
  call void @_ZN8ssdm_intILi16ELb0EEC2Ev(%struct.ssdm_int.7* %5), !dbg !9258 ; [debug line = 1518:54]
  %6 = load %struct.af_range_ref** %2, align 4, !dbg !9259 ; [#uses=1 type=%struct.af_range_ref*] [debug line = 1519:20]
  call void @_ZNK12af_range_refILi16ELi11ELb1EL9ap_q_mode5EL9ap_o_mode3ELi0EEcv11ap_int_baseILi16ELb0ELb1EEEv(%struct.ap_int_base.6* sret %3, %struct.af_range_ref* %6), !dbg !9259 ; [debug line = 1519:20]
  %7 = bitcast %struct.ap_int_base.6* %3 to %struct.ssdm_int.7*, !dbg !9259 ; [#uses=1 type=%struct.ssdm_int.7*] [debug line = 1519:20]
  %8 = getelementptr inbounds %struct.ssdm_int.7* %7, i32 0, i32 0, !dbg !9259 ; [#uses=1 type=i16*] [debug line = 1519:20]
  %9 = load i16* %8, align 2, !dbg !9259          ; [#uses=1 type=i16] [debug line = 1519:20]
  %10 = bitcast %struct.ap_int_base.6* %4 to %struct.ssdm_int.7*, !dbg !9259 ; [#uses=1 type=%struct.ssdm_int.7*] [debug line = 1519:20]
  %11 = getelementptr inbounds %struct.ssdm_int.7* %10, i32 0, i32 0, !dbg !9259 ; [#uses=1 type=i16*] [debug line = 1519:20]
  store i16 %9, i16* %11, align 2, !dbg !9259     ; [debug line = 1519:20]
  ret void, !dbg !9261                            ; [debug line = 1520:5]
}

; [#uses=2]
define linkonce_odr void @_ZN8ssdm_intILi16ELb0EEC2Ev(%struct.ssdm_int.7* %this) unnamed_addr nounwind inlinehint alwaysinline align 2 {
  %1 = alloca %struct.ssdm_int.7*, align 4        ; [#uses=2 type=%struct.ssdm_int.7**]
  store %struct.ssdm_int.7* %this, %struct.ssdm_int.7** %1, align 4
  call void @llvm.dbg.declare(metadata !{%struct.ssdm_int.7** %1}, metadata !9262), !dbg !9264 ; [debug line = 18:0] [debug variable = this]
  %2 = load %struct.ssdm_int.7** %1               ; [#uses=0 type=%struct.ssdm_int.7*]
  ret void, !dbg !9265                            ; [debug line = 18:0]
}

; [#uses=1]
define linkonce_odr void @_ZNK12af_range_refILi16ELi11ELb1EL9ap_q_mode5EL9ap_o_mode3ELi0EEcv11ap_int_baseILi16ELb0ELb1EEEv(%struct.ap_int_base.6* noalias sret %agg.result, %struct.af_range_ref* %this) nounwind inlinehint alwaysinline align 2 {
  %1 = alloca %struct.af_range_ref*, align 4      ; [#uses=2 type=%struct.af_range_ref**]
  %__Result__ = alloca i16, align 2               ; [#uses=4 type=i16*]
  %__Val2__ = alloca i16, align 2                 ; [#uses=3 type=i16*]
  store %struct.af_range_ref* %this, %struct.af_range_ref** %1, align 4
  call void @llvm.dbg.declare(metadata !{%struct.af_range_ref** %1}, metadata !9267), !dbg !9269 ; [debug line = 253:43] [debug variable = this]
  %2 = load %struct.af_range_ref** %1             ; [#uses=3 type=%struct.af_range_ref*]
  call void @llvm.dbg.declare(metadata !{%struct.ap_int_base.6* %agg.result}, metadata !9270), !dbg !9272 ; [debug line = 254:35] [debug variable = ret]
  call void @_ZN11ap_int_baseILi16ELb0ELb1EEC1Ev(%struct.ap_int_base.6* %agg.result), !dbg !9273 ; [debug line = 254:38]
  call void @llvm.dbg.declare(metadata !{i16* %__Result__}, metadata !9274), !dbg !9276 ; [debug line = 255:35] [debug variable = __Result__]
  store i16 0, i16* %__Result__, align 2, !dbg !9277 ; [debug line = 255:49]
  call void @llvm.dbg.declare(metadata !{i16* %__Val2__}, metadata !9278), !dbg !9279 ; [debug line = 255:66] [debug variable = __Val2__]
  %3 = getelementptr inbounds %struct.af_range_ref* %2, i32 0, i32 0, !dbg !9280 ; [#uses=1 type=%struct.ap_int_base.6**] [debug line = 255:83]
  %4 = load %struct.ap_int_base.6** %3, align 4, !dbg !9280 ; [#uses=1 type=%struct.ap_int_base.6*] [debug line = 255:83]
  %5 = bitcast %struct.ap_int_base.6* %4 to %struct.ssdm_int.7*, !dbg !9280 ; [#uses=1 type=%struct.ssdm_int.7*] [debug line = 255:83]
  %6 = getelementptr inbounds %struct.ssdm_int.7* %5, i32 0, i32 0, !dbg !9280 ; [#uses=1 type=i16*] [debug line = 255:83]
  %7 = load i16* %6, align 2, !dbg !9280          ; [#uses=1 type=i16] [debug line = 255:83]
  store i16 %7, i16* %__Val2__, align 2, !dbg !9280 ; [debug line = 255:83]
  %8 = bitcast i16* %__Result__ to i8*, !dbg !9281 ; [#uses=0 type=i8*] [debug line = 255:85]
  %9 = bitcast i16* %__Val2__ to i8*, !dbg !9281  ; [#uses=0 type=i8*] [debug line = 255:85]
  %10 = getelementptr inbounds %struct.af_range_ref* %2, i32 0, i32 1, !dbg !9281 ; [#uses=1 type=i32*] [debug line = 255:85]
  %11 = load i32* %10, align 4, !dbg !9281        ; [#uses=1 type=i32] [debug line = 255:85]
  %12 = getelementptr inbounds %struct.af_range_ref* %2, i32 0, i32 2, !dbg !9281 ; [#uses=1 type=i32*] [debug line = 255:85]
  %13 = load i32* %12, align 4, !dbg !9281        ; [#uses=1 type=i32] [debug line = 255:85]
  %14 = load i16* %__Val2__, !dbg !9281           ; [#uses=1 type=i16] [debug line = 255:85]
  %15 = call i16 @llvm.part.select.i16(i16 %14, i32 %11, i32 %13), !dbg !9281 ; [#uses=1 type=i16] [debug line = 255:85]
  store i16 %15, i16* %__Result__, !dbg !9281     ; [debug line = 255:85]
  %16 = load i16* %__Result__, align 2, !dbg !9281 ; [#uses=1 type=i16] [debug line = 255:85]
  %17 = bitcast %struct.ap_int_base.6* %agg.result to %struct.ssdm_int.7*, !dbg !9282 ; [#uses=1 type=%struct.ssdm_int.7*] [debug line = 255:184]
  %18 = getelementptr inbounds %struct.ssdm_int.7* %17, i32 0, i32 0, !dbg !9282 ; [#uses=1 type=i16*] [debug line = 255:184]
  store i16 %16, i16* %18, align 2, !dbg !9282    ; [debug line = 255:184]
  ret void, !dbg !9283                            ; [debug line = 256:9]
}

; [#uses=1]
define linkonce_odr void @_ZN11ap_int_baseILi16ELb0ELb1EEC1Ev(%struct.ap_int_base.6* %this) unnamed_addr nounwind inlinehint alwaysinline align 2 {
  %1 = alloca %struct.ap_int_base.6*, align 4     ; [#uses=2 type=%struct.ap_int_base.6**]
  store %struct.ap_int_base.6* %this, %struct.ap_int_base.6** %1, align 4
  call void @llvm.dbg.declare(metadata !{%struct.ap_int_base.6** %1}, metadata !9284), !dbg !9285 ; [debug line = 1439:42] [debug variable = this]
  %2 = load %struct.ap_int_base.6** %1            ; [#uses=1 type=%struct.ap_int_base.6*]
  call void @_ZN11ap_int_baseILi16ELb0ELb1EEC2Ev(%struct.ap_int_base.6* %2), !dbg !9286 ; [debug line = 1445:4]
  ret void, !dbg !9286                            ; [debug line = 1445:4]
}

; [#uses=2]
declare i16 @llvm.part.select.i16(i16, i32, i32) nounwind readnone

; [#uses=1]
define linkonce_odr void @_ZN11ap_int_baseILi16ELb0ELb1EEC2Ev(%struct.ap_int_base.6* %this) unnamed_addr nounwind inlinehint alwaysinline align 2 {
  %1 = alloca %struct.ap_int_base.6*, align 4     ; [#uses=2 type=%struct.ap_int_base.6**]
  store %struct.ap_int_base.6* %this, %struct.ap_int_base.6** %1, align 4
  call void @llvm.dbg.declare(metadata !{%struct.ap_int_base.6** %1}, metadata !9287), !dbg !9288 ; [debug line = 1439:42] [debug variable = this]
  %2 = load %struct.ap_int_base.6** %1            ; [#uses=1 type=%struct.ap_int_base.6*]
  %3 = bitcast %struct.ap_int_base.6* %2 to %struct.ssdm_int.7*, !dbg !9289 ; [#uses=1 type=%struct.ssdm_int.7*] [debug line = 1439:56]
  call void @_ZN8ssdm_intILi16ELb0EEC2Ev(%struct.ssdm_int.7* %3), !dbg !9289 ; [debug line = 1439:56]
  ret void, !dbg !9290                            ; [debug line = 1445:4]
}

; [#uses=1]
define linkonce_odr void @_ZN11ap_int_baseILi32ELb0ELb1EEC1ILi16ELb0EEERKS_IXT_EXT0_EXleT_Li64EEE(%struct.ap_int_base* %this, %struct.ap_int_base.6* %op) unnamed_addr nounwind inlinehint alwaysinline align 2 {
  %1 = alloca %struct.ap_int_base*, align 4       ; [#uses=2 type=%struct.ap_int_base**]
  %2 = alloca %struct.ap_int_base.6*, align 4     ; [#uses=2 type=%struct.ap_int_base.6**]
  store %struct.ap_int_base* %this, %struct.ap_int_base** %1, align 4
  call void @llvm.dbg.declare(metadata !{%struct.ap_int_base** %1}, metadata !9292), !dbg !9293 ; [debug line = 1451:43] [debug variable = this]
  store %struct.ap_int_base.6* %op, %struct.ap_int_base.6** %2, align 4
  call void @llvm.dbg.declare(metadata !{%struct.ap_int_base.6** %2}, metadata !9294), !dbg !9295 ; [debug line = 1451:89] [debug variable = op]
  %3 = load %struct.ap_int_base** %1              ; [#uses=1 type=%struct.ap_int_base*]
  %4 = load %struct.ap_int_base.6** %2, !dbg !9296 ; [#uses=1 type=%struct.ap_int_base.6*] [debug line = 1451:111]
  call void @_ZN11ap_int_baseILi32ELb0ELb1EEC2ILi16ELb0EEERKS_IXT_EXT0_EXleT_Li64EEE(%struct.ap_int_base* %3, %struct.ap_int_base.6* %4), !dbg !9296 ; [debug line = 1451:111]
  ret void, !dbg !9296                            ; [debug line = 1451:111]
}

; [#uses=1]
declare i32 @llvm.part.set.i32.i32(i32, i32, i32, i32) nounwind readnone

; [#uses=1]
define linkonce_odr void @_ZN11ap_int_baseILi32ELb0ELb1EEC2ILi16ELb0EEERKS_IXT_EXT0_EXleT_Li64EEE(%struct.ap_int_base* %this, %struct.ap_int_base.6* %op) unnamed_addr nounwind inlinehint alwaysinline align 2 {
  %1 = alloca %struct.ap_int_base*, align 4       ; [#uses=2 type=%struct.ap_int_base**]
  %2 = alloca %struct.ap_int_base.6*, align 4     ; [#uses=2 type=%struct.ap_int_base.6**]
  store %struct.ap_int_base* %this, %struct.ap_int_base** %1, align 4
  call void @llvm.dbg.declare(metadata !{%struct.ap_int_base** %1}, metadata !9297), !dbg !9298 ; [debug line = 1451:43] [debug variable = this]
  store %struct.ap_int_base.6* %op, %struct.ap_int_base.6** %2, align 4
  call void @llvm.dbg.declare(metadata !{%struct.ap_int_base.6** %2}, metadata !9299), !dbg !9300 ; [debug line = 1451:89] [debug variable = op]
  %3 = load %struct.ap_int_base** %1              ; [#uses=2 type=%struct.ap_int_base*]
  %4 = bitcast %struct.ap_int_base* %3 to %"class.std::locale::id"*, !dbg !9301 ; [#uses=1 type=%"class.std::locale::id"*] [debug line = 1451:93]
  call void @_ZN8ssdm_intILi32ELb0EEC2Ev(%"class.std::locale::id"* %4), !dbg !9301 ; [debug line = 1451:93]
  %5 = load %struct.ap_int_base.6** %2, align 4, !dbg !9302 ; [#uses=1 type=%struct.ap_int_base.6*] [debug line = 1451:95]
  %6 = bitcast %struct.ap_int_base.6* %5 to %struct.ssdm_int.7*, !dbg !9302 ; [#uses=1 type=%struct.ssdm_int.7*] [debug line = 1451:95]
  %7 = getelementptr inbounds %struct.ssdm_int.7* %6, i32 0, i32 0, !dbg !9302 ; [#uses=1 type=i16*] [debug line = 1451:95]
  %8 = load i16* %7, align 2, !dbg !9302          ; [#uses=1 type=i16] [debug line = 1451:95]
  %9 = zext i16 %8 to i32, !dbg !9302             ; [#uses=1 type=i32] [debug line = 1451:95]
  %10 = bitcast %struct.ap_int_base* %3 to %"class.std::locale::id"*, !dbg !9302 ; [#uses=1 type=%"class.std::locale::id"*] [debug line = 1451:95]
  %11 = getelementptr inbounds %"class.std::locale::id"* %10, i32 0, i32 0, !dbg !9302 ; [#uses=1 type=i32*] [debug line = 1451:95]
  store i32 %9, i32* %11, align 4, !dbg !9302     ; [debug line = 1451:95]
  ret void, !dbg !9304                            ; [debug line = 1451:111]
}

; [#uses=4]
define linkonce_odr void @_ZN8ssdm_intILi32ELb0EEC2Ev(%"class.std::locale::id"* %this) unnamed_addr nounwind inlinehint alwaysinline align 2 {
  %1 = alloca %"class.std::locale::id"*, align 4  ; [#uses=2 type=%"class.std::locale::id"**]
  store %"class.std::locale::id"* %this, %"class.std::locale::id"** %1, align 4
  call void @llvm.dbg.declare(metadata !{%"class.std::locale::id"** %1}, metadata !9305), !dbg !9307 ; [debug line = 34:0] [debug variable = this]
  %2 = load %"class.std::locale::id"** %1         ; [#uses=0 type=%"class.std::locale::id"*]
  ret void, !dbg !9308                            ; [debug line = 34:0]
}

; [#uses=1]
define linkonce_odr void @_ZN12af_range_refILi16ELi11ELb1EL9ap_q_mode5EL9ap_o_mode3ELi0EEC1EP13ap_fixed_baseILi16ELi11ELb1ELS0_5ELS1_3ELi0EEii(%struct.af_range_ref* %this, %struct.ap_int_base.6* %bv, i32 %h, i32 %l) unnamed_addr nounwind inlinehint alwaysinline align 2 {
  %1 = alloca %struct.af_range_ref*, align 4      ; [#uses=2 type=%struct.af_range_ref**]
  %2 = alloca %struct.ap_int_base.6*, align 4     ; [#uses=2 type=%struct.ap_int_base.6**]
  %3 = alloca i32, align 4                        ; [#uses=2 type=i32*]
  %4 = alloca i32, align 4                        ; [#uses=2 type=i32*]
  store %struct.af_range_ref* %this, %struct.af_range_ref** %1, align 4
  call void @llvm.dbg.declare(metadata !{%struct.af_range_ref** %1}, metadata !9310), !dbg !9312 ; [debug line = 248:43] [debug variable = this]
  store %struct.ap_int_base.6* %bv, %struct.ap_int_base.6** %2, align 4
  call void @llvm.dbg.declare(metadata !{%struct.ap_int_base.6** %2}, metadata !9313), !dbg !9314 ; [debug line = 248:109] [debug variable = bv]
  store i32 %h, i32* %3, align 4
  call void @llvm.dbg.declare(metadata !{i32* %3}, metadata !9315), !dbg !9316 ; [debug line = 249:31] [debug variable = h]
  store i32 %l, i32* %4, align 4
  call void @llvm.dbg.declare(metadata !{i32* %4}, metadata !9317), !dbg !9318 ; [debug line = 249:38] [debug variable = l]
  %5 = load %struct.af_range_ref** %1             ; [#uses=1 type=%struct.af_range_ref*]
  %6 = load %struct.ap_int_base.6** %2, align 4, !dbg !9319 ; [#uses=1 type=%struct.ap_int_base.6*] [debug line = 251:5]
  %7 = load i32* %3, align 4, !dbg !9319          ; [#uses=1 type=i32] [debug line = 251:5]
  %8 = load i32* %4, align 4, !dbg !9319          ; [#uses=1 type=i32] [debug line = 251:5]
  call void @_ZN12af_range_refILi16ELi11ELb1EL9ap_q_mode5EL9ap_o_mode3ELi0EEC2EP13ap_fixed_baseILi16ELi11ELb1ELS0_5ELS1_3ELi0EEii(%struct.af_range_ref* %5, %struct.ap_int_base.6* %6, i32 %7, i32 %8), !dbg !9319 ; [debug line = 251:5]
  ret void, !dbg !9319                            ; [debug line = 251:5]
}

; [#uses=1]
define linkonce_odr void @_ZN12af_range_refILi16ELi11ELb1EL9ap_q_mode5EL9ap_o_mode3ELi0EEC2EP13ap_fixed_baseILi16ELi11ELb1ELS0_5ELS1_3ELi0EEii(%struct.af_range_ref* %this, %struct.ap_int_base.6* %bv, i32 %h, i32 %l) unnamed_addr nounwind inlinehint alwaysinline align 2 {
  %1 = alloca %struct.af_range_ref*, align 4      ; [#uses=2 type=%struct.af_range_ref**]
  %2 = alloca %struct.ap_int_base.6*, align 4     ; [#uses=2 type=%struct.ap_int_base.6**]
  %3 = alloca i32, align 4                        ; [#uses=2 type=i32*]
  %4 = alloca i32, align 4                        ; [#uses=2 type=i32*]
  store %struct.af_range_ref* %this, %struct.af_range_ref** %1, align 4
  call void @llvm.dbg.declare(metadata !{%struct.af_range_ref** %1}, metadata !9320), !dbg !9321 ; [debug line = 248:43] [debug variable = this]
  store %struct.ap_int_base.6* %bv, %struct.ap_int_base.6** %2, align 4
  call void @llvm.dbg.declare(metadata !{%struct.ap_int_base.6** %2}, metadata !9322), !dbg !9323 ; [debug line = 248:109] [debug variable = bv]
  store i32 %h, i32* %3, align 4
  call void @llvm.dbg.declare(metadata !{i32* %3}, metadata !9324), !dbg !9325 ; [debug line = 249:31] [debug variable = h]
  store i32 %l, i32* %4, align 4
  call void @llvm.dbg.declare(metadata !{i32* %4}, metadata !9326), !dbg !9327 ; [debug line = 249:38] [debug variable = l]
  %5 = load %struct.af_range_ref** %1             ; [#uses=3 type=%struct.af_range_ref*]
  %6 = getelementptr inbounds %struct.af_range_ref* %5, i32 0, i32 0, !dbg !9328 ; [#uses=1 type=%struct.ap_int_base.6**] [debug line = 250:43]
  %7 = load %struct.ap_int_base.6** %2, align 4, !dbg !9328 ; [#uses=1 type=%struct.ap_int_base.6*] [debug line = 250:43]
  store %struct.ap_int_base.6* %7, %struct.ap_int_base.6** %6, align 4, !dbg !9328 ; [debug line = 250:43]
  %8 = getelementptr inbounds %struct.af_range_ref* %5, i32 0, i32 1, !dbg !9328 ; [#uses=1 type=i32*] [debug line = 250:43]
  %9 = load i32* %4, align 4, !dbg !9328          ; [#uses=1 type=i32] [debug line = 250:43]
  store i32 %9, i32* %8, align 4, !dbg !9328      ; [debug line = 250:43]
  %10 = getelementptr inbounds %struct.af_range_ref* %5, i32 0, i32 2, !dbg !9328 ; [#uses=1 type=i32*] [debug line = 250:43]
  %11 = load i32* %3, align 4, !dbg !9328         ; [#uses=1 type=i32] [debug line = 250:43]
  store i32 %11, i32* %10, align 4, !dbg !9328    ; [debug line = 250:43]
  ret void, !dbg !9329                            ; [debug line = 251:5]
}

; [#uses=1]
define linkonce_odr void @_ZN8ap_fixedILi16ELi11EL9ap_q_mode5EL9ap_o_mode3ELi0EEC2ILi33ELi23ELb1ELS0_5ELS1_3ELi0EEERK13ap_fixed_baseIXT_EXT0_EXT1_EXT2_EXT3_EXT4_EE(%struct.ap_int.5* %this, %struct.ap_fixed_base.8* %op) unnamed_addr nounwind inlinehint alwaysinline align 2 {
  %1 = alloca %struct.ap_int.5*, align 4          ; [#uses=2 type=%struct.ap_int.5**]
  %2 = alloca %struct.ap_fixed_base.8*, align 4   ; [#uses=2 type=%struct.ap_fixed_base.8**]
  store %struct.ap_int.5* %this, %struct.ap_int.5** %1, align 4
  call void @llvm.dbg.declare(metadata !{%struct.ap_int.5** %1}, metadata !9331), !dbg !9332 ; [debug line = 335:43] [debug variable = this]
  store %struct.ap_fixed_base.8* %op, %struct.ap_fixed_base.8** %2, align 4
  call void @llvm.dbg.declare(metadata !{%struct.ap_fixed_base.8** %2}, metadata !9333), !dbg !9334 ; [debug line = 336:46] [debug variable = op]
  %3 = load %struct.ap_int.5** %1                 ; [#uses=1 type=%struct.ap_int.5*]
  %4 = bitcast %struct.ap_int.5* %3 to %struct.ap_int_base.6*, !dbg !9335 ; [#uses=1 type=%struct.ap_int_base.6*] [debug line = 336:59]
  %5 = load %struct.ap_fixed_base.8** %2, align 4, !dbg !9335 ; [#uses=1 type=%struct.ap_fixed_base.8*] [debug line = 336:59]
  call void @_ZN13ap_fixed_baseILi16ELi11ELb1EL9ap_q_mode5EL9ap_o_mode3ELi0EEC2ILi33ELi23ELb1ELS0_5ELS1_3ELi0EEERKS_IXT_EXT0_EXT1_EXT2_EXT3_EXT4_EE(%struct.ap_int_base.6* %4, %struct.ap_fixed_base.8* %5), !dbg !9335 ; [debug line = 336:59]
  ret void, !dbg !9336                            ; [debug line = 336:60]
}

; [#uses=1]
define linkonce_odr void @_ZN13ap_fixed_baseILi16ELi11ELb1EL9ap_q_mode5EL9ap_o_mode3ELi0EEC2ILi33ELi23ELb1ELS0_5ELS1_3ELi0EEERKS_IXT_EXT0_EXT1_EXT2_EXT3_EXT4_EE(%struct.ap_int_base.6* %this, %struct.ap_fixed_base.8* %op) unnamed_addr nounwind align 2 {
  %1 = alloca %struct.ap_int_base.6*, align 4     ; [#uses=2 type=%struct.ap_int_base.6**]
  %2 = alloca %struct.ap_fixed_base.8*, align 4   ; [#uses=3 type=%struct.ap_fixed_base.8**]
  %carry = alloca i1, align 1                     ; [#uses=1 type=i1*]
  %sh_amt = alloca i32, align 4                   ; [#uses=3 type=i32*]
  %signbit = alloca i1, align 1                   ; [#uses=2 type=i1*]
  %__Result__ = alloca i33, align 8               ; [#uses=4 type=i33*]
  %__Val2__ = alloca i33, align 8                 ; [#uses=3 type=i33*]
  %isneg = alloca i1, align 1                     ; [#uses=2 type=i1*]
  store %struct.ap_int_base.6* %this, %struct.ap_int_base.6** %1, align 4
  call void @llvm.dbg.declare(metadata !{%struct.ap_int_base.6** %1}, metadata !9338), !dbg !9339 ; [debug line = 663:31] [debug variable = this]
  store %struct.ap_fixed_base.8* %op, %struct.ap_fixed_base.8** %2, align 4
  call void @llvm.dbg.declare(metadata !{%struct.ap_fixed_base.8** %2}, metadata !9340), !dbg !9341 ; [debug line = 663:111] [debug variable = op]
  %3 = load %struct.ap_int_base.6** %1            ; [#uses=4 type=%struct.ap_int_base.6*]
  %4 = bitcast %struct.ap_int_base.6* %3 to %struct.ssdm_int.7*, !dbg !9342 ; [#uses=1 type=%struct.ssdm_int.7*] [debug line = 663:115]
  call void @_ZN8ssdm_intILi16ELb1EEC2Ev(%struct.ssdm_int.7* %4), !dbg !9342 ; [debug line = 663:115]
  call void (...)* @_ssdm_InlineSelf(i32 0, i8* getelementptr inbounds ([1 x i8]* @.str, i32 0, i32 0)) nounwind, !dbg !9343 ; [debug line = 665:1]
  call void @llvm.dbg.declare(metadata !{i1* %carry}, metadata !9345), !dbg !9346 ; [debug line = 669:14] [debug variable = carry]
  store i1 false, i1* %carry, align 1, !dbg !9347 ; [debug line = 669:27]
  call void @llvm.dbg.declare(metadata !{i32* %sh_amt}, metadata !9348), !dbg !9349 ; [debug line = 674:18] [debug variable = sh_amt]
  store i32 5, i32* %sh_amt, align 4, !dbg !9350  ; [debug line = 674:65]
  call void @llvm.dbg.declare(metadata !{i1* %signbit}, metadata !9351), !dbg !9352 ; [debug line = 675:14] [debug variable = signbit]
  call void @llvm.dbg.declare(metadata !{i33* %__Result__}, metadata !9353), !dbg !9355 ; [debug line = 675:116] [debug variable = __Result__]
  store i33 0, i33* %__Result__, align 8, !dbg !9356 ; [debug line = 675:130]
  call void @llvm.dbg.declare(metadata !{i33* %__Val2__}, metadata !9357), !dbg !9358 ; [debug line = 675:221] [debug variable = __Val2__]
  %5 = load %struct.ap_fixed_base.8** %2, align 4, !dbg !9359 ; [#uses=1 type=%struct.ap_fixed_base.8*] [debug line = 675:0]
  %6 = bitcast %struct.ap_fixed_base.8* %5 to %struct.ssdm_int.9*, !dbg !9359 ; [#uses=1 type=%struct.ssdm_int.9*] [debug line = 675:0]
  %7 = getelementptr inbounds %struct.ssdm_int.9* %6, i32 0, i32 0, !dbg !9359 ; [#uses=1 type=i33*] [debug line = 675:0]
  %8 = load i33* %7, align 8, !dbg !9359          ; [#uses=1 type=i33] [debug line = 675:0]
  store i33 %8, i33* %__Val2__, align 8, !dbg !9359 ; [debug line = 675:0]
  %9 = bitcast i33* %__Result__ to i8*, !dbg !9359 ; [#uses=0 type=i8*] [debug line = 675:0]
  %10 = bitcast i33* %__Val2__ to i8*, !dbg !9359 ; [#uses=0 type=i8*] [debug line = 675:0]
  %11 = load i33* %__Val2__, !dbg !9359           ; [#uses=1 type=i33] [debug line = 675:0]
  %12 = call i33 @llvm.part.select.i33(i33 %11, i32 32, i32 32), !dbg !9359 ; [#uses=1 type=i33] [debug line = 675:0]
  store i33 %12, i33* %__Result__, !dbg !9359     ; [debug line = 675:0]
  %13 = load i33* %__Result__, align 8, !dbg !9359 ; [#uses=1 type=i33] [debug line = 675:0]
  %14 = and i33 %13, 1, !dbg !9359                ; [#uses=1 type=i33] [debug line = 675:0]
  %15 = icmp ne i33 %14, 0, !dbg !9359            ; [#uses=1 type=i1] [debug line = 675:0]
  store i1 %15, i1* %signbit, align 1, !dbg !9359 ; [debug line = 675:0]
  call void @llvm.dbg.declare(metadata !{i1* %isneg}, metadata !9360), !dbg !9361 ; [debug line = 677:14] [debug variable = isneg]
  %16 = load i1* %signbit, align 1, !dbg !9362    ; [#uses=1 type=i1] [debug line = 677:39]
  br i1 %16, label %17, label %18, !dbg !9362     ; [debug line = 677:39]

; <label>:17                                      ; preds = %0
  br label %18

; <label>:18                                      ; preds = %17, %0
  %19 = phi i1 [ false, %0 ], [ true, %17 ]       ; [#uses=1 type=i1]
  store i1 %19, i1* %isneg, align 1
  %20 = load i32* %sh_amt, align 4, !dbg !9363    ; [#uses=1 type=i32] [debug line = 681:13]
  %21 = icmp ult i32 %20, 33, !dbg !9363          ; [#uses=1 type=i1] [debug line = 681:13]
  br i1 %21, label %22, label %33, !dbg !9363     ; [debug line = 681:13]

; <label>:22                                      ; preds = %18
  %23 = load %struct.ap_fixed_base.8** %2, align 4, !dbg !9365 ; [#uses=1 type=%struct.ap_fixed_base.8*] [debug line = 682:17]
  %24 = bitcast %struct.ap_fixed_base.8* %23 to %struct.ssdm_int.9*, !dbg !9365 ; [#uses=1 type=%struct.ssdm_int.9*] [debug line = 682:17]
  %25 = getelementptr inbounds %struct.ssdm_int.9* %24, i32 0, i32 0, !dbg !9365 ; [#uses=1 type=i33*] [debug line = 682:17]
  %26 = load i33* %25, align 8, !dbg !9365        ; [#uses=1 type=i33] [debug line = 682:17]
  %27 = load i32* %sh_amt, align 4, !dbg !9365    ; [#uses=1 type=i32] [debug line = 682:17]
  %28 = zext i32 %27 to i33, !dbg !9365           ; [#uses=1 type=i33] [debug line = 682:17]
  %29 = ashr i33 %26, %28, !dbg !9365             ; [#uses=1 type=i33] [debug line = 682:17]
  %30 = trunc i33 %29 to i16, !dbg !9365          ; [#uses=1 type=i16] [debug line = 682:17]
  %31 = bitcast %struct.ap_int_base.6* %3 to %struct.ssdm_int.7*, !dbg !9365 ; [#uses=1 type=%struct.ssdm_int.7*] [debug line = 682:17]
  %32 = getelementptr inbounds %struct.ssdm_int.7* %31, i32 0, i32 0, !dbg !9365 ; [#uses=1 type=i16*] [debug line = 682:17]
  store i16 %30, i16* %32, align 2, !dbg !9365    ; [debug line = 682:17]
  br label %44, !dbg !9365                        ; [debug line = 682:17]

; <label>:33                                      ; preds = %18
  %34 = load i1* %isneg, align 1, !dbg !9366      ; [#uses=1 type=i1] [debug line = 685:17]
  br i1 %34, label %35, label %40, !dbg !9366     ; [debug line = 685:17]

; <label>:35                                      ; preds = %33
  %36 = load i32* @_ZZN13ap_fixed_baseILi16ELi11ELb1EL9ap_q_mode5EL9ap_o_mode3ELi0EEC1ILi33ELi23ELb1ELS0_5ELS1_3ELi0EEERKS_IXT_EXT0_EXT1_EXT2_EXT3_EXT4_EEE10AllOnesInt, align 4, !dbg !9368 ; [#uses=1 type=i32] [debug line = 685:28]
  %37 = trunc i32 %36 to i16, !dbg !9368          ; [#uses=1 type=i16] [debug line = 685:28]
  %38 = bitcast %struct.ap_int_base.6* %3 to %struct.ssdm_int.7*, !dbg !9368 ; [#uses=1 type=%struct.ssdm_int.7*] [debug line = 685:28]
  %39 = getelementptr inbounds %struct.ssdm_int.7* %38, i32 0, i32 0, !dbg !9368 ; [#uses=1 type=i16*] [debug line = 685:28]
  store i16 %37, i16* %39, align 2, !dbg !9368    ; [debug line = 685:28]
  br label %43, !dbg !9368                        ; [debug line = 685:28]

; <label>:40                                      ; preds = %33
  %41 = bitcast %struct.ap_int_base.6* %3 to %struct.ssdm_int.7*, !dbg !9369 ; [#uses=1 type=%struct.ssdm_int.7*] [debug line = 686:22]
  %42 = getelementptr inbounds %struct.ssdm_int.7* %41, i32 0, i32 0, !dbg !9369 ; [#uses=1 type=i16*] [debug line = 686:22]
  store i16 0, i16* %42, align 2, !dbg !9369      ; [debug line = 686:22]
  br label %43

; <label>:43                                      ; preds = %40, %35
  br label %44

; <label>:44                                      ; preds = %43, %22
  ret void, !dbg !9370                            ; [debug line = 773:5]
}

; [#uses=6]
define linkonce_odr void @_ZN8ssdm_intILi16ELb1EEC2Ev(%struct.ssdm_int.7* %this) unnamed_addr nounwind inlinehint alwaysinline align 2 {
  %1 = alloca %struct.ssdm_int.7*, align 4        ; [#uses=2 type=%struct.ssdm_int.7**]
  store %struct.ssdm_int.7* %this, %struct.ssdm_int.7** %1, align 4
  call void @llvm.dbg.declare(metadata !{%struct.ssdm_int.7** %1}, metadata !9371), !dbg !9373 ; [debug line = 18:137] [debug variable = this]
  %2 = load %struct.ssdm_int.7** %1               ; [#uses=0 type=%struct.ssdm_int.7*]
  ret void, !dbg !9374                            ; [debug line = 18:171]
}

; [#uses=5]
declare void @_ssdm_InlineSelf(...) nounwind

; [#uses=1]
declare i33 @llvm.part.select.i33(i33, i32, i32) nounwind readnone

; [#uses=1]
define linkonce_odr void @_ZN13ap_fixed_baseILi33ELi23ELb1EL9ap_q_mode5EL9ap_o_mode3ELi0EEC1Ev(%struct.ap_fixed_base.8* %this) unnamed_addr nounwind inlinehint alwaysinline align 2 {
  %1 = alloca %struct.ap_fixed_base.8*, align 4   ; [#uses=2 type=%struct.ap_fixed_base.8**]
  store %struct.ap_fixed_base.8* %this, %struct.ap_fixed_base.8** %1, align 4
  call void @llvm.dbg.declare(metadata !{%struct.ap_fixed_base.8** %1}, metadata !9376), !dbg !9378 ; [debug line = 653:43] [debug variable = this]
  %2 = load %struct.ap_fixed_base.8** %1          ; [#uses=1 type=%struct.ap_fixed_base.8*]
  call void @_ZN13ap_fixed_baseILi33ELi23ELb1EL9ap_q_mode5EL9ap_o_mode3ELi0EEC2Ev(%struct.ap_fixed_base.8* %2), !dbg !9379 ; [debug line = 660:5]
  ret void, !dbg !9379                            ; [debug line = 660:5]
}

; [#uses=1]
define linkonce_odr void @_ZN13ap_fixed_baseILi33ELi23ELb1EL9ap_q_mode5EL9ap_o_mode3ELi0EEC1ILi16ELi11ELb1ELS0_5ELS1_3ELi0EEERKS_IXT_EXT0_EXT1_EXT2_EXT3_EXT4_EE(%struct.ap_fixed_base.8* %this, %struct.ap_int_base.6* %op) unnamed_addr nounwind align 2 {
  %1 = alloca %struct.ap_fixed_base.8*, align 4   ; [#uses=2 type=%struct.ap_fixed_base.8**]
  %2 = alloca %struct.ap_int_base.6*, align 4     ; [#uses=2 type=%struct.ap_int_base.6**]
  store %struct.ap_fixed_base.8* %this, %struct.ap_fixed_base.8** %1, align 4
  call void @llvm.dbg.declare(metadata !{%struct.ap_fixed_base.8** %1}, metadata !9380), !dbg !9381 ; [debug line = 663:31] [debug variable = this]
  store %struct.ap_int_base.6* %op, %struct.ap_int_base.6** %2, align 4
  call void @llvm.dbg.declare(metadata !{%struct.ap_int_base.6** %2}, metadata !9382), !dbg !9383 ; [debug line = 663:111] [debug variable = op]
  %3 = load %struct.ap_fixed_base.8** %1          ; [#uses=1 type=%struct.ap_fixed_base.8*]
  %4 = load %struct.ap_int_base.6** %2, !dbg !9384 ; [#uses=1 type=%struct.ap_int_base.6*] [debug line = 773:5]
  call void @_ZN13ap_fixed_baseILi33ELi23ELb1EL9ap_q_mode5EL9ap_o_mode3ELi0EEC2ILi16ELi11ELb1ELS0_5ELS1_3ELi0EEERKS_IXT_EXT0_EXT1_EXT2_EXT3_EXT4_EE(%struct.ap_fixed_base.8* %3, %struct.ap_int_base.6* %4), !dbg !9384 ; [debug line = 773:5]
  ret void, !dbg !9384                            ; [debug line = 773:5]
}

; [#uses=1]
define linkonce_odr void @_ZN13ap_fixed_baseILi33ELi23ELb1EL9ap_q_mode5EL9ap_o_mode3ELi0EEC1ILi32ELi22ELb1ELS0_5ELS1_3ELi0EEERKS_IXT_EXT0_EXT1_EXT2_EXT3_EXT4_EE(%struct.ap_fixed_base.8* %this, %struct.ap_int_base* %op) unnamed_addr nounwind align 2 {
  %1 = alloca %struct.ap_fixed_base.8*, align 4   ; [#uses=2 type=%struct.ap_fixed_base.8**]
  %2 = alloca %struct.ap_int_base*, align 4       ; [#uses=2 type=%struct.ap_int_base**]
  store %struct.ap_fixed_base.8* %this, %struct.ap_fixed_base.8** %1, align 4
  call void @llvm.dbg.declare(metadata !{%struct.ap_fixed_base.8** %1}, metadata !9385), !dbg !9386 ; [debug line = 663:31] [debug variable = this]
  store %struct.ap_int_base* %op, %struct.ap_int_base** %2, align 4
  call void @llvm.dbg.declare(metadata !{%struct.ap_int_base** %2}, metadata !9387), !dbg !9388 ; [debug line = 663:111] [debug variable = op]
  %3 = load %struct.ap_fixed_base.8** %1          ; [#uses=1 type=%struct.ap_fixed_base.8*]
  %4 = load %struct.ap_int_base** %2, !dbg !9389  ; [#uses=1 type=%struct.ap_int_base*] [debug line = 773:5]
  call void @_ZN13ap_fixed_baseILi33ELi23ELb1EL9ap_q_mode5EL9ap_o_mode3ELi0EEC2ILi32ELi22ELb1ELS0_5ELS1_3ELi0EEERKS_IXT_EXT0_EXT1_EXT2_EXT3_EXT4_EE(%struct.ap_fixed_base.8* %3, %struct.ap_int_base* %4), !dbg !9389 ; [debug line = 773:5]
  ret void, !dbg !9389                            ; [debug line = 773:5]
}

; [#uses=1]
define linkonce_odr void @_ZN13ap_fixed_baseILi33ELi23ELb1EL9ap_q_mode5EL9ap_o_mode3ELi0EEC2ILi32ELi22ELb1ELS0_5ELS1_3ELi0EEERKS_IXT_EXT0_EXT1_EXT2_EXT3_EXT4_EE(%struct.ap_fixed_base.8* %this, %struct.ap_int_base* %op) unnamed_addr nounwind align 2 {
  %1 = alloca %struct.ap_fixed_base.8*, align 4   ; [#uses=2 type=%struct.ap_fixed_base.8**]
  %2 = alloca %struct.ap_int_base*, align 4       ; [#uses=3 type=%struct.ap_int_base**]
  %carry = alloca i1, align 1                     ; [#uses=1 type=i1*]
  %sh_amt = alloca i32, align 4                   ; [#uses=1 type=i32*]
  %signbit = alloca i1, align 1                   ; [#uses=2 type=i1*]
  %__Result__ = alloca i32, align 4               ; [#uses=4 type=i32*]
  %__Val2__ = alloca i32, align 4                 ; [#uses=3 type=i32*]
  %isneg = alloca i1, align 1                     ; [#uses=1 type=i1*]
  store %struct.ap_fixed_base.8* %this, %struct.ap_fixed_base.8** %1, align 4
  call void @llvm.dbg.declare(metadata !{%struct.ap_fixed_base.8** %1}, metadata !9390), !dbg !9391 ; [debug line = 663:31] [debug variable = this]
  store %struct.ap_int_base* %op, %struct.ap_int_base** %2, align 4
  call void @llvm.dbg.declare(metadata !{%struct.ap_int_base** %2}, metadata !9392), !dbg !9393 ; [debug line = 663:111] [debug variable = op]
  %3 = load %struct.ap_fixed_base.8** %1          ; [#uses=2 type=%struct.ap_fixed_base.8*]
  %4 = bitcast %struct.ap_fixed_base.8* %3 to %struct.ssdm_int.9*, !dbg !9394 ; [#uses=1 type=%struct.ssdm_int.9*] [debug line = 663:115]
  call void @_ZN8ssdm_intILi33ELb1EEC2Ev(%struct.ssdm_int.9* %4), !dbg !9394 ; [debug line = 663:115]
  call void (...)* @_ssdm_InlineSelf(i32 0, i8* getelementptr inbounds ([1 x i8]* @.str, i32 0, i32 0)) nounwind, !dbg !9395 ; [debug line = 665:1]
  call void @llvm.dbg.declare(metadata !{i1* %carry}, metadata !9397), !dbg !9398 ; [debug line = 669:14] [debug variable = carry]
  store i1 false, i1* %carry, align 1, !dbg !9399 ; [debug line = 669:27]
  call void @llvm.dbg.declare(metadata !{i32* %sh_amt}, metadata !9400), !dbg !9401 ; [debug line = 674:18] [debug variable = sh_amt]
  store i32 0, i32* %sh_amt, align 4, !dbg !9402  ; [debug line = 674:65]
  call void @llvm.dbg.declare(metadata !{i1* %signbit}, metadata !9403), !dbg !9404 ; [debug line = 675:14] [debug variable = signbit]
  call void @llvm.dbg.declare(metadata !{i32* %__Result__}, metadata !9405), !dbg !9407 ; [debug line = 675:116] [debug variable = __Result__]
  store i32 0, i32* %__Result__, align 4, !dbg !9408 ; [debug line = 675:130]
  call void @llvm.dbg.declare(metadata !{i32* %__Val2__}, metadata !9409), !dbg !9410 ; [debug line = 675:221] [debug variable = __Val2__]
  %5 = load %struct.ap_int_base** %2, align 4, !dbg !9411 ; [#uses=1 type=%struct.ap_int_base*] [debug line = 675:0]
  %6 = bitcast %struct.ap_int_base* %5 to %"class.std::locale::id"*, !dbg !9411 ; [#uses=1 type=%"class.std::locale::id"*] [debug line = 675:0]
  %7 = getelementptr inbounds %"class.std::locale::id"* %6, i32 0, i32 0, !dbg !9411 ; [#uses=1 type=i32*] [debug line = 675:0]
  %8 = load i32* %7, align 4, !dbg !9411          ; [#uses=1 type=i32] [debug line = 675:0]
  store i32 %8, i32* %__Val2__, align 4, !dbg !9411 ; [debug line = 675:0]
  %9 = bitcast i32* %__Result__ to i8*, !dbg !9411 ; [#uses=0 type=i8*] [debug line = 675:0]
  %10 = bitcast i32* %__Val2__ to i8*, !dbg !9411 ; [#uses=0 type=i8*] [debug line = 675:0]
  %11 = load i32* %__Val2__, !dbg !9411           ; [#uses=1 type=i32] [debug line = 675:0]
  %12 = call i32 @llvm.part.select.i32(i32 %11, i32 31, i32 31), !dbg !9411 ; [#uses=1 type=i32] [debug line = 675:0]
  store i32 %12, i32* %__Result__, !dbg !9411     ; [debug line = 675:0]
  %13 = load i32* %__Result__, align 4, !dbg !9411 ; [#uses=1 type=i32] [debug line = 675:0]
  %14 = and i32 %13, 1, !dbg !9411                ; [#uses=1 type=i32] [debug line = 675:0]
  %15 = icmp ne i32 %14, 0, !dbg !9411            ; [#uses=1 type=i1] [debug line = 675:0]
  store i1 %15, i1* %signbit, align 1, !dbg !9411 ; [debug line = 675:0]
  call void @llvm.dbg.declare(metadata !{i1* %isneg}, metadata !9412), !dbg !9413 ; [debug line = 677:14] [debug variable = isneg]
  %16 = load i1* %signbit, align 1, !dbg !9414    ; [#uses=1 type=i1] [debug line = 677:39]
  br i1 %16, label %17, label %18, !dbg !9414     ; [debug line = 677:39]

; <label>:17                                      ; preds = %0
  br label %18

; <label>:18                                      ; preds = %17, %0
  %19 = phi i1 [ false, %0 ], [ true, %17 ]       ; [#uses=1 type=i1]
  store i1 %19, i1* %isneg, align 1
  %20 = load %struct.ap_int_base** %2, align 4, !dbg !9415 ; [#uses=1 type=%struct.ap_int_base*] [debug line = 679:13]
  %21 = bitcast %struct.ap_int_base* %20 to %"class.std::locale::id"*, !dbg !9415 ; [#uses=1 type=%"class.std::locale::id"*] [debug line = 679:13]
  %22 = getelementptr inbounds %"class.std::locale::id"* %21, i32 0, i32 0, !dbg !9415 ; [#uses=1 type=i32*] [debug line = 679:13]
  %23 = load i32* %22, align 4, !dbg !9415        ; [#uses=1 type=i32] [debug line = 679:13]
  %24 = sext i32 %23 to i33, !dbg !9415           ; [#uses=1 type=i33] [debug line = 679:13]
  %25 = bitcast %struct.ap_fixed_base.8* %3 to %struct.ssdm_int.9*, !dbg !9415 ; [#uses=1 type=%struct.ssdm_int.9*] [debug line = 679:13]
  %26 = getelementptr inbounds %struct.ssdm_int.9* %25, i32 0, i32 0, !dbg !9415 ; [#uses=1 type=i33*] [debug line = 679:13]
  store i33 %24, i33* %26, align 8, !dbg !9415    ; [debug line = 679:13]
  ret void, !dbg !9416                            ; [debug line = 773:5]
}

; [#uses=6]
define linkonce_odr void @_ZN8ssdm_intILi33ELb1EEC2Ev(%struct.ssdm_int.9* %this) unnamed_addr nounwind inlinehint alwaysinline align 2 {
  %1 = alloca %struct.ssdm_int.9*, align 4        ; [#uses=2 type=%struct.ssdm_int.9**]
  store %struct.ssdm_int.9* %this, %struct.ssdm_int.9** %1, align 4
  call void @llvm.dbg.declare(metadata !{%struct.ssdm_int.9** %1}, metadata !9417), !dbg !9419 ; [debug line = 35:137] [debug variable = this]
  %2 = load %struct.ssdm_int.9** %1               ; [#uses=0 type=%struct.ssdm_int.9*]
  ret void, !dbg !9420                            ; [debug line = 35:171]
}

; [#uses=3]
declare i32 @llvm.part.select.i32(i32, i32, i32) nounwind readnone

; [#uses=1]
define linkonce_odr void @_ZN13ap_fixed_baseILi33ELi23ELb1EL9ap_q_mode5EL9ap_o_mode3ELi0EEC2ILi16ELi11ELb1ELS0_5ELS1_3ELi0EEERKS_IXT_EXT0_EXT1_EXT2_EXT3_EXT4_EE(%struct.ap_fixed_base.8* %this, %struct.ap_int_base.6* %op) unnamed_addr nounwind align 2 {
  %1 = alloca %struct.ap_fixed_base.8*, align 4   ; [#uses=2 type=%struct.ap_fixed_base.8**]
  %2 = alloca %struct.ap_int_base.6*, align 4     ; [#uses=3 type=%struct.ap_int_base.6**]
  %carry = alloca i1, align 1                     ; [#uses=1 type=i1*]
  %sh_amt = alloca i32, align 4                   ; [#uses=3 type=i32*]
  %signbit = alloca i1, align 1                   ; [#uses=2 type=i1*]
  %__Result__ = alloca i16, align 2               ; [#uses=4 type=i16*]
  %__Val2__ = alloca i16, align 2                 ; [#uses=3 type=i16*]
  %isneg = alloca i1, align 1                     ; [#uses=1 type=i1*]
  store %struct.ap_fixed_base.8* %this, %struct.ap_fixed_base.8** %1, align 4
  call void @llvm.dbg.declare(metadata !{%struct.ap_fixed_base.8** %1}, metadata !9422), !dbg !9423 ; [debug line = 663:31] [debug variable = this]
  store %struct.ap_int_base.6* %op, %struct.ap_int_base.6** %2, align 4
  call void @llvm.dbg.declare(metadata !{%struct.ap_int_base.6** %2}, metadata !9424), !dbg !9425 ; [debug line = 663:111] [debug variable = op]
  %3 = load %struct.ap_fixed_base.8** %1          ; [#uses=5 type=%struct.ap_fixed_base.8*]
  %4 = bitcast %struct.ap_fixed_base.8* %3 to %struct.ssdm_int.9*, !dbg !9426 ; [#uses=1 type=%struct.ssdm_int.9*] [debug line = 663:115]
  call void @_ZN8ssdm_intILi33ELb1EEC2Ev(%struct.ssdm_int.9* %4), !dbg !9426 ; [debug line = 663:115]
  call void (...)* @_ssdm_InlineSelf(i32 0, i8* getelementptr inbounds ([1 x i8]* @.str, i32 0, i32 0)) nounwind, !dbg !9427 ; [debug line = 665:1]
  call void @llvm.dbg.declare(metadata !{i1* %carry}, metadata !9429), !dbg !9430 ; [debug line = 669:14] [debug variable = carry]
  store i1 false, i1* %carry, align 1, !dbg !9431 ; [debug line = 669:27]
  call void @llvm.dbg.declare(metadata !{i32* %sh_amt}, metadata !9432), !dbg !9433 ; [debug line = 674:18] [debug variable = sh_amt]
  store i32 5, i32* %sh_amt, align 4, !dbg !9434  ; [debug line = 674:65]
  call void @llvm.dbg.declare(metadata !{i1* %signbit}, metadata !9435), !dbg !9436 ; [debug line = 675:14] [debug variable = signbit]
  call void @llvm.dbg.declare(metadata !{i16* %__Result__}, metadata !9437), !dbg !9439 ; [debug line = 675:116] [debug variable = __Result__]
  store i16 0, i16* %__Result__, align 2, !dbg !9440 ; [debug line = 675:130]
  call void @llvm.dbg.declare(metadata !{i16* %__Val2__}, metadata !9441), !dbg !9442 ; [debug line = 675:221] [debug variable = __Val2__]
  %5 = load %struct.ap_int_base.6** %2, align 4, !dbg !9443 ; [#uses=1 type=%struct.ap_int_base.6*] [debug line = 675:0]
  %6 = bitcast %struct.ap_int_base.6* %5 to %struct.ssdm_int.7*, !dbg !9443 ; [#uses=1 type=%struct.ssdm_int.7*] [debug line = 675:0]
  %7 = getelementptr inbounds %struct.ssdm_int.7* %6, i32 0, i32 0, !dbg !9443 ; [#uses=1 type=i16*] [debug line = 675:0]
  %8 = load i16* %7, align 2, !dbg !9443          ; [#uses=1 type=i16] [debug line = 675:0]
  store i16 %8, i16* %__Val2__, align 2, !dbg !9443 ; [debug line = 675:0]
  %9 = bitcast i16* %__Result__ to i8*, !dbg !9443 ; [#uses=0 type=i8*] [debug line = 675:0]
  %10 = bitcast i16* %__Val2__ to i8*, !dbg !9443 ; [#uses=0 type=i8*] [debug line = 675:0]
  %11 = load i16* %__Val2__, !dbg !9443           ; [#uses=1 type=i16] [debug line = 675:0]
  %12 = call i16 @llvm.part.select.i16(i16 %11, i32 15, i32 15), !dbg !9443 ; [#uses=1 type=i16] [debug line = 675:0]
  store i16 %12, i16* %__Result__, !dbg !9443     ; [debug line = 675:0]
  %13 = load i16* %__Result__, align 2, !dbg !9443 ; [#uses=1 type=i16] [debug line = 675:0]
  %14 = sext i16 %13 to i32, !dbg !9443           ; [#uses=1 type=i32] [debug line = 675:0]
  %15 = and i32 %14, 1, !dbg !9443                ; [#uses=1 type=i32] [debug line = 675:0]
  %16 = icmp ne i32 %15, 0, !dbg !9443            ; [#uses=1 type=i1] [debug line = 675:0]
  store i1 %16, i1* %signbit, align 1, !dbg !9443 ; [debug line = 675:0]
  call void @llvm.dbg.declare(metadata !{i1* %isneg}, metadata !9444), !dbg !9445 ; [debug line = 677:14] [debug variable = isneg]
  %17 = load i1* %signbit, align 1, !dbg !9446    ; [#uses=1 type=i1] [debug line = 677:39]
  br i1 %17, label %18, label %19, !dbg !9446     ; [debug line = 677:39]

; <label>:18                                      ; preds = %0
  br label %19

; <label>:19                                      ; preds = %18, %0
  %20 = phi i1 [ false, %0 ], [ true, %18 ]       ; [#uses=1 type=i1]
  store i1 %20, i1* %isneg, align 1
  %21 = load %struct.ap_int_base.6** %2, align 4, !dbg !9447 ; [#uses=1 type=%struct.ap_int_base.6*] [debug line = 701:13]
  %22 = bitcast %struct.ap_int_base.6* %21 to %struct.ssdm_int.7*, !dbg !9447 ; [#uses=1 type=%struct.ssdm_int.7*] [debug line = 701:13]
  %23 = getelementptr inbounds %struct.ssdm_int.7* %22, i32 0, i32 0, !dbg !9447 ; [#uses=1 type=i16*] [debug line = 701:13]
  %24 = load i16* %23, align 2, !dbg !9447        ; [#uses=1 type=i16] [debug line = 701:13]
  %25 = sext i16 %24 to i33, !dbg !9447           ; [#uses=1 type=i33] [debug line = 701:13]
  %26 = bitcast %struct.ap_fixed_base.8* %3 to %struct.ssdm_int.9*, !dbg !9447 ; [#uses=1 type=%struct.ssdm_int.9*] [debug line = 701:13]
  %27 = getelementptr inbounds %struct.ssdm_int.9* %26, i32 0, i32 0, !dbg !9447 ; [#uses=1 type=i33*] [debug line = 701:13]
  store i33 %25, i33* %27, align 8, !dbg !9447    ; [debug line = 701:13]
  %28 = load i32* %sh_amt, align 4, !dbg !9449    ; [#uses=1 type=i32] [debug line = 702:13]
  %29 = icmp ult i32 %28, 33, !dbg !9449          ; [#uses=1 type=i1] [debug line = 702:13]
  br i1 %29, label %30, label %39, !dbg !9449     ; [debug line = 702:13]

; <label>:30                                      ; preds = %19
  %31 = bitcast %struct.ap_fixed_base.8* %3 to %struct.ssdm_int.9*, !dbg !9450 ; [#uses=1 type=%struct.ssdm_int.9*] [debug line = 703:17]
  %32 = getelementptr inbounds %struct.ssdm_int.9* %31, i32 0, i32 0, !dbg !9450 ; [#uses=1 type=i33*] [debug line = 703:17]
  %33 = load i33* %32, align 8, !dbg !9450        ; [#uses=1 type=i33] [debug line = 703:17]
  %34 = load i32* %sh_amt, align 4, !dbg !9450    ; [#uses=1 type=i32] [debug line = 703:17]
  %35 = zext i32 %34 to i33, !dbg !9450           ; [#uses=1 type=i33] [debug line = 703:17]
  %36 = shl i33 %33, %35, !dbg !9450              ; [#uses=1 type=i33] [debug line = 703:17]
  %37 = bitcast %struct.ap_fixed_base.8* %3 to %struct.ssdm_int.9*, !dbg !9450 ; [#uses=1 type=%struct.ssdm_int.9*] [debug line = 703:17]
  %38 = getelementptr inbounds %struct.ssdm_int.9* %37, i32 0, i32 0, !dbg !9450 ; [#uses=1 type=i33*] [debug line = 703:17]
  store i33 %36, i33* %38, align 8, !dbg !9450    ; [debug line = 703:17]
  br label %42, !dbg !9450                        ; [debug line = 703:17]

; <label>:39                                      ; preds = %19
  %40 = bitcast %struct.ap_fixed_base.8* %3 to %struct.ssdm_int.9*, !dbg !9451 ; [#uses=1 type=%struct.ssdm_int.9*] [debug line = 705:17]
  %41 = getelementptr inbounds %struct.ssdm_int.9* %40, i32 0, i32 0, !dbg !9451 ; [#uses=1 type=i33*] [debug line = 705:17]
  store i33 0, i33* %41, align 8, !dbg !9451      ; [debug line = 705:17]
  br label %42

; <label>:42                                      ; preds = %39, %30
  ret void, !dbg !9452                            ; [debug line = 773:5]
}

; [#uses=1]
define linkonce_odr void @_ZN13ap_fixed_baseILi33ELi23ELb1EL9ap_q_mode5EL9ap_o_mode3ELi0EEC2Ev(%struct.ap_fixed_base.8* %this) unnamed_addr nounwind inlinehint alwaysinline align 2 {
  %1 = alloca %struct.ap_fixed_base.8*, align 4   ; [#uses=2 type=%struct.ap_fixed_base.8**]
  store %struct.ap_fixed_base.8* %this, %struct.ap_fixed_base.8** %1, align 4
  call void @llvm.dbg.declare(metadata !{%struct.ap_fixed_base.8** %1}, metadata !9453), !dbg !9454 ; [debug line = 653:43] [debug variable = this]
  %2 = load %struct.ap_fixed_base.8** %1          ; [#uses=1 type=%struct.ap_fixed_base.8*]
  %3 = bitcast %struct.ap_fixed_base.8* %2 to %struct.ssdm_int.9*, !dbg !9455 ; [#uses=1 type=%struct.ssdm_int.9*] [debug line = 653:59]
  call void @_ZN8ssdm_intILi33ELb1EEC2Ev(%struct.ssdm_int.9* %3), !dbg !9455 ; [debug line = 653:59]
  ret void, !dbg !9456                            ; [debug line = 660:5]
}

; [#uses=1]
define linkonce_odr void @_ZN13ap_fixed_baseILi32ELi22ELb1EL9ap_q_mode5EL9ap_o_mode3ELi0EEC1Ev(%struct.ap_int_base* %this) unnamed_addr nounwind inlinehint alwaysinline align 2 {
  %1 = alloca %struct.ap_int_base*, align 4       ; [#uses=2 type=%struct.ap_int_base**]
  store %struct.ap_int_base* %this, %struct.ap_int_base** %1, align 4
  call void @llvm.dbg.declare(metadata !{%struct.ap_int_base** %1}, metadata !9458), !dbg !9460 ; [debug line = 653:43] [debug variable = this]
  %2 = load %struct.ap_int_base** %1              ; [#uses=1 type=%struct.ap_int_base*]
  call void @_ZN13ap_fixed_baseILi32ELi22ELb1EL9ap_q_mode5EL9ap_o_mode3ELi0EEC2Ev(%struct.ap_int_base* %2), !dbg !9461 ; [debug line = 660:5]
  ret void, !dbg !9461                            ; [debug line = 660:5]
}

; [#uses=2]
define linkonce_odr void @_ZN11ap_int_baseILi32ELb1ELb1EEC1Ev(%struct.ap_int_base* %this) unnamed_addr nounwind inlinehint alwaysinline align 2 {
  %1 = alloca %struct.ap_int_base*, align 4       ; [#uses=2 type=%struct.ap_int_base**]
  store %struct.ap_int_base* %this, %struct.ap_int_base** %1, align 4
  call void @llvm.dbg.declare(metadata !{%struct.ap_int_base** %1}, metadata !9462), !dbg !9463 ; [debug line = 1439:42] [debug variable = this]
  %2 = load %struct.ap_int_base** %1              ; [#uses=1 type=%struct.ap_int_base*]
  call void @_ZN11ap_int_baseILi32ELb1ELb1EEC2Ev(%struct.ap_int_base* %2), !dbg !9464 ; [debug line = 1445:4]
  ret void, !dbg !9464                            ; [debug line = 1445:4]
}

; [#uses=2]
define linkonce_odr void @_ZN11ap_int_baseILi32ELb1ELb1EEC2Ev(%struct.ap_int_base* %this) unnamed_addr nounwind inlinehint alwaysinline align 2 {
  %1 = alloca %struct.ap_int_base*, align 4       ; [#uses=2 type=%struct.ap_int_base**]
  store %struct.ap_int_base* %this, %struct.ap_int_base** %1, align 4
  call void @llvm.dbg.declare(metadata !{%struct.ap_int_base** %1}, metadata !9465), !dbg !9466 ; [debug line = 1439:42] [debug variable = this]
  %2 = load %struct.ap_int_base** %1              ; [#uses=1 type=%struct.ap_int_base*]
  %3 = bitcast %struct.ap_int_base* %2 to %"class.std::locale::id"*, !dbg !9467 ; [#uses=1 type=%"class.std::locale::id"*] [debug line = 1439:56]
  call void @_ZN8ssdm_intILi32ELb1EEC2Ev(%"class.std::locale::id"* %3), !dbg !9467 ; [debug line = 1439:56]
  ret void, !dbg !9468                            ; [debug line = 1445:4]
}

; [#uses=3]
define linkonce_odr void @_ZN8ssdm_intILi32ELb1EEC2Ev(%"class.std::locale::id"* %this) unnamed_addr nounwind inlinehint alwaysinline align 2 {
  %1 = alloca %"class.std::locale::id"*, align 4  ; [#uses=2 type=%"class.std::locale::id"**]
  store %"class.std::locale::id"* %this, %"class.std::locale::id"** %1, align 4
  call void @llvm.dbg.declare(metadata !{%"class.std::locale::id"** %1}, metadata !9470), !dbg !9472 ; [debug line = 34:137] [debug variable = this]
  %2 = load %"class.std::locale::id"** %1         ; [#uses=0 type=%"class.std::locale::id"*]
  ret void, !dbg !9473                            ; [debug line = 34:171]
}

; [#uses=1]
define linkonce_odr void @_ZN13ap_fixed_baseILi32ELi22ELb1EL9ap_q_mode5EL9ap_o_mode3ELi0EEC2Ev(%struct.ap_int_base* %this) unnamed_addr nounwind inlinehint alwaysinline align 2 {
  %1 = alloca %struct.ap_int_base*, align 4       ; [#uses=2 type=%struct.ap_int_base**]
  store %struct.ap_int_base* %this, %struct.ap_int_base** %1, align 4
  call void @llvm.dbg.declare(metadata !{%struct.ap_int_base** %1}, metadata !9475), !dbg !9476 ; [debug line = 653:43] [debug variable = this]
  %2 = load %struct.ap_int_base** %1              ; [#uses=1 type=%struct.ap_int_base*]
  %3 = bitcast %struct.ap_int_base* %2 to %"class.std::locale::id"*, !dbg !9477 ; [#uses=1 type=%"class.std::locale::id"*] [debug line = 653:59]
  call void @_ZN8ssdm_intILi32ELb1EEC2Ev(%"class.std::locale::id"* %3), !dbg !9477 ; [debug line = 653:59]
  ret void, !dbg !9478                            ; [debug line = 660:5]
}

; [#uses=1]
define linkonce_odr void @_ZN8ap_fixedILi16ELi11EL9ap_q_mode5EL9ap_o_mode3ELi0EEC2ILi32ELb1EEERK12ap_range_refIXT_EXT0_EE(%struct.ap_int.5* %this, %struct.ap_range_ref* %op) unnamed_addr nounwind inlinehint alwaysinline align 2 {
  %1 = alloca %struct.ap_int.5*, align 4          ; [#uses=2 type=%struct.ap_int.5**]
  %2 = alloca %struct.ap_range_ref*, align 4      ; [#uses=2 type=%struct.ap_range_ref**]
  store %struct.ap_int.5* %this, %struct.ap_int.5** %1, align 4
  call void @llvm.dbg.declare(metadata !{%struct.ap_int.5** %1}, metadata !9480), !dbg !9481 ; [debug line = 343:43] [debug variable = this]
  store %struct.ap_range_ref* %op, %struct.ap_range_ref** %2, align 4
  call void @llvm.dbg.declare(metadata !{%struct.ap_range_ref** %2}, metadata !9482), !dbg !9483 ; [debug line = 343:88] [debug variable = op]
  %3 = load %struct.ap_int.5** %1                 ; [#uses=1 type=%struct.ap_int.5*]
  %4 = bitcast %struct.ap_int.5* %3 to %struct.ap_int_base.6*, !dbg !9484 ; [#uses=1 type=%struct.ap_int_base.6*] [debug line = 344:29]
  %5 = load %struct.ap_range_ref** %2, align 4, !dbg !9484 ; [#uses=1 type=%struct.ap_range_ref*] [debug line = 344:29]
  call void @_ZN13ap_fixed_baseILi16ELi11ELb1EL9ap_q_mode5EL9ap_o_mode3ELi0EEC2ILi32ELb1EEERK12ap_range_refIXT_EXT0_EE(%struct.ap_int_base.6* %4, %struct.ap_range_ref* %5), !dbg !9484 ; [debug line = 344:29]
  ret void, !dbg !9485                            ; [debug line = 344:30]
}

; [#uses=1]
define linkonce_odr void @_ZN13ap_fixed_baseILi16ELi11ELb1EL9ap_q_mode5EL9ap_o_mode3ELi0EEC2ILi32ELb1EEERK12ap_range_refIXT_EXT0_EE(%struct.ap_int_base.6* %this, %struct.ap_range_ref* %op) unnamed_addr nounwind inlinehint alwaysinline align 2 {
  %1 = alloca %struct.ap_int_base.6*, align 4     ; [#uses=2 type=%struct.ap_int_base.6**]
  %2 = alloca %struct.ap_range_ref*, align 4      ; [#uses=2 type=%struct.ap_range_ref**]
  %3 = alloca %struct.ap_int_base.6, align 2      ; [#uses=2 type=%struct.ap_int_base.6*]
  %4 = alloca %struct.ap_int_base, align 4        ; [#uses=2 type=%struct.ap_int_base*]
  store %struct.ap_int_base.6* %this, %struct.ap_int_base.6** %1, align 4
  call void @llvm.dbg.declare(metadata !{%struct.ap_int_base.6** %1}, metadata !9487), !dbg !9488 ; [debug line = 826:43] [debug variable = this]
  store %struct.ap_range_ref* %op, %struct.ap_range_ref** %2, align 4
  call void @llvm.dbg.declare(metadata !{%struct.ap_range_ref** %2}, metadata !9489), !dbg !9490 ; [debug line = 826:93] [debug variable = op]
  %5 = load %struct.ap_int_base.6** %1            ; [#uses=2 type=%struct.ap_int_base.6*]
  %6 = bitcast %struct.ap_int_base.6* %5 to %struct.ssdm_int.7*, !dbg !9491 ; [#uses=1 type=%struct.ssdm_int.7*] [debug line = 826:97]
  call void @_ZN8ssdm_intILi16ELb1EEC2Ev(%struct.ssdm_int.7* %6), !dbg !9491 ; [debug line = 826:97]
  %7 = load %struct.ap_range_ref** %2, align 4, !dbg !9492 ; [#uses=1 type=%struct.ap_range_ref*] [debug line = 827:9]
  call void @_ZN11ap_int_baseILi32ELb0ELb1EEC1ILi32ELb1EEERK12ap_range_refIXT_EXT0_EE(%struct.ap_int_base* %4, %struct.ap_range_ref* %7), !dbg !9492 ; [debug line = 827:9]
  call void @_ZN13ap_fixed_baseILi16ELi11ELb1EL9ap_q_mode5EL9ap_o_mode3ELi0EEC1ILi32ELb0EEERK11ap_int_baseIXT_EXT0_EXleT_Li64EEE(%struct.ap_int_base.6* %3, %struct.ap_int_base* %4), !dbg !9492 ; [debug line = 827:9]
  %8 = call %struct.ap_int_base.6* @_ZN13ap_fixed_baseILi16ELi11ELb1EL9ap_q_mode5EL9ap_o_mode3ELi0EEaSERKS2_(%struct.ap_int_base.6* %5, %struct.ap_int_base.6* %3), !dbg !9492 ; [#uses=0 type=%struct.ap_int_base.6*] [debug line = 827:9]
  ret void, !dbg !9494                            ; [debug line = 828:5]
}

; [#uses=2]
define linkonce_odr %struct.ap_int_base.6* @_ZN13ap_fixed_baseILi16ELi11ELb1EL9ap_q_mode5EL9ap_o_mode3ELi0EEaSERKS2_(%struct.ap_int_base.6* %this, %struct.ap_int_base.6* %op) nounwind inlinehint alwaysinline align 2 {
  %1 = alloca %struct.ap_int_base.6*, align 4     ; [#uses=2 type=%struct.ap_int_base.6**]
  %2 = alloca %struct.ap_int_base.6*, align 4     ; [#uses=2 type=%struct.ap_int_base.6**]
  store %struct.ap_int_base.6* %this, %struct.ap_int_base.6** %1, align 4
  call void @llvm.dbg.declare(metadata !{%struct.ap_int_base.6** %1}, metadata !9495), !dbg !9496 ; [debug line = 1022:58] [debug variable = this]
  store %struct.ap_int_base.6* %op, %struct.ap_int_base.6** %2, align 4
  call void @llvm.dbg.declare(metadata !{%struct.ap_int_base.6** %2}, metadata !9497), !dbg !9498 ; [debug line = 1023:63] [debug variable = op]
  %3 = load %struct.ap_int_base.6** %1            ; [#uses=2 type=%struct.ap_int_base.6*]
  %4 = load %struct.ap_int_base.6** %2, align 4, !dbg !9499 ; [#uses=1 type=%struct.ap_int_base.6*] [debug line = 1025:9]
  %5 = bitcast %struct.ap_int_base.6* %4 to %struct.ssdm_int.7*, !dbg !9499 ; [#uses=1 type=%struct.ssdm_int.7*] [debug line = 1025:9]
  %6 = getelementptr inbounds %struct.ssdm_int.7* %5, i32 0, i32 0, !dbg !9499 ; [#uses=1 type=i16*] [debug line = 1025:9]
  %7 = load i16* %6, align 2, !dbg !9499          ; [#uses=1 type=i16] [debug line = 1025:9]
  %8 = bitcast %struct.ap_int_base.6* %3 to %struct.ssdm_int.7*, !dbg !9499 ; [#uses=1 type=%struct.ssdm_int.7*] [debug line = 1025:9]
  %9 = getelementptr inbounds %struct.ssdm_int.7* %8, i32 0, i32 0, !dbg !9499 ; [#uses=1 type=i16*] [debug line = 1025:9]
  store i16 %7, i16* %9, align 2, !dbg !9499      ; [debug line = 1025:9]
  ret %struct.ap_int_base.6* %3, !dbg !9501       ; [debug line = 1026:9]
}

; [#uses=1]
define linkonce_odr void @_ZN13ap_fixed_baseILi16ELi11ELb1EL9ap_q_mode5EL9ap_o_mode3ELi0EEC1ILi32ELb0EEERK11ap_int_baseIXT_EXT0_EXleT_Li64EEE(%struct.ap_int_base.6* %this, %struct.ap_int_base* %op) unnamed_addr nounwind inlinehint alwaysinline align 2 {
  %1 = alloca %struct.ap_int_base.6*, align 4     ; [#uses=2 type=%struct.ap_int_base.6**]
  %2 = alloca %struct.ap_int_base*, align 4       ; [#uses=2 type=%struct.ap_int_base**]
  store %struct.ap_int_base.6* %this, %struct.ap_int_base.6** %1, align 4
  call void @llvm.dbg.declare(metadata !{%struct.ap_int_base.6** %1}, metadata !9502), !dbg !9503 ; [debug line = 782:43] [debug variable = this]
  store %struct.ap_int_base* %op, %struct.ap_int_base** %2, align 4
  call void @llvm.dbg.declare(metadata !{%struct.ap_int_base** %2}, metadata !9504), !dbg !9505 ; [debug line = 782:92] [debug variable = op]
  %3 = load %struct.ap_int_base.6** %1            ; [#uses=1 type=%struct.ap_int_base.6*]
  %4 = load %struct.ap_int_base** %2, !dbg !9506  ; [#uses=1 type=%struct.ap_int_base*] [debug line = 787:5]
  call void @_ZN13ap_fixed_baseILi16ELi11ELb1EL9ap_q_mode5EL9ap_o_mode3ELi0EEC2ILi32ELb0EEERK11ap_int_baseIXT_EXT0_EXleT_Li64EEE(%struct.ap_int_base.6* %3, %struct.ap_int_base* %4), !dbg !9506 ; [debug line = 787:5]
  ret void, !dbg !9506                            ; [debug line = 787:5]
}

; [#uses=1]
define linkonce_odr void @_ZN11ap_int_baseILi32ELb0ELb1EEC1ILi32ELb1EEERK12ap_range_refIXT_EXT0_EE(%struct.ap_int_base* %this, %struct.ap_range_ref* %ref) unnamed_addr nounwind inlinehint alwaysinline align 2 {
  %1 = alloca %struct.ap_int_base*, align 4       ; [#uses=2 type=%struct.ap_int_base**]
  %2 = alloca %struct.ap_range_ref*, align 4      ; [#uses=2 type=%struct.ap_range_ref**]
  store %struct.ap_int_base* %this, %struct.ap_int_base** %1, align 4
  call void @llvm.dbg.declare(metadata !{%struct.ap_int_base** %1}, metadata !9507), !dbg !9508 ; [debug line = 1482:43] [debug variable = this]
  store %struct.ap_range_ref* %ref, %struct.ap_range_ref** %2, align 4
  call void @llvm.dbg.declare(metadata !{%struct.ap_range_ref** %2}, metadata !9509), !dbg !9510 ; [debug line = 1482:90] [debug variable = ref]
  %3 = load %struct.ap_int_base** %1              ; [#uses=1 type=%struct.ap_int_base*]
  %4 = load %struct.ap_range_ref** %2, !dbg !9511 ; [#uses=1 type=%struct.ap_range_ref*] [debug line = 1484:5]
  call void @_ZN11ap_int_baseILi32ELb0ELb1EEC2ILi32ELb1EEERK12ap_range_refIXT_EXT0_EE(%struct.ap_int_base* %3, %struct.ap_range_ref* %4), !dbg !9511 ; [debug line = 1484:5]
  ret void, !dbg !9511                            ; [debug line = 1484:5]
}

; [#uses=1]
define linkonce_odr void @_ZN11ap_int_baseILi32ELb0ELb1EEC2ILi32ELb1EEERK12ap_range_refIXT_EXT0_EE(%struct.ap_int_base* %this, %struct.ap_range_ref* %ref) unnamed_addr nounwind inlinehint alwaysinline align 2 {
  %1 = alloca %struct.ap_int_base*, align 4       ; [#uses=2 type=%struct.ap_int_base**]
  %2 = alloca %struct.ap_range_ref*, align 4      ; [#uses=2 type=%struct.ap_range_ref**]
  %3 = alloca %struct.ap_int_base, align 4        ; [#uses=2 type=%struct.ap_int_base*]
  store %struct.ap_int_base* %this, %struct.ap_int_base** %1, align 4
  call void @llvm.dbg.declare(metadata !{%struct.ap_int_base** %1}, metadata !9512), !dbg !9513 ; [debug line = 1482:43] [debug variable = this]
  store %struct.ap_range_ref* %ref, %struct.ap_range_ref** %2, align 4
  call void @llvm.dbg.declare(metadata !{%struct.ap_range_ref** %2}, metadata !9514), !dbg !9515 ; [debug line = 1482:90] [debug variable = ref]
  %4 = load %struct.ap_int_base** %1              ; [#uses=2 type=%struct.ap_int_base*]
  %5 = bitcast %struct.ap_int_base* %4 to %"class.std::locale::id"*, !dbg !9516 ; [#uses=1 type=%"class.std::locale::id"*] [debug line = 1482:95]
  call void @_ZN8ssdm_intILi32ELb0EEC2Ev(%"class.std::locale::id"* %5), !dbg !9516 ; [debug line = 1482:95]
  %6 = load %struct.ap_range_ref** %2, align 4, !dbg !9517 ; [#uses=1 type=%struct.ap_range_ref*] [debug line = 1483:19]
  call void @_ZNK12ap_range_refILi32ELb1EEcv11ap_int_baseILi32ELb0ELb1EEEv(%struct.ap_int_base* sret %3, %struct.ap_range_ref* %6), !dbg !9517 ; [debug line = 1483:19]
  %7 = bitcast %struct.ap_int_base* %3 to %"class.std::locale::id"*, !dbg !9517 ; [#uses=1 type=%"class.std::locale::id"*] [debug line = 1483:19]
  %8 = getelementptr inbounds %"class.std::locale::id"* %7, i32 0, i32 0, !dbg !9517 ; [#uses=1 type=i32*] [debug line = 1483:19]
  %9 = load i32* %8, align 4, !dbg !9517          ; [#uses=1 type=i32] [debug line = 1483:19]
  %10 = bitcast %struct.ap_int_base* %4 to %"class.std::locale::id"*, !dbg !9517 ; [#uses=1 type=%"class.std::locale::id"*] [debug line = 1483:19]
  %11 = getelementptr inbounds %"class.std::locale::id"* %10, i32 0, i32 0, !dbg !9517 ; [#uses=1 type=i32*] [debug line = 1483:19]
  store i32 %9, i32* %11, align 4, !dbg !9517     ; [debug line = 1483:19]
  ret void, !dbg !9519                            ; [debug line = 1484:5]
}

; [#uses=1]
define linkonce_odr void @_ZNK12ap_range_refILi32ELb1EEcv11ap_int_baseILi32ELb0ELb1EEEv(%struct.ap_int_base* noalias sret %agg.result, %struct.ap_range_ref* %this) nounwind inlinehint alwaysinline align 2 {
  %1 = alloca %struct.ap_range_ref*, align 4      ; [#uses=2 type=%struct.ap_range_ref**]
  %__Result__ = alloca i32, align 4               ; [#uses=4 type=i32*]
  %__Val2__ = alloca i32, align 4                 ; [#uses=3 type=i32*]
  store %struct.ap_range_ref* %this, %struct.ap_range_ref** %1, align 4
  call void @llvm.dbg.declare(metadata !{%struct.ap_range_ref** %1}, metadata !9520), !dbg !9522 ; [debug line = 938:43] [debug variable = this]
  %2 = load %struct.ap_range_ref** %1             ; [#uses=3 type=%struct.ap_range_ref*]
  call void @llvm.dbg.declare(metadata !{%struct.ap_int_base* %agg.result}, metadata !9523), !dbg !9525 ; [debug line = 939:34] [debug variable = ret]
  call void @_ZN11ap_int_baseILi32ELb0ELb1EEC1Ev(%struct.ap_int_base* %agg.result), !dbg !9526 ; [debug line = 939:37]
  call void @llvm.dbg.declare(metadata !{i32* %__Result__}, metadata !9527), !dbg !9529 ; [debug line = 940:35] [debug variable = __Result__]
  store i32 0, i32* %__Result__, align 4, !dbg !9530 ; [debug line = 940:49]
  call void @llvm.dbg.declare(metadata !{i32* %__Val2__}, metadata !9531), !dbg !9532 ; [debug line = 940:66] [debug variable = __Val2__]
  %3 = getelementptr inbounds %struct.ap_range_ref* %2, i32 0, i32 0, !dbg !9533 ; [#uses=1 type=%struct.ap_int_base**] [debug line = 940:83]
  %4 = load %struct.ap_int_base** %3, align 4, !dbg !9533 ; [#uses=1 type=%struct.ap_int_base*] [debug line = 940:83]
  %5 = bitcast %struct.ap_int_base* %4 to %"class.std::locale::id"*, !dbg !9533 ; [#uses=1 type=%"class.std::locale::id"*] [debug line = 940:83]
  %6 = getelementptr inbounds %"class.std::locale::id"* %5, i32 0, i32 0, !dbg !9533 ; [#uses=1 type=i32*] [debug line = 940:83]
  %7 = load i32* %6, align 4, !dbg !9533          ; [#uses=1 type=i32] [debug line = 940:83]
  store i32 %7, i32* %__Val2__, align 4, !dbg !9533 ; [debug line = 940:83]
  %8 = bitcast i32* %__Result__ to i8*, !dbg !9534 ; [#uses=0 type=i8*] [debug line = 940:85]
  %9 = bitcast i32* %__Val2__ to i8*, !dbg !9534  ; [#uses=0 type=i8*] [debug line = 940:85]
  %10 = getelementptr inbounds %struct.ap_range_ref* %2, i32 0, i32 1, !dbg !9534 ; [#uses=1 type=i32*] [debug line = 940:85]
  %11 = load i32* %10, align 4, !dbg !9534        ; [#uses=1 type=i32] [debug line = 940:85]
  %12 = getelementptr inbounds %struct.ap_range_ref* %2, i32 0, i32 2, !dbg !9534 ; [#uses=1 type=i32*] [debug line = 940:85]
  %13 = load i32* %12, align 4, !dbg !9534        ; [#uses=1 type=i32] [debug line = 940:85]
  %14 = load i32* %__Val2__, !dbg !9534           ; [#uses=1 type=i32] [debug line = 940:85]
  %15 = call i32 @llvm.part.select.i32(i32 %14, i32 %11, i32 %13), !dbg !9534 ; [#uses=1 type=i32] [debug line = 940:85]
  store i32 %15, i32* %__Result__, !dbg !9534     ; [debug line = 940:85]
  %16 = load i32* %__Result__, align 4, !dbg !9534 ; [#uses=1 type=i32] [debug line = 940:85]
  %17 = bitcast %struct.ap_int_base* %agg.result to %"class.std::locale::id"*, !dbg !9535 ; [#uses=1 type=%"class.std::locale::id"*] [debug line = 940:184]
  %18 = getelementptr inbounds %"class.std::locale::id"* %17, i32 0, i32 0, !dbg !9535 ; [#uses=1 type=i32*] [debug line = 940:184]
  store i32 %16, i32* %18, align 4, !dbg !9535    ; [debug line = 940:184]
  ret void, !dbg !9536                            ; [debug line = 941:9]
}

; [#uses=1]
define linkonce_odr void @_ZN11ap_int_baseILi32ELb0ELb1EEC1Ev(%struct.ap_int_base* %this) unnamed_addr nounwind inlinehint alwaysinline align 2 {
  %1 = alloca %struct.ap_int_base*, align 4       ; [#uses=2 type=%struct.ap_int_base**]
  store %struct.ap_int_base* %this, %struct.ap_int_base** %1, align 4
  call void @llvm.dbg.declare(metadata !{%struct.ap_int_base** %1}, metadata !9537), !dbg !9538 ; [debug line = 1439:42] [debug variable = this]
  %2 = load %struct.ap_int_base** %1              ; [#uses=1 type=%struct.ap_int_base*]
  call void @_ZN11ap_int_baseILi32ELb0ELb1EEC2Ev(%struct.ap_int_base* %2), !dbg !9539 ; [debug line = 1445:4]
  ret void, !dbg !9539                            ; [debug line = 1445:4]
}

; [#uses=1]
define linkonce_odr void @_ZN11ap_int_baseILi32ELb0ELb1EEC2Ev(%struct.ap_int_base* %this) unnamed_addr nounwind inlinehint alwaysinline align 2 {
  %1 = alloca %struct.ap_int_base*, align 4       ; [#uses=2 type=%struct.ap_int_base**]
  store %struct.ap_int_base* %this, %struct.ap_int_base** %1, align 4
  call void @llvm.dbg.declare(metadata !{%struct.ap_int_base** %1}, metadata !9540), !dbg !9541 ; [debug line = 1439:42] [debug variable = this]
  %2 = load %struct.ap_int_base** %1              ; [#uses=1 type=%struct.ap_int_base*]
  %3 = bitcast %struct.ap_int_base* %2 to %"class.std::locale::id"*, !dbg !9542 ; [#uses=1 type=%"class.std::locale::id"*] [debug line = 1439:56]
  call void @_ZN8ssdm_intILi32ELb0EEC2Ev(%"class.std::locale::id"* %3), !dbg !9542 ; [debug line = 1439:56]
  ret void, !dbg !9543                            ; [debug line = 1445:4]
}

; [#uses=1]
define linkonce_odr void @_ZN13ap_fixed_baseILi16ELi11ELb1EL9ap_q_mode5EL9ap_o_mode3ELi0EEC2ILi32ELb0EEERK11ap_int_baseIXT_EXT0_EXleT_Li64EEE(%struct.ap_int_base.6* %this, %struct.ap_int_base* %op) unnamed_addr nounwind inlinehint alwaysinline align 2 {
  %1 = alloca %struct.ap_int_base.6*, align 4     ; [#uses=2 type=%struct.ap_int_base.6**]
  %2 = alloca %struct.ap_int_base*, align 4       ; [#uses=2 type=%struct.ap_int_base**]
  %f_op = alloca %struct.ap_int_base, align 4     ; [#uses=3 type=%struct.ap_int_base*]
  %3 = alloca %struct.ap_int_base.6, align 2      ; [#uses=2 type=%struct.ap_int_base.6*]
  store %struct.ap_int_base.6* %this, %struct.ap_int_base.6** %1, align 4
  call void @llvm.dbg.declare(metadata !{%struct.ap_int_base.6** %1}, metadata !9545), !dbg !9546 ; [debug line = 782:43] [debug variable = this]
  store %struct.ap_int_base* %op, %struct.ap_int_base** %2, align 4
  call void @llvm.dbg.declare(metadata !{%struct.ap_int_base** %2}, metadata !9547), !dbg !9548 ; [debug line = 782:92] [debug variable = op]
  %4 = load %struct.ap_int_base.6** %1            ; [#uses=2 type=%struct.ap_int_base.6*]
  %5 = bitcast %struct.ap_int_base.6* %4 to %struct.ssdm_int.7*, !dbg !9549 ; [#uses=1 type=%struct.ssdm_int.7*] [debug line = 782:96]
  call void @_ZN8ssdm_intILi16ELb1EEC2Ev(%struct.ssdm_int.7* %5), !dbg !9549 ; [debug line = 782:96]
  call void @llvm.dbg.declare(metadata !{%struct.ap_int_base* %f_op}, metadata !9550), !dbg !9552 ; [debug line = 784:45] [debug variable = f_op]
  call void @_ZN13ap_fixed_baseILi32ELi32ELb0EL9ap_q_mode5EL9ap_o_mode3ELi0EEC1Ev(%struct.ap_int_base* %f_op), !dbg !9553 ; [debug line = 784:49]
  %6 = load %struct.ap_int_base** %2, align 4, !dbg !9554 ; [#uses=1 type=%struct.ap_int_base*] [debug line = 785:9]
  %7 = bitcast %struct.ap_int_base* %6 to %"class.std::locale::id"*, !dbg !9554 ; [#uses=1 type=%"class.std::locale::id"*] [debug line = 785:9]
  %8 = getelementptr inbounds %"class.std::locale::id"* %7, i32 0, i32 0, !dbg !9554 ; [#uses=1 type=i32*] [debug line = 785:9]
  %9 = load i32* %8, align 4, !dbg !9554          ; [#uses=1 type=i32] [debug line = 785:9]
  %10 = bitcast %struct.ap_int_base* %f_op to %"class.std::locale::id"*, !dbg !9554 ; [#uses=1 type=%"class.std::locale::id"*] [debug line = 785:9]
  %11 = getelementptr inbounds %"class.std::locale::id"* %10, i32 0, i32 0, !dbg !9554 ; [#uses=1 type=i32*] [debug line = 785:9]
  store i32 %9, i32* %11, align 4, !dbg !9554     ; [debug line = 785:9]
  call void @_ZN13ap_fixed_baseILi16ELi11ELb1EL9ap_q_mode5EL9ap_o_mode3ELi0EEC1ILi32ELi32ELb0ELS0_5ELS1_3ELi0EEERKS_IXT_EXT0_EXT1_EXT2_EXT3_EXT4_EE(%struct.ap_int_base.6* %3, %struct.ap_int_base* %f_op), !dbg !9555 ; [debug line = 786:9]
  %12 = call %struct.ap_int_base.6* @_ZN13ap_fixed_baseILi16ELi11ELb1EL9ap_q_mode5EL9ap_o_mode3ELi0EEaSERKS2_(%struct.ap_int_base.6* %4, %struct.ap_int_base.6* %3), !dbg !9555 ; [#uses=0 type=%struct.ap_int_base.6*] [debug line = 786:9]
  ret void, !dbg !9556                            ; [debug line = 787:5]
}

; [#uses=1]
define linkonce_odr void @_ZN13ap_fixed_baseILi32ELi32ELb0EL9ap_q_mode5EL9ap_o_mode3ELi0EEC1Ev(%struct.ap_int_base* %this) unnamed_addr nounwind inlinehint alwaysinline align 2 {
  %1 = alloca %struct.ap_int_base*, align 4       ; [#uses=2 type=%struct.ap_int_base**]
  store %struct.ap_int_base* %this, %struct.ap_int_base** %1, align 4
  call void @llvm.dbg.declare(metadata !{%struct.ap_int_base** %1}, metadata !9557), !dbg !9559 ; [debug line = 653:43] [debug variable = this]
  %2 = load %struct.ap_int_base** %1              ; [#uses=1 type=%struct.ap_int_base*]
  call void @_ZN13ap_fixed_baseILi32ELi32ELb0EL9ap_q_mode5EL9ap_o_mode3ELi0EEC2Ev(%struct.ap_int_base* %2), !dbg !9560 ; [debug line = 660:5]
  ret void, !dbg !9560                            ; [debug line = 660:5]
}

; [#uses=1]
define linkonce_odr void @_ZN13ap_fixed_baseILi16ELi11ELb1EL9ap_q_mode5EL9ap_o_mode3ELi0EEC1ILi32ELi32ELb0ELS0_5ELS1_3ELi0EEERKS_IXT_EXT0_EXT1_EXT2_EXT3_EXT4_EE(%struct.ap_int_base.6* %this, %struct.ap_int_base* %op) unnamed_addr nounwind align 2 {
  %1 = alloca %struct.ap_int_base.6*, align 4     ; [#uses=2 type=%struct.ap_int_base.6**]
  %2 = alloca %struct.ap_int_base*, align 4       ; [#uses=2 type=%struct.ap_int_base**]
  store %struct.ap_int_base.6* %this, %struct.ap_int_base.6** %1, align 4
  call void @llvm.dbg.declare(metadata !{%struct.ap_int_base.6** %1}, metadata !9561), !dbg !9562 ; [debug line = 663:31] [debug variable = this]
  store %struct.ap_int_base* %op, %struct.ap_int_base** %2, align 4
  call void @llvm.dbg.declare(metadata !{%struct.ap_int_base** %2}, metadata !9563), !dbg !9564 ; [debug line = 663:111] [debug variable = op]
  %3 = load %struct.ap_int_base.6** %1            ; [#uses=1 type=%struct.ap_int_base.6*]
  %4 = load %struct.ap_int_base** %2, !dbg !9565  ; [#uses=1 type=%struct.ap_int_base*] [debug line = 773:5]
  call void @_ZN13ap_fixed_baseILi16ELi11ELb1EL9ap_q_mode5EL9ap_o_mode3ELi0EEC2ILi32ELi32ELb0ELS0_5ELS1_3ELi0EEERKS_IXT_EXT0_EXT1_EXT2_EXT3_EXT4_EE(%struct.ap_int_base.6* %3, %struct.ap_int_base* %4), !dbg !9565 ; [debug line = 773:5]
  ret void, !dbg !9565                            ; [debug line = 773:5]
}

; [#uses=1]
define linkonce_odr void @_ZN13ap_fixed_baseILi16ELi11ELb1EL9ap_q_mode5EL9ap_o_mode3ELi0EEC2ILi32ELi32ELb0ELS0_5ELS1_3ELi0EEERKS_IXT_EXT0_EXT1_EXT2_EXT3_EXT4_EE(%struct.ap_int_base.6* %this, %struct.ap_int_base* %op) unnamed_addr nounwind align 2 {
  %1 = alloca %struct.ap_int_base.6*, align 4     ; [#uses=2 type=%struct.ap_int_base.6**]
  %2 = alloca %struct.ap_int_base*, align 4       ; [#uses=3 type=%struct.ap_int_base**]
  %carry = alloca i1, align 1                     ; [#uses=1 type=i1*]
  %sh_amt = alloca i32, align 4                   ; [#uses=3 type=i32*]
  %signbit = alloca i1, align 1                   ; [#uses=2 type=i1*]
  %__Result__ = alloca i32, align 4               ; [#uses=4 type=i32*]
  %__Val2__ = alloca i32, align 4                 ; [#uses=3 type=i32*]
  %isneg = alloca i1, align 1                     ; [#uses=1 type=i1*]
  store %struct.ap_int_base.6* %this, %struct.ap_int_base.6** %1, align 4
  call void @llvm.dbg.declare(metadata !{%struct.ap_int_base.6** %1}, metadata !9566), !dbg !9567 ; [debug line = 663:31] [debug variable = this]
  store %struct.ap_int_base* %op, %struct.ap_int_base** %2, align 4
  call void @llvm.dbg.declare(metadata !{%struct.ap_int_base** %2}, metadata !9568), !dbg !9569 ; [debug line = 663:111] [debug variable = op]
  %3 = load %struct.ap_int_base.6** %1            ; [#uses=5 type=%struct.ap_int_base.6*]
  %4 = bitcast %struct.ap_int_base.6* %3 to %struct.ssdm_int.7*, !dbg !9570 ; [#uses=1 type=%struct.ssdm_int.7*] [debug line = 663:115]
  call void @_ZN8ssdm_intILi16ELb1EEC2Ev(%struct.ssdm_int.7* %4), !dbg !9570 ; [debug line = 663:115]
  call void (...)* @_ssdm_InlineSelf(i32 0, i8* getelementptr inbounds ([1 x i8]* @.str, i32 0, i32 0)) nounwind, !dbg !9571 ; [debug line = 665:1]
  call void @llvm.dbg.declare(metadata !{i1* %carry}, metadata !9573), !dbg !9574 ; [debug line = 669:14] [debug variable = carry]
  store i1 false, i1* %carry, align 1, !dbg !9575 ; [debug line = 669:27]
  call void @llvm.dbg.declare(metadata !{i32* %sh_amt}, metadata !9576), !dbg !9577 ; [debug line = 674:18] [debug variable = sh_amt]
  store i32 5, i32* %sh_amt, align 4, !dbg !9578  ; [debug line = 674:65]
  call void @llvm.dbg.declare(metadata !{i1* %signbit}, metadata !9579), !dbg !9580 ; [debug line = 675:14] [debug variable = signbit]
  call void @llvm.dbg.declare(metadata !{i32* %__Result__}, metadata !9581), !dbg !9583 ; [debug line = 675:116] [debug variable = __Result__]
  store i32 0, i32* %__Result__, align 4, !dbg !9584 ; [debug line = 675:130]
  call void @llvm.dbg.declare(metadata !{i32* %__Val2__}, metadata !9585), !dbg !9586 ; [debug line = 675:221] [debug variable = __Val2__]
  %5 = load %struct.ap_int_base** %2, align 4, !dbg !9587 ; [#uses=1 type=%struct.ap_int_base*] [debug line = 675:0]
  %6 = bitcast %struct.ap_int_base* %5 to %"class.std::locale::id"*, !dbg !9587 ; [#uses=1 type=%"class.std::locale::id"*] [debug line = 675:0]
  %7 = getelementptr inbounds %"class.std::locale::id"* %6, i32 0, i32 0, !dbg !9587 ; [#uses=1 type=i32*] [debug line = 675:0]
  %8 = load i32* %7, align 4, !dbg !9587          ; [#uses=1 type=i32] [debug line = 675:0]
  store i32 %8, i32* %__Val2__, align 4, !dbg !9587 ; [debug line = 675:0]
  %9 = bitcast i32* %__Result__ to i8*, !dbg !9587 ; [#uses=0 type=i8*] [debug line = 675:0]
  %10 = bitcast i32* %__Val2__ to i8*, !dbg !9587 ; [#uses=0 type=i8*] [debug line = 675:0]
  %11 = load i32* %__Val2__, !dbg !9587           ; [#uses=1 type=i32] [debug line = 675:0]
  %12 = call i32 @llvm.part.select.i32(i32 %11, i32 31, i32 31), !dbg !9587 ; [#uses=1 type=i32] [debug line = 675:0]
  store i32 %12, i32* %__Result__, !dbg !9587     ; [debug line = 675:0]
  %13 = load i32* %__Result__, align 4, !dbg !9587 ; [#uses=1 type=i32] [debug line = 675:0]
  %14 = and i32 %13, 1, !dbg !9587                ; [#uses=1 type=i32] [debug line = 675:0]
  %15 = icmp ne i32 %14, 0, !dbg !9587            ; [#uses=1 type=i1] [debug line = 675:0]
  store i1 %15, i1* %signbit, align 1, !dbg !9587 ; [debug line = 675:0]
  call void @llvm.dbg.declare(metadata !{i1* %isneg}, metadata !9588), !dbg !9589 ; [debug line = 677:14] [debug variable = isneg]
  %16 = load i1* %signbit, align 1, !dbg !9590    ; [#uses=1 type=i1] [debug line = 677:39]
  br i1 %16, label %17, label %18, !dbg !9590     ; [debug line = 677:39]

; <label>:17                                      ; preds = %0
  br label %18

; <label>:18                                      ; preds = %17, %0
  %19 = phi i1 [ false, %0 ], [ false, %17 ]      ; [#uses=1 type=i1]
  store i1 %19, i1* %isneg, align 1
  %20 = load %struct.ap_int_base** %2, align 4, !dbg !9591 ; [#uses=1 type=%struct.ap_int_base*] [debug line = 701:13]
  %21 = bitcast %struct.ap_int_base* %20 to %"class.std::locale::id"*, !dbg !9591 ; [#uses=1 type=%"class.std::locale::id"*] [debug line = 701:13]
  %22 = getelementptr inbounds %"class.std::locale::id"* %21, i32 0, i32 0, !dbg !9591 ; [#uses=1 type=i32*] [debug line = 701:13]
  %23 = load i32* %22, align 4, !dbg !9591        ; [#uses=1 type=i32] [debug line = 701:13]
  %24 = trunc i32 %23 to i16, !dbg !9591          ; [#uses=1 type=i16] [debug line = 701:13]
  %25 = bitcast %struct.ap_int_base.6* %3 to %struct.ssdm_int.7*, !dbg !9591 ; [#uses=1 type=%struct.ssdm_int.7*] [debug line = 701:13]
  %26 = getelementptr inbounds %struct.ssdm_int.7* %25, i32 0, i32 0, !dbg !9591 ; [#uses=1 type=i16*] [debug line = 701:13]
  store i16 %24, i16* %26, align 2, !dbg !9591    ; [debug line = 701:13]
  %27 = load i32* %sh_amt, align 4, !dbg !9593    ; [#uses=1 type=i32] [debug line = 702:13]
  %28 = icmp ult i32 %27, 16, !dbg !9593          ; [#uses=1 type=i1] [debug line = 702:13]
  br i1 %28, label %29, label %39, !dbg !9593     ; [debug line = 702:13]

; <label>:29                                      ; preds = %18
  %30 = bitcast %struct.ap_int_base.6* %3 to %struct.ssdm_int.7*, !dbg !9594 ; [#uses=1 type=%struct.ssdm_int.7*] [debug line = 703:17]
  %31 = getelementptr inbounds %struct.ssdm_int.7* %30, i32 0, i32 0, !dbg !9594 ; [#uses=1 type=i16*] [debug line = 703:17]
  %32 = load i16* %31, align 2, !dbg !9594        ; [#uses=1 type=i16] [debug line = 703:17]
  %33 = sext i16 %32 to i32, !dbg !9594           ; [#uses=1 type=i32] [debug line = 703:17]
  %34 = load i32* %sh_amt, align 4, !dbg !9594    ; [#uses=1 type=i32] [debug line = 703:17]
  %35 = shl i32 %33, %34, !dbg !9594              ; [#uses=1 type=i32] [debug line = 703:17]
  %36 = trunc i32 %35 to i16, !dbg !9594          ; [#uses=1 type=i16] [debug line = 703:17]
  %37 = bitcast %struct.ap_int_base.6* %3 to %struct.ssdm_int.7*, !dbg !9594 ; [#uses=1 type=%struct.ssdm_int.7*] [debug line = 703:17]
  %38 = getelementptr inbounds %struct.ssdm_int.7* %37, i32 0, i32 0, !dbg !9594 ; [#uses=1 type=i16*] [debug line = 703:17]
  store i16 %36, i16* %38, align 2, !dbg !9594    ; [debug line = 703:17]
  br label %42, !dbg !9594                        ; [debug line = 703:17]

; <label>:39                                      ; preds = %18
  %40 = bitcast %struct.ap_int_base.6* %3 to %struct.ssdm_int.7*, !dbg !9595 ; [#uses=1 type=%struct.ssdm_int.7*] [debug line = 705:17]
  %41 = getelementptr inbounds %struct.ssdm_int.7* %40, i32 0, i32 0, !dbg !9595 ; [#uses=1 type=i16*] [debug line = 705:17]
  store i16 0, i16* %41, align 2, !dbg !9595      ; [debug line = 705:17]
  br label %42

; <label>:42                                      ; preds = %39, %29
  ret void, !dbg !9596                            ; [debug line = 773:5]
}

; [#uses=1]
define linkonce_odr void @_ZN13ap_fixed_baseILi32ELi32ELb0EL9ap_q_mode5EL9ap_o_mode3ELi0EEC2Ev(%struct.ap_int_base* %this) unnamed_addr nounwind inlinehint alwaysinline align 2 {
  %1 = alloca %struct.ap_int_base*, align 4       ; [#uses=2 type=%struct.ap_int_base**]
  store %struct.ap_int_base* %this, %struct.ap_int_base** %1, align 4
  call void @llvm.dbg.declare(metadata !{%struct.ap_int_base** %1}, metadata !9597), !dbg !9598 ; [debug line = 653:43] [debug variable = this]
  %2 = load %struct.ap_int_base** %1              ; [#uses=1 type=%struct.ap_int_base*]
  %3 = bitcast %struct.ap_int_base* %2 to %"class.std::locale::id"*, !dbg !9599 ; [#uses=1 type=%"class.std::locale::id"*] [debug line = 653:59]
  call void @_ZN8ssdm_intILi32ELb0EEC2Ev(%"class.std::locale::id"* %3), !dbg !9599 ; [debug line = 653:59]
  ret void, !dbg !9600                            ; [debug line = 660:5]
}

; [#uses=1]
define linkonce_odr void @_ZN12ap_range_refILi32ELb1EEC1EP11ap_int_baseILi32ELb1ELb1EEii(%struct.ap_range_ref* %this, %struct.ap_int_base* %bv, i32 %h, i32 %l) unnamed_addr nounwind inlinehint alwaysinline align 2 {
  %1 = alloca %struct.ap_range_ref*, align 4      ; [#uses=2 type=%struct.ap_range_ref**]
  %2 = alloca %struct.ap_int_base*, align 4       ; [#uses=2 type=%struct.ap_int_base**]
  %3 = alloca i32, align 4                        ; [#uses=2 type=i32*]
  %4 = alloca i32, align 4                        ; [#uses=2 type=i32*]
  store %struct.ap_range_ref* %this, %struct.ap_range_ref** %1, align 4
  call void @llvm.dbg.declare(metadata !{%struct.ap_range_ref** %1}, metadata !9602), !dbg !9603 ; [debug line = 933:43] [debug variable = this]
  store %struct.ap_int_base* %bv, %struct.ap_int_base** %2, align 4
  call void @llvm.dbg.declare(metadata !{%struct.ap_int_base** %2}, metadata !9604), !dbg !9605 ; [debug line = 933:82] [debug variable = bv]
  store i32 %h, i32* %3, align 4
  call void @llvm.dbg.declare(metadata !{i32* %3}, metadata !9606), !dbg !9607 ; [debug line = 933:90] [debug variable = h]
  store i32 %l, i32* %4, align 4
  call void @llvm.dbg.declare(metadata !{i32* %4}, metadata !9608), !dbg !9609 ; [debug line = 933:97] [debug variable = l]
  %5 = load %struct.ap_range_ref** %1             ; [#uses=1 type=%struct.ap_range_ref*]
  %6 = load %struct.ap_int_base** %2, align 4, !dbg !9610 ; [#uses=1 type=%struct.ap_int_base*] [debug line = 936:5]
  %7 = load i32* %3, align 4, !dbg !9610          ; [#uses=1 type=i32] [debug line = 936:5]
  %8 = load i32* %4, align 4, !dbg !9610          ; [#uses=1 type=i32] [debug line = 936:5]
  call void @_ZN12ap_range_refILi32ELb1EEC2EP11ap_int_baseILi32ELb1ELb1EEii(%struct.ap_range_ref* %5, %struct.ap_int_base* %6, i32 %7, i32 %8), !dbg !9610 ; [debug line = 936:5]
  ret void, !dbg !9610                            ; [debug line = 936:5]
}

; [#uses=1]
define linkonce_odr void @_ZN12ap_range_refILi32ELb1EEC2EP11ap_int_baseILi32ELb1ELb1EEii(%struct.ap_range_ref* %this, %struct.ap_int_base* %bv, i32 %h, i32 %l) unnamed_addr nounwind inlinehint alwaysinline align 2 {
  %1 = alloca %struct.ap_range_ref*, align 4      ; [#uses=2 type=%struct.ap_range_ref**]
  %2 = alloca %struct.ap_int_base*, align 4       ; [#uses=2 type=%struct.ap_int_base**]
  %3 = alloca i32, align 4                        ; [#uses=2 type=i32*]
  %4 = alloca i32, align 4                        ; [#uses=2 type=i32*]
  store %struct.ap_range_ref* %this, %struct.ap_range_ref** %1, align 4
  call void @llvm.dbg.declare(metadata !{%struct.ap_range_ref** %1}, metadata !9611), !dbg !9612 ; [debug line = 933:43] [debug variable = this]
  store %struct.ap_int_base* %bv, %struct.ap_int_base** %2, align 4
  call void @llvm.dbg.declare(metadata !{%struct.ap_int_base** %2}, metadata !9613), !dbg !9614 ; [debug line = 933:82] [debug variable = bv]
  store i32 %h, i32* %3, align 4
  call void @llvm.dbg.declare(metadata !{i32* %3}, metadata !9615), !dbg !9616 ; [debug line = 933:90] [debug variable = h]
  store i32 %l, i32* %4, align 4
  call void @llvm.dbg.declare(metadata !{i32* %4}, metadata !9617), !dbg !9618 ; [debug line = 933:97] [debug variable = l]
  %5 = load %struct.ap_range_ref** %1             ; [#uses=3 type=%struct.ap_range_ref*]
  %6 = getelementptr inbounds %struct.ap_range_ref* %5, i32 0, i32 0, !dbg !9619 ; [#uses=1 type=%struct.ap_int_base**] [debug line = 934:43]
  %7 = load %struct.ap_int_base** %2, align 4, !dbg !9619 ; [#uses=1 type=%struct.ap_int_base*] [debug line = 934:43]
  store %struct.ap_int_base* %7, %struct.ap_int_base** %6, align 4, !dbg !9619 ; [debug line = 934:43]
  %8 = getelementptr inbounds %struct.ap_range_ref* %5, i32 0, i32 1, !dbg !9619 ; [#uses=1 type=i32*] [debug line = 934:43]
  %9 = load i32* %4, align 4, !dbg !9619          ; [#uses=1 type=i32] [debug line = 934:43]
  store i32 %9, i32* %8, align 4, !dbg !9619      ; [debug line = 934:43]
  %10 = getelementptr inbounds %struct.ap_range_ref* %5, i32 0, i32 2, !dbg !9619 ; [#uses=1 type=i32*] [debug line = 934:43]
  %11 = load i32* %3, align 4, !dbg !9619         ; [#uses=1 type=i32] [debug line = 934:43]
  store i32 %11, i32* %10, align 4, !dbg !9619    ; [debug line = 934:43]
  ret void, !dbg !9620                            ; [debug line = 936:5]
}

; [#uses=1]
declare void @_ssdm_StreamRead(...) nounwind

; [#uses=1]
define linkonce_odr %struct.rfnoc_axis* @_ZN10rfnoc_axisaSERKS_(%struct.rfnoc_axis* %this, %struct.rfnoc_axis*) nounwind inlinehint align 2 {
  %2 = alloca %struct.rfnoc_axis*, align 4        ; [#uses=2 type=%struct.rfnoc_axis**]
  %3 = alloca %struct.rfnoc_axis*, align 4        ; [#uses=3 type=%struct.rfnoc_axis**]
  store %struct.rfnoc_axis* %this, %struct.rfnoc_axis** %2, align 4
  call void @llvm.dbg.declare(metadata !{%struct.rfnoc_axis** %2}, metadata !9622), !dbg !9623 ; [debug line = 28:9] [debug variable = this]
  store %struct.rfnoc_axis* %0, %struct.rfnoc_axis** %3, align 4
  %4 = load %struct.rfnoc_axis** %2               ; [#uses=3 type=%struct.rfnoc_axis*]
  %5 = getelementptr inbounds %struct.rfnoc_axis* %4, i32 0, i32 0, !dbg !9624 ; [#uses=1 type=%struct.ap_int*] [debug line = 28:9]
  %6 = load %struct.rfnoc_axis** %3, align 4, !dbg !9624 ; [#uses=1 type=%struct.rfnoc_axis*] [debug line = 28:9]
  %7 = getelementptr inbounds %struct.rfnoc_axis* %6, i32 0, i32 0, !dbg !9624 ; [#uses=1 type=%struct.ap_int*] [debug line = 28:9]
  %8 = call %struct.ap_int* @_ZN6ap_intILi32EEaSERKS0_(%struct.ap_int* %5, %struct.ap_int* %7), !dbg !9624 ; [#uses=0 type=%struct.ap_int*] [debug line = 28:9]
  %9 = getelementptr inbounds %struct.rfnoc_axis* %4, i32 0, i32 1, !dbg !9624 ; [#uses=1 type=%struct.ap_uint*] [debug line = 28:9]
  %10 = load %struct.rfnoc_axis** %3, align 4, !dbg !9624 ; [#uses=1 type=%struct.rfnoc_axis*] [debug line = 28:9]
  %11 = getelementptr inbounds %struct.rfnoc_axis* %10, i32 0, i32 1, !dbg !9624 ; [#uses=1 type=%struct.ap_uint*] [debug line = 28:9]
  %12 = call %struct.ap_uint* @_ZN7ap_uintILi1EEaSERKS0_(%struct.ap_uint* %9, %struct.ap_uint* %11), !dbg !9624 ; [#uses=0 type=%struct.ap_uint*] [debug line = 28:9]
  ret %struct.rfnoc_axis* %4, !dbg !9624          ; [debug line = 28:9]
}

; [#uses=1]
define linkonce_odr %struct.ap_int* @_ZN6ap_intILi32EEaSERKS0_(%struct.ap_int* %this, %struct.ap_int* %op2) nounwind inlinehint alwaysinline align 2 {
  %1 = alloca %struct.ap_int*, align 4            ; [#uses=2 type=%struct.ap_int**]
  %2 = alloca %struct.ap_int*, align 4            ; [#uses=2 type=%struct.ap_int**]
  store %struct.ap_int* %this, %struct.ap_int** %1, align 4
  call void @llvm.dbg.declare(metadata !{%struct.ap_int** %1}, metadata !9626), !dbg !9628 ; [debug line = 173:52] [debug variable = this]
  store %struct.ap_int* %op2, %struct.ap_int** %2, align 4
  call void @llvm.dbg.declare(metadata !{%struct.ap_int** %2}, metadata !9629), !dbg !9630 ; [debug line = 173:85] [debug variable = op2]
  %3 = load %struct.ap_int** %1                   ; [#uses=2 type=%struct.ap_int*]
  %4 = load %struct.ap_int** %2, align 4, !dbg !9631 ; [#uses=1 type=%struct.ap_int*] [debug line = 174:10]
  %5 = bitcast %struct.ap_int* %4 to %"class.std::locale::id"*, !dbg !9631 ; [#uses=1 type=%"class.std::locale::id"*] [debug line = 174:10]
  %6 = getelementptr inbounds %"class.std::locale::id"* %5, i32 0, i32 0, !dbg !9631 ; [#uses=1 type=i32*] [debug line = 174:10]
  %7 = load i32* %6, align 4, !dbg !9631          ; [#uses=1 type=i32] [debug line = 174:10]
  %8 = bitcast %struct.ap_int* %3 to %struct.ap_int_base*, !dbg !9631 ; [#uses=1 type=%struct.ap_int_base*] [debug line = 174:10]
  %9 = bitcast %struct.ap_int_base* %8 to %"class.std::locale::id"*, !dbg !9631 ; [#uses=1 type=%"class.std::locale::id"*] [debug line = 174:10]
  %10 = getelementptr inbounds %"class.std::locale::id"* %9, i32 0, i32 0, !dbg !9631 ; [#uses=1 type=i32*] [debug line = 174:10]
  store i32 %7, i32* %10, align 4, !dbg !9631     ; [debug line = 174:10]
  ret %struct.ap_int* %3, !dbg !9633              ; [debug line = 175:10]
}

; [#uses=1]
define linkonce_odr %struct.ap_uint* @_ZN7ap_uintILi1EEaSERKS0_(%struct.ap_uint* %this, %struct.ap_uint* %op2) nounwind inlinehint alwaysinline align 2 {
  %1 = alloca %struct.ap_uint*, align 4           ; [#uses=2 type=%struct.ap_uint**]
  %2 = alloca %struct.ap_uint*, align 4           ; [#uses=2 type=%struct.ap_uint**]
  store %struct.ap_uint* %this, %struct.ap_uint** %1, align 4
  call void @llvm.dbg.declare(metadata !{%struct.ap_uint** %1}, metadata !9634), !dbg !9635 ; [debug line = 279:53] [debug variable = this]
  store %struct.ap_uint* %op2, %struct.ap_uint** %2, align 4
  call void @llvm.dbg.declare(metadata !{%struct.ap_uint** %2}, metadata !9636), !dbg !9637 ; [debug line = 279:87] [debug variable = op2]
  %3 = load %struct.ap_uint** %1                  ; [#uses=2 type=%struct.ap_uint*]
  %4 = load %struct.ap_uint** %2, align 4, !dbg !9638 ; [#uses=1 type=%struct.ap_uint*] [debug line = 280:10]
  %5 = bitcast %struct.ap_uint* %4 to %struct.ssdm_int.1*, !dbg !9638 ; [#uses=1 type=%struct.ssdm_int.1*] [debug line = 280:10]
  %6 = getelementptr inbounds %struct.ssdm_int.1* %5, i32 0, i32 0, !dbg !9638 ; [#uses=1 type=i1*] [debug line = 280:10]
  %7 = load i1* %6, align 1, !dbg !9638           ; [#uses=1 type=i1] [debug line = 280:10]
  %8 = bitcast %struct.ap_uint* %3 to %struct.ap_int_base.0*, !dbg !9638 ; [#uses=1 type=%struct.ap_int_base.0*] [debug line = 280:10]
  %9 = bitcast %struct.ap_int_base.0* %8 to %struct.ssdm_int.1*, !dbg !9638 ; [#uses=1 type=%struct.ssdm_int.1*] [debug line = 280:10]
  %10 = getelementptr inbounds %struct.ssdm_int.1* %9, i32 0, i32 0, !dbg !9638 ; [#uses=1 type=i1*] [debug line = 280:10]
  store i1 %7, i1* %10, align 1, !dbg !9638       ; [debug line = 280:10]
  ret %struct.ap_uint* %3, !dbg !9640             ; [debug line = 281:10]
}

; [#uses=1]
define linkonce_odr void @_ZN8ap_fixedILi16ELi11EL9ap_q_mode5EL9ap_o_mode3ELi0EEC2Ed(%struct.ap_int.5* %this, double %v) unnamed_addr nounwind inlinehint alwaysinline align 2 {
  %1 = alloca %struct.ap_int.5*, align 4          ; [#uses=2 type=%struct.ap_int.5**]
  %2 = alloca double, align 8                     ; [#uses=2 type=double*]
  store %struct.ap_int.5* %this, %struct.ap_int.5** %1, align 4
  call void @llvm.dbg.declare(metadata !{%struct.ap_int.5** %1}, metadata !9641), !dbg !9642 ; [debug line = 378:43] [debug variable = this]
  store double %v, double* %2, align 8
  call void @llvm.dbg.declare(metadata !{double* %2}, metadata !9643), !dbg !9644 ; [debug line = 378:59] [debug variable = v]
  %3 = load %struct.ap_int.5** %1                 ; [#uses=1 type=%struct.ap_int.5*]
  %4 = bitcast %struct.ap_int.5* %3 to %struct.ap_int_base.6*, !dbg !9645 ; [#uses=1 type=%struct.ap_int_base.6*] [debug line = 378:70]
  %5 = load double* %2, align 8, !dbg !9645       ; [#uses=1 type=double] [debug line = 378:70]
  call void @_ZN13ap_fixed_baseILi16ELi11ELb1EL9ap_q_mode5EL9ap_o_mode3ELi0EEC2Ed(%struct.ap_int_base.6* %4, double %5), !dbg !9645 ; [debug line = 378:70]
  ret void, !dbg !9646                            ; [debug line = 378:71]
}

; [#uses=1]
define linkonce_odr void @_ZN13ap_fixed_baseILi16ELi11ELb1EL9ap_q_mode5EL9ap_o_mode3ELi0EEC2Ed(%struct.ap_int_base.6* %this, double %d) unnamed_addr nounwind align 2 {
  %1 = alloca %struct.ap_int_base.6*, align 4     ; [#uses=2 type=%struct.ap_int_base.6**]
  %2 = alloca double, align 8                     ; [#uses=2 type=double*]
  %ireg = alloca %struct.ap_int_base.25, align 8  ; [#uses=6 type=%struct.ap_int_base.25*]
  %isneg = alloca i1, align 1                     ; [#uses=3 type=i1*]
  %__Result__ = alloca i64, align 8               ; [#uses=4 type=i64*]
  %__Val2__ = alloca i64, align 8                 ; [#uses=3 type=i64*]
  %exp = alloca %struct.ap_int_base.27, align 2   ; [#uses=3 type=%struct.ap_int_base.27*]
  %exp_tmp = alloca %struct.ap_int_base.29, align 2 ; [#uses=3 type=%struct.ap_int_base.29*]
  %__Result__1 = alloca i64, align 8              ; [#uses=4 type=i64*]
  %__Val2__2 = alloca i64, align 8                ; [#uses=3 type=i64*]
  %3 = alloca %struct.ap_fixed_base.8, align 8    ; [#uses=2 type=%struct.ap_fixed_base.8*]
  %man = alloca %struct.ap_int_base.32, align 8   ; [#uses=9 type=%struct.ap_int_base.32*]
  %__Result__3 = alloca i64, align 8              ; [#uses=4 type=i64*]
  %__Val2__4 = alloca i64, align 8                ; [#uses=3 type=i64*]
  %__Result__5 = alloca i54, align 8              ; [#uses=4 type=i54*]
  %__Val2__6 = alloca i54, align 8                ; [#uses=3 type=i54*]
  %__Repl2__ = alloca i32, align 4                ; [#uses=3 type=i32*]
  %4 = alloca %struct.ap_int_base.34, align 8     ; [#uses=2 type=%struct.ap_int_base.34*]
  %_AP_W2 = alloca i32, align 4                   ; [#uses=2 type=i32*]
  %_AP_I2 = alloca i32, align 4                   ; [#uses=2 type=i32*]
  %_AP_F = alloca i32, align 4                    ; [#uses=7 type=i32*]
  %F2 = alloca i32, align 4                       ; [#uses=7 type=i32*]
  %_AP_S2 = alloca i1, align 1                    ; [#uses=1 type=i1*]
  %QUAN_INC = alloca i1, align 1                  ; [#uses=1 type=i1*]
  %carry = alloca i1, align 1                     ; [#uses=1 type=i1*]
  %sh_amt = alloca i32, align 4                   ; [#uses=5 type=i32*]
  store %struct.ap_int_base.6* %this, %struct.ap_int_base.6** %1, align 4
  call void @llvm.dbg.declare(metadata !{%struct.ap_int_base.6** %1}, metadata !9648), !dbg !9649 ; [debug line = 901:31] [debug variable = this]
  store double %d, double* %2, align 8
  call void @llvm.dbg.declare(metadata !{double* %2}, metadata !9650), !dbg !9651 ; [debug line = 901:52] [debug variable = d]
  %5 = load %struct.ap_int_base.6** %1            ; [#uses=11 type=%struct.ap_int_base.6*]
  %6 = bitcast %struct.ap_int_base.6* %5 to %struct.ssdm_int.7*, !dbg !9652 ; [#uses=1 type=%struct.ssdm_int.7*] [debug line = 901:55]
  call void @_ZN8ssdm_intILi16ELb1EEC2Ev(%struct.ssdm_int.7* %6), !dbg !9652 ; [debug line = 901:55]
  call void (...)* @_ssdm_InlineSelf(i32 0, i8* getelementptr inbounds ([1 x i8]* @.str, i32 0, i32 0)) nounwind, !dbg !9653 ; [debug line = 903:1]
  call void @llvm.dbg.declare(metadata !{%struct.ap_int_base.25* %ireg}, metadata !9655), !dbg !9656 ; [debug line = 905:31] [debug variable = ireg]
  call void @_ZN11ap_int_baseILi64ELb0ELb1EEC1Ev(%struct.ap_int_base.25* %ireg), !dbg !9657 ; [debug line = 905:35]
  %7 = load double* %2, align 8, !dbg !9658       ; [#uses=1 type=double] [debug line = 906:18]
  %8 = call i64 @_ZNK13ap_fixed_baseILi16ELi11ELb1EL9ap_q_mode5EL9ap_o_mode3ELi0EE15doubleToRawBitsEd(%struct.ap_int_base.6* %5, double %7), !dbg !9658 ; [#uses=1 type=i64] [debug line = 906:18]
  %9 = bitcast %struct.ap_int_base.25* %ireg to %struct.ssdm_int.26*, !dbg !9658 ; [#uses=1 type=%struct.ssdm_int.26*] [debug line = 906:18]
  %10 = getelementptr inbounds %struct.ssdm_int.26* %9, i32 0, i32 0, !dbg !9658 ; [#uses=1 type=i64*] [debug line = 906:18]
  store i64 %8, i64* %10, align 8, !dbg !9658     ; [debug line = 906:18]
  call void @llvm.dbg.declare(metadata !{i1* %isneg}, metadata !9659), !dbg !9660 ; [debug line = 907:14] [debug variable = isneg]
  call void @llvm.dbg.declare(metadata !{i64* %__Result__}, metadata !9661), !dbg !9663 ; [debug line = 907:40] [debug variable = __Result__]
  store i64 0, i64* %__Result__, align 8, !dbg !9664 ; [debug line = 907:54]
  call void @llvm.dbg.declare(metadata !{i64* %__Val2__}, metadata !9665), !dbg !9666 ; [debug line = 907:71] [debug variable = __Val2__]
  %11 = bitcast %struct.ap_int_base.25* %ireg to %struct.ssdm_int.26*, !dbg !9667 ; [#uses=1 type=%struct.ssdm_int.26*] [debug line = 907:88]
  %12 = getelementptr inbounds %struct.ssdm_int.26* %11, i32 0, i32 0, !dbg !9667 ; [#uses=1 type=i64*] [debug line = 907:88]
  %13 = load i64* %12, align 8, !dbg !9667        ; [#uses=1 type=i64] [debug line = 907:88]
  store i64 %13, i64* %__Val2__, align 8, !dbg !9667 ; [debug line = 907:88]
  %14 = bitcast i64* %__Result__ to i8*, !dbg !9668 ; [#uses=0 type=i8*] [debug line = 907:90]
  %15 = bitcast i64* %__Val2__ to i8*, !dbg !9668 ; [#uses=0 type=i8*] [debug line = 907:90]
  %16 = load i64* %__Val2__, !dbg !9668           ; [#uses=1 type=i64] [debug line = 907:90]
  %17 = call i64 @llvm.part.select.i64(i64 %16, i32 63, i32 63), !dbg !9668 ; [#uses=1 type=i64] [debug line = 907:90]
  store i64 %17, i64* %__Result__, !dbg !9668     ; [debug line = 907:90]
  %18 = load i64* %__Result__, align 8, !dbg !9668 ; [#uses=1 type=i64] [debug line = 907:90]
  %19 = and i64 %18, 1, !dbg !9668                ; [#uses=1 type=i64] [debug line = 907:90]
  %20 = icmp ne i64 %19, 0, !dbg !9668            ; [#uses=1 type=i1] [debug line = 907:90]
  store i1 %20, i1* %isneg, align 1, !dbg !9669   ; [debug line = 907:191]
  call void @llvm.dbg.declare(metadata !{%struct.ap_int_base.27* %exp}, metadata !9670), !dbg !9671 ; [debug line = 909:35] [debug variable = exp]
  call void @_ZN11ap_int_baseILi12ELb1ELb1EEC1Ev(%struct.ap_int_base.27* %exp), !dbg !9672 ; [debug line = 909:38]
  call void @llvm.dbg.declare(metadata !{%struct.ap_int_base.29* %exp_tmp}, metadata !9673), !dbg !9674 ; [debug line = 910:32] [debug variable = exp_tmp]
  call void @_ZN11ap_int_baseILi11ELb0ELb1EEC1Ev(%struct.ap_int_base.29* %exp_tmp), !dbg !9675 ; [debug line = 910:39]
  call void @llvm.dbg.declare(metadata !{i64* %__Result__1}, metadata !9676), !dbg !9678 ; [debug line = 911:39] [debug variable = __Result__]
  store i64 0, i64* %__Result__1, align 8, !dbg !9679 ; [debug line = 911:53]
  call void @llvm.dbg.declare(metadata !{i64* %__Val2__2}, metadata !9680), !dbg !9681 ; [debug line = 911:70] [debug variable = __Val2__]
  %21 = bitcast %struct.ap_int_base.25* %ireg to %struct.ssdm_int.26*, !dbg !9682 ; [#uses=1 type=%struct.ssdm_int.26*] [debug line = 911:87]
  %22 = getelementptr inbounds %struct.ssdm_int.26* %21, i32 0, i32 0, !dbg !9682 ; [#uses=1 type=i64*] [debug line = 911:87]
  %23 = load i64* %22, align 8, !dbg !9682        ; [#uses=1 type=i64] [debug line = 911:87]
  store i64 %23, i64* %__Val2__2, align 8, !dbg !9682 ; [debug line = 911:87]
  %24 = bitcast i64* %__Result__1 to i8*, !dbg !9683 ; [#uses=0 type=i8*] [debug line = 911:89]
  %25 = bitcast i64* %__Val2__2 to i8*, !dbg !9683 ; [#uses=0 type=i8*] [debug line = 911:89]
  %26 = load i64* %__Val2__2, !dbg !9683          ; [#uses=1 type=i64] [debug line = 911:89]
  %27 = call i64 @llvm.part.select.i64(i64 %26, i32 52, i32 62), !dbg !9683 ; [#uses=1 type=i64] [debug line = 911:89]
  store i64 %27, i64* %__Result__1, !dbg !9683    ; [debug line = 911:89]
  %28 = load i64* %__Result__1, align 8, !dbg !9683 ; [#uses=1 type=i64] [debug line = 911:89]
  %29 = trunc i64 %28 to i11, !dbg !9684          ; [#uses=1 type=i11] [debug line = 911:186]
  %30 = bitcast %struct.ap_int_base.29* %exp_tmp to %struct.ssdm_int.30*, !dbg !9684 ; [#uses=1 type=%struct.ssdm_int.30*] [debug line = 911:186]
  %31 = getelementptr inbounds %struct.ssdm_int.30* %30, i32 0, i32 0, !dbg !9684 ; [#uses=1 type=i11*] [debug line = 911:186]
  store i11 %29, i11* %31, align 2, !dbg !9684    ; [debug line = 911:186]
  call void @_ZmiILi11ELb0EEN11ap_int_baseIXT_EXT0_EXleT_Li64EEE5RTypeIXLi32EEXLb1EEE5minusERKS1_i(%struct.ap_fixed_base.8* sret %3, %struct.ap_int_base.29* %exp_tmp, i32 1023), !dbg !9685 ; [debug line = 913:15]
  %32 = call %struct.ap_int_base.27* @_ZN11ap_int_baseILi12ELb1ELb1EEaSILi33ELb1EEERS0_RKS_IXT_EXT0_EXleT_Li64EEE(%struct.ap_int_base.27* %exp, %struct.ap_fixed_base.8* %3), !dbg !9685 ; [#uses=0 type=%struct.ap_int_base.27*] [debug line = 913:15]
  call void @llvm.dbg.declare(metadata !{%struct.ap_int_base.32* %man}, metadata !9686), !dbg !9687 ; [debug line = 914:35] [debug variable = man]
  call void @_ZN11ap_int_baseILi54ELb1ELb1EEC1Ev(%struct.ap_int_base.32* %man), !dbg !9688 ; [debug line = 914:38]
  call void @llvm.dbg.declare(metadata !{i64* %__Result__3}, metadata !9689), !dbg !9691 ; [debug line = 915:35] [debug variable = __Result__]
  store i64 0, i64* %__Result__3, align 8, !dbg !9692 ; [debug line = 915:49]
  call void @llvm.dbg.declare(metadata !{i64* %__Val2__4}, metadata !9693), !dbg !9694 ; [debug line = 915:66] [debug variable = __Val2__]
  %33 = bitcast %struct.ap_int_base.25* %ireg to %struct.ssdm_int.26*, !dbg !9695 ; [#uses=1 type=%struct.ssdm_int.26*] [debug line = 915:83]
  %34 = getelementptr inbounds %struct.ssdm_int.26* %33, i32 0, i32 0, !dbg !9695 ; [#uses=1 type=i64*] [debug line = 915:83]
  %35 = load i64* %34, align 8, !dbg !9695        ; [#uses=1 type=i64] [debug line = 915:83]
  store i64 %35, i64* %__Val2__4, align 8, !dbg !9695 ; [debug line = 915:83]
  %36 = bitcast i64* %__Result__3 to i8*, !dbg !9696 ; [#uses=0 type=i8*] [debug line = 915:85]
  %37 = bitcast i64* %__Val2__4 to i8*, !dbg !9696 ; [#uses=0 type=i8*] [debug line = 915:85]
  %38 = load i64* %__Val2__4, !dbg !9696          ; [#uses=1 type=i64] [debug line = 915:85]
  %39 = call i64 @llvm.part.select.i64(i64 %38, i32 0, i32 51), !dbg !9696 ; [#uses=1 type=i64] [debug line = 915:85]
  store i64 %39, i64* %__Result__3, !dbg !9696    ; [debug line = 915:85]
  %40 = load i64* %__Result__3, align 8, !dbg !9696 ; [#uses=1 type=i64] [debug line = 915:85]
  %41 = trunc i64 %40 to i54, !dbg !9697          ; [#uses=1 type=i54] [debug line = 915:177]
  %42 = bitcast %struct.ap_int_base.32* %man to %struct.ssdm_int.33*, !dbg !9697 ; [#uses=1 type=%struct.ssdm_int.33*] [debug line = 915:177]
  %43 = getelementptr inbounds %struct.ssdm_int.33* %42, i32 0, i32 0, !dbg !9697 ; [#uses=1 type=i54*] [debug line = 915:177]
  store i54 %41, i54* %43, align 8, !dbg !9697    ; [debug line = 915:177]
  call void @llvm.dbg.declare(metadata !{i54* %__Result__5}, metadata !9698), !dbg !9700 ; [debug line = 919:34] [debug variable = __Result__]
  store i54 0, i54* %__Result__5, align 8, !dbg !9701 ; [debug line = 919:48]
  call void @llvm.dbg.declare(metadata !{i54* %__Val2__6}, metadata !9702), !dbg !9703 ; [debug line = 919:64] [debug variable = __Val2__]
  %44 = bitcast %struct.ap_int_base.32* %man to %struct.ssdm_int.33*, !dbg !9704 ; [#uses=1 type=%struct.ssdm_int.33*] [debug line = 919:80]
  %45 = getelementptr inbounds %struct.ssdm_int.33* %44, i32 0, i32 0, !dbg !9704 ; [#uses=1 type=i54*] [debug line = 919:80]
  %46 = load i54* %45, align 8, !dbg !9704        ; [#uses=1 type=i54] [debug line = 919:80]
  store i54 %46, i54* %__Val2__6, align 8, !dbg !9704 ; [debug line = 919:80]
  call void @llvm.dbg.declare(metadata !{i32* %__Repl2__}, metadata !9705), !dbg !9706 ; [debug line = 919:92] [debug variable = __Repl2__]
  store i32 1, i32* %__Repl2__, align 4, !dbg !9707 ; [debug line = 919:107]
  %47 = bitcast i54* %__Result__5 to i8*, !dbg !9708 ; [#uses=0 type=i8*] [debug line = 919:109]
  %48 = bitcast i54* %__Val2__6 to i8*, !dbg !9708 ; [#uses=0 type=i8*] [debug line = 919:109]
  %49 = bitcast i32* %__Repl2__ to i8*, !dbg !9708 ; [#uses=0 type=i8*] [debug line = 919:109]
  %50 = load i54* %__Val2__6, !dbg !9708          ; [#uses=1 type=i54] [debug line = 919:109]
  %51 = load i32* %__Repl2__, !dbg !9708          ; [#uses=1 type=i32] [debug line = 919:109]
  %52 = call i54 @llvm.part.set.i54.i32(i54 %50, i32 %51, i32 52, i32 52), !dbg !9708 ; [#uses=1 type=i54] [debug line = 919:109]
  store i54 %52, i54* %__Result__5, !dbg !9708    ; [debug line = 919:109]
  %53 = load i54* %__Result__5, align 8, !dbg !9708 ; [#uses=1 type=i54] [debug line = 919:109]
  %54 = bitcast %struct.ap_int_base.32* %man to %struct.ssdm_int.33*, !dbg !9709 ; [#uses=1 type=%struct.ssdm_int.33*] [debug line = 919:216]
  %55 = getelementptr inbounds %struct.ssdm_int.33* %54, i32 0, i32 0, !dbg !9709 ; [#uses=1 type=i54*] [debug line = 919:216]
  store i54 %53, i54* %55, align 8, !dbg !9709    ; [debug line = 919:216]
  %56 = load i1* %isneg, align 1, !dbg !9710      ; [#uses=1 type=i1] [debug line = 920:9]
  br i1 %56, label %57, label %59, !dbg !9710     ; [debug line = 920:9]

; <label>:57                                      ; preds = %0
  call void @_ZNK11ap_int_baseILi54ELb1ELb1EEngEv(%struct.ap_int_base.34* sret %4, %struct.ap_int_base.32* %man), !dbg !9711 ; [debug line = 920:25]
  %58 = call %struct.ap_int_base.32* @_ZN11ap_int_baseILi54ELb1ELb1EEaSILi55ELb1EEERS0_RKS_IXT_EXT0_EXleT_Li64EEE(%struct.ap_int_base.32* %man, %struct.ap_int_base.34* %4), !dbg !9711 ; [#uses=0 type=%struct.ap_int_base.32*] [debug line = 920:25]
  br label %59, !dbg !9711                        ; [debug line = 920:25]

; <label>:59                                      ; preds = %57, %0
  %60 = bitcast %struct.ap_int_base.25* %ireg to %struct.ssdm_int.26*, !dbg !9712 ; [#uses=1 type=%struct.ssdm_int.26*] [debug line = 921:9]
  %61 = getelementptr inbounds %struct.ssdm_int.26* %60, i32 0, i32 0, !dbg !9712 ; [#uses=1 type=i64*] [debug line = 921:9]
  %62 = load i64* %61, align 8, !dbg !9712        ; [#uses=1 type=i64] [debug line = 921:9]
  %63 = and i64 %62, 9223372036854775807, !dbg !9712 ; [#uses=1 type=i64] [debug line = 921:9]
  %64 = icmp eq i64 %63, 0, !dbg !9712            ; [#uses=1 type=i1] [debug line = 921:9]
  br i1 %64, label %65, label %68, !dbg !9712     ; [debug line = 921:9]

; <label>:65                                      ; preds = %59
  %66 = bitcast %struct.ap_int_base.6* %5 to %struct.ssdm_int.7*, !dbg !9713 ; [#uses=1 type=%struct.ssdm_int.7*] [debug line = 922:13]
  %67 = getelementptr inbounds %struct.ssdm_int.7* %66, i32 0, i32 0, !dbg !9713 ; [#uses=1 type=i16*] [debug line = 922:13]
  store i16 0, i16* %67, align 2, !dbg !9713      ; [debug line = 922:13]
  br label %160, !dbg !9715                       ; [debug line = 923:9]

; <label>:68                                      ; preds = %59
  call void @llvm.dbg.declare(metadata !{i32* %_AP_W2}, metadata !9716), !dbg !9718 ; [debug line = 924:17] [debug variable = _AP_W2]
  store i32 54, i32* %_AP_W2, align 4, !dbg !9719 ; [debug line = 924:82]
  call void @llvm.dbg.declare(metadata !{i32* %_AP_I2}, metadata !9720), !dbg !9721 ; [debug line = 924:31] [debug variable = _AP_I2]
  %69 = bitcast %struct.ap_int_base.27* %exp to %struct.ssdm_int.28*, !dbg !9719 ; [#uses=1 type=%struct.ssdm_int.28*] [debug line = 924:82]
  %70 = getelementptr inbounds %struct.ssdm_int.28* %69, i32 0, i32 0, !dbg !9719 ; [#uses=1 type=i12*] [debug line = 924:82]
  %71 = load i12* %70, align 2, !dbg !9719        ; [#uses=1 type=i12] [debug line = 924:82]
  %72 = sext i12 %71 to i32, !dbg !9719           ; [#uses=1 type=i32] [debug line = 924:82]
  %73 = add nsw i32 %72, 2, !dbg !9719            ; [#uses=1 type=i32] [debug line = 924:82]
  store i32 %73, i32* %_AP_I2, align 4, !dbg !9719 ; [debug line = 924:82]
  call void @llvm.dbg.declare(metadata !{i32* %_AP_F}, metadata !9722), !dbg !9723 ; [debug line = 924:47] [debug variable = _AP_F]
  store i32 5, i32* %_AP_F, align 4, !dbg !9719   ; [debug line = 924:82]
  call void @llvm.dbg.declare(metadata !{i32* %F2}, metadata !9724), !dbg !9725 ; [debug line = 924:66] [debug variable = F2]
  %74 = load i32* %_AP_W2, align 4, !dbg !9719    ; [#uses=1 type=i32] [debug line = 924:82]
  %75 = load i32* %_AP_I2, align 4, !dbg !9719    ; [#uses=1 type=i32] [debug line = 924:82]
  %76 = sub nsw i32 %74, %75, !dbg !9719          ; [#uses=1 type=i32] [debug line = 924:82]
  store i32 %76, i32* %F2, align 4, !dbg !9719    ; [debug line = 924:82]
  call void @llvm.dbg.declare(metadata !{i1* %_AP_S2}, metadata !9726), !dbg !9727 ; [debug line = 925:18] [debug variable = _AP_S2]
  store i1 true, i1* %_AP_S2, align 1, !dbg !9728 ; [debug line = 926:92]
  call void @llvm.dbg.declare(metadata !{i1* %QUAN_INC}, metadata !9729), !dbg !9730 ; [debug line = 926:18] [debug variable = QUAN_INC]
  %77 = load i32* %F2, align 4, !dbg !9728        ; [#uses=1 type=i32] [debug line = 926:92]
  %78 = load i32* %_AP_F, align 4, !dbg !9728     ; [#uses=1 type=i32] [debug line = 926:92]
  %79 = icmp sgt i32 %77, %78, !dbg !9728         ; [#uses=1 type=i1] [debug line = 926:92]
  br i1 %79, label %80, label %81, !dbg !9728     ; [debug line = 926:92]

; <label>:80                                      ; preds = %68
  br label %81

; <label>:81                                      ; preds = %80, %68
  %82 = phi i1 [ false, %68 ], [ false, %80 ]     ; [#uses=1 type=i1]
  store i1 %82, i1* %QUAN_INC, align 1
  call void @llvm.dbg.declare(metadata !{i1* %carry}, metadata !9731), !dbg !9732 ; [debug line = 927:18] [debug variable = carry]
  store i1 false, i1* %carry, align 1, !dbg !9733 ; [debug line = 927:31]
  call void @llvm.dbg.declare(metadata !{i32* %sh_amt}, metadata !9734), !dbg !9735 ; [debug line = 929:22] [debug variable = sh_amt]
  %83 = load i32* %F2, align 4, !dbg !9736        ; [#uses=1 type=i32] [debug line = 929:69]
  %84 = load i32* %_AP_F, align 4, !dbg !9736     ; [#uses=1 type=i32] [debug line = 929:69]
  %85 = icmp sgt i32 %83, %84, !dbg !9736         ; [#uses=1 type=i1] [debug line = 929:69]
  br i1 %85, label %86, label %90, !dbg !9736     ; [debug line = 929:69]

; <label>:86                                      ; preds = %81
  %87 = load i32* %F2, align 4, !dbg !9736        ; [#uses=1 type=i32] [debug line = 929:69]
  %88 = load i32* %_AP_F, align 4, !dbg !9736     ; [#uses=1 type=i32] [debug line = 929:69]
  %89 = sub nsw i32 %87, %88, !dbg !9736          ; [#uses=1 type=i32] [debug line = 929:69]
  br label %94, !dbg !9736                        ; [debug line = 929:69]

; <label>:90                                      ; preds = %81
  %91 = load i32* %_AP_F, align 4, !dbg !9736     ; [#uses=1 type=i32] [debug line = 929:69]
  %92 = load i32* %F2, align 4, !dbg !9736        ; [#uses=1 type=i32] [debug line = 929:69]
  %93 = sub nsw i32 %91, %92, !dbg !9736          ; [#uses=1 type=i32] [debug line = 929:69]
  br label %94, !dbg !9736                        ; [debug line = 929:69]

; <label>:94                                      ; preds = %90, %86
  %95 = phi i32 [ %89, %86 ], [ %93, %90 ], !dbg !9736 ; [#uses=1 type=i32] [debug line = 929:69]
  store i32 %95, i32* %sh_amt, align 4, !dbg !9736 ; [debug line = 929:69]
  %96 = load i32* %F2, align 4, !dbg !9737        ; [#uses=1 type=i32] [debug line = 930:13]
  %97 = load i32* %_AP_F, align 4, !dbg !9737     ; [#uses=1 type=i32] [debug line = 930:13]
  %98 = icmp eq i32 %96, %97, !dbg !9737          ; [#uses=1 type=i1] [debug line = 930:13]
  br i1 %98, label %99, label %106, !dbg !9737    ; [debug line = 930:13]

; <label>:99                                      ; preds = %94
  %100 = bitcast %struct.ap_int_base.32* %man to %struct.ssdm_int.33*, !dbg !9738 ; [#uses=1 type=%struct.ssdm_int.33*] [debug line = 931:17]
  %101 = getelementptr inbounds %struct.ssdm_int.33* %100, i32 0, i32 0, !dbg !9738 ; [#uses=1 type=i54*] [debug line = 931:17]
  %102 = load i54* %101, align 8, !dbg !9738      ; [#uses=1 type=i54] [debug line = 931:17]
  %103 = trunc i54 %102 to i16, !dbg !9738        ; [#uses=1 type=i16] [debug line = 931:17]
  %104 = bitcast %struct.ap_int_base.6* %5 to %struct.ssdm_int.7*, !dbg !9738 ; [#uses=1 type=%struct.ssdm_int.7*] [debug line = 931:17]
  %105 = getelementptr inbounds %struct.ssdm_int.7* %104, i32 0, i32 0, !dbg !9738 ; [#uses=1 type=i16*] [debug line = 931:17]
  store i16 %103, i16* %105, align 2, !dbg !9738  ; [debug line = 931:17]
  br label %159, !dbg !9738                       ; [debug line = 931:17]

; <label>:106                                     ; preds = %94
  %107 = load i32* %F2, align 4, !dbg !9739       ; [#uses=1 type=i32] [debug line = 932:18]
  %108 = load i32* %_AP_F, align 4, !dbg !9739    ; [#uses=1 type=i32] [debug line = 932:18]
  %109 = icmp sgt i32 %107, %108, !dbg !9739      ; [#uses=1 type=i1] [debug line = 932:18]
  br i1 %109, label %110, label %135, !dbg !9739  ; [debug line = 932:18]

; <label>:110                                     ; preds = %106
  %111 = load i32* %sh_amt, align 4, !dbg !9740   ; [#uses=1 type=i32] [debug line = 933:17]
  %112 = icmp ult i32 %111, 54, !dbg !9740        ; [#uses=1 type=i1] [debug line = 933:17]
  br i1 %112, label %113, label %123, !dbg !9740  ; [debug line = 933:17]

; <label>:113                                     ; preds = %110
  %114 = bitcast %struct.ap_int_base.32* %man to %struct.ssdm_int.33*, !dbg !9742 ; [#uses=1 type=%struct.ssdm_int.33*] [debug line = 934:20]
  %115 = getelementptr inbounds %struct.ssdm_int.33* %114, i32 0, i32 0, !dbg !9742 ; [#uses=1 type=i54*] [debug line = 934:20]
  %116 = load i54* %115, align 8, !dbg !9742      ; [#uses=1 type=i54] [debug line = 934:20]
  %117 = load i32* %sh_amt, align 4, !dbg !9742   ; [#uses=1 type=i32] [debug line = 934:20]
  %118 = zext i32 %117 to i54, !dbg !9742         ; [#uses=1 type=i54] [debug line = 934:20]
  %119 = ashr i54 %116, %118, !dbg !9742          ; [#uses=1 type=i54] [debug line = 934:20]
  %120 = trunc i54 %119 to i16, !dbg !9742        ; [#uses=1 type=i16] [debug line = 934:20]
  %121 = bitcast %struct.ap_int_base.6* %5 to %struct.ssdm_int.7*, !dbg !9742 ; [#uses=1 type=%struct.ssdm_int.7*] [debug line = 934:20]
  %122 = getelementptr inbounds %struct.ssdm_int.7* %121, i32 0, i32 0, !dbg !9742 ; [#uses=1 type=i16*] [debug line = 934:20]
  store i16 %120, i16* %122, align 2, !dbg !9742  ; [debug line = 934:20]
  br label %134, !dbg !9742                       ; [debug line = 934:20]

; <label>:123                                     ; preds = %110
  %124 = load i1* %isneg, align 1, !dbg !9743     ; [#uses=1 type=i1] [debug line = 937:20]
  br i1 %124, label %125, label %130, !dbg !9743  ; [debug line = 937:20]

; <label>:125                                     ; preds = %123
  %126 = load i32* @_ZZN13ap_fixed_baseILi16ELi11ELb1EL9ap_q_mode5EL9ap_o_mode3ELi0EEC1EdE10AllOnesInt, align 4, !dbg !9745 ; [#uses=1 type=i32] [debug line = 937:31]
  %127 = trunc i32 %126 to i16, !dbg !9745        ; [#uses=1 type=i16] [debug line = 937:31]
  %128 = bitcast %struct.ap_int_base.6* %5 to %struct.ssdm_int.7*, !dbg !9745 ; [#uses=1 type=%struct.ssdm_int.7*] [debug line = 937:31]
  %129 = getelementptr inbounds %struct.ssdm_int.7* %128, i32 0, i32 0, !dbg !9745 ; [#uses=1 type=i16*] [debug line = 937:31]
  store i16 %127, i16* %129, align 2, !dbg !9745  ; [debug line = 937:31]
  br label %133, !dbg !9745                       ; [debug line = 937:31]

; <label>:130                                     ; preds = %123
  %131 = bitcast %struct.ap_int_base.6* %5 to %struct.ssdm_int.7*, !dbg !9746 ; [#uses=1 type=%struct.ssdm_int.7*] [debug line = 938:25]
  %132 = getelementptr inbounds %struct.ssdm_int.7* %131, i32 0, i32 0, !dbg !9746 ; [#uses=1 type=i16*] [debug line = 938:25]
  store i16 0, i16* %132, align 2, !dbg !9746     ; [debug line = 938:25]
  br label %133

; <label>:133                                     ; preds = %130, %125
  br label %134

; <label>:134                                     ; preds = %133, %113
  br label %158, !dbg !9747                       ; [debug line = 949:13]

; <label>:135                                     ; preds = %106
  %136 = bitcast %struct.ap_int_base.32* %man to %struct.ssdm_int.33*, !dbg !9748 ; [#uses=1 type=%struct.ssdm_int.33*] [debug line = 951:17]
  %137 = getelementptr inbounds %struct.ssdm_int.33* %136, i32 0, i32 0, !dbg !9748 ; [#uses=1 type=i54*] [debug line = 951:17]
  %138 = load i54* %137, align 8, !dbg !9748      ; [#uses=1 type=i54] [debug line = 951:17]
  %139 = trunc i54 %138 to i16, !dbg !9748        ; [#uses=1 type=i16] [debug line = 951:17]
  %140 = bitcast %struct.ap_int_base.6* %5 to %struct.ssdm_int.7*, !dbg !9748 ; [#uses=1 type=%struct.ssdm_int.7*] [debug line = 951:17]
  %141 = getelementptr inbounds %struct.ssdm_int.7* %140, i32 0, i32 0, !dbg !9748 ; [#uses=1 type=i16*] [debug line = 951:17]
  store i16 %139, i16* %141, align 2, !dbg !9748  ; [debug line = 951:17]
  %142 = load i32* %sh_amt, align 4, !dbg !9750   ; [#uses=1 type=i32] [debug line = 952:17]
  %143 = icmp ult i32 %142, 16, !dbg !9750        ; [#uses=1 type=i1] [debug line = 952:17]
  br i1 %143, label %144, label %154, !dbg !9750  ; [debug line = 952:17]

; <label>:144                                     ; preds = %135
  %145 = bitcast %struct.ap_int_base.6* %5 to %struct.ssdm_int.7*, !dbg !9751 ; [#uses=1 type=%struct.ssdm_int.7*] [debug line = 953:21]
  %146 = getelementptr inbounds %struct.ssdm_int.7* %145, i32 0, i32 0, !dbg !9751 ; [#uses=1 type=i16*] [debug line = 953:21]
  %147 = load i16* %146, align 2, !dbg !9751      ; [#uses=1 type=i16] [debug line = 953:21]
  %148 = sext i16 %147 to i32, !dbg !9751         ; [#uses=1 type=i32] [debug line = 953:21]
  %149 = load i32* %sh_amt, align 4, !dbg !9751   ; [#uses=1 type=i32] [debug line = 953:21]
  %150 = shl i32 %148, %149, !dbg !9751           ; [#uses=1 type=i32] [debug line = 953:21]
  %151 = trunc i32 %150 to i16, !dbg !9751        ; [#uses=1 type=i16] [debug line = 953:21]
  %152 = bitcast %struct.ap_int_base.6* %5 to %struct.ssdm_int.7*, !dbg !9751 ; [#uses=1 type=%struct.ssdm_int.7*] [debug line = 953:21]
  %153 = getelementptr inbounds %struct.ssdm_int.7* %152, i32 0, i32 0, !dbg !9751 ; [#uses=1 type=i16*] [debug line = 953:21]
  store i16 %151, i16* %153, align 2, !dbg !9751  ; [debug line = 953:21]
  br label %157, !dbg !9751                       ; [debug line = 953:21]

; <label>:154                                     ; preds = %135
  %155 = bitcast %struct.ap_int_base.6* %5 to %struct.ssdm_int.7*, !dbg !9752 ; [#uses=1 type=%struct.ssdm_int.7*] [debug line = 955:21]
  %156 = getelementptr inbounds %struct.ssdm_int.7* %155, i32 0, i32 0, !dbg !9752 ; [#uses=1 type=i16*] [debug line = 955:21]
  store i16 0, i16* %156, align 2, !dbg !9752     ; [debug line = 955:21]
  br label %157

; <label>:157                                     ; preds = %154, %144
  br label %158

; <label>:158                                     ; preds = %157, %134
  br label %159

; <label>:159                                     ; preds = %158, %99
  br label %160

; <label>:160                                     ; preds = %159, %65
  ret void, !dbg !9753                            ; [debug line = 1012:5]
}

; [#uses=1]
define linkonce_odr void @_ZN11ap_int_baseILi64ELb0ELb1EEC1Ev(%struct.ap_int_base.25* %this) unnamed_addr nounwind inlinehint alwaysinline align 2 {
  %1 = alloca %struct.ap_int_base.25*, align 4    ; [#uses=2 type=%struct.ap_int_base.25**]
  store %struct.ap_int_base.25* %this, %struct.ap_int_base.25** %1, align 4
  call void @llvm.dbg.declare(metadata !{%struct.ap_int_base.25** %1}, metadata !9754), !dbg !9755 ; [debug line = 1439:42] [debug variable = this]
  %2 = load %struct.ap_int_base.25** %1           ; [#uses=1 type=%struct.ap_int_base.25*]
  call void @_ZN11ap_int_baseILi64ELb0ELb1EEC2Ev(%struct.ap_int_base.25* %2), !dbg !9756 ; [debug line = 1445:4]
  ret void, !dbg !9756                            ; [debug line = 1445:4]
}

; [#uses=1]
define linkonce_odr i64 @_ZNK13ap_fixed_baseILi16ELi11ELb1EL9ap_q_mode5EL9ap_o_mode3ELi0EE15doubleToRawBitsEd(%struct.ap_int_base.6* %this, double %pf) nounwind inlinehint alwaysinline align 2 {
  %1 = alloca %struct.ap_int_base.6*, align 4     ; [#uses=2 type=%struct.ap_int_base.6**]
  %2 = alloca double, align 8                     ; [#uses=2 type=double*]
  %LD = alloca %struct.ssdm_int.26, align 8       ; [#uses=2 type=%struct.ssdm_int.26*]
  store %struct.ap_int_base.6* %this, %struct.ap_int_base.6** %1, align 4
  call void @llvm.dbg.declare(metadata !{%struct.ap_int_base.6** %1}, metadata !9757), !dbg !9758 ; [debug line = 849:62] [debug variable = this]
  store double %pf, double* %2, align 8
  call void @llvm.dbg.declare(metadata !{double* %2}, metadata !9759), !dbg !9760 ; [debug line = 849:85] [debug variable = pf]
  %3 = load %struct.ap_int_base.6** %1            ; [#uses=0 type=%struct.ap_int_base.6*]
  call void @llvm.dbg.declare(metadata !{%struct.ssdm_int.26* %LD}, metadata !9761), !dbg !9771 ; [debug line = 853:11] [debug variable = LD]
  %4 = load double* %2, align 8, !dbg !9772       ; [#uses=1 type=double] [debug line = 854:9]
  %5 = bitcast %struct.ssdm_int.26* %LD to double*, !dbg !9772 ; [#uses=1 type=double*] [debug line = 854:9]
  store double %4, double* %5, align 8, !dbg !9772 ; [debug line = 854:9]
  %6 = bitcast %struct.ssdm_int.26* %LD to i64*, !dbg !9773 ; [#uses=1 type=i64*] [debug line = 855:9]
  %7 = load i64* %6, align 8, !dbg !9773          ; [#uses=1 type=i64] [debug line = 855:9]
  ret i64 %7, !dbg !9773                          ; [debug line = 855:9]
}

; [#uses=3]
declare i64 @llvm.part.select.i64(i64, i32, i32) nounwind readnone

; [#uses=1]
define linkonce_odr void @_ZN11ap_int_baseILi12ELb1ELb1EEC1Ev(%struct.ap_int_base.27* %this) unnamed_addr nounwind inlinehint alwaysinline align 2 {
  %1 = alloca %struct.ap_int_base.27*, align 4    ; [#uses=2 type=%struct.ap_int_base.27**]
  store %struct.ap_int_base.27* %this, %struct.ap_int_base.27** %1, align 4
  call void @llvm.dbg.declare(metadata !{%struct.ap_int_base.27** %1}, metadata !9774), !dbg !9776 ; [debug line = 1439:42] [debug variable = this]
  %2 = load %struct.ap_int_base.27** %1           ; [#uses=1 type=%struct.ap_int_base.27*]
  call void @_ZN11ap_int_baseILi12ELb1ELb1EEC2Ev(%struct.ap_int_base.27* %2), !dbg !9777 ; [debug line = 1445:4]
  ret void, !dbg !9777                            ; [debug line = 1445:4]
}

; [#uses=1]
define linkonce_odr void @_ZN11ap_int_baseILi11ELb0ELb1EEC1Ev(%struct.ap_int_base.29* %this) unnamed_addr nounwind inlinehint alwaysinline align 2 {
  %1 = alloca %struct.ap_int_base.29*, align 4    ; [#uses=2 type=%struct.ap_int_base.29**]
  store %struct.ap_int_base.29* %this, %struct.ap_int_base.29** %1, align 4
  call void @llvm.dbg.declare(metadata !{%struct.ap_int_base.29** %1}, metadata !9778), !dbg !9780 ; [debug line = 1439:42] [debug variable = this]
  %2 = load %struct.ap_int_base.29** %1           ; [#uses=1 type=%struct.ap_int_base.29*]
  call void @_ZN11ap_int_baseILi11ELb0ELb1EEC2Ev(%struct.ap_int_base.29* %2), !dbg !9781 ; [debug line = 1445:4]
  ret void, !dbg !9781                            ; [debug line = 1445:4]
}

; [#uses=1]
define linkonce_odr %struct.ap_int_base.27* @_ZN11ap_int_baseILi12ELb1ELb1EEaSILi33ELb1EEERS0_RKS_IXT_EXT0_EXleT_Li64EEE(%struct.ap_int_base.27* %this, %struct.ap_fixed_base.8* %op2) nounwind inlinehint alwaysinline align 2 {
  %1 = alloca %struct.ap_int_base.27*, align 4    ; [#uses=2 type=%struct.ap_int_base.27**]
  %2 = alloca %struct.ap_fixed_base.8*, align 4   ; [#uses=2 type=%struct.ap_fixed_base.8**]
  store %struct.ap_int_base.27* %this, %struct.ap_int_base.27** %1, align 4
  call void @llvm.dbg.declare(metadata !{%struct.ap_int_base.27** %1}, metadata !9782), !dbg !9783 ; [debug line = 1574:56] [debug variable = this]
  store %struct.ap_fixed_base.8* %op2, %struct.ap_fixed_base.8** %2, align 4
  call void @llvm.dbg.declare(metadata !{%struct.ap_fixed_base.8** %2}, metadata !9784), !dbg !9785 ; [debug line = 1574:102] [debug variable = op2]
  %3 = load %struct.ap_int_base.27** %1           ; [#uses=2 type=%struct.ap_int_base.27*]
  %4 = load %struct.ap_fixed_base.8** %2, align 4, !dbg !9786 ; [#uses=1 type=%struct.ap_fixed_base.8*] [debug line = 1575:9]
  %5 = bitcast %struct.ap_fixed_base.8* %4 to %struct.ssdm_int.9*, !dbg !9786 ; [#uses=1 type=%struct.ssdm_int.9*] [debug line = 1575:9]
  %6 = getelementptr inbounds %struct.ssdm_int.9* %5, i32 0, i32 0, !dbg !9786 ; [#uses=1 type=i33*] [debug line = 1575:9]
  %7 = load i33* %6, align 8, !dbg !9786          ; [#uses=1 type=i33] [debug line = 1575:9]
  %8 = trunc i33 %7 to i12, !dbg !9786            ; [#uses=1 type=i12] [debug line = 1575:9]
  %9 = bitcast %struct.ap_int_base.27* %3 to %struct.ssdm_int.28*, !dbg !9786 ; [#uses=1 type=%struct.ssdm_int.28*] [debug line = 1575:9]
  %10 = getelementptr inbounds %struct.ssdm_int.28* %9, i32 0, i32 0, !dbg !9786 ; [#uses=1 type=i12*] [debug line = 1575:9]
  store i12 %8, i12* %10, align 2, !dbg !9786     ; [debug line = 1575:9]
  ret %struct.ap_int_base.27* %3, !dbg !9788      ; [debug line = 1576:9]
}

; [#uses=1]
define linkonce_odr void @_ZmiILi11ELb0EEN11ap_int_baseIXT_EXT0_EXleT_Li64EEE5RTypeIXLi32EEXLb1EEE5minusERKS1_i(%struct.ap_fixed_base.8* noalias sret %agg.result, %struct.ap_int_base.29* %op, i32 %i_op) nounwind inlinehint alwaysinline {
  %1 = alloca %struct.ap_int_base.29*, align 4    ; [#uses=2 type=%struct.ap_int_base.29**]
  %2 = alloca i32, align 4                        ; [#uses=2 type=i32*]
  %3 = alloca %struct.ap_int_base, align 4        ; [#uses=2 type=%struct.ap_int_base*]
  store %struct.ap_int_base.29* %op, %struct.ap_int_base.29** %1, align 4
  call void @llvm.dbg.declare(metadata !{%struct.ap_int_base.29** %1}, metadata !9789), !dbg !9790 ; [debug line = 3468:0] [debug variable = op]
  store i32 %i_op, i32* %2, align 4
  call void @llvm.dbg.declare(metadata !{i32* %2}, metadata !9791), !dbg !9790 ; [debug line = 3468:0] [debug variable = i_op]
  %4 = load %struct.ap_int_base.29** %1, align 4, !dbg !9792 ; [#uses=1 type=%struct.ap_int_base.29*] [debug line = 3468:0]
  %5 = load i32* %2, align 4, !dbg !9792          ; [#uses=1 type=i32] [debug line = 3468:0]
  call void @_ZN11ap_int_baseILi32ELb1ELb1EEC1Ei(%struct.ap_int_base* %3, i32 %5), !dbg !9792 ; [debug line = 3468:0]
  call void @_ZmiILi11ELb0ELi32ELb1EEN11ap_int_baseIXT_EXT0_EXleT_Li64EEE5RTypeIXT1_EXT2_EE5minusERKS1_RKS0_IXT1_EXT2_EXleT1_Li64EEE(%struct.ap_fixed_base.8* sret %agg.result, %struct.ap_int_base.29* %4, %struct.ap_int_base* %3), !dbg !9792 ; [debug line = 3468:0]
  ret void, !dbg !9792                            ; [debug line = 3468:0]
}

; [#uses=1]
define linkonce_odr void @_ZN11ap_int_baseILi54ELb1ELb1EEC1Ev(%struct.ap_int_base.32* %this) unnamed_addr nounwind inlinehint alwaysinline align 2 {
  %1 = alloca %struct.ap_int_base.32*, align 4    ; [#uses=2 type=%struct.ap_int_base.32**]
  store %struct.ap_int_base.32* %this, %struct.ap_int_base.32** %1, align 4
  call void @llvm.dbg.declare(metadata !{%struct.ap_int_base.32** %1}, metadata !9794), !dbg !9796 ; [debug line = 1439:42] [debug variable = this]
  %2 = load %struct.ap_int_base.32** %1           ; [#uses=1 type=%struct.ap_int_base.32*]
  call void @_ZN11ap_int_baseILi54ELb1ELb1EEC2Ev(%struct.ap_int_base.32* %2), !dbg !9797 ; [debug line = 1445:4]
  ret void, !dbg !9797                            ; [debug line = 1445:4]
}

; [#uses=1]
declare i54 @llvm.part.set.i54.i32(i54, i32, i32, i32) nounwind readnone

; [#uses=1]
define linkonce_odr %struct.ap_int_base.32* @_ZN11ap_int_baseILi54ELb1ELb1EEaSILi55ELb1EEERS0_RKS_IXT_EXT0_EXleT_Li64EEE(%struct.ap_int_base.32* %this, %struct.ap_int_base.34* %op2) nounwind inlinehint alwaysinline align 2 {
  %1 = alloca %struct.ap_int_base.32*, align 4    ; [#uses=2 type=%struct.ap_int_base.32**]
  %2 = alloca %struct.ap_int_base.34*, align 4    ; [#uses=2 type=%struct.ap_int_base.34**]
  store %struct.ap_int_base.32* %this, %struct.ap_int_base.32** %1, align 4
  call void @llvm.dbg.declare(metadata !{%struct.ap_int_base.32** %1}, metadata !9798), !dbg !9799 ; [debug line = 1574:56] [debug variable = this]
  store %struct.ap_int_base.34* %op2, %struct.ap_int_base.34** %2, align 4
  call void @llvm.dbg.declare(metadata !{%struct.ap_int_base.34** %2}, metadata !9800), !dbg !9801 ; [debug line = 1574:102] [debug variable = op2]
  %3 = load %struct.ap_int_base.32** %1           ; [#uses=2 type=%struct.ap_int_base.32*]
  %4 = load %struct.ap_int_base.34** %2, align 4, !dbg !9802 ; [#uses=1 type=%struct.ap_int_base.34*] [debug line = 1575:9]
  %5 = bitcast %struct.ap_int_base.34* %4 to %struct.ssdm_int.35*, !dbg !9802 ; [#uses=1 type=%struct.ssdm_int.35*] [debug line = 1575:9]
  %6 = getelementptr inbounds %struct.ssdm_int.35* %5, i32 0, i32 0, !dbg !9802 ; [#uses=1 type=i55*] [debug line = 1575:9]
  %7 = load i55* %6, align 8, !dbg !9802          ; [#uses=1 type=i55] [debug line = 1575:9]
  %8 = trunc i55 %7 to i54, !dbg !9802            ; [#uses=1 type=i54] [debug line = 1575:9]
  %9 = bitcast %struct.ap_int_base.32* %3 to %struct.ssdm_int.33*, !dbg !9802 ; [#uses=1 type=%struct.ssdm_int.33*] [debug line = 1575:9]
  %10 = getelementptr inbounds %struct.ssdm_int.33* %9, i32 0, i32 0, !dbg !9802 ; [#uses=1 type=i54*] [debug line = 1575:9]
  store i54 %8, i54* %10, align 8, !dbg !9802     ; [debug line = 1575:9]
  ret %struct.ap_int_base.32* %3, !dbg !9804      ; [debug line = 1576:9]
}

; [#uses=1]
define linkonce_odr void @_ZNK11ap_int_baseILi54ELb1ELb1EEngEv(%struct.ap_int_base.34* noalias sret %agg.result, %struct.ap_int_base.32* %this) nounwind inlinehint alwaysinline align 2 {
  %1 = alloca %struct.ap_int_base.32*, align 4    ; [#uses=2 type=%struct.ap_int_base.32**]
  %2 = alloca %struct.ap_int_base.0, align 1      ; [#uses=2 type=%struct.ap_int_base.0*]
  store %struct.ap_int_base.32* %this, %struct.ap_int_base.32** %1, align 4
  call void @llvm.dbg.declare(metadata !{%struct.ap_int_base.32** %1}, metadata !9805), !dbg !9807 ; [debug line = 1877:23] [debug variable = this]
  %3 = load %struct.ap_int_base.32** %1           ; [#uses=1 type=%struct.ap_int_base.32*]
  call void @_ZN11ap_int_baseILi1ELb0ELb1EEC1Ei(%struct.ap_int_base.0* %2, i32 0), !dbg !9808 ; [debug line = 1878:16]
  call void @_ZmiILi1ELb0ELi54ELb1EEN11ap_int_baseIXT_EXT0_EXleT_Li64EEE5RTypeIXT1_EXT2_EE5minusERKS1_RKS0_IXT1_EXT2_EXleT1_Li64EEE(%struct.ap_int_base.34* sret %agg.result, %struct.ap_int_base.0* %2, %struct.ap_int_base.32* %3), !dbg !9808 ; [debug line = 1878:16]
  ret void, !dbg !9808                            ; [debug line = 1878:16]
}

; [#uses=1]
define linkonce_odr void @_ZmiILi1ELb0ELi54ELb1EEN11ap_int_baseIXT_EXT0_EXleT_Li64EEE5RTypeIXT1_EXT2_EE5minusERKS1_RKS0_IXT1_EXT2_EXleT1_Li64EEE(%struct.ap_int_base.34* noalias sret %agg.result, %struct.ap_int_base.0* %op, %struct.ap_int_base.32* %op2) nounwind inlinehint alwaysinline {
  %1 = alloca %struct.ap_int_base.0*, align 4     ; [#uses=2 type=%struct.ap_int_base.0**]
  %2 = alloca %struct.ap_int_base.32*, align 4    ; [#uses=2 type=%struct.ap_int_base.32**]
  %lhs = alloca %struct.ap_int_base.34, align 8   ; [#uses=2 type=%struct.ap_int_base.34*]
  %rhs = alloca %struct.ap_int_base.34, align 8   ; [#uses=2 type=%struct.ap_int_base.34*]
  store %struct.ap_int_base.0* %op, %struct.ap_int_base.0** %1, align 4
  call void @llvm.dbg.declare(metadata !{%struct.ap_int_base.0** %1}, metadata !9810), !dbg !9811 ; [debug line = 3370:217] [debug variable = op]
  store %struct.ap_int_base.32* %op2, %struct.ap_int_base.32** %2, align 4
  call void @llvm.dbg.declare(metadata !{%struct.ap_int_base.32** %2}, metadata !9812), !dbg !9813 ; [debug line = 3370:255] [debug variable = op2]
  call void @llvm.dbg.declare(metadata !{%struct.ap_int_base.34* %lhs}, metadata !9814), !dbg !9816 ; [debug line = 3370:0] [debug variable = lhs]
  %3 = load %struct.ap_int_base.0** %1, align 4, !dbg !9816 ; [#uses=1 type=%struct.ap_int_base.0*] [debug line = 3370:0]
  call void @_ZN11ap_int_baseILi55ELb1ELb1EEC1ILi1ELb0EEERKS_IXT_EXT0_EXleT_Li64EEE(%struct.ap_int_base.34* %lhs, %struct.ap_int_base.0* %3), !dbg !9816 ; [debug line = 3370:0]
  call void @llvm.dbg.declare(metadata !{%struct.ap_int_base.34* %rhs}, metadata !9817), !dbg !9816 ; [debug line = 3370:0] [debug variable = rhs]
  %4 = load %struct.ap_int_base.32** %2, align 4, !dbg !9816 ; [#uses=1 type=%struct.ap_int_base.32*] [debug line = 3370:0]
  call void @_ZN11ap_int_baseILi55ELb1ELb1EEC1ILi54ELb1EEERKS_IXT_EXT0_EXleT_Li64EEE(%struct.ap_int_base.34* %rhs, %struct.ap_int_base.32* %4), !dbg !9816 ; [debug line = 3370:0]
  call void @llvm.dbg.declare(metadata !{%struct.ap_int_base.34* %agg.result}, metadata !9818), !dbg !9816 ; [debug line = 3370:0] [debug variable = r]
  call void @_ZN11ap_int_baseILi55ELb1ELb1EEC1Ev(%struct.ap_int_base.34* %agg.result), !dbg !9816 ; [debug line = 3370:0]
  %5 = bitcast %struct.ap_int_base.34* %lhs to %struct.ssdm_int.35*, !dbg !9816 ; [#uses=1 type=%struct.ssdm_int.35*] [debug line = 3370:0]
  %6 = getelementptr inbounds %struct.ssdm_int.35* %5, i32 0, i32 0, !dbg !9816 ; [#uses=1 type=i55*] [debug line = 3370:0]
  %7 = load i55* %6, align 8, !dbg !9816          ; [#uses=1 type=i55] [debug line = 3370:0]
  %8 = bitcast %struct.ap_int_base.34* %rhs to %struct.ssdm_int.35*, !dbg !9816 ; [#uses=1 type=%struct.ssdm_int.35*] [debug line = 3370:0]
  %9 = getelementptr inbounds %struct.ssdm_int.35* %8, i32 0, i32 0, !dbg !9816 ; [#uses=1 type=i55*] [debug line = 3370:0]
  %10 = load i55* %9, align 8, !dbg !9816         ; [#uses=1 type=i55] [debug line = 3370:0]
  %11 = sub nsw i55 %7, %10, !dbg !9816           ; [#uses=1 type=i55] [debug line = 3370:0]
  %12 = bitcast %struct.ap_int_base.34* %agg.result to %struct.ssdm_int.35*, !dbg !9816 ; [#uses=1 type=%struct.ssdm_int.35*] [debug line = 3370:0]
  %13 = getelementptr inbounds %struct.ssdm_int.35* %12, i32 0, i32 0, !dbg !9816 ; [#uses=1 type=i55*] [debug line = 3370:0]
  store i55 %11, i55* %13, align 8, !dbg !9816    ; [debug line = 3370:0]
  ret void, !dbg !9816                            ; [debug line = 3370:0]
}

; [#uses=1]
define linkonce_odr void @_ZN11ap_int_baseILi1ELb0ELb1EEC1Ei(%struct.ap_int_base.0* %this, i32 %op) unnamed_addr nounwind inlinehint alwaysinline align 2 {
  %1 = alloca %struct.ap_int_base.0*, align 4     ; [#uses=2 type=%struct.ap_int_base.0**]
  %2 = alloca i32, align 4                        ; [#uses=2 type=i32*]
  store %struct.ap_int_base.0* %this, %struct.ap_int_base.0** %1, align 4
  call void @llvm.dbg.declare(metadata !{%struct.ap_int_base.0** %1}, metadata !9820), !dbg !9822 ; [debug line = 1466:52] [debug variable = this]
  store i32 %op, i32* %2, align 4
  call void @llvm.dbg.declare(metadata !{i32* %2}, metadata !9823), !dbg !9824 ; [debug line = 1466:68] [debug variable = op]
  %3 = load %struct.ap_int_base.0** %1            ; [#uses=1 type=%struct.ap_int_base.0*]
  %4 = load i32* %2, align 4, !dbg !9825          ; [#uses=1 type=i32] [debug line = 1466:88]
  call void @_ZN11ap_int_baseILi1ELb0ELb1EEC2Ei(%struct.ap_int_base.0* %3, i32 %4), !dbg !9825 ; [debug line = 1466:88]
  ret void, !dbg !9825                            ; [debug line = 1466:88]
}

; [#uses=1]
define linkonce_odr void @_ZN11ap_int_baseILi1ELb0ELb1EEC2Ei(%struct.ap_int_base.0* %this, i32 %op) unnamed_addr nounwind inlinehint alwaysinline align 2 {
  %1 = alloca %struct.ap_int_base.0*, align 4     ; [#uses=2 type=%struct.ap_int_base.0**]
  %2 = alloca i32, align 4                        ; [#uses=2 type=i32*]
  store %struct.ap_int_base.0* %this, %struct.ap_int_base.0** %1, align 4
  call void @llvm.dbg.declare(metadata !{%struct.ap_int_base.0** %1}, metadata !9826), !dbg !9827 ; [debug line = 1466:52] [debug variable = this]
  store i32 %op, i32* %2, align 4
  call void @llvm.dbg.declare(metadata !{i32* %2}, metadata !9828), !dbg !9829 ; [debug line = 1466:68] [debug variable = op]
  %3 = load %struct.ap_int_base.0** %1            ; [#uses=2 type=%struct.ap_int_base.0*]
  %4 = bitcast %struct.ap_int_base.0* %3 to %struct.ssdm_int.1*, !dbg !9830 ; [#uses=1 type=%struct.ssdm_int.1*] [debug line = 1466:72]
  call void @_ZN8ssdm_intILi1ELb0EEC2Ev(%struct.ssdm_int.1* %4), !dbg !9830 ; [debug line = 1466:72]
  %5 = load i32* %2, align 4, !dbg !9831          ; [#uses=1 type=i32] [debug line = 1466:74]
  %6 = trunc i32 %5 to i1, !dbg !9831             ; [#uses=1 type=i1] [debug line = 1466:74]
  %7 = bitcast %struct.ap_int_base.0* %3 to %struct.ssdm_int.1*, !dbg !9831 ; [#uses=1 type=%struct.ssdm_int.1*] [debug line = 1466:74]
  %8 = getelementptr inbounds %struct.ssdm_int.1* %7, i32 0, i32 0, !dbg !9831 ; [#uses=1 type=i1*] [debug line = 1466:74]
  store i1 %6, i1* %8, align 1, !dbg !9831        ; [debug line = 1466:74]
  ret void, !dbg !9833                            ; [debug line = 1466:88]
}

; [#uses=2]
define linkonce_odr void @_ZN8ssdm_intILi1ELb0EEC2Ev(%struct.ssdm_int.1* %this) unnamed_addr nounwind inlinehint alwaysinline align 2 {
  %1 = alloca %struct.ssdm_int.1*, align 4        ; [#uses=2 type=%struct.ssdm_int.1**]
  store %struct.ssdm_int.1* %this, %struct.ssdm_int.1** %1, align 4
  call void @llvm.dbg.declare(metadata !{%struct.ssdm_int.1** %1}, metadata !9834), !dbg !9836 ; [debug line = 3:0] [debug variable = this]
  %2 = load %struct.ssdm_int.1** %1               ; [#uses=0 type=%struct.ssdm_int.1*]
  ret void, !dbg !9837                            ; [debug line = 3:0]
}

; [#uses=1]
define linkonce_odr void @_ZN11ap_int_baseILi55ELb1ELb1EEC1ILi1ELb0EEERKS_IXT_EXT0_EXleT_Li64EEE(%struct.ap_int_base.34* %this, %struct.ap_int_base.0* %op) unnamed_addr nounwind inlinehint alwaysinline align 2 {
  %1 = alloca %struct.ap_int_base.34*, align 4    ; [#uses=2 type=%struct.ap_int_base.34**]
  %2 = alloca %struct.ap_int_base.0*, align 4     ; [#uses=2 type=%struct.ap_int_base.0**]
  store %struct.ap_int_base.34* %this, %struct.ap_int_base.34** %1, align 4
  call void @llvm.dbg.declare(metadata !{%struct.ap_int_base.34** %1}, metadata !9839), !dbg !9841 ; [debug line = 1451:43] [debug variable = this]
  store %struct.ap_int_base.0* %op, %struct.ap_int_base.0** %2, align 4
  call void @llvm.dbg.declare(metadata !{%struct.ap_int_base.0** %2}, metadata !9842), !dbg !9843 ; [debug line = 1451:89] [debug variable = op]
  %3 = load %struct.ap_int_base.34** %1           ; [#uses=1 type=%struct.ap_int_base.34*]
  %4 = load %struct.ap_int_base.0** %2, !dbg !9844 ; [#uses=1 type=%struct.ap_int_base.0*] [debug line = 1451:111]
  call void @_ZN11ap_int_baseILi55ELb1ELb1EEC2ILi1ELb0EEERKS_IXT_EXT0_EXleT_Li64EEE(%struct.ap_int_base.34* %3, %struct.ap_int_base.0* %4), !dbg !9844 ; [debug line = 1451:111]
  ret void, !dbg !9844                            ; [debug line = 1451:111]
}

; [#uses=1]
define linkonce_odr void @_ZN11ap_int_baseILi55ELb1ELb1EEC1ILi54ELb1EEERKS_IXT_EXT0_EXleT_Li64EEE(%struct.ap_int_base.34* %this, %struct.ap_int_base.32* %op) unnamed_addr nounwind inlinehint alwaysinline align 2 {
  %1 = alloca %struct.ap_int_base.34*, align 4    ; [#uses=2 type=%struct.ap_int_base.34**]
  %2 = alloca %struct.ap_int_base.32*, align 4    ; [#uses=2 type=%struct.ap_int_base.32**]
  store %struct.ap_int_base.34* %this, %struct.ap_int_base.34** %1, align 4
  call void @llvm.dbg.declare(metadata !{%struct.ap_int_base.34** %1}, metadata !9845), !dbg !9846 ; [debug line = 1451:43] [debug variable = this]
  store %struct.ap_int_base.32* %op, %struct.ap_int_base.32** %2, align 4
  call void @llvm.dbg.declare(metadata !{%struct.ap_int_base.32** %2}, metadata !9847), !dbg !9848 ; [debug line = 1451:89] [debug variable = op]
  %3 = load %struct.ap_int_base.34** %1           ; [#uses=1 type=%struct.ap_int_base.34*]
  %4 = load %struct.ap_int_base.32** %2, !dbg !9849 ; [#uses=1 type=%struct.ap_int_base.32*] [debug line = 1451:111]
  call void @_ZN11ap_int_baseILi55ELb1ELb1EEC2ILi54ELb1EEERKS_IXT_EXT0_EXleT_Li64EEE(%struct.ap_int_base.34* %3, %struct.ap_int_base.32* %4), !dbg !9849 ; [debug line = 1451:111]
  ret void, !dbg !9849                            ; [debug line = 1451:111]
}

; [#uses=1]
define linkonce_odr void @_ZN11ap_int_baseILi55ELb1ELb1EEC1Ev(%struct.ap_int_base.34* %this) unnamed_addr nounwind inlinehint alwaysinline align 2 {
  %1 = alloca %struct.ap_int_base.34*, align 4    ; [#uses=2 type=%struct.ap_int_base.34**]
  store %struct.ap_int_base.34* %this, %struct.ap_int_base.34** %1, align 4
  call void @llvm.dbg.declare(metadata !{%struct.ap_int_base.34** %1}, metadata !9850), !dbg !9851 ; [debug line = 1439:42] [debug variable = this]
  %2 = load %struct.ap_int_base.34** %1           ; [#uses=1 type=%struct.ap_int_base.34*]
  call void @_ZN11ap_int_baseILi55ELb1ELb1EEC2Ev(%struct.ap_int_base.34* %2), !dbg !9852 ; [debug line = 1445:4]
  ret void, !dbg !9852                            ; [debug line = 1445:4]
}

; [#uses=1]
define linkonce_odr void @_ZN11ap_int_baseILi55ELb1ELb1EEC2Ev(%struct.ap_int_base.34* %this) unnamed_addr nounwind inlinehint alwaysinline align 2 {
  %1 = alloca %struct.ap_int_base.34*, align 4    ; [#uses=2 type=%struct.ap_int_base.34**]
  store %struct.ap_int_base.34* %this, %struct.ap_int_base.34** %1, align 4
  call void @llvm.dbg.declare(metadata !{%struct.ap_int_base.34** %1}, metadata !9853), !dbg !9854 ; [debug line = 1439:42] [debug variable = this]
  %2 = load %struct.ap_int_base.34** %1           ; [#uses=1 type=%struct.ap_int_base.34*]
  %3 = bitcast %struct.ap_int_base.34* %2 to %struct.ssdm_int.35*, !dbg !9855 ; [#uses=1 type=%struct.ssdm_int.35*] [debug line = 1439:56]
  call void @_ZN8ssdm_intILi55ELb1EEC2Ev(%struct.ssdm_int.35* %3), !dbg !9855 ; [debug line = 1439:56]
  ret void, !dbg !9856                            ; [debug line = 1445:4]
}

; [#uses=3]
define linkonce_odr void @_ZN8ssdm_intILi55ELb1EEC2Ev(%struct.ssdm_int.35* %this) unnamed_addr nounwind inlinehint alwaysinline align 2 {
  %1 = alloca %struct.ssdm_int.35*, align 4       ; [#uses=2 type=%struct.ssdm_int.35**]
  store %struct.ssdm_int.35* %this, %struct.ssdm_int.35** %1, align 4
  call void @llvm.dbg.declare(metadata !{%struct.ssdm_int.35** %1}, metadata !9858), !dbg !9860 ; [debug line = 57:137] [debug variable = this]
  %2 = load %struct.ssdm_int.35** %1              ; [#uses=0 type=%struct.ssdm_int.35*]
  ret void, !dbg !9861                            ; [debug line = 57:171]
}

; [#uses=1]
define linkonce_odr void @_ZN11ap_int_baseILi55ELb1ELb1EEC2ILi54ELb1EEERKS_IXT_EXT0_EXleT_Li64EEE(%struct.ap_int_base.34* %this, %struct.ap_int_base.32* %op) unnamed_addr nounwind inlinehint alwaysinline align 2 {
  %1 = alloca %struct.ap_int_base.34*, align 4    ; [#uses=2 type=%struct.ap_int_base.34**]
  %2 = alloca %struct.ap_int_base.32*, align 4    ; [#uses=2 type=%struct.ap_int_base.32**]
  store %struct.ap_int_base.34* %this, %struct.ap_int_base.34** %1, align 4
  call void @llvm.dbg.declare(metadata !{%struct.ap_int_base.34** %1}, metadata !9863), !dbg !9864 ; [debug line = 1451:43] [debug variable = this]
  store %struct.ap_int_base.32* %op, %struct.ap_int_base.32** %2, align 4
  call void @llvm.dbg.declare(metadata !{%struct.ap_int_base.32** %2}, metadata !9865), !dbg !9866 ; [debug line = 1451:89] [debug variable = op]
  %3 = load %struct.ap_int_base.34** %1           ; [#uses=2 type=%struct.ap_int_base.34*]
  %4 = bitcast %struct.ap_int_base.34* %3 to %struct.ssdm_int.35*, !dbg !9867 ; [#uses=1 type=%struct.ssdm_int.35*] [debug line = 1451:93]
  call void @_ZN8ssdm_intILi55ELb1EEC2Ev(%struct.ssdm_int.35* %4), !dbg !9867 ; [debug line = 1451:93]
  %5 = load %struct.ap_int_base.32** %2, align 4, !dbg !9868 ; [#uses=1 type=%struct.ap_int_base.32*] [debug line = 1451:95]
  %6 = bitcast %struct.ap_int_base.32* %5 to %struct.ssdm_int.33*, !dbg !9868 ; [#uses=1 type=%struct.ssdm_int.33*] [debug line = 1451:95]
  %7 = getelementptr inbounds %struct.ssdm_int.33* %6, i32 0, i32 0, !dbg !9868 ; [#uses=1 type=i54*] [debug line = 1451:95]
  %8 = load i54* %7, align 8, !dbg !9868          ; [#uses=1 type=i54] [debug line = 1451:95]
  %9 = sext i54 %8 to i55, !dbg !9868             ; [#uses=1 type=i55] [debug line = 1451:95]
  %10 = bitcast %struct.ap_int_base.34* %3 to %struct.ssdm_int.35*, !dbg !9868 ; [#uses=1 type=%struct.ssdm_int.35*] [debug line = 1451:95]
  %11 = getelementptr inbounds %struct.ssdm_int.35* %10, i32 0, i32 0, !dbg !9868 ; [#uses=1 type=i55*] [debug line = 1451:95]
  store i55 %9, i55* %11, align 8, !dbg !9868     ; [debug line = 1451:95]
  ret void, !dbg !9870                            ; [debug line = 1451:111]
}

; [#uses=1]
define linkonce_odr void @_ZN11ap_int_baseILi55ELb1ELb1EEC2ILi1ELb0EEERKS_IXT_EXT0_EXleT_Li64EEE(%struct.ap_int_base.34* %this, %struct.ap_int_base.0* %op) unnamed_addr nounwind inlinehint alwaysinline align 2 {
  %1 = alloca %struct.ap_int_base.34*, align 4    ; [#uses=2 type=%struct.ap_int_base.34**]
  %2 = alloca %struct.ap_int_base.0*, align 4     ; [#uses=2 type=%struct.ap_int_base.0**]
  store %struct.ap_int_base.34* %this, %struct.ap_int_base.34** %1, align 4
  call void @llvm.dbg.declare(metadata !{%struct.ap_int_base.34** %1}, metadata !9871), !dbg !9872 ; [debug line = 1451:43] [debug variable = this]
  store %struct.ap_int_base.0* %op, %struct.ap_int_base.0** %2, align 4
  call void @llvm.dbg.declare(metadata !{%struct.ap_int_base.0** %2}, metadata !9873), !dbg !9874 ; [debug line = 1451:89] [debug variable = op]
  %3 = load %struct.ap_int_base.34** %1           ; [#uses=2 type=%struct.ap_int_base.34*]
  %4 = bitcast %struct.ap_int_base.34* %3 to %struct.ssdm_int.35*, !dbg !9875 ; [#uses=1 type=%struct.ssdm_int.35*] [debug line = 1451:93]
  call void @_ZN8ssdm_intILi55ELb1EEC2Ev(%struct.ssdm_int.35* %4), !dbg !9875 ; [debug line = 1451:93]
  %5 = load %struct.ap_int_base.0** %2, align 4, !dbg !9876 ; [#uses=1 type=%struct.ap_int_base.0*] [debug line = 1451:95]
  %6 = bitcast %struct.ap_int_base.0* %5 to %struct.ssdm_int.1*, !dbg !9876 ; [#uses=1 type=%struct.ssdm_int.1*] [debug line = 1451:95]
  %7 = getelementptr inbounds %struct.ssdm_int.1* %6, i32 0, i32 0, !dbg !9876 ; [#uses=1 type=i1*] [debug line = 1451:95]
  %8 = load i1* %7, align 1, !dbg !9876           ; [#uses=1 type=i1] [debug line = 1451:95]
  %9 = zext i1 %8 to i55, !dbg !9876              ; [#uses=1 type=i55] [debug line = 1451:95]
  %10 = bitcast %struct.ap_int_base.34* %3 to %struct.ssdm_int.35*, !dbg !9876 ; [#uses=1 type=%struct.ssdm_int.35*] [debug line = 1451:95]
  %11 = getelementptr inbounds %struct.ssdm_int.35* %10, i32 0, i32 0, !dbg !9876 ; [#uses=1 type=i55*] [debug line = 1451:95]
  store i55 %9, i55* %11, align 8, !dbg !9876     ; [debug line = 1451:95]
  ret void, !dbg !9878                            ; [debug line = 1451:111]
}

; [#uses=1]
define linkonce_odr void @_ZN11ap_int_baseILi54ELb1ELb1EEC2Ev(%struct.ap_int_base.32* %this) unnamed_addr nounwind inlinehint alwaysinline align 2 {
  %1 = alloca %struct.ap_int_base.32*, align 4    ; [#uses=2 type=%struct.ap_int_base.32**]
  store %struct.ap_int_base.32* %this, %struct.ap_int_base.32** %1, align 4
  call void @llvm.dbg.declare(metadata !{%struct.ap_int_base.32** %1}, metadata !9879), !dbg !9880 ; [debug line = 1439:42] [debug variable = this]
  %2 = load %struct.ap_int_base.32** %1           ; [#uses=1 type=%struct.ap_int_base.32*]
  %3 = bitcast %struct.ap_int_base.32* %2 to %struct.ssdm_int.33*, !dbg !9881 ; [#uses=1 type=%struct.ssdm_int.33*] [debug line = 1439:56]
  call void @_ZN8ssdm_intILi54ELb1EEC2Ev(%struct.ssdm_int.33* %3), !dbg !9881 ; [debug line = 1439:56]
  ret void, !dbg !9882                            ; [debug line = 1445:4]
}

; [#uses=1]
define linkonce_odr void @_ZN8ssdm_intILi54ELb1EEC2Ev(%struct.ssdm_int.33* %this) unnamed_addr nounwind inlinehint alwaysinline align 2 {
  %1 = alloca %struct.ssdm_int.33*, align 4       ; [#uses=2 type=%struct.ssdm_int.33**]
  store %struct.ssdm_int.33* %this, %struct.ssdm_int.33** %1, align 4
  call void @llvm.dbg.declare(metadata !{%struct.ssdm_int.33** %1}, metadata !9884), !dbg !9886 ; [debug line = 56:137] [debug variable = this]
  %2 = load %struct.ssdm_int.33** %1              ; [#uses=0 type=%struct.ssdm_int.33*]
  ret void, !dbg !9887                            ; [debug line = 56:171]
}

; [#uses=1]
define linkonce_odr void @_ZmiILi11ELb0ELi32ELb1EEN11ap_int_baseIXT_EXT0_EXleT_Li64EEE5RTypeIXT1_EXT2_EE5minusERKS1_RKS0_IXT1_EXT2_EXleT1_Li64EEE(%struct.ap_fixed_base.8* noalias sret %agg.result, %struct.ap_int_base.29* %op, %struct.ap_int_base* %op2) nounwind inlinehint alwaysinline {
  %1 = alloca %struct.ap_int_base.29*, align 4    ; [#uses=2 type=%struct.ap_int_base.29**]
  %2 = alloca %struct.ap_int_base*, align 4       ; [#uses=2 type=%struct.ap_int_base**]
  %lhs = alloca %struct.ap_fixed_base.8, align 8  ; [#uses=2 type=%struct.ap_fixed_base.8*]
  %rhs = alloca %struct.ap_fixed_base.8, align 8  ; [#uses=2 type=%struct.ap_fixed_base.8*]
  store %struct.ap_int_base.29* %op, %struct.ap_int_base.29** %1, align 4
  call void @llvm.dbg.declare(metadata !{%struct.ap_int_base.29** %1}, metadata !9889), !dbg !9890 ; [debug line = 3370:217] [debug variable = op]
  store %struct.ap_int_base* %op2, %struct.ap_int_base** %2, align 4
  call void @llvm.dbg.declare(metadata !{%struct.ap_int_base** %2}, metadata !9891), !dbg !9892 ; [debug line = 3370:255] [debug variable = op2]
  call void @llvm.dbg.declare(metadata !{%struct.ap_fixed_base.8* %lhs}, metadata !9893), !dbg !9895 ; [debug line = 3370:0] [debug variable = lhs]
  %3 = load %struct.ap_int_base.29** %1, align 4, !dbg !9895 ; [#uses=1 type=%struct.ap_int_base.29*] [debug line = 3370:0]
  call void @_ZN11ap_int_baseILi33ELb1ELb1EEC1ILi11ELb0EEERKS_IXT_EXT0_EXleT_Li64EEE(%struct.ap_fixed_base.8* %lhs, %struct.ap_int_base.29* %3), !dbg !9895 ; [debug line = 3370:0]
  call void @llvm.dbg.declare(metadata !{%struct.ap_fixed_base.8* %rhs}, metadata !9896), !dbg !9895 ; [debug line = 3370:0] [debug variable = rhs]
  %4 = load %struct.ap_int_base** %2, align 4, !dbg !9895 ; [#uses=1 type=%struct.ap_int_base*] [debug line = 3370:0]
  call void @_ZN11ap_int_baseILi33ELb1ELb1EEC1ILi32ELb1EEERKS_IXT_EXT0_EXleT_Li64EEE(%struct.ap_fixed_base.8* %rhs, %struct.ap_int_base* %4), !dbg !9895 ; [debug line = 3370:0]
  call void @llvm.dbg.declare(metadata !{%struct.ap_fixed_base.8* %agg.result}, metadata !9897), !dbg !9895 ; [debug line = 3370:0] [debug variable = r]
  call void @_ZN11ap_int_baseILi33ELb1ELb1EEC1Ev(%struct.ap_fixed_base.8* %agg.result), !dbg !9895 ; [debug line = 3370:0]
  %5 = bitcast %struct.ap_fixed_base.8* %lhs to %struct.ssdm_int.9*, !dbg !9895 ; [#uses=1 type=%struct.ssdm_int.9*] [debug line = 3370:0]
  %6 = getelementptr inbounds %struct.ssdm_int.9* %5, i32 0, i32 0, !dbg !9895 ; [#uses=1 type=i33*] [debug line = 3370:0]
  %7 = load i33* %6, align 8, !dbg !9895          ; [#uses=1 type=i33] [debug line = 3370:0]
  %8 = bitcast %struct.ap_fixed_base.8* %rhs to %struct.ssdm_int.9*, !dbg !9895 ; [#uses=1 type=%struct.ssdm_int.9*] [debug line = 3370:0]
  %9 = getelementptr inbounds %struct.ssdm_int.9* %8, i32 0, i32 0, !dbg !9895 ; [#uses=1 type=i33*] [debug line = 3370:0]
  %10 = load i33* %9, align 8, !dbg !9895         ; [#uses=1 type=i33] [debug line = 3370:0]
  %11 = sub nsw i33 %7, %10, !dbg !9895           ; [#uses=1 type=i33] [debug line = 3370:0]
  %12 = bitcast %struct.ap_fixed_base.8* %agg.result to %struct.ssdm_int.9*, !dbg !9895 ; [#uses=1 type=%struct.ssdm_int.9*] [debug line = 3370:0]
  %13 = getelementptr inbounds %struct.ssdm_int.9* %12, i32 0, i32 0, !dbg !9895 ; [#uses=1 type=i33*] [debug line = 3370:0]
  store i33 %11, i33* %13, align 8, !dbg !9895    ; [debug line = 3370:0]
  ret void, !dbg !9895                            ; [debug line = 3370:0]
}

; [#uses=1]
define linkonce_odr void @_ZN11ap_int_baseILi32ELb1ELb1EEC1Ei(%struct.ap_int_base* %this, i32 %op) unnamed_addr nounwind inlinehint alwaysinline align 2 {
  %1 = alloca %struct.ap_int_base*, align 4       ; [#uses=2 type=%struct.ap_int_base**]
  %2 = alloca i32, align 4                        ; [#uses=2 type=i32*]
  store %struct.ap_int_base* %this, %struct.ap_int_base** %1, align 4
  call void @llvm.dbg.declare(metadata !{%struct.ap_int_base** %1}, metadata !9899), !dbg !9900 ; [debug line = 1466:52] [debug variable = this]
  store i32 %op, i32* %2, align 4
  call void @llvm.dbg.declare(metadata !{i32* %2}, metadata !9901), !dbg !9902 ; [debug line = 1466:68] [debug variable = op]
  %3 = load %struct.ap_int_base** %1              ; [#uses=1 type=%struct.ap_int_base*]
  %4 = load i32* %2, align 4, !dbg !9903          ; [#uses=1 type=i32] [debug line = 1466:88]
  call void @_ZN11ap_int_baseILi32ELb1ELb1EEC2Ei(%struct.ap_int_base* %3, i32 %4), !dbg !9903 ; [debug line = 1466:88]
  ret void, !dbg !9903                            ; [debug line = 1466:88]
}

; [#uses=1]
define linkonce_odr void @_ZN11ap_int_baseILi32ELb1ELb1EEC2Ei(%struct.ap_int_base* %this, i32 %op) unnamed_addr nounwind inlinehint alwaysinline align 2 {
  %1 = alloca %struct.ap_int_base*, align 4       ; [#uses=2 type=%struct.ap_int_base**]
  %2 = alloca i32, align 4                        ; [#uses=2 type=i32*]
  store %struct.ap_int_base* %this, %struct.ap_int_base** %1, align 4
  call void @llvm.dbg.declare(metadata !{%struct.ap_int_base** %1}, metadata !9904), !dbg !9905 ; [debug line = 1466:52] [debug variable = this]
  store i32 %op, i32* %2, align 4
  call void @llvm.dbg.declare(metadata !{i32* %2}, metadata !9906), !dbg !9907 ; [debug line = 1466:68] [debug variable = op]
  %3 = load %struct.ap_int_base** %1              ; [#uses=2 type=%struct.ap_int_base*]
  %4 = bitcast %struct.ap_int_base* %3 to %"class.std::locale::id"*, !dbg !9908 ; [#uses=1 type=%"class.std::locale::id"*] [debug line = 1466:72]
  call void @_ZN8ssdm_intILi32ELb1EEC2Ev(%"class.std::locale::id"* %4), !dbg !9908 ; [debug line = 1466:72]
  %5 = load i32* %2, align 4, !dbg !9909          ; [#uses=1 type=i32] [debug line = 1466:74]
  %6 = bitcast %struct.ap_int_base* %3 to %"class.std::locale::id"*, !dbg !9909 ; [#uses=1 type=%"class.std::locale::id"*] [debug line = 1466:74]
  %7 = getelementptr inbounds %"class.std::locale::id"* %6, i32 0, i32 0, !dbg !9909 ; [#uses=1 type=i32*] [debug line = 1466:74]
  store i32 %5, i32* %7, align 4, !dbg !9909      ; [debug line = 1466:74]
  ret void, !dbg !9911                            ; [debug line = 1466:88]
}

; [#uses=1]
define linkonce_odr void @_ZN11ap_int_baseILi33ELb1ELb1EEC1ILi11ELb0EEERKS_IXT_EXT0_EXleT_Li64EEE(%struct.ap_fixed_base.8* %this, %struct.ap_int_base.29* %op) unnamed_addr nounwind inlinehint alwaysinline align 2 {
  %1 = alloca %struct.ap_fixed_base.8*, align 4   ; [#uses=2 type=%struct.ap_fixed_base.8**]
  %2 = alloca %struct.ap_int_base.29*, align 4    ; [#uses=2 type=%struct.ap_int_base.29**]
  store %struct.ap_fixed_base.8* %this, %struct.ap_fixed_base.8** %1, align 4
  call void @llvm.dbg.declare(metadata !{%struct.ap_fixed_base.8** %1}, metadata !9912), !dbg !9913 ; [debug line = 1451:43] [debug variable = this]
  store %struct.ap_int_base.29* %op, %struct.ap_int_base.29** %2, align 4
  call void @llvm.dbg.declare(metadata !{%struct.ap_int_base.29** %2}, metadata !9914), !dbg !9915 ; [debug line = 1451:89] [debug variable = op]
  %3 = load %struct.ap_fixed_base.8** %1          ; [#uses=1 type=%struct.ap_fixed_base.8*]
  %4 = load %struct.ap_int_base.29** %2, !dbg !9916 ; [#uses=1 type=%struct.ap_int_base.29*] [debug line = 1451:111]
  call void @_ZN11ap_int_baseILi33ELb1ELb1EEC2ILi11ELb0EEERKS_IXT_EXT0_EXleT_Li64EEE(%struct.ap_fixed_base.8* %3, %struct.ap_int_base.29* %4), !dbg !9916 ; [debug line = 1451:111]
