; ModuleID = '/home/ece492fa18/RFNoCFrameSynchHWAccel/ItoZero/correlator/solution1/.autopilot/db/a.o.3.bc'
target datalayout = "e-p:64:64:64-i1:8:8-i8:8:8-i16:16:16-i32:32:32-i64:64:64-f32:32:32-f64:64:64-v64:64:64-v128:128:128-a0:0:64-s0:64:64-f80:128:128-n8:16:32:64-S128"
target triple = "x86_64-unknown-linux-gnu"

@llvm_global_ctors_1 = appending global [0 x void ()*] zeroinitializer ; [#uses=0 type=[0 x void ()*]*]
@llvm_global_ctors_0 = appending global [0 x i32] zeroinitializer ; [#uses=0 type=[0 x i32]*]
@currentState = internal unnamed_addr global i1 false, align 1 ; [#uses=3 type=i1*]
@ItoZero_str = internal unnamed_addr constant [8 x i8] c"ItoZero\00" ; [#uses=1 type=[8 x i8]*]
@p_str3 = private unnamed_addr constant [5 x i8] c"both\00", align 1 ; [#uses=2 type=[5 x i8]*]
@p_str2 = private unnamed_addr constant [5 x i8] c"axis\00", align 1 ; [#uses=2 type=[5 x i8]*]
@p_str1 = private unnamed_addr constant [13 x i8] c"ap_ctrl_none\00", align 1 ; [#uses=1 type=[13 x i8]*]
@p_str = private unnamed_addr constant [1 x i8] zeroinitializer, align 1 ; [#uses=31 type=[1 x i8]*]

; [#uses=10]
declare void @llvm.dbg.value(metadata, i64, metadata) nounwind readnone

; [#uses=4]
declare void @llvm.dbg.declare(metadata, metadata) nounwind readnone

; [#uses=1]
define weak void @_ssdm_op_Write.axis.volatile.i32P.i1P(i32*, i1*, i32, i1) {
entry:
  store i32 %2, i32* %0
  store i1 %3, i1* %1
  ret void
}

; [#uses=1]
define weak void @_ssdm_op_SpecTopModule(...) {
entry:
  ret void
}

; [#uses=1]
define weak void @_ssdm_op_SpecResource(...) nounwind {
entry:
  ret void
}

; [#uses=6]
define weak void @_ssdm_op_SpecReset(...) nounwind {
entry:
  ret void
}

; [#uses=1]
define weak void @_ssdm_op_SpecPipeline(...) nounwind {
entry:
  ret void
}

; [#uses=3]
define weak void @_ssdm_op_SpecInterface(...) nounwind {
entry:
  ret void
}

; [#uses=5]
define weak void @_ssdm_op_SpecBitsMap(...) {
entry:
  ret void
}

; [#uses=1]
define weak { i32, i1 } @_ssdm_op_Read.axis.volatile.i32P.i1P(i32*, i1*) {
entry:
  %empty = load i32* %0                           ; [#uses=1 type=i32]
  %empty_3 = load i1* %1                          ; [#uses=1 type=i1]
  %mrv_0 = insertvalue { i32, i1 } undef, i32 %empty, 0 ; [#uses=1 type={ i32, i1 }]
  %mrv1 = insertvalue { i32, i1 } %mrv_0, i1 %empty_3, 1 ; [#uses=1 type={ i32, i1 }]
  ret { i32, i1 } %mrv1
}

; [#uses=1]
define weak i1 @_ssdm_op_Read.ap_auto.i1(i1) {
entry:
  ret i1 %0
}

; [#uses=0]
define void @ItoZero(i32* %i_data_V_data_V, i1* %i_data_V_last_V, i32* %o_data_V_data_V, i1* %o_data_V_last_V, i1 %start_V) {
.preheader35.preheader:
  call void (...)* @_ssdm_op_SpecBitsMap(i32* %i_data_V_data_V), !map !41
  call void (...)* @_ssdm_op_SpecBitsMap(i1* %i_data_V_last_V), !map !45
  call void (...)* @_ssdm_op_SpecBitsMap(i32* %o_data_V_data_V), !map !49
  call void (...)* @_ssdm_op_SpecBitsMap(i1* %o_data_V_last_V), !map !53
  call void (...)* @_ssdm_op_SpecBitsMap(i1 %start_V), !map !57
  call void (...)* @_ssdm_op_SpecTopModule([8 x i8]* @ItoZero_str) nounwind
  %start_V_read = call i1 @_ssdm_op_Read.ap_auto.i1(i1 %start_V) ; [#uses=1 type=i1]
  call void @llvm.dbg.declare(metadata !{i32* %i_data_V_data_V}, metadata !63), !dbg !1140 ; [debug line = 28:39] [debug variable = i_data.V.data.V]
  call void @llvm.dbg.declare(metadata !{i1* %i_data_V_last_V}, metadata !1141), !dbg !1140 ; [debug line = 28:39] [debug variable = i_data.V.last.V]
  call void @llvm.dbg.declare(metadata !{i32* %o_data_V_data_V}, metadata !1152), !dbg !1154 ; [debug line = 28:71] [debug variable = o_data.V.data.V]
  call void @llvm.dbg.declare(metadata !{i1* %o_data_V_last_V}, metadata !1155), !dbg !1154 ; [debug line = 28:71] [debug variable = o_data.V.last.V]
  call void (...)* @_ssdm_op_SpecResource(i32* %o_data_V_data_V, i1* %o_data_V_last_V, [1 x i8]* @p_str, [1 x i8]* @p_str, [1 x i8]* @p_str, i32 1, [1 x i8]* @p_str, [1 x i8]* @p_str, [1 x i8]* @p_str, [1 x i8]* @p_str, [1 x i8]* @p_str), !dbg !1156 ; [debug line = 35:1]
  call void (...)* @_ssdm_op_SpecInterface(i32 0, [13 x i8]* @p_str1, i32 0, i32 0, [1 x i8]* @p_str, i32 0, i32 0, [1 x i8]* @p_str, [1 x i8]* @p_str, [1 x i8]* @p_str, i32 0, i32 0, i32 0, i32 0, [1 x i8]* @p_str, [1 x i8]* @p_str) nounwind, !dbg !1158 ; [debug line = 37:1]
  call void (...)* @_ssdm_op_SpecInterface(i32* %o_data_V_data_V, i1* %o_data_V_last_V, [5 x i8]* @p_str2, i32 1, i32 1, [5 x i8]* @p_str3, i32 0, i32 0, [1 x i8]* @p_str, [1 x i8]* @p_str, [1 x i8]* @p_str, i32 0, i32 0, i32 0, i32 0, [1 x i8]* @p_str, [1 x i8]* @p_str) nounwind, !dbg !1159 ; [debug line = 38:1]
  call void (...)* @_ssdm_op_SpecInterface(i32* %i_data_V_data_V, i1* %i_data_V_last_V, [5 x i8]* @p_str2, i32 1, i32 1, [5 x i8]* @p_str3, i32 0, i32 0, [1 x i8]* @p_str, [1 x i8]* @p_str, [1 x i8]* @p_str, i32 0, i32 0, i32 0, i32 0, [1 x i8]* @p_str, [1 x i8]* @p_str) nounwind, !dbg !1160 ; [debug line = 39:1]
  call void (...)* @_ssdm_op_SpecPipeline(i32 1, i32 1, i32 1, i32 0, [1 x i8]* @p_str) nounwind, !dbg !1161 ; [debug line = 40:1]
  call void (...)* @_ssdm_op_SpecReset(i32 1, [1 x i8]* @p_str), !dbg !1162 ; [debug line = 42:1]
  call void (...)* @_ssdm_op_SpecReset(i32 1, [1 x i8]* @p_str), !dbg !1163 ; [debug line = 45:1]
  call void (...)* @_ssdm_op_SpecReset(i32 1, [1 x i8]* @p_str) nounwind, !dbg !1164 ; [debug line = 50:1]
  call void (...)* @_ssdm_op_SpecReset(i32 1, [1 x i8]* @p_str) nounwind, !dbg !1165 ; [debug line = 52:1]
  %currentState_load = load i1* @currentState, align 1, !dbg !1166 ; [#uses=1 type=i1] [debug line = 62:1]
  call void (...)* @_ssdm_op_SpecReset(i1* @currentState, i32 1, [1 x i8]* @p_str) nounwind, !dbg !1166 ; [debug line = 62:1]
  call void (...)* @_ssdm_op_SpecReset(i32 0, i32 1, [1 x i8]* @p_str) nounwind, !dbg !1167 ; [debug line = 66:1]
  br i1 %currentState_load, label %2, label %0, !dbg !1168 ; [debug line = 69:2]

; <label>:0                                       ; preds = %.preheader35.preheader
  br i1 %start_V_read, label %1, label %._crit_edge56, !dbg !1169 ; [debug line = 71:12]

; <label>:1                                       ; preds = %0
  store i1 true, i1* @currentState, align 1, !dbg !1171 ; [debug line = 72:10]
  br label %._crit_edge56, !dbg !1173             ; [debug line = 74:9]

._crit_edge56:                                    ; preds = %1, %0
  br label %._crit_edge55, !dbg !1174             ; [debug line = 75:9]

; <label>:2                                       ; preds = %.preheader35.preheader
  call void @llvm.dbg.value(metadata !{i32* %i_data_V_data_V}, i64 0, metadata !1175), !dbg !1180 ; [debug line = 123:48@77:6] [debug variable = stream<rfnoc_axis>.V.data.V]
  call void @llvm.dbg.value(metadata !{i1* %i_data_V_last_V}, i64 0, metadata !1182), !dbg !1180 ; [debug line = 123:48@77:6] [debug variable = stream<rfnoc_axis>.V.last.V]
  %empty = call { i32, i1 } @_ssdm_op_Read.axis.volatile.i32P.i1P(i32* %i_data_V_data_V, i1* %i_data_V_last_V), !dbg !1184 ; [#uses=2 type={ i32, i1 }] [debug line = 125:9@77:6]
  %tmp_data_V = extractvalue { i32, i1 } %empty, 0, !dbg !1184 ; [#uses=1 type=i32] [debug line = 125:9@77:6]
  %tmp_last_V = extractvalue { i32, i1 } %empty, 1, !dbg !1184 ; [#uses=1 type=i1] [debug line = 125:9@77:6]
  call void @llvm.dbg.value(metadata !{i32 %tmp_data_V}, i64 0, metadata !1186), !dbg !1184 ; [debug line = 125:9@77:6] [debug variable = tmp.data.V]
  call void @llvm.dbg.value(metadata !{i1 %tmp_last_V}, i64 0, metadata !1188), !dbg !1184 ; [debug line = 125:9@77:6] [debug variable = tmp.last.V]
  call void @llvm.dbg.value(metadata !{i32 %tmp_data_V}, i64 0, metadata !1189), !dbg !1191 ; [debug line = 174:5@80:6] [debug variable = out_sample.data.V]
  call void @llvm.dbg.value(metadata !{i1 %tmp_last_V}, i64 0, metadata !1195), !dbg !1196 ; [debug line = 281:5@81:6] [debug variable = out_sample.last.V]
  call void @llvm.dbg.value(metadata !{i32* %o_data_V_data_V}, i64 0, metadata !1200), !dbg !1203 ; [debug line = 144:48@83:6] [debug variable = stream<rfnoc_axis>.V.data.V]
  call void @llvm.dbg.value(metadata !{i1* %o_data_V_last_V}, i64 0, metadata !1205), !dbg !1203 ; [debug line = 144:48@83:6] [debug variable = stream<rfnoc_axis>.V.last.V]
  call void @llvm.dbg.value(metadata !{i32 %tmp_data_V}, i64 0, metadata !1206), !dbg !1209 ; [debug line = 145:31@83:6] [debug variable = tmp.data.V]
  call void @llvm.dbg.value(metadata !{i1 %tmp_last_V}, i64 0, metadata !1210), !dbg !1209 ; [debug line = 145:31@83:6] [debug variable = tmp.last.V]
  call void @_ssdm_op_Write.axis.volatile.i32P.i1P(i32* %o_data_V_data_V, i1* %o_data_V_last_V, i32 %tmp_data_V, i1 %tmp_last_V), !dbg !1211 ; [debug line = 146:9@83:6]
  br label %._crit_edge55, !dbg !1212             ; [debug line = 84:2]

._crit_edge55:                                    ; preds = %2, %._crit_edge56
  ret void, !dbg !1213                            ; [debug line = 87:1]
}

!opencl.kernels = !{!0, !7, !13, !16, !18, !21, !23, !29, !29, !23, !23, !32, !23, !23, !23, !23, !23, !23, !23, !23, !23, !23, !23, !23, !23, !23, !23, !23, !23, !23, !23, !23}
!hls.encrypted.func = !{}
!llvm.map.gv = !{!34}

!0 = metadata !{null, metadata !1, metadata !2, metadata !3, metadata !4, metadata !5, metadata !6}
!1 = metadata !{metadata !"kernel_arg_addr_space", i32 0, i32 0, i32 0}
!2 = metadata !{metadata !"kernel_arg_access_qual", metadata !"none", metadata !"none", metadata !"none"}
!3 = metadata !{metadata !"kernel_arg_type", metadata !"hls::stream<rfnoc_axis>", metadata !"hls::stream<rfnoc_axis>", metadata !"ap_uint<1>"}
!4 = metadata !{metadata !"kernel_arg_type_qual", metadata !"", metadata !"", metadata !""}
!5 = metadata !{metadata !"kernel_arg_name", metadata !"i_data", metadata !"o_data", metadata !"start"}
!6 = metadata !{metadata !"reqd_work_group_size", i32 1, i32 1, i32 1}
!7 = metadata !{null, metadata !8, metadata !9, metadata !10, metadata !11, metadata !12, metadata !6}
!8 = metadata !{metadata !"kernel_arg_addr_space", i32 0}
!9 = metadata !{metadata !"kernel_arg_access_qual", metadata !"none"}
!10 = metadata !{metadata !"kernel_arg_type", metadata !"const struct rfnoc_axis &"}
!11 = metadata !{metadata !"kernel_arg_type_qual", metadata !""}
!12 = metadata !{metadata !"kernel_arg_name", metadata !"din"}
!13 = metadata !{null, metadata !8, metadata !9, metadata !14, metadata !11, metadata !15, metadata !6}
!14 = metadata !{metadata !"kernel_arg_type", metadata !"const ap_uint<1> &"}
!15 = metadata !{metadata !"kernel_arg_name", metadata !"op2"}
!16 = metadata !{null, metadata !8, metadata !9, metadata !17, metadata !11, metadata !15, metadata !6}
!17 = metadata !{metadata !"kernel_arg_type", metadata !"const ap_int<32> &"}
!18 = metadata !{null, metadata !8, metadata !9, metadata !19, metadata !11, metadata !20, metadata !6}
!19 = metadata !{metadata !"kernel_arg_type", metadata !"struct rfnoc_axis &"}
!20 = metadata !{metadata !"kernel_arg_name", metadata !"dout"}
!21 = metadata !{null, metadata !8, metadata !9, metadata !10, metadata !11, metadata !22, metadata !6}
!22 = metadata !{metadata !"kernel_arg_name", metadata !""}
!23 = metadata !{null, metadata !24, metadata !25, metadata !26, metadata !27, metadata !28, metadata !6}
!24 = metadata !{metadata !"kernel_arg_addr_space"}
!25 = metadata !{metadata !"kernel_arg_access_qual"}
!26 = metadata !{metadata !"kernel_arg_type"}
!27 = metadata !{metadata !"kernel_arg_type_qual"}
!28 = metadata !{metadata !"kernel_arg_name"}
!29 = metadata !{null, metadata !8, metadata !9, metadata !30, metadata !11, metadata !31, metadata !6}
!30 = metadata !{metadata !"kernel_arg_type", metadata !"int"}
!31 = metadata !{metadata !"kernel_arg_name", metadata !"val"}
!32 = metadata !{null, metadata !8, metadata !9, metadata !33, metadata !11, metadata !15, metadata !6}
!33 = metadata !{metadata !"kernel_arg_type", metadata !"const ap_int<16> &"}
!34 = metadata !{metadata !35, [0 x i32]* @llvm_global_ctors_0}
!35 = metadata !{metadata !36}
!36 = metadata !{i32 0, i32 31, metadata !37}
!37 = metadata !{metadata !38}
!38 = metadata !{metadata !"llvm.global_ctors.0", metadata !39, metadata !"", i32 0, i32 31}
!39 = metadata !{metadata !40}
!40 = metadata !{i32 0, i32 0, i32 1}
!41 = metadata !{metadata !42}
!42 = metadata !{i32 0, i32 31, metadata !43}
!43 = metadata !{metadata !44}
!44 = metadata !{metadata !"i_data.V.data.V", metadata !39, metadata !"int32", i32 0, i32 31}
!45 = metadata !{metadata !46}
!46 = metadata !{i32 0, i32 0, metadata !47}
!47 = metadata !{metadata !48}
!48 = metadata !{metadata !"i_data.V.last.V", metadata !39, metadata !"uint1", i32 0, i32 0}
!49 = metadata !{metadata !50}
!50 = metadata !{i32 0, i32 31, metadata !51}
!51 = metadata !{metadata !52}
!52 = metadata !{metadata !"o_data.V.data.V", metadata !39, metadata !"int32", i32 0, i32 31}
!53 = metadata !{metadata !54}
!54 = metadata !{i32 0, i32 0, metadata !55}
!55 = metadata !{metadata !56}
!56 = metadata !{metadata !"o_data.V.last.V", metadata !39, metadata !"uint1", i32 0, i32 0}
!57 = metadata !{metadata !58}
!58 = metadata !{i32 0, i32 0, metadata !59}
!59 = metadata !{metadata !60}
!60 = metadata !{metadata !"start.V", metadata !61, metadata !"uint1", i32 0, i32 0}
!61 = metadata !{metadata !62}
!62 = metadata !{i32 0, i32 0, i32 0}
!63 = metadata !{i32 790531, metadata !64, metadata !"i_data.V.data.V", null, i32 28, metadata !1130, i32 0, i32 0} ; [ DW_TAG_arg_variable_field ]
!64 = metadata !{i32 786689, metadata !65, metadata !"i_data", metadata !66, i32 16777244, metadata !1099, i32 0, i32 0} ; [ DW_TAG_arg_variable ]
!65 = metadata !{i32 786478, i32 0, metadata !66, metadata !"ItoZero", metadata !"ItoZero", metadata !"_Z7ItoZeroN3hls6streamI10rfnoc_axisEES2_7ap_uintILi1EE", metadata !66, i32 28, metadata !67, i1 false, i1 true, i32 0, i32 0, null, i32 256, i1 false, null, null, null, metadata !95, i32 29} ; [ DW_TAG_subprogram ]
!66 = metadata !{i32 786473, metadata !"ItoZero.cpp", metadata !"/home/ece492fa18/RFNoCFrameSynchHWAccel/ItoZero", null} ; [ DW_TAG_file_type ]
!67 = metadata !{i32 786453, i32 0, metadata !"", i32 0, i32 0, i64 0, i64 0, i64 0, i32 0, null, metadata !68, i32 0, i32 0} ; [ DW_TAG_subroutine_type ]
!68 = metadata !{null, metadata !69, metadata !69, metadata !741}
!69 = metadata !{i32 786434, metadata !70, metadata !"stream<rfnoc_axis>", metadata !71, i32 79, i64 64, i64 32, i32 0, i32 0, null, metadata !72, i32 0, null, metadata !1128} ; [ DW_TAG_class_type ]
!70 = metadata !{i32 786489, null, metadata !"hls", metadata !71, i32 69} ; [ DW_TAG_namespace ]
!71 = metadata !{i32 786473, metadata !"/home/ece492fa18/Vivado/2017.4/common/technology/autopilot/hls_stream.h", metadata !"/home/ece492fa18/RFNoCFrameSynchHWAccel/ItoZero", null} ; [ DW_TAG_file_type ]
!72 = metadata !{metadata !73, metadata !1084, metadata !1088, metadata !1091, metadata !1096, metadata !1100, metadata !1104, metadata !1109, metadata !1113, metadata !1114, metadata !1115, metadata !1118, metadata !1121, metadata !1122, metadata !1125}
!73 = metadata !{i32 786445, metadata !69, metadata !"V", metadata !71, i32 163, i64 64, i64 32, i64 0, i32 0, metadata !74} ; [ DW_TAG_member ]
!74 = metadata !{i32 786434, null, metadata !"rfnoc_axis", metadata !75, i32 28, i64 64, i64 32, i32 0, i32 0, null, metadata !76, i32 0, null, null} ; [ DW_TAG_class_type ]
!75 = metadata !{i32 786473, metadata !"./rfnoc.h", metadata !"/home/ece492fa18/RFNoCFrameSynchHWAccel/ItoZero", null} ; [ DW_TAG_file_type ]
!76 = metadata !{metadata !77, metadata !740, metadata !1080}
!77 = metadata !{i32 786445, metadata !74, metadata !"data", metadata !75, i32 29, i64 32, i64 32, i64 0, i32 0, metadata !78} ; [ DW_TAG_member ]
!78 = metadata !{i32 786434, null, metadata !"ap_int<32>", metadata !79, i32 74, i64 32, i64 32, i32 0, i32 0, null, metadata !80, i32 0, null, metadata !739} ; [ DW_TAG_class_type ]
!79 = metadata !{i32 786473, metadata !"/home/ece492fa18/Vivado/2017.4/common/technology/autopilot/ap_int.h", metadata !"/home/ece492fa18/RFNoCFrameSynchHWAccel/ItoZero", null} ; [ DW_TAG_file_type ]
!80 = metadata !{metadata !81, metadata !658, metadata !662, metadata !668, metadata !674, metadata !677, metadata !680, metadata !683, metadata !686, metadata !689, metadata !692, metadata !695, metadata !698, metadata !701, metadata !704, metadata !707, metadata !710, metadata !713, metadata !716, metadata !719, metadata !722, metadata !725, metadata !729, metadata !732, metadata !736}
!81 = metadata !{i32 786460, metadata !78, null, metadata !79, i32 0, i64 0, i64 0, i64 0, i32 0, metadata !82} ; [ DW_TAG_inheritance ]
!82 = metadata !{i32 786434, null, metadata !"ap_int_base<32, true, true>", metadata !83, i32 1453, i64 32, i64 32, i32 0, i32 0, null, metadata !84, i32 0, null, metadata !656} ; [ DW_TAG_class_type ]
!83 = metadata !{i32 786473, metadata !"/home/ece492fa18/Vivado/2017.4/common/technology/autopilot/ap_int_syn.h", metadata !"/home/ece492fa18/RFNoCFrameSynchHWAccel/ItoZero", null} ; [ DW_TAG_file_type ]
!84 = metadata !{metadata !85, metadata !102, metadata !106, metadata !114, metadata !120, metadata !123, metadata !127, metadata !131, metadata !135, metadata !139, metadata !142, metadata !146, metadata !150, metadata !154, metadata !159, metadata !164, metadata !169, metadata !173, metadata !177, metadata !183, metadata !186, metadata !190, metadata !193, metadata !196, metadata !197, metadata !201, metadata !204, metadata !207, metadata !210, metadata !213, metadata !216, metadata !219, metadata !222, metadata !225, metadata !228, metadata !231, metadata !234, metadata !244, metadata !247, metadata !250, metadata !253, metadata !256, metadata !259, metadata !262, metadata !265, metadata !268, metadata !271, metadata !274, metadata !277, metadata !280, metadata !281, metadata !285, metadata !288, metadata !289, metadata !290, metadata !291, metadata !292, metadata !293, metadata !296, metadata !297, metadata !300, metadata !301, metadata !302, metadata !303, metadata !304, metadata !305, metadata !308, metadata !309, metadata !310, metadata !313, metadata !314, metadata !317, metadata !318, metadata !617, metadata !621, metadata !622, metadata !625, metadata !626, metadata !630, metadata !631, metadata !632, metadata !633, metadata !636, metadata !637, metadata !638, metadata !639, metadata !640, metadata !641, metadata !642, metadata !643, metadata !644, metadata !645, metadata !646, metadata !647, metadata !650, metadata !653}
!85 = metadata !{i32 786460, metadata !82, null, metadata !83, i32 0, i64 0, i64 0, i64 0, i32 0, metadata !86} ; [ DW_TAG_inheritance ]
!86 = metadata !{i32 786434, null, metadata !"ssdm_int<32 + 1024 * 0, true>", metadata !87, i32 34, i64 32, i64 32, i32 0, i32 0, null, metadata !88, i32 0, null, metadata !97} ; [ DW_TAG_class_type ]
!87 = metadata !{i32 786473, metadata !"/home/ece492fa18/Vivado/2017.4/common/technology/autopilot/etc/autopilot_dt.def", metadata !"/home/ece492fa18/RFNoCFrameSynchHWAccel/ItoZero", null} ; [ DW_TAG_file_type ]
!88 = metadata !{metadata !89, metadata !91}
!89 = metadata !{i32 786445, metadata !86, metadata !"V", metadata !87, i32 34, i64 32, i64 32, i64 0, i32 0, metadata !90} ; [ DW_TAG_member ]
!90 = metadata !{i32 786468, null, metadata !"int32", null, i32 0, i64 32, i64 32, i64 0, i32 0, i32 5} ; [ DW_TAG_base_type ]
!91 = metadata !{i32 786478, i32 0, metadata !86, metadata !"ssdm_int", metadata !"ssdm_int", metadata !"", metadata !87, i32 34, metadata !92, i1 false, i1 false, i32 0, i32 0, null, i32 256, i1 false, null, null, i32 0, metadata !95, i32 34} ; [ DW_TAG_subprogram ]
!92 = metadata !{i32 786453, i32 0, metadata !"", i32 0, i32 0, i64 0, i64 0, i64 0, i32 0, null, metadata !93, i32 0, i32 0} ; [ DW_TAG_subroutine_type ]
!93 = metadata !{null, metadata !94}
!94 = metadata !{i32 786447, i32 0, metadata !"", i32 0, i32 0, i64 64, i64 64, i64 0, i32 64, metadata !86} ; [ DW_TAG_pointer_type ]
!95 = metadata !{metadata !96}
!96 = metadata !{i32 786468}                      ; [ DW_TAG_base_type ]
!97 = metadata !{metadata !98, metadata !100}
!98 = metadata !{i32 786480, null, metadata !"_AP_N", metadata !99, i64 32, null, i32 0, i32 0} ; [ DW_TAG_template_value_parameter ]
!99 = metadata !{i32 786468, null, metadata !"int", null, i32 0, i64 32, i64 32, i64 0, i32 0, i32 5} ; [ DW_TAG_base_type ]
!100 = metadata !{i32 786480, null, metadata !"_AP_S", metadata !101, i64 1, null, i32 0, i32 0} ; [ DW_TAG_template_value_parameter ]
!101 = metadata !{i32 786468, null, metadata !"bool", null, i32 0, i64 8, i64 8, i64 0, i32 0, i32 2} ; [ DW_TAG_base_type ]
!102 = metadata !{i32 786478, i32 0, metadata !82, metadata !"ap_int_base", metadata !"ap_int_base", metadata !"", metadata !83, i32 1494, metadata !103, i1 false, i1 false, i32 0, i32 0, null, i32 256, i1 false, null, null, i32 0, metadata !95, i32 1494} ; [ DW_TAG_subprogram ]
!103 = metadata !{i32 786453, i32 0, metadata !"", i32 0, i32 0, i64 0, i64 0, i64 0, i32 0, null, metadata !104, i32 0, i32 0} ; [ DW_TAG_subroutine_type ]
!104 = metadata !{null, metadata !105}
!105 = metadata !{i32 786447, i32 0, metadata !"", i32 0, i32 0, i64 64, i64 64, i64 0, i32 64, metadata !82} ; [ DW_TAG_pointer_type ]
!106 = metadata !{i32 786478, i32 0, metadata !82, metadata !"ap_int_base<32, true>", metadata !"ap_int_base<32, true>", metadata !"", metadata !83, i32 1506, metadata !107, i1 false, i1 false, i32 0, i32 0, null, i32 256, i1 false, null, metadata !111, i32 0, metadata !95, i32 1506} ; [ DW_TAG_subprogram ]
!107 = metadata !{i32 786453, i32 0, metadata !"", i32 0, i32 0, i64 0, i64 0, i64 0, i32 0, null, metadata !108, i32 0, i32 0} ; [ DW_TAG_subroutine_type ]
!108 = metadata !{null, metadata !105, metadata !109}
!109 = metadata !{i32 786448, null, null, null, i32 0, i64 0, i64 0, i64 0, i32 0, metadata !110} ; [ DW_TAG_reference_type ]
!110 = metadata !{i32 786470, null, metadata !"", null, i32 0, i64 0, i64 0, i64 0, i32 0, metadata !82} ; [ DW_TAG_const_type ]
!111 = metadata !{metadata !112, metadata !113}
!112 = metadata !{i32 786480, null, metadata !"_AP_W2", metadata !99, i64 32, null, i32 0, i32 0} ; [ DW_TAG_template_value_parameter ]
!113 = metadata !{i32 786480, null, metadata !"_AP_S2", metadata !101, i64 1, null, i32 0, i32 0} ; [ DW_TAG_template_value_parameter ]
!114 = metadata !{i32 786478, i32 0, metadata !82, metadata !"ap_int_base<32, true>", metadata !"ap_int_base<32, true>", metadata !"", metadata !83, i32 1509, metadata !115, i1 false, i1 false, i32 0, i32 0, null, i32 256, i1 false, null, metadata !111, i32 0, metadata !95, i32 1509} ; [ DW_TAG_subprogram ]
!115 = metadata !{i32 786453, i32 0, metadata !"", i32 0, i32 0, i64 0, i64 0, i64 0, i32 0, null, metadata !116, i32 0, i32 0} ; [ DW_TAG_subroutine_type ]
!116 = metadata !{null, metadata !105, metadata !117}
!117 = metadata !{i32 786448, null, null, null, i32 0, i64 0, i64 0, i64 0, i32 0, metadata !118} ; [ DW_TAG_reference_type ]
!118 = metadata !{i32 786470, null, metadata !"", null, i32 0, i64 0, i64 0, i64 0, i32 0, metadata !119} ; [ DW_TAG_const_type ]
!119 = metadata !{i32 786485, null, metadata !"", null, i32 0, i64 0, i64 0, i64 0, i32 0, metadata !82} ; [ DW_TAG_volatile_type ]
!120 = metadata !{i32 786478, i32 0, metadata !82, metadata !"ap_int_base", metadata !"ap_int_base", metadata !"", metadata !83, i32 1516, metadata !121, i1 false, i1 false, i32 0, i32 0, null, i32 384, i1 false, null, null, i32 0, metadata !95, i32 1516} ; [ DW_TAG_subprogram ]
!121 = metadata !{i32 786453, i32 0, metadata !"", i32 0, i32 0, i64 0, i64 0, i64 0, i32 0, null, metadata !122, i32 0, i32 0} ; [ DW_TAG_subroutine_type ]
!122 = metadata !{null, metadata !105, metadata !101}
!123 = metadata !{i32 786478, i32 0, metadata !82, metadata !"ap_int_base", metadata !"ap_int_base", metadata !"", metadata !83, i32 1517, metadata !124, i1 false, i1 false, i32 0, i32 0, null, i32 384, i1 false, null, null, i32 0, metadata !95, i32 1517} ; [ DW_TAG_subprogram ]
!124 = metadata !{i32 786453, i32 0, metadata !"", i32 0, i32 0, i64 0, i64 0, i64 0, i32 0, null, metadata !125, i32 0, i32 0} ; [ DW_TAG_subroutine_type ]
!125 = metadata !{null, metadata !105, metadata !126}
!126 = metadata !{i32 786468, null, metadata !"signed char", null, i32 0, i64 8, i64 8, i64 0, i32 0, i32 6} ; [ DW_TAG_base_type ]
!127 = metadata !{i32 786478, i32 0, metadata !82, metadata !"ap_int_base", metadata !"ap_int_base", metadata !"", metadata !83, i32 1518, metadata !128, i1 false, i1 false, i32 0, i32 0, null, i32 384, i1 false, null, null, i32 0, metadata !95, i32 1518} ; [ DW_TAG_subprogram ]
!128 = metadata !{i32 786453, i32 0, metadata !"", i32 0, i32 0, i64 0, i64 0, i64 0, i32 0, null, metadata !129, i32 0, i32 0} ; [ DW_TAG_subroutine_type ]
!129 = metadata !{null, metadata !105, metadata !130}
!130 = metadata !{i32 786468, null, metadata !"unsigned char", null, i32 0, i64 8, i64 8, i64 0, i32 0, i32 8} ; [ DW_TAG_base_type ]
!131 = metadata !{i32 786478, i32 0, metadata !82, metadata !"ap_int_base", metadata !"ap_int_base", metadata !"", metadata !83, i32 1519, metadata !132, i1 false, i1 false, i32 0, i32 0, null, i32 384, i1 false, null, null, i32 0, metadata !95, i32 1519} ; [ DW_TAG_subprogram ]
!132 = metadata !{i32 786453, i32 0, metadata !"", i32 0, i32 0, i64 0, i64 0, i64 0, i32 0, null, metadata !133, i32 0, i32 0} ; [ DW_TAG_subroutine_type ]
!133 = metadata !{null, metadata !105, metadata !134}
!134 = metadata !{i32 786468, null, metadata !"short", null, i32 0, i64 16, i64 16, i64 0, i32 0, i32 5} ; [ DW_TAG_base_type ]
!135 = metadata !{i32 786478, i32 0, metadata !82, metadata !"ap_int_base", metadata !"ap_int_base", metadata !"", metadata !83, i32 1520, metadata !136, i1 false, i1 false, i32 0, i32 0, null, i32 384, i1 false, null, null, i32 0, metadata !95, i32 1520} ; [ DW_TAG_subprogram ]
!136 = metadata !{i32 786453, i32 0, metadata !"", i32 0, i32 0, i64 0, i64 0, i64 0, i32 0, null, metadata !137, i32 0, i32 0} ; [ DW_TAG_subroutine_type ]
!137 = metadata !{null, metadata !105, metadata !138}
!138 = metadata !{i32 786468, null, metadata !"unsigned short", null, i32 0, i64 16, i64 16, i64 0, i32 0, i32 7} ; [ DW_TAG_base_type ]
!139 = metadata !{i32 786478, i32 0, metadata !82, metadata !"ap_int_base", metadata !"ap_int_base", metadata !"", metadata !83, i32 1521, metadata !140, i1 false, i1 false, i32 0, i32 0, null, i32 384, i1 false, null, null, i32 0, metadata !95, i32 1521} ; [ DW_TAG_subprogram ]
!140 = metadata !{i32 786453, i32 0, metadata !"", i32 0, i32 0, i64 0, i64 0, i64 0, i32 0, null, metadata !141, i32 0, i32 0} ; [ DW_TAG_subroutine_type ]
!141 = metadata !{null, metadata !105, metadata !99}
!142 = metadata !{i32 786478, i32 0, metadata !82, metadata !"ap_int_base", metadata !"ap_int_base", metadata !"", metadata !83, i32 1522, metadata !143, i1 false, i1 false, i32 0, i32 0, null, i32 384, i1 false, null, null, i32 0, metadata !95, i32 1522} ; [ DW_TAG_subprogram ]
!143 = metadata !{i32 786453, i32 0, metadata !"", i32 0, i32 0, i64 0, i64 0, i64 0, i32 0, null, metadata !144, i32 0, i32 0} ; [ DW_TAG_subroutine_type ]
!144 = metadata !{null, metadata !105, metadata !145}
!145 = metadata !{i32 786468, null, metadata !"unsigned int", null, i32 0, i64 32, i64 32, i64 0, i32 0, i32 7} ; [ DW_TAG_base_type ]
!146 = metadata !{i32 786478, i32 0, metadata !82, metadata !"ap_int_base", metadata !"ap_int_base", metadata !"", metadata !83, i32 1523, metadata !147, i1 false, i1 false, i32 0, i32 0, null, i32 384, i1 false, null, null, i32 0, metadata !95, i32 1523} ; [ DW_TAG_subprogram ]
!147 = metadata !{i32 786453, i32 0, metadata !"", i32 0, i32 0, i64 0, i64 0, i64 0, i32 0, null, metadata !148, i32 0, i32 0} ; [ DW_TAG_subroutine_type ]
!148 = metadata !{null, metadata !105, metadata !149}
!149 = metadata !{i32 786468, null, metadata !"long int", null, i32 0, i64 64, i64 64, i64 0, i32 0, i32 5} ; [ DW_TAG_base_type ]
!150 = metadata !{i32 786478, i32 0, metadata !82, metadata !"ap_int_base", metadata !"ap_int_base", metadata !"", metadata !83, i32 1524, metadata !151, i1 false, i1 false, i32 0, i32 0, null, i32 384, i1 false, null, null, i32 0, metadata !95, i32 1524} ; [ DW_TAG_subprogram ]
!151 = metadata !{i32 786453, i32 0, metadata !"", i32 0, i32 0, i64 0, i64 0, i64 0, i32 0, null, metadata !152, i32 0, i32 0} ; [ DW_TAG_subroutine_type ]
!152 = metadata !{null, metadata !105, metadata !153}
!153 = metadata !{i32 786468, null, metadata !"long unsigned int", null, i32 0, i64 64, i64 64, i64 0, i32 0, i32 7} ; [ DW_TAG_base_type ]
!154 = metadata !{i32 786478, i32 0, metadata !82, metadata !"ap_int_base", metadata !"ap_int_base", metadata !"", metadata !83, i32 1525, metadata !155, i1 false, i1 false, i32 0, i32 0, null, i32 384, i1 false, null, null, i32 0, metadata !95, i32 1525} ; [ DW_TAG_subprogram ]
!155 = metadata !{i32 786453, i32 0, metadata !"", i32 0, i32 0, i64 0, i64 0, i64 0, i32 0, null, metadata !156, i32 0, i32 0} ; [ DW_TAG_subroutine_type ]
!156 = metadata !{null, metadata !105, metadata !157}
!157 = metadata !{i32 786454, null, metadata !"ap_slong", metadata !83, i32 112, i64 0, i64 0, i64 0, i32 0, metadata !158} ; [ DW_TAG_typedef ]
!158 = metadata !{i32 786468, null, metadata !"long long int", null, i32 0, i64 64, i64 64, i64 0, i32 0, i32 5} ; [ DW_TAG_base_type ]
!159 = metadata !{i32 786478, i32 0, metadata !82, metadata !"ap_int_base", metadata !"ap_int_base", metadata !"", metadata !83, i32 1526, metadata !160, i1 false, i1 false, i32 0, i32 0, null, i32 384, i1 false, null, null, i32 0, metadata !95, i32 1526} ; [ DW_TAG_subprogram ]
!160 = metadata !{i32 786453, i32 0, metadata !"", i32 0, i32 0, i64 0, i64 0, i64 0, i32 0, null, metadata !161, i32 0, i32 0} ; [ DW_TAG_subroutine_type ]
!161 = metadata !{null, metadata !105, metadata !162}
!162 = metadata !{i32 786454, null, metadata !"ap_ulong", metadata !83, i32 111, i64 0, i64 0, i64 0, i32 0, metadata !163} ; [ DW_TAG_typedef ]
!163 = metadata !{i32 786468, null, metadata !"long long unsigned int", null, i32 0, i64 64, i64 64, i64 0, i32 0, i32 7} ; [ DW_TAG_base_type ]
!164 = metadata !{i32 786478, i32 0, metadata !82, metadata !"ap_int_base", metadata !"ap_int_base", metadata !"", metadata !83, i32 1527, metadata !165, i1 false, i1 false, i32 0, i32 0, null, i32 384, i1 false, null, null, i32 0, metadata !95, i32 1527} ; [ DW_TAG_subprogram ]
!165 = metadata !{i32 786453, i32 0, metadata !"", i32 0, i32 0, i64 0, i64 0, i64 0, i32 0, null, metadata !166, i32 0, i32 0} ; [ DW_TAG_subroutine_type ]
!166 = metadata !{null, metadata !105, metadata !167}
!167 = metadata !{i32 786454, null, metadata !"half", metadata !83, i32 54, i64 0, i64 0, i64 0, i32 0, metadata !168} ; [ DW_TAG_typedef ]
!168 = metadata !{i32 786468, null, metadata !"half", null, i32 0, i64 16, i64 16, i64 0, i32 0, i32 4} ; [ DW_TAG_base_type ]
!169 = metadata !{i32 786478, i32 0, metadata !82, metadata !"ap_int_base", metadata !"ap_int_base", metadata !"", metadata !83, i32 1528, metadata !170, i1 false, i1 false, i32 0, i32 0, null, i32 384, i1 false, null, null, i32 0, metadata !95, i32 1528} ; [ DW_TAG_subprogram ]
!170 = metadata !{i32 786453, i32 0, metadata !"", i32 0, i32 0, i64 0, i64 0, i64 0, i32 0, null, metadata !171, i32 0, i32 0} ; [ DW_TAG_subroutine_type ]
!171 = metadata !{null, metadata !105, metadata !172}
!172 = metadata !{i32 786468, null, metadata !"float", null, i32 0, i64 32, i64 32, i64 0, i32 0, i32 4} ; [ DW_TAG_base_type ]
!173 = metadata !{i32 786478, i32 0, metadata !82, metadata !"ap_int_base", metadata !"ap_int_base", metadata !"", metadata !83, i32 1529, metadata !174, i1 false, i1 false, i32 0, i32 0, null, i32 384, i1 false, null, null, i32 0, metadata !95, i32 1529} ; [ DW_TAG_subprogram ]
!174 = metadata !{i32 786453, i32 0, metadata !"", i32 0, i32 0, i64 0, i64 0, i64 0, i32 0, null, metadata !175, i32 0, i32 0} ; [ DW_TAG_subroutine_type ]
!175 = metadata !{null, metadata !105, metadata !176}
!176 = metadata !{i32 786468, null, metadata !"double", null, i32 0, i64 64, i64 64, i64 0, i32 0, i32 4} ; [ DW_TAG_base_type ]
!177 = metadata !{i32 786478, i32 0, metadata !82, metadata !"ap_int_base", metadata !"ap_int_base", metadata !"", metadata !83, i32 1556, metadata !178, i1 false, i1 false, i32 0, i32 0, null, i32 256, i1 false, null, null, i32 0, metadata !95, i32 1556} ; [ DW_TAG_subprogram ]
!178 = metadata !{i32 786453, i32 0, metadata !"", i32 0, i32 0, i64 0, i64 0, i64 0, i32 0, null, metadata !179, i32 0, i32 0} ; [ DW_TAG_subroutine_type ]
!179 = metadata !{null, metadata !105, metadata !180}
!180 = metadata !{i32 786447, null, metadata !"", null, i32 0, i64 64, i64 64, i64 0, i32 0, metadata !181} ; [ DW_TAG_pointer_type ]
!181 = metadata !{i32 786470, null, metadata !"", null, i32 0, i64 0, i64 0, i64 0, i32 0, metadata !182} ; [ DW_TAG_const_type ]
!182 = metadata !{i32 786468, null, metadata !"char", null, i32 0, i64 8, i64 8, i64 0, i32 0, i32 6} ; [ DW_TAG_base_type ]
!183 = metadata !{i32 786478, i32 0, metadata !82, metadata !"ap_int_base", metadata !"ap_int_base", metadata !"", metadata !83, i32 1563, metadata !184, i1 false, i1 false, i32 0, i32 0, null, i32 256, i1 false, null, null, i32 0, metadata !95, i32 1563} ; [ DW_TAG_subprogram ]
!184 = metadata !{i32 786453, i32 0, metadata !"", i32 0, i32 0, i64 0, i64 0, i64 0, i32 0, null, metadata !185, i32 0, i32 0} ; [ DW_TAG_subroutine_type ]
!185 = metadata !{null, metadata !105, metadata !180, metadata !126}
!186 = metadata !{i32 786478, i32 0, metadata !82, metadata !"read", metadata !"read", metadata !"_ZNV11ap_int_baseILi32ELb1ELb1EE4readEv", metadata !83, i32 1584, metadata !187, i1 false, i1 false, i32 0, i32 0, null, i32 256, i1 false, null, null, i32 0, metadata !95, i32 1584} ; [ DW_TAG_subprogram ]
!187 = metadata !{i32 786453, i32 0, metadata !"", i32 0, i32 0, i64 0, i64 0, i64 0, i32 0, null, metadata !188, i32 0, i32 0} ; [ DW_TAG_subroutine_type ]
!188 = metadata !{metadata !82, metadata !189}
!189 = metadata !{i32 786447, i32 0, metadata !"", i32 0, i32 0, i64 64, i64 64, i64 0, i32 64, metadata !119} ; [ DW_TAG_pointer_type ]
!190 = metadata !{i32 786478, i32 0, metadata !82, metadata !"write", metadata !"write", metadata !"_ZNV11ap_int_baseILi32ELb1ELb1EE5writeERKS0_", metadata !83, i32 1590, metadata !191, i1 false, i1 false, i32 0, i32 0, null, i32 256, i1 false, null, null, i32 0, metadata !95, i32 1590} ; [ DW_TAG_subprogram ]
!191 = metadata !{i32 786453, i32 0, metadata !"", i32 0, i32 0, i64 0, i64 0, i64 0, i32 0, null, metadata !192, i32 0, i32 0} ; [ DW_TAG_subroutine_type ]
!192 = metadata !{null, metadata !189, metadata !109}
!193 = metadata !{i32 786478, i32 0, metadata !82, metadata !"operator=", metadata !"operator=", metadata !"_ZNV11ap_int_baseILi32ELb1ELb1EEaSERVKS0_", metadata !83, i32 1602, metadata !194, i1 false, i1 false, i32 0, i32 0, null, i32 256, i1 false, null, null, i32 0, metadata !95, i32 1602} ; [ DW_TAG_subprogram ]
!194 = metadata !{i32 786453, i32 0, metadata !"", i32 0, i32 0, i64 0, i64 0, i64 0, i32 0, null, metadata !195, i32 0, i32 0} ; [ DW_TAG_subroutine_type ]
!195 = metadata !{null, metadata !189, metadata !117}
!196 = metadata !{i32 786478, i32 0, metadata !82, metadata !"operator=", metadata !"operator=", metadata !"_ZNV11ap_int_baseILi32ELb1ELb1EEaSERKS0_", metadata !83, i32 1611, metadata !191, i1 false, i1 false, i32 0, i32 0, null, i32 256, i1 false, null, null, i32 0, metadata !95, i32 1611} ; [ DW_TAG_subprogram ]
!197 = metadata !{i32 786478, i32 0, metadata !82, metadata !"operator=", metadata !"operator=", metadata !"_ZN11ap_int_baseILi32ELb1ELb1EEaSERVKS0_", metadata !83, i32 1634, metadata !198, i1 false, i1 false, i32 0, i32 0, null, i32 256, i1 false, null, null, i32 0, metadata !95, i32 1634} ; [ DW_TAG_subprogram ]
!198 = metadata !{i32 786453, i32 0, metadata !"", i32 0, i32 0, i64 0, i64 0, i64 0, i32 0, null, metadata !199, i32 0, i32 0} ; [ DW_TAG_subroutine_type ]
!199 = metadata !{metadata !200, metadata !105, metadata !117}
!200 = metadata !{i32 786448, null, null, null, i32 0, i64 0, i64 0, i64 0, i32 0, metadata !82} ; [ DW_TAG_reference_type ]
!201 = metadata !{i32 786478, i32 0, metadata !82, metadata !"operator=", metadata !"operator=", metadata !"_ZN11ap_int_baseILi32ELb1ELb1EEaSERKS0_", metadata !83, i32 1639, metadata !202, i1 false, i1 false, i32 0, i32 0, null, i32 256, i1 false, null, null, i32 0, metadata !95, i32 1639} ; [ DW_TAG_subprogram ]
!202 = metadata !{i32 786453, i32 0, metadata !"", i32 0, i32 0, i64 0, i64 0, i64 0, i32 0, null, metadata !203, i32 0, i32 0} ; [ DW_TAG_subroutine_type ]
!203 = metadata !{metadata !200, metadata !105, metadata !109}
!204 = metadata !{i32 786478, i32 0, metadata !82, metadata !"operator=", metadata !"operator=", metadata !"_ZN11ap_int_baseILi32ELb1ELb1EEaSEPKc", metadata !83, i32 1643, metadata !205, i1 false, i1 false, i32 0, i32 0, null, i32 256, i1 false, null, null, i32 0, metadata !95, i32 1643} ; [ DW_TAG_subprogram ]
!205 = metadata !{i32 786453, i32 0, metadata !"", i32 0, i32 0, i64 0, i64 0, i64 0, i32 0, null, metadata !206, i32 0, i32 0} ; [ DW_TAG_subroutine_type ]
!206 = metadata !{metadata !200, metadata !105, metadata !180}
!207 = metadata !{i32 786478, i32 0, metadata !82, metadata !"set", metadata !"set", metadata !"_ZN11ap_int_baseILi32ELb1ELb1EE3setEPKca", metadata !83, i32 1651, metadata !208, i1 false, i1 false, i32 0, i32 0, null, i32 256, i1 false, null, null, i32 0, metadata !95, i32 1651} ; [ DW_TAG_subprogram ]
!208 = metadata !{i32 786453, i32 0, metadata !"", i32 0, i32 0, i64 0, i64 0, i64 0, i32 0, null, metadata !209, i32 0, i32 0} ; [ DW_TAG_subroutine_type ]
!209 = metadata !{metadata !200, metadata !105, metadata !180, metadata !126}
!210 = metadata !{i32 786478, i32 0, metadata !82, metadata !"operator=", metadata !"operator=", metadata !"_ZN11ap_int_baseILi32ELb1ELb1EEaSEa", metadata !83, i32 1665, metadata !211, i1 false, i1 false, i32 0, i32 0, null, i32 256, i1 false, null, null, i32 0, metadata !95, i32 1665} ; [ DW_TAG_subprogram ]
!211 = metadata !{i32 786453, i32 0, metadata !"", i32 0, i32 0, i64 0, i64 0, i64 0, i32 0, null, metadata !212, i32 0, i32 0} ; [ DW_TAG_subroutine_type ]
!212 = metadata !{metadata !200, metadata !105, metadata !126}
!213 = metadata !{i32 786478, i32 0, metadata !82, metadata !"operator=", metadata !"operator=", metadata !"_ZN11ap_int_baseILi32ELb1ELb1EEaSEh", metadata !83, i32 1666, metadata !214, i1 false, i1 false, i32 0, i32 0, null, i32 256, i1 false, null, null, i32 0, metadata !95, i32 1666} ; [ DW_TAG_subprogram ]
!214 = metadata !{i32 786453, i32 0, metadata !"", i32 0, i32 0, i64 0, i64 0, i64 0, i32 0, null, metadata !215, i32 0, i32 0} ; [ DW_TAG_subroutine_type ]
!215 = metadata !{metadata !200, metadata !105, metadata !130}
!216 = metadata !{i32 786478, i32 0, metadata !82, metadata !"operator=", metadata !"operator=", metadata !"_ZN11ap_int_baseILi32ELb1ELb1EEaSEs", metadata !83, i32 1667, metadata !217, i1 false, i1 false, i32 0, i32 0, null, i32 256, i1 false, null, null, i32 0, metadata !95, i32 1667} ; [ DW_TAG_subprogram ]
!217 = metadata !{i32 786453, i32 0, metadata !"", i32 0, i32 0, i64 0, i64 0, i64 0, i32 0, null, metadata !218, i32 0, i32 0} ; [ DW_TAG_subroutine_type ]
!218 = metadata !{metadata !200, metadata !105, metadata !134}
!219 = metadata !{i32 786478, i32 0, metadata !82, metadata !"operator=", metadata !"operator=", metadata !"_ZN11ap_int_baseILi32ELb1ELb1EEaSEt", metadata !83, i32 1668, metadata !220, i1 false, i1 false, i32 0, i32 0, null, i32 256, i1 false, null, null, i32 0, metadata !95, i32 1668} ; [ DW_TAG_subprogram ]
!220 = metadata !{i32 786453, i32 0, metadata !"", i32 0, i32 0, i64 0, i64 0, i64 0, i32 0, null, metadata !221, i32 0, i32 0} ; [ DW_TAG_subroutine_type ]
!221 = metadata !{metadata !200, metadata !105, metadata !138}
!222 = metadata !{i32 786478, i32 0, metadata !82, metadata !"operator=", metadata !"operator=", metadata !"_ZN11ap_int_baseILi32ELb1ELb1EEaSEi", metadata !83, i32 1669, metadata !223, i1 false, i1 false, i32 0, i32 0, null, i32 256, i1 false, null, null, i32 0, metadata !95, i32 1669} ; [ DW_TAG_subprogram ]
!223 = metadata !{i32 786453, i32 0, metadata !"", i32 0, i32 0, i64 0, i64 0, i64 0, i32 0, null, metadata !224, i32 0, i32 0} ; [ DW_TAG_subroutine_type ]
!224 = metadata !{metadata !200, metadata !105, metadata !99}
!225 = metadata !{i32 786478, i32 0, metadata !82, metadata !"operator=", metadata !"operator=", metadata !"_ZN11ap_int_baseILi32ELb1ELb1EEaSEj", metadata !83, i32 1670, metadata !226, i1 false, i1 false, i32 0, i32 0, null, i32 256, i1 false, null, null, i32 0, metadata !95, i32 1670} ; [ DW_TAG_subprogram ]
!226 = metadata !{i32 786453, i32 0, metadata !"", i32 0, i32 0, i64 0, i64 0, i64 0, i32 0, null, metadata !227, i32 0, i32 0} ; [ DW_TAG_subroutine_type ]
!227 = metadata !{metadata !200, metadata !105, metadata !145}
!228 = metadata !{i32 786478, i32 0, metadata !82, metadata !"operator=", metadata !"operator=", metadata !"_ZN11ap_int_baseILi32ELb1ELb1EEaSEx", metadata !83, i32 1671, metadata !229, i1 false, i1 false, i32 0, i32 0, null, i32 256, i1 false, null, null, i32 0, metadata !95, i32 1671} ; [ DW_TAG_subprogram ]
!229 = metadata !{i32 786453, i32 0, metadata !"", i32 0, i32 0, i64 0, i64 0, i64 0, i32 0, null, metadata !230, i32 0, i32 0} ; [ DW_TAG_subroutine_type ]
!230 = metadata !{metadata !200, metadata !105, metadata !157}
!231 = metadata !{i32 786478, i32 0, metadata !82, metadata !"operator=", metadata !"operator=", metadata !"_ZN11ap_int_baseILi32ELb1ELb1EEaSEy", metadata !83, i32 1672, metadata !232, i1 false, i1 false, i32 0, i32 0, null, i32 256, i1 false, null, null, i32 0, metadata !95, i32 1672} ; [ DW_TAG_subprogram ]
!232 = metadata !{i32 786453, i32 0, metadata !"", i32 0, i32 0, i64 0, i64 0, i64 0, i32 0, null, metadata !233, i32 0, i32 0} ; [ DW_TAG_subroutine_type ]
!233 = metadata !{metadata !200, metadata !105, metadata !162}
!234 = metadata !{i32 786478, i32 0, metadata !82, metadata !"operator int", metadata !"operator int", metadata !"_ZNK11ap_int_baseILi32ELb1ELb1EEcviEv", metadata !83, i32 1710, metadata !235, i1 false, i1 false, i32 0, i32 0, null, i32 256, i1 false, null, null, i32 0, metadata !95, i32 1710} ; [ DW_TAG_subprogram ]
!235 = metadata !{i32 786453, i32 0, metadata !"", i32 0, i32 0, i64 0, i64 0, i64 0, i32 0, null, metadata !236, i32 0, i32 0} ; [ DW_TAG_subroutine_type ]
!236 = metadata !{metadata !237, metadata !243}
!237 = metadata !{i32 786454, metadata !82, metadata !"RetType", metadata !83, i32 1458, i64 0, i64 0, i64 0, i32 0, metadata !238} ; [ DW_TAG_typedef ]
!238 = metadata !{i32 786454, metadata !239, metadata !"Type", metadata !83, i32 1441, i64 0, i64 0, i64 0, i32 0, metadata !99} ; [ DW_TAG_typedef ]
!239 = metadata !{i32 786434, null, metadata !"retval<4, true>", metadata !83, i32 1440, i64 8, i64 8, i32 0, i32 0, null, metadata !240, i32 0, null, metadata !241} ; [ DW_TAG_class_type ]
!240 = metadata !{i32 0}
!241 = metadata !{metadata !242, metadata !100}
!242 = metadata !{i32 786480, null, metadata !"_AP_N", metadata !99, i64 4, null, i32 0, i32 0} ; [ DW_TAG_template_value_parameter ]
!243 = metadata !{i32 786447, i32 0, metadata !"", i32 0, i32 0, i64 64, i64 64, i64 0, i32 64, metadata !110} ; [ DW_TAG_pointer_type ]
!244 = metadata !{i32 786478, i32 0, metadata !82, metadata !"to_bool", metadata !"to_bool", metadata !"_ZNK11ap_int_baseILi32ELb1ELb1EE7to_boolEv", metadata !83, i32 1716, metadata !245, i1 false, i1 false, i32 0, i32 0, null, i32 256, i1 false, null, null, i32 0, metadata !95, i32 1716} ; [ DW_TAG_subprogram ]
!245 = metadata !{i32 786453, i32 0, metadata !"", i32 0, i32 0, i64 0, i64 0, i64 0, i32 0, null, metadata !246, i32 0, i32 0} ; [ DW_TAG_subroutine_type ]
!246 = metadata !{metadata !101, metadata !243}
!247 = metadata !{i32 786478, i32 0, metadata !82, metadata !"to_uchar", metadata !"to_uchar", metadata !"_ZNK11ap_int_baseILi32ELb1ELb1EE8to_ucharEv", metadata !83, i32 1717, metadata !248, i1 false, i1 false, i32 0, i32 0, null, i32 256, i1 false, null, null, i32 0, metadata !95, i32 1717} ; [ DW_TAG_subprogram ]
!248 = metadata !{i32 786453, i32 0, metadata !"", i32 0, i32 0, i64 0, i64 0, i64 0, i32 0, null, metadata !249, i32 0, i32 0} ; [ DW_TAG_subroutine_type ]
!249 = metadata !{metadata !130, metadata !243}
!250 = metadata !{i32 786478, i32 0, metadata !82, metadata !"to_char", metadata !"to_char", metadata !"_ZNK11ap_int_baseILi32ELb1ELb1EE7to_charEv", metadata !83, i32 1718, metadata !251, i1 false, i1 false, i32 0, i32 0, null, i32 256, i1 false, null, null, i32 0, metadata !95, i32 1718} ; [ DW_TAG_subprogram ]
!251 = metadata !{i32 786453, i32 0, metadata !"", i32 0, i32 0, i64 0, i64 0, i64 0, i32 0, null, metadata !252, i32 0, i32 0} ; [ DW_TAG_subroutine_type ]
!252 = metadata !{metadata !126, metadata !243}
!253 = metadata !{i32 786478, i32 0, metadata !82, metadata !"to_ushort", metadata !"to_ushort", metadata !"_ZNK11ap_int_baseILi32ELb1ELb1EE9to_ushortEv", metadata !83, i32 1719, metadata !254, i1 false, i1 false, i32 0, i32 0, null, i32 256, i1 false, null, null, i32 0, metadata !95, i32 1719} ; [ DW_TAG_subprogram ]
!254 = metadata !{i32 786453, i32 0, metadata !"", i32 0, i32 0, i64 0, i64 0, i64 0, i32 0, null, metadata !255, i32 0, i32 0} ; [ DW_TAG_subroutine_type ]
!255 = metadata !{metadata !138, metadata !243}
!256 = metadata !{i32 786478, i32 0, metadata !82, metadata !"to_short", metadata !"to_short", metadata !"_ZNK11ap_int_baseILi32ELb1ELb1EE8to_shortEv", metadata !83, i32 1720, metadata !257, i1 false, i1 false, i32 0, i32 0, null, i32 256, i1 false, null, null, i32 0, metadata !95, i32 1720} ; [ DW_TAG_subprogram ]
!257 = metadata !{i32 786453, i32 0, metadata !"", i32 0, i32 0, i64 0, i64 0, i64 0, i32 0, null, metadata !258, i32 0, i32 0} ; [ DW_TAG_subroutine_type ]
!258 = metadata !{metadata !134, metadata !243}
!259 = metadata !{i32 786478, i32 0, metadata !82, metadata !"to_int", metadata !"to_int", metadata !"_ZNK11ap_int_baseILi32ELb1ELb1EE6to_intEv", metadata !83, i32 1721, metadata !260, i1 false, i1 false, i32 0, i32 0, null, i32 256, i1 false, null, null, i32 0, metadata !95, i32 1721} ; [ DW_TAG_subprogram ]
!260 = metadata !{i32 786453, i32 0, metadata !"", i32 0, i32 0, i64 0, i64 0, i64 0, i32 0, null, metadata !261, i32 0, i32 0} ; [ DW_TAG_subroutine_type ]
!261 = metadata !{metadata !99, metadata !243}
!262 = metadata !{i32 786478, i32 0, metadata !82, metadata !"to_uint", metadata !"to_uint", metadata !"_ZNK11ap_int_baseILi32ELb1ELb1EE7to_uintEv", metadata !83, i32 1722, metadata !263, i1 false, i1 false, i32 0, i32 0, null, i32 256, i1 false, null, null, i32 0, metadata !95, i32 1722} ; [ DW_TAG_subprogram ]
!263 = metadata !{i32 786453, i32 0, metadata !"", i32 0, i32 0, i64 0, i64 0, i64 0, i32 0, null, metadata !264, i32 0, i32 0} ; [ DW_TAG_subroutine_type ]
!264 = metadata !{metadata !145, metadata !243}
!265 = metadata !{i32 786478, i32 0, metadata !82, metadata !"to_long", metadata !"to_long", metadata !"_ZNK11ap_int_baseILi32ELb1ELb1EE7to_longEv", metadata !83, i32 1723, metadata !266, i1 false, i1 false, i32 0, i32 0, null, i32 256, i1 false, null, null, i32 0, metadata !95, i32 1723} ; [ DW_TAG_subprogram ]
!266 = metadata !{i32 786453, i32 0, metadata !"", i32 0, i32 0, i64 0, i64 0, i64 0, i32 0, null, metadata !267, i32 0, i32 0} ; [ DW_TAG_subroutine_type ]
!267 = metadata !{metadata !149, metadata !243}
!268 = metadata !{i32 786478, i32 0, metadata !82, metadata !"to_ulong", metadata !"to_ulong", metadata !"_ZNK11ap_int_baseILi32ELb1ELb1EE8to_ulongEv", metadata !83, i32 1724, metadata !269, i1 false, i1 false, i32 0, i32 0, null, i32 256, i1 false, null, null, i32 0, metadata !95, i32 1724} ; [ DW_TAG_subprogram ]
!269 = metadata !{i32 786453, i32 0, metadata !"", i32 0, i32 0, i64 0, i64 0, i64 0, i32 0, null, metadata !270, i32 0, i32 0} ; [ DW_TAG_subroutine_type ]
!270 = metadata !{metadata !153, metadata !243}
!271 = metadata !{i32 786478, i32 0, metadata !82, metadata !"to_int64", metadata !"to_int64", metadata !"_ZNK11ap_int_baseILi32ELb1ELb1EE8to_int64Ev", metadata !83, i32 1725, metadata !272, i1 false, i1 false, i32 0, i32 0, null, i32 256, i1 false, null, null, i32 0, metadata !95, i32 1725} ; [ DW_TAG_subprogram ]
!272 = metadata !{i32 786453, i32 0, metadata !"", i32 0, i32 0, i64 0, i64 0, i64 0, i32 0, null, metadata !273, i32 0, i32 0} ; [ DW_TAG_subroutine_type ]
!273 = metadata !{metadata !157, metadata !243}
!274 = metadata !{i32 786478, i32 0, metadata !82, metadata !"to_uint64", metadata !"to_uint64", metadata !"_ZNK11ap_int_baseILi32ELb1ELb1EE9to_uint64Ev", metadata !83, i32 1726, metadata !275, i1 false, i1 false, i32 0, i32 0, null, i32 256, i1 false, null, null, i32 0, metadata !95, i32 1726} ; [ DW_TAG_subprogram ]
!275 = metadata !{i32 786453, i32 0, metadata !"", i32 0, i32 0, i64 0, i64 0, i64 0, i32 0, null, metadata !276, i32 0, i32 0} ; [ DW_TAG_subroutine_type ]
!276 = metadata !{metadata !162, metadata !243}
!277 = metadata !{i32 786478, i32 0, metadata !82, metadata !"to_double", metadata !"to_double", metadata !"_ZNK11ap_int_baseILi32ELb1ELb1EE9to_doubleEv", metadata !83, i32 1727, metadata !278, i1 false, i1 false, i32 0, i32 0, null, i32 256, i1 false, null, null, i32 0, metadata !95, i32 1727} ; [ DW_TAG_subprogram ]
!278 = metadata !{i32 786453, i32 0, metadata !"", i32 0, i32 0, i64 0, i64 0, i64 0, i32 0, null, metadata !279, i32 0, i32 0} ; [ DW_TAG_subroutine_type ]
!279 = metadata !{metadata !176, metadata !243}
!280 = metadata !{i32 786478, i32 0, metadata !82, metadata !"length", metadata !"length", metadata !"_ZNK11ap_int_baseILi32ELb1ELb1EE6lengthEv", metadata !83, i32 1741, metadata !260, i1 false, i1 false, i32 0, i32 0, null, i32 256, i1 false, null, null, i32 0, metadata !95, i32 1741} ; [ DW_TAG_subprogram ]
!281 = metadata !{i32 786478, i32 0, metadata !82, metadata !"length", metadata !"length", metadata !"_ZNVK11ap_int_baseILi32ELb1ELb1EE6lengthEv", metadata !83, i32 1742, metadata !282, i1 false, i1 false, i32 0, i32 0, null, i32 256, i1 false, null, null, i32 0, metadata !95, i32 1742} ; [ DW_TAG_subprogram ]
!282 = metadata !{i32 786453, i32 0, metadata !"", i32 0, i32 0, i64 0, i64 0, i64 0, i32 0, null, metadata !283, i32 0, i32 0} ; [ DW_TAG_subroutine_type ]
!283 = metadata !{metadata !99, metadata !284}
!284 = metadata !{i32 786447, i32 0, metadata !"", i32 0, i32 0, i64 64, i64 64, i64 0, i32 64, metadata !118} ; [ DW_TAG_pointer_type ]
!285 = metadata !{i32 786478, i32 0, metadata !82, metadata !"reverse", metadata !"reverse", metadata !"_ZN11ap_int_baseILi32ELb1ELb1EE7reverseEv", metadata !83, i32 1747, metadata !286, i1 false, i1 false, i32 0, i32 0, null, i32 256, i1 false, null, null, i32 0, metadata !95, i32 1747} ; [ DW_TAG_subprogram ]
!286 = metadata !{i32 786453, i32 0, metadata !"", i32 0, i32 0, i64 0, i64 0, i64 0, i32 0, null, metadata !287, i32 0, i32 0} ; [ DW_TAG_subroutine_type ]
!287 = metadata !{metadata !200, metadata !105}
!288 = metadata !{i32 786478, i32 0, metadata !82, metadata !"iszero", metadata !"iszero", metadata !"_ZNK11ap_int_baseILi32ELb1ELb1EE6iszeroEv", metadata !83, i32 1753, metadata !245, i1 false, i1 false, i32 0, i32 0, null, i32 256, i1 false, null, null, i32 0, metadata !95, i32 1753} ; [ DW_TAG_subprogram ]
!289 = metadata !{i32 786478, i32 0, metadata !82, metadata !"is_zero", metadata !"is_zero", metadata !"_ZNK11ap_int_baseILi32ELb1ELb1EE7is_zeroEv", metadata !83, i32 1758, metadata !245, i1 false, i1 false, i32 0, i32 0, null, i32 256, i1 false, null, null, i32 0, metadata !95, i32 1758} ; [ DW_TAG_subprogram ]
!290 = metadata !{i32 786478, i32 0, metadata !82, metadata !"sign", metadata !"sign", metadata !"_ZNK11ap_int_baseILi32ELb1ELb1EE4signEv", metadata !83, i32 1763, metadata !245, i1 false, i1 false, i32 0, i32 0, null, i32 256, i1 false, null, null, i32 0, metadata !95, i32 1763} ; [ DW_TAG_subprogram ]
!291 = metadata !{i32 786478, i32 0, metadata !82, metadata !"clear", metadata !"clear", metadata !"_ZN11ap_int_baseILi32ELb1ELb1EE5clearEi", metadata !83, i32 1771, metadata !140, i1 false, i1 false, i32 0, i32 0, null, i32 256, i1 false, null, null, i32 0, metadata !95, i32 1771} ; [ DW_TAG_subprogram ]
!292 = metadata !{i32 786478, i32 0, metadata !82, metadata !"invert", metadata !"invert", metadata !"_ZN11ap_int_baseILi32ELb1ELb1EE6invertEi", metadata !83, i32 1777, metadata !140, i1 false, i1 false, i32 0, i32 0, null, i32 256, i1 false, null, null, i32 0, metadata !95, i32 1777} ; [ DW_TAG_subprogram ]
!293 = metadata !{i32 786478, i32 0, metadata !82, metadata !"test", metadata !"test", metadata !"_ZNK11ap_int_baseILi32ELb1ELb1EE4testEi", metadata !83, i32 1785, metadata !294, i1 false, i1 false, i32 0, i32 0, null, i32 256, i1 false, null, null, i32 0, metadata !95, i32 1785} ; [ DW_TAG_subprogram ]
!294 = metadata !{i32 786453, i32 0, metadata !"", i32 0, i32 0, i64 0, i64 0, i64 0, i32 0, null, metadata !295, i32 0, i32 0} ; [ DW_TAG_subroutine_type ]
!295 = metadata !{metadata !101, metadata !243, metadata !99}
!296 = metadata !{i32 786478, i32 0, metadata !82, metadata !"set", metadata !"set", metadata !"_ZN11ap_int_baseILi32ELb1ELb1EE3setEi", metadata !83, i32 1791, metadata !140, i1 false, i1 false, i32 0, i32 0, null, i32 256, i1 false, null, null, i32 0, metadata !95, i32 1791} ; [ DW_TAG_subprogram ]
!297 = metadata !{i32 786478, i32 0, metadata !82, metadata !"set", metadata !"set", metadata !"_ZN11ap_int_baseILi32ELb1ELb1EE3setEib", metadata !83, i32 1797, metadata !298, i1 false, i1 false, i32 0, i32 0, null, i32 256, i1 false, null, null, i32 0, metadata !95, i32 1797} ; [ DW_TAG_subprogram ]
!298 = metadata !{i32 786453, i32 0, metadata !"", i32 0, i32 0, i64 0, i64 0, i64 0, i32 0, null, metadata !299, i32 0, i32 0} ; [ DW_TAG_subroutine_type ]
!299 = metadata !{null, metadata !105, metadata !99, metadata !101}
!300 = metadata !{i32 786478, i32 0, metadata !82, metadata !"lrotate", metadata !"lrotate", metadata !"_ZN11ap_int_baseILi32ELb1ELb1EE7lrotateEi", metadata !83, i32 1804, metadata !140, i1 false, i1 false, i32 0, i32 0, null, i32 256, i1 false, null, null, i32 0, metadata !95, i32 1804} ; [ DW_TAG_subprogram ]
!301 = metadata !{i32 786478, i32 0, metadata !82, metadata !"rrotate", metadata !"rrotate", metadata !"_ZN11ap_int_baseILi32ELb1ELb1EE7rrotateEi", metadata !83, i32 1813, metadata !140, i1 false, i1 false, i32 0, i32 0, null, i32 256, i1 false, null, null, i32 0, metadata !95, i32 1813} ; [ DW_TAG_subprogram ]
!302 = metadata !{i32 786478, i32 0, metadata !82, metadata !"set_bit", metadata !"set_bit", metadata !"_ZN11ap_int_baseILi32ELb1ELb1EE7set_bitEib", metadata !83, i32 1821, metadata !298, i1 false, i1 false, i32 0, i32 0, null, i32 256, i1 false, null, null, i32 0, metadata !95, i32 1821} ; [ DW_TAG_subprogram ]
!303 = metadata !{i32 786478, i32 0, metadata !82, metadata !"get_bit", metadata !"get_bit", metadata !"_ZNK11ap_int_baseILi32ELb1ELb1EE7get_bitEi", metadata !83, i32 1826, metadata !294, i1 false, i1 false, i32 0, i32 0, null, i32 256, i1 false, null, null, i32 0, metadata !95, i32 1826} ; [ DW_TAG_subprogram ]
!304 = metadata !{i32 786478, i32 0, metadata !82, metadata !"b_not", metadata !"b_not", metadata !"_ZN11ap_int_baseILi32ELb1ELb1EE5b_notEv", metadata !83, i32 1831, metadata !103, i1 false, i1 false, i32 0, i32 0, null, i32 256, i1 false, null, null, i32 0, metadata !95, i32 1831} ; [ DW_TAG_subprogram ]
!305 = metadata !{i32 786478, i32 0, metadata !82, metadata !"countLeadingZeros", metadata !"countLeadingZeros", metadata !"_ZN11ap_int_baseILi32ELb1ELb1EE17countLeadingZerosEv", metadata !83, i32 1838, metadata !306, i1 false, i1 false, i32 0, i32 0, null, i32 256, i1 false, null, null, i32 0, metadata !95, i32 1838} ; [ DW_TAG_subprogram ]
!306 = metadata !{i32 786453, i32 0, metadata !"", i32 0, i32 0, i64 0, i64 0, i64 0, i32 0, null, metadata !307, i32 0, i32 0} ; [ DW_TAG_subroutine_type ]
!307 = metadata !{metadata !99, metadata !105}
!308 = metadata !{i32 786478, i32 0, metadata !82, metadata !"operator++", metadata !"operator++", metadata !"_ZN11ap_int_baseILi32ELb1ELb1EEppEv", metadata !83, i32 1895, metadata !286, i1 false, i1 false, i32 0, i32 0, null, i32 256, i1 false, null, null, i32 0, metadata !95, i32 1895} ; [ DW_TAG_subprogram ]
!309 = metadata !{i32 786478, i32 0, metadata !82, metadata !"operator--", metadata !"operator--", metadata !"_ZN11ap_int_baseILi32ELb1ELb1EEmmEv", metadata !83, i32 1899, metadata !286, i1 false, i1 false, i32 0, i32 0, null, i32 256, i1 false, null, null, i32 0, metadata !95, i32 1899} ; [ DW_TAG_subprogram ]
!310 = metadata !{i32 786478, i32 0, metadata !82, metadata !"operator++", metadata !"operator++", metadata !"_ZN11ap_int_baseILi32ELb1ELb1EEppEi", metadata !83, i32 1907, metadata !311, i1 false, i1 false, i32 0, i32 0, null, i32 256, i1 false, null, null, i32 0, metadata !95, i32 1907} ; [ DW_TAG_subprogram ]
!311 = metadata !{i32 786453, i32 0, metadata !"", i32 0, i32 0, i64 0, i64 0, i64 0, i32 0, null, metadata !312, i32 0, i32 0} ; [ DW_TAG_subroutine_type ]
!312 = metadata !{metadata !110, metadata !105, metadata !99}
!313 = metadata !{i32 786478, i32 0, metadata !82, metadata !"operator--", metadata !"operator--", metadata !"_ZN11ap_int_baseILi32ELb1ELb1EEmmEi", metadata !83, i32 1912, metadata !311, i1 false, i1 false, i32 0, i32 0, null, i32 256, i1 false, null, null, i32 0, metadata !95, i32 1912} ; [ DW_TAG_subprogram ]
!314 = metadata !{i32 786478, i32 0, metadata !82, metadata !"operator+", metadata !"operator+", metadata !"_ZNK11ap_int_baseILi32ELb1ELb1EEpsEv", metadata !83, i32 1921, metadata !315, i1 false, i1 false, i32 0, i32 0, null, i32 256, i1 false, null, null, i32 0, metadata !95, i32 1921} ; [ DW_TAG_subprogram ]
!315 = metadata !{i32 786453, i32 0, metadata !"", i32 0, i32 0, i64 0, i64 0, i64 0, i32 0, null, metadata !316, i32 0, i32 0} ; [ DW_TAG_subroutine_type ]
!316 = metadata !{metadata !82, metadata !243}
!317 = metadata !{i32 786478, i32 0, metadata !82, metadata !"operator!", metadata !"operator!", metadata !"_ZNK11ap_int_baseILi32ELb1ELb1EEntEv", metadata !83, i32 1927, metadata !245, i1 false, i1 false, i32 0, i32 0, null, i32 256, i1 false, null, null, i32 0, metadata !95, i32 1927} ; [ DW_TAG_subprogram ]
!318 = metadata !{i32 786478, i32 0, metadata !82, metadata !"operator-", metadata !"operator-", metadata !"_ZNK11ap_int_baseILi32ELb1ELb1EEngEv", metadata !83, i32 1932, metadata !319, i1 false, i1 false, i32 0, i32 0, null, i32 256, i1 false, null, null, i32 0, metadata !95, i32 1932} ; [ DW_TAG_subprogram ]
!319 = metadata !{i32 786453, i32 0, metadata !"", i32 0, i32 0, i64 0, i64 0, i64 0, i32 0, null, metadata !320, i32 0, i32 0} ; [ DW_TAG_subroutine_type ]
!320 = metadata !{metadata !321, metadata !243}
!321 = metadata !{i32 786434, null, metadata !"ap_int_base<33, true, true>", metadata !83, i32 1453, i64 64, i64 64, i32 0, i32 0, null, metadata !322, i32 0, null, metadata !615} ; [ DW_TAG_class_type ]
!322 = metadata !{metadata !323, metadata !334, metadata !338, metadata !345, metadata !351, metadata !354, metadata !357, metadata !360, metadata !363, metadata !366, metadata !369, metadata !372, metadata !375, metadata !378, metadata !381, metadata !384, metadata !387, metadata !390, metadata !393, metadata !396, metadata !399, metadata !403, metadata !406, metadata !409, metadata !410, metadata !414, metadata !417, metadata !420, metadata !423, metadata !426, metadata !429, metadata !432, metadata !435, metadata !438, metadata !441, metadata !444, metadata !447, metadata !456, metadata !459, metadata !462, metadata !465, metadata !468, metadata !471, metadata !474, metadata !477, metadata !480, metadata !483, metadata !486, metadata !489, metadata !492, metadata !493, metadata !497, metadata !500, metadata !501, metadata !502, metadata !503, metadata !504, metadata !505, metadata !508, metadata !509, metadata !512, metadata !513, metadata !514, metadata !515, metadata !516, metadata !517, metadata !520, metadata !521, metadata !522, metadata !525, metadata !526, metadata !529, metadata !530, metadata !534, metadata !538, metadata !539, metadata !542, metadata !543, metadata !582, metadata !583, metadata !584, metadata !585, metadata !588, metadata !589, metadata !590, metadata !591, metadata !592, metadata !593, metadata !594, metadata !595, metadata !596, metadata !597, metadata !598, metadata !599, metadata !609, metadata !612}
!323 = metadata !{i32 786460, metadata !321, null, metadata !83, i32 0, i64 0, i64 0, i64 0, i32 0, metadata !324} ; [ DW_TAG_inheritance ]
!324 = metadata !{i32 786434, null, metadata !"ssdm_int<33 + 1024 * 0, true>", metadata !87, i32 35, i64 64, i64 64, i32 0, i32 0, null, metadata !325, i32 0, null, metadata !332} ; [ DW_TAG_class_type ]
!325 = metadata !{metadata !326, metadata !328}
!326 = metadata !{i32 786445, metadata !324, metadata !"V", metadata !87, i32 35, i64 33, i64 64, i64 0, i32 0, metadata !327} ; [ DW_TAG_member ]
!327 = metadata !{i32 786468, null, metadata !"int33", null, i32 0, i64 33, i64 64, i64 0, i32 0, i32 5} ; [ DW_TAG_base_type ]
!328 = metadata !{i32 786478, i32 0, metadata !324, metadata !"ssdm_int", metadata !"ssdm_int", metadata !"", metadata !87, i32 35, metadata !329, i1 false, i1 false, i32 0, i32 0, null, i32 256, i1 false, null, null, i32 0, metadata !95, i32 35} ; [ DW_TAG_subprogram ]
!329 = metadata !{i32 786453, i32 0, metadata !"", i32 0, i32 0, i64 0, i64 0, i64 0, i32 0, null, metadata !330, i32 0, i32 0} ; [ DW_TAG_subroutine_type ]
!330 = metadata !{null, metadata !331}
!331 = metadata !{i32 786447, i32 0, metadata !"", i32 0, i32 0, i64 64, i64 64, i64 0, i32 64, metadata !324} ; [ DW_TAG_pointer_type ]
!332 = metadata !{metadata !333, metadata !100}
!333 = metadata !{i32 786480, null, metadata !"_AP_N", metadata !99, i64 33, null, i32 0, i32 0} ; [ DW_TAG_template_value_parameter ]
!334 = metadata !{i32 786478, i32 0, metadata !321, metadata !"ap_int_base", metadata !"ap_int_base", metadata !"", metadata !83, i32 1494, metadata !335, i1 false, i1 false, i32 0, i32 0, null, i32 256, i1 false, null, null, i32 0, metadata !95, i32 1494} ; [ DW_TAG_subprogram ]
!335 = metadata !{i32 786453, i32 0, metadata !"", i32 0, i32 0, i64 0, i64 0, i64 0, i32 0, null, metadata !336, i32 0, i32 0} ; [ DW_TAG_subroutine_type ]
!336 = metadata !{null, metadata !337}
!337 = metadata !{i32 786447, i32 0, metadata !"", i32 0, i32 0, i64 64, i64 64, i64 0, i32 64, metadata !321} ; [ DW_TAG_pointer_type ]
!338 = metadata !{i32 786478, i32 0, metadata !321, metadata !"ap_int_base<33, true>", metadata !"ap_int_base<33, true>", metadata !"", metadata !83, i32 1506, metadata !339, i1 false, i1 false, i32 0, i32 0, null, i32 256, i1 false, null, metadata !343, i32 0, metadata !95, i32 1506} ; [ DW_TAG_subprogram ]
!339 = metadata !{i32 786453, i32 0, metadata !"", i32 0, i32 0, i64 0, i64 0, i64 0, i32 0, null, metadata !340, i32 0, i32 0} ; [ DW_TAG_subroutine_type ]
!340 = metadata !{null, metadata !337, metadata !341}
!341 = metadata !{i32 786448, null, null, null, i32 0, i64 0, i64 0, i64 0, i32 0, metadata !342} ; [ DW_TAG_reference_type ]
!342 = metadata !{i32 786470, null, metadata !"", null, i32 0, i64 0, i64 0, i64 0, i32 0, metadata !321} ; [ DW_TAG_const_type ]
!343 = metadata !{metadata !344, metadata !113}
!344 = metadata !{i32 786480, null, metadata !"_AP_W2", metadata !99, i64 33, null, i32 0, i32 0} ; [ DW_TAG_template_value_parameter ]
!345 = metadata !{i32 786478, i32 0, metadata !321, metadata !"ap_int_base<33, true>", metadata !"ap_int_base<33, true>", metadata !"", metadata !83, i32 1509, metadata !346, i1 false, i1 false, i32 0, i32 0, null, i32 256, i1 false, null, metadata !343, i32 0, metadata !95, i32 1509} ; [ DW_TAG_subprogram ]
!346 = metadata !{i32 786453, i32 0, metadata !"", i32 0, i32 0, i64 0, i64 0, i64 0, i32 0, null, metadata !347, i32 0, i32 0} ; [ DW_TAG_subroutine_type ]
!347 = metadata !{null, metadata !337, metadata !348}
!348 = metadata !{i32 786448, null, null, null, i32 0, i64 0, i64 0, i64 0, i32 0, metadata !349} ; [ DW_TAG_reference_type ]
!349 = metadata !{i32 786470, null, metadata !"", null, i32 0, i64 0, i64 0, i64 0, i32 0, metadata !350} ; [ DW_TAG_const_type ]
!350 = metadata !{i32 786485, null, metadata !"", null, i32 0, i64 0, i64 0, i64 0, i32 0, metadata !321} ; [ DW_TAG_volatile_type ]
!351 = metadata !{i32 786478, i32 0, metadata !321, metadata !"ap_int_base", metadata !"ap_int_base", metadata !"", metadata !83, i32 1516, metadata !352, i1 false, i1 false, i32 0, i32 0, null, i32 384, i1 false, null, null, i32 0, metadata !95, i32 1516} ; [ DW_TAG_subprogram ]
!352 = metadata !{i32 786453, i32 0, metadata !"", i32 0, i32 0, i64 0, i64 0, i64 0, i32 0, null, metadata !353, i32 0, i32 0} ; [ DW_TAG_subroutine_type ]
!353 = metadata !{null, metadata !337, metadata !101}
!354 = metadata !{i32 786478, i32 0, metadata !321, metadata !"ap_int_base", metadata !"ap_int_base", metadata !"", metadata !83, i32 1517, metadata !355, i1 false, i1 false, i32 0, i32 0, null, i32 384, i1 false, null, null, i32 0, metadata !95, i32 1517} ; [ DW_TAG_subprogram ]
!355 = metadata !{i32 786453, i32 0, metadata !"", i32 0, i32 0, i64 0, i64 0, i64 0, i32 0, null, metadata !356, i32 0, i32 0} ; [ DW_TAG_subroutine_type ]
!356 = metadata !{null, metadata !337, metadata !126}
!357 = metadata !{i32 786478, i32 0, metadata !321, metadata !"ap_int_base", metadata !"ap_int_base", metadata !"", metadata !83, i32 1518, metadata !358, i1 false, i1 false, i32 0, i32 0, null, i32 384, i1 false, null, null, i32 0, metadata !95, i32 1518} ; [ DW_TAG_subprogram ]
!358 = metadata !{i32 786453, i32 0, metadata !"", i32 0, i32 0, i64 0, i64 0, i64 0, i32 0, null, metadata !359, i32 0, i32 0} ; [ DW_TAG_subroutine_type ]
!359 = metadata !{null, metadata !337, metadata !130}
!360 = metadata !{i32 786478, i32 0, metadata !321, metadata !"ap_int_base", metadata !"ap_int_base", metadata !"", metadata !83, i32 1519, metadata !361, i1 false, i1 false, i32 0, i32 0, null, i32 384, i1 false, null, null, i32 0, metadata !95, i32 1519} ; [ DW_TAG_subprogram ]
!361 = metadata !{i32 786453, i32 0, metadata !"", i32 0, i32 0, i64 0, i64 0, i64 0, i32 0, null, metadata !362, i32 0, i32 0} ; [ DW_TAG_subroutine_type ]
!362 = metadata !{null, metadata !337, metadata !134}
!363 = metadata !{i32 786478, i32 0, metadata !321, metadata !"ap_int_base", metadata !"ap_int_base", metadata !"", metadata !83, i32 1520, metadata !364, i1 false, i1 false, i32 0, i32 0, null, i32 384, i1 false, null, null, i32 0, metadata !95, i32 1520} ; [ DW_TAG_subprogram ]
!364 = metadata !{i32 786453, i32 0, metadata !"", i32 0, i32 0, i64 0, i64 0, i64 0, i32 0, null, metadata !365, i32 0, i32 0} ; [ DW_TAG_subroutine_type ]
!365 = metadata !{null, metadata !337, metadata !138}
!366 = metadata !{i32 786478, i32 0, metadata !321, metadata !"ap_int_base", metadata !"ap_int_base", metadata !"", metadata !83, i32 1521, metadata !367, i1 false, i1 false, i32 0, i32 0, null, i32 384, i1 false, null, null, i32 0, metadata !95, i32 1521} ; [ DW_TAG_subprogram ]
!367 = metadata !{i32 786453, i32 0, metadata !"", i32 0, i32 0, i64 0, i64 0, i64 0, i32 0, null, metadata !368, i32 0, i32 0} ; [ DW_TAG_subroutine_type ]
!368 = metadata !{null, metadata !337, metadata !99}
!369 = metadata !{i32 786478, i32 0, metadata !321, metadata !"ap_int_base", metadata !"ap_int_base", metadata !"", metadata !83, i32 1522, metadata !370, i1 false, i1 false, i32 0, i32 0, null, i32 384, i1 false, null, null, i32 0, metadata !95, i32 1522} ; [ DW_TAG_subprogram ]
!370 = metadata !{i32 786453, i32 0, metadata !"", i32 0, i32 0, i64 0, i64 0, i64 0, i32 0, null, metadata !371, i32 0, i32 0} ; [ DW_TAG_subroutine_type ]
!371 = metadata !{null, metadata !337, metadata !145}
!372 = metadata !{i32 786478, i32 0, metadata !321, metadata !"ap_int_base", metadata !"ap_int_base", metadata !"", metadata !83, i32 1523, metadata !373, i1 false, i1 false, i32 0, i32 0, null, i32 384, i1 false, null, null, i32 0, metadata !95, i32 1523} ; [ DW_TAG_subprogram ]
!373 = metadata !{i32 786453, i32 0, metadata !"", i32 0, i32 0, i64 0, i64 0, i64 0, i32 0, null, metadata !374, i32 0, i32 0} ; [ DW_TAG_subroutine_type ]
!374 = metadata !{null, metadata !337, metadata !149}
!375 = metadata !{i32 786478, i32 0, metadata !321, metadata !"ap_int_base", metadata !"ap_int_base", metadata !"", metadata !83, i32 1524, metadata !376, i1 false, i1 false, i32 0, i32 0, null, i32 384, i1 false, null, null, i32 0, metadata !95, i32 1524} ; [ DW_TAG_subprogram ]
!376 = metadata !{i32 786453, i32 0, metadata !"", i32 0, i32 0, i64 0, i64 0, i64 0, i32 0, null, metadata !377, i32 0, i32 0} ; [ DW_TAG_subroutine_type ]
!377 = metadata !{null, metadata !337, metadata !153}
!378 = metadata !{i32 786478, i32 0, metadata !321, metadata !"ap_int_base", metadata !"ap_int_base", metadata !"", metadata !83, i32 1525, metadata !379, i1 false, i1 false, i32 0, i32 0, null, i32 384, i1 false, null, null, i32 0, metadata !95, i32 1525} ; [ DW_TAG_subprogram ]
!379 = metadata !{i32 786453, i32 0, metadata !"", i32 0, i32 0, i64 0, i64 0, i64 0, i32 0, null, metadata !380, i32 0, i32 0} ; [ DW_TAG_subroutine_type ]
!380 = metadata !{null, metadata !337, metadata !157}
!381 = metadata !{i32 786478, i32 0, metadata !321, metadata !"ap_int_base", metadata !"ap_int_base", metadata !"", metadata !83, i32 1526, metadata !382, i1 false, i1 false, i32 0, i32 0, null, i32 384, i1 false, null, null, i32 0, metadata !95, i32 1526} ; [ DW_TAG_subprogram ]
!382 = metadata !{i32 786453, i32 0, metadata !"", i32 0, i32 0, i64 0, i64 0, i64 0, i32 0, null, metadata !383, i32 0, i32 0} ; [ DW_TAG_subroutine_type ]
!383 = metadata !{null, metadata !337, metadata !162}
!384 = metadata !{i32 786478, i32 0, metadata !321, metadata !"ap_int_base", metadata !"ap_int_base", metadata !"", metadata !83, i32 1527, metadata !385, i1 false, i1 false, i32 0, i32 0, null, i32 384, i1 false, null, null, i32 0, metadata !95, i32 1527} ; [ DW_TAG_subprogram ]
!385 = metadata !{i32 786453, i32 0, metadata !"", i32 0, i32 0, i64 0, i64 0, i64 0, i32 0, null, metadata !386, i32 0, i32 0} ; [ DW_TAG_subroutine_type ]
!386 = metadata !{null, metadata !337, metadata !167}
!387 = metadata !{i32 786478, i32 0, metadata !321, metadata !"ap_int_base", metadata !"ap_int_base", metadata !"", metadata !83, i32 1528, metadata !388, i1 false, i1 false, i32 0, i32 0, null, i32 384, i1 false, null, null, i32 0, metadata !95, i32 1528} ; [ DW_TAG_subprogram ]
!388 = metadata !{i32 786453, i32 0, metadata !"", i32 0, i32 0, i64 0, i64 0, i64 0, i32 0, null, metadata !389, i32 0, i32 0} ; [ DW_TAG_subroutine_type ]
!389 = metadata !{null, metadata !337, metadata !172}
!390 = metadata !{i32 786478, i32 0, metadata !321, metadata !"ap_int_base", metadata !"ap_int_base", metadata !"", metadata !83, i32 1529, metadata !391, i1 false, i1 false, i32 0, i32 0, null, i32 384, i1 false, null, null, i32 0, metadata !95, i32 1529} ; [ DW_TAG_subprogram ]
!391 = metadata !{i32 786453, i32 0, metadata !"", i32 0, i32 0, i64 0, i64 0, i64 0, i32 0, null, metadata !392, i32 0, i32 0} ; [ DW_TAG_subroutine_type ]
!392 = metadata !{null, metadata !337, metadata !176}
!393 = metadata !{i32 786478, i32 0, metadata !321, metadata !"ap_int_base", metadata !"ap_int_base", metadata !"", metadata !83, i32 1556, metadata !394, i1 false, i1 false, i32 0, i32 0, null, i32 256, i1 false, null, null, i32 0, metadata !95, i32 1556} ; [ DW_TAG_subprogram ]
!394 = metadata !{i32 786453, i32 0, metadata !"", i32 0, i32 0, i64 0, i64 0, i64 0, i32 0, null, metadata !395, i32 0, i32 0} ; [ DW_TAG_subroutine_type ]
!395 = metadata !{null, metadata !337, metadata !180}
!396 = metadata !{i32 786478, i32 0, metadata !321, metadata !"ap_int_base", metadata !"ap_int_base", metadata !"", metadata !83, i32 1563, metadata !397, i1 false, i1 false, i32 0, i32 0, null, i32 256, i1 false, null, null, i32 0, metadata !95, i32 1563} ; [ DW_TAG_subprogram ]
!397 = metadata !{i32 786453, i32 0, metadata !"", i32 0, i32 0, i64 0, i64 0, i64 0, i32 0, null, metadata !398, i32 0, i32 0} ; [ DW_TAG_subroutine_type ]
!398 = metadata !{null, metadata !337, metadata !180, metadata !126}
!399 = metadata !{i32 786478, i32 0, metadata !321, metadata !"read", metadata !"read", metadata !"_ZNV11ap_int_baseILi33ELb1ELb1EE4readEv", metadata !83, i32 1584, metadata !400, i1 false, i1 false, i32 0, i32 0, null, i32 256, i1 false, null, null, i32 0, metadata !95, i32 1584} ; [ DW_TAG_subprogram ]
!400 = metadata !{i32 786453, i32 0, metadata !"", i32 0, i32 0, i64 0, i64 0, i64 0, i32 0, null, metadata !401, i32 0, i32 0} ; [ DW_TAG_subroutine_type ]
!401 = metadata !{metadata !321, metadata !402}
!402 = metadata !{i32 786447, i32 0, metadata !"", i32 0, i32 0, i64 64, i64 64, i64 0, i32 64, metadata !350} ; [ DW_TAG_pointer_type ]
!403 = metadata !{i32 786478, i32 0, metadata !321, metadata !"write", metadata !"write", metadata !"_ZNV11ap_int_baseILi33ELb1ELb1EE5writeERKS0_", metadata !83, i32 1590, metadata !404, i1 false, i1 false, i32 0, i32 0, null, i32 256, i1 false, null, null, i32 0, metadata !95, i32 1590} ; [ DW_TAG_subprogram ]
!404 = metadata !{i32 786453, i32 0, metadata !"", i32 0, i32 0, i64 0, i64 0, i64 0, i32 0, null, metadata !405, i32 0, i32 0} ; [ DW_TAG_subroutine_type ]
!405 = metadata !{null, metadata !402, metadata !341}
!406 = metadata !{i32 786478, i32 0, metadata !321, metadata !"operator=", metadata !"operator=", metadata !"_ZNV11ap_int_baseILi33ELb1ELb1EEaSERVKS0_", metadata !83, i32 1602, metadata !407, i1 false, i1 false, i32 0, i32 0, null, i32 256, i1 false, null, null, i32 0, metadata !95, i32 1602} ; [ DW_TAG_subprogram ]
!407 = metadata !{i32 786453, i32 0, metadata !"", i32 0, i32 0, i64 0, i64 0, i64 0, i32 0, null, metadata !408, i32 0, i32 0} ; [ DW_TAG_subroutine_type ]
!408 = metadata !{null, metadata !402, metadata !348}
!409 = metadata !{i32 786478, i32 0, metadata !321, metadata !"operator=", metadata !"operator=", metadata !"_ZNV11ap_int_baseILi33ELb1ELb1EEaSERKS0_", metadata !83, i32 1611, metadata !404, i1 false, i1 false, i32 0, i32 0, null, i32 256, i1 false, null, null, i32 0, metadata !95, i32 1611} ; [ DW_TAG_subprogram ]
!410 = metadata !{i32 786478, i32 0, metadata !321, metadata !"operator=", metadata !"operator=", metadata !"_ZN11ap_int_baseILi33ELb1ELb1EEaSERVKS0_", metadata !83, i32 1634, metadata !411, i1 false, i1 false, i32 0, i32 0, null, i32 256, i1 false, null, null, i32 0, metadata !95, i32 1634} ; [ DW_TAG_subprogram ]
!411 = metadata !{i32 786453, i32 0, metadata !"", i32 0, i32 0, i64 0, i64 0, i64 0, i32 0, null, metadata !412, i32 0, i32 0} ; [ DW_TAG_subroutine_type ]
!412 = metadata !{metadata !413, metadata !337, metadata !348}
!413 = metadata !{i32 786448, null, null, null, i32 0, i64 0, i64 0, i64 0, i32 0, metadata !321} ; [ DW_TAG_reference_type ]
!414 = metadata !{i32 786478, i32 0, metadata !321, metadata !"operator=", metadata !"operator=", metadata !"_ZN11ap_int_baseILi33ELb1ELb1EEaSERKS0_", metadata !83, i32 1639, metadata !415, i1 false, i1 false, i32 0, i32 0, null, i32 256, i1 false, null, null, i32 0, metadata !95, i32 1639} ; [ DW_TAG_subprogram ]
!415 = metadata !{i32 786453, i32 0, metadata !"", i32 0, i32 0, i64 0, i64 0, i64 0, i32 0, null, metadata !416, i32 0, i32 0} ; [ DW_TAG_subroutine_type ]
!416 = metadata !{metadata !413, metadata !337, metadata !341}
!417 = metadata !{i32 786478, i32 0, metadata !321, metadata !"operator=", metadata !"operator=", metadata !"_ZN11ap_int_baseILi33ELb1ELb1EEaSEPKc", metadata !83, i32 1643, metadata !418, i1 false, i1 false, i32 0, i32 0, null, i32 256, i1 false, null, null, i32 0, metadata !95, i32 1643} ; [ DW_TAG_subprogram ]
!418 = metadata !{i32 786453, i32 0, metadata !"", i32 0, i32 0, i64 0, i64 0, i64 0, i32 0, null, metadata !419, i32 0, i32 0} ; [ DW_TAG_subroutine_type ]
!419 = metadata !{metadata !413, metadata !337, metadata !180}
!420 = metadata !{i32 786478, i32 0, metadata !321, metadata !"set", metadata !"set", metadata !"_ZN11ap_int_baseILi33ELb1ELb1EE3setEPKca", metadata !83, i32 1651, metadata !421, i1 false, i1 false, i32 0, i32 0, null, i32 256, i1 false, null, null, i32 0, metadata !95, i32 1651} ; [ DW_TAG_subprogram ]
!421 = metadata !{i32 786453, i32 0, metadata !"", i32 0, i32 0, i64 0, i64 0, i64 0, i32 0, null, metadata !422, i32 0, i32 0} ; [ DW_TAG_subroutine_type ]
!422 = metadata !{metadata !413, metadata !337, metadata !180, metadata !126}
!423 = metadata !{i32 786478, i32 0, metadata !321, metadata !"operator=", metadata !"operator=", metadata !"_ZN11ap_int_baseILi33ELb1ELb1EEaSEa", metadata !83, i32 1665, metadata !424, i1 false, i1 false, i32 0, i32 0, null, i32 256, i1 false, null, null, i32 0, metadata !95, i32 1665} ; [ DW_TAG_subprogram ]
!424 = metadata !{i32 786453, i32 0, metadata !"", i32 0, i32 0, i64 0, i64 0, i64 0, i32 0, null, metadata !425, i32 0, i32 0} ; [ DW_TAG_subroutine_type ]
!425 = metadata !{metadata !413, metadata !337, metadata !126}
!426 = metadata !{i32 786478, i32 0, metadata !321, metadata !"operator=", metadata !"operator=", metadata !"_ZN11ap_int_baseILi33ELb1ELb1EEaSEh", metadata !83, i32 1666, metadata !427, i1 false, i1 false, i32 0, i32 0, null, i32 256, i1 false, null, null, i32 0, metadata !95, i32 1666} ; [ DW_TAG_subprogram ]
!427 = metadata !{i32 786453, i32 0, metadata !"", i32 0, i32 0, i64 0, i64 0, i64 0, i32 0, null, metadata !428, i32 0, i32 0} ; [ DW_TAG_subroutine_type ]
!428 = metadata !{metadata !413, metadata !337, metadata !130}
!429 = metadata !{i32 786478, i32 0, metadata !321, metadata !"operator=", metadata !"operator=", metadata !"_ZN11ap_int_baseILi33ELb1ELb1EEaSEs", metadata !83, i32 1667, metadata !430, i1 false, i1 false, i32 0, i32 0, null, i32 256, i1 false, null, null, i32 0, metadata !95, i32 1667} ; [ DW_TAG_subprogram ]
!430 = metadata !{i32 786453, i32 0, metadata !"", i32 0, i32 0, i64 0, i64 0, i64 0, i32 0, null, metadata !431, i32 0, i32 0} ; [ DW_TAG_subroutine_type ]
!431 = metadata !{metadata !413, metadata !337, metadata !134}
!432 = metadata !{i32 786478, i32 0, metadata !321, metadata !"operator=", metadata !"operator=", metadata !"_ZN11ap_int_baseILi33ELb1ELb1EEaSEt", metadata !83, i32 1668, metadata !433, i1 false, i1 false, i32 0, i32 0, null, i32 256, i1 false, null, null, i32 0, metadata !95, i32 1668} ; [ DW_TAG_subprogram ]
!433 = metadata !{i32 786453, i32 0, metadata !"", i32 0, i32 0, i64 0, i64 0, i64 0, i32 0, null, metadata !434, i32 0, i32 0} ; [ DW_TAG_subroutine_type ]
!434 = metadata !{metadata !413, metadata !337, metadata !138}
!435 = metadata !{i32 786478, i32 0, metadata !321, metadata !"operator=", metadata !"operator=", metadata !"_ZN11ap_int_baseILi33ELb1ELb1EEaSEi", metadata !83, i32 1669, metadata !436, i1 false, i1 false, i32 0, i32 0, null, i32 256, i1 false, null, null, i32 0, metadata !95, i32 1669} ; [ DW_TAG_subprogram ]
!436 = metadata !{i32 786453, i32 0, metadata !"", i32 0, i32 0, i64 0, i64 0, i64 0, i32 0, null, metadata !437, i32 0, i32 0} ; [ DW_TAG_subroutine_type ]
!437 = metadata !{metadata !413, metadata !337, metadata !99}
!438 = metadata !{i32 786478, i32 0, metadata !321, metadata !"operator=", metadata !"operator=", metadata !"_ZN11ap_int_baseILi33ELb1ELb1EEaSEj", metadata !83, i32 1670, metadata !439, i1 false, i1 false, i32 0, i32 0, null, i32 256, i1 false, null, null, i32 0, metadata !95, i32 1670} ; [ DW_TAG_subprogram ]
!439 = metadata !{i32 786453, i32 0, metadata !"", i32 0, i32 0, i64 0, i64 0, i64 0, i32 0, null, metadata !440, i32 0, i32 0} ; [ DW_TAG_subroutine_type ]
!440 = metadata !{metadata !413, metadata !337, metadata !145}
!441 = metadata !{i32 786478, i32 0, metadata !321, metadata !"operator=", metadata !"operator=", metadata !"_ZN11ap_int_baseILi33ELb1ELb1EEaSEx", metadata !83, i32 1671, metadata !442, i1 false, i1 false, i32 0, i32 0, null, i32 256, i1 false, null, null, i32 0, metadata !95, i32 1671} ; [ DW_TAG_subprogram ]
!442 = metadata !{i32 786453, i32 0, metadata !"", i32 0, i32 0, i64 0, i64 0, i64 0, i32 0, null, metadata !443, i32 0, i32 0} ; [ DW_TAG_subroutine_type ]
!443 = metadata !{metadata !413, metadata !337, metadata !157}
!444 = metadata !{i32 786478, i32 0, metadata !321, metadata !"operator=", metadata !"operator=", metadata !"_ZN11ap_int_baseILi33ELb1ELb1EEaSEy", metadata !83, i32 1672, metadata !445, i1 false, i1 false, i32 0, i32 0, null, i32 256, i1 false, null, null, i32 0, metadata !95, i32 1672} ; [ DW_TAG_subprogram ]
!445 = metadata !{i32 786453, i32 0, metadata !"", i32 0, i32 0, i64 0, i64 0, i64 0, i32 0, null, metadata !446, i32 0, i32 0} ; [ DW_TAG_subroutine_type ]
!446 = metadata !{metadata !413, metadata !337, metadata !162}
!447 = metadata !{i32 786478, i32 0, metadata !321, metadata !"operator long long", metadata !"operator long long", metadata !"_ZNK11ap_int_baseILi33ELb1ELb1EEcvxEv", metadata !83, i32 1710, metadata !448, i1 false, i1 false, i32 0, i32 0, null, i32 256, i1 false, null, null, i32 0, metadata !95, i32 1710} ; [ DW_TAG_subprogram ]
!448 = metadata !{i32 786453, i32 0, metadata !"", i32 0, i32 0, i64 0, i64 0, i64 0, i32 0, null, metadata !449, i32 0, i32 0} ; [ DW_TAG_subroutine_type ]
!449 = metadata !{metadata !450, metadata !455}
!450 = metadata !{i32 786454, metadata !321, metadata !"RetType", metadata !83, i32 1458, i64 0, i64 0, i64 0, i32 0, metadata !451} ; [ DW_TAG_typedef ]
!451 = metadata !{i32 786454, metadata !452, metadata !"Type", metadata !83, i32 1415, i64 0, i64 0, i64 0, i32 0, metadata !157} ; [ DW_TAG_typedef ]
!452 = metadata !{i32 786434, null, metadata !"retval<5, true>", metadata !83, i32 1414, i64 8, i64 8, i32 0, i32 0, null, metadata !240, i32 0, null, metadata !453} ; [ DW_TAG_class_type ]
!453 = metadata !{metadata !454, metadata !100}
!454 = metadata !{i32 786480, null, metadata !"_AP_N", metadata !99, i64 5, null, i32 0, i32 0} ; [ DW_TAG_template_value_parameter ]
!455 = metadata !{i32 786447, i32 0, metadata !"", i32 0, i32 0, i64 64, i64 64, i64 0, i32 64, metadata !342} ; [ DW_TAG_pointer_type ]
!456 = metadata !{i32 786478, i32 0, metadata !321, metadata !"to_bool", metadata !"to_bool", metadata !"_ZNK11ap_int_baseILi33ELb1ELb1EE7to_boolEv", metadata !83, i32 1716, metadata !457, i1 false, i1 false, i32 0, i32 0, null, i32 256, i1 false, null, null, i32 0, metadata !95, i32 1716} ; [ DW_TAG_subprogram ]
!457 = metadata !{i32 786453, i32 0, metadata !"", i32 0, i32 0, i64 0, i64 0, i64 0, i32 0, null, metadata !458, i32 0, i32 0} ; [ DW_TAG_subroutine_type ]
!458 = metadata !{metadata !101, metadata !455}
!459 = metadata !{i32 786478, i32 0, metadata !321, metadata !"to_uchar", metadata !"to_uchar", metadata !"_ZNK11ap_int_baseILi33ELb1ELb1EE8to_ucharEv", metadata !83, i32 1717, metadata !460, i1 false, i1 false, i32 0, i32 0, null, i32 256, i1 false, null, null, i32 0, metadata !95, i32 1717} ; [ DW_TAG_subprogram ]
!460 = metadata !{i32 786453, i32 0, metadata !"", i32 0, i32 0, i64 0, i64 0, i64 0, i32 0, null, metadata !461, i32 0, i32 0} ; [ DW_TAG_subroutine_type ]
!461 = metadata !{metadata !130, metadata !455}
!462 = metadata !{i32 786478, i32 0, metadata !321, metadata !"to_char", metadata !"to_char", metadata !"_ZNK11ap_int_baseILi33ELb1ELb1EE7to_charEv", metadata !83, i32 1718, metadata !463, i1 false, i1 false, i32 0, i32 0, null, i32 256, i1 false, null, null, i32 0, metadata !95, i32 1718} ; [ DW_TAG_subprogram ]
!463 = metadata !{i32 786453, i32 0, metadata !"", i32 0, i32 0, i64 0, i64 0, i64 0, i32 0, null, metadata !464, i32 0, i32 0} ; [ DW_TAG_subroutine_type ]
!464 = metadata !{metadata !126, metadata !455}
!465 = metadata !{i32 786478, i32 0, metadata !321, metadata !"to_ushort", metadata !"to_ushort", metadata !"_ZNK11ap_int_baseILi33ELb1ELb1EE9to_ushortEv", metadata !83, i32 1719, metadata !466, i1 false, i1 false, i32 0, i32 0, null, i32 256, i1 false, null, null, i32 0, metadata !95, i32 1719} ; [ DW_TAG_subprogram ]
!466 = metadata !{i32 786453, i32 0, metadata !"", i32 0, i32 0, i64 0, i64 0, i64 0, i32 0, null, metadata !467, i32 0, i32 0} ; [ DW_TAG_subroutine_type ]
!467 = metadata !{metadata !138, metadata !455}
!468 = metadata !{i32 786478, i32 0, metadata !321, metadata !"to_short", metadata !"to_short", metadata !"_ZNK11ap_int_baseILi33ELb1ELb1EE8to_shortEv", metadata !83, i32 1720, metadata !469, i1 false, i1 false, i32 0, i32 0, null, i32 256, i1 false, null, null, i32 0, metadata !95, i32 1720} ; [ DW_TAG_subprogram ]
!469 = metadata !{i32 786453, i32 0, metadata !"", i32 0, i32 0, i64 0, i64 0, i64 0, i32 0, null, metadata !470, i32 0, i32 0} ; [ DW_TAG_subroutine_type ]
!470 = metadata !{metadata !134, metadata !455}
!471 = metadata !{i32 786478, i32 0, metadata !321, metadata !"to_int", metadata !"to_int", metadata !"_ZNK11ap_int_baseILi33ELb1ELb1EE6to_intEv", metadata !83, i32 1721, metadata !472, i1 false, i1 false, i32 0, i32 0, null, i32 256, i1 false, null, null, i32 0, metadata !95, i32 1721} ; [ DW_TAG_subprogram ]
!472 = metadata !{i32 786453, i32 0, metadata !"", i32 0, i32 0, i64 0, i64 0, i64 0, i32 0, null, metadata !473, i32 0, i32 0} ; [ DW_TAG_subroutine_type ]
!473 = metadata !{metadata !99, metadata !455}
!474 = metadata !{i32 786478, i32 0, metadata !321, metadata !"to_uint", metadata !"to_uint", metadata !"_ZNK11ap_int_baseILi33ELb1ELb1EE7to_uintEv", metadata !83, i32 1722, metadata !475, i1 false, i1 false, i32 0, i32 0, null, i32 256, i1 false, null, null, i32 0, metadata !95, i32 1722} ; [ DW_TAG_subprogram ]
!475 = metadata !{i32 786453, i32 0, metadata !"", i32 0, i32 0, i64 0, i64 0, i64 0, i32 0, null, metadata !476, i32 0, i32 0} ; [ DW_TAG_subroutine_type ]
!476 = metadata !{metadata !145, metadata !455}
!477 = metadata !{i32 786478, i32 0, metadata !321, metadata !"to_long", metadata !"to_long", metadata !"_ZNK11ap_int_baseILi33ELb1ELb1EE7to_longEv", metadata !83, i32 1723, metadata !478, i1 false, i1 false, i32 0, i32 0, null, i32 256, i1 false, null, null, i32 0, metadata !95, i32 1723} ; [ DW_TAG_subprogram ]
!478 = metadata !{i32 786453, i32 0, metadata !"", i32 0, i32 0, i64 0, i64 0, i64 0, i32 0, null, metadata !479, i32 0, i32 0} ; [ DW_TAG_subroutine_type ]
!479 = metadata !{metadata !149, metadata !455}
!480 = metadata !{i32 786478, i32 0, metadata !321, metadata !"to_ulong", metadata !"to_ulong", metadata !"_ZNK11ap_int_baseILi33ELb1ELb1EE8to_ulongEv", metadata !83, i32 1724, metadata !481, i1 false, i1 false, i32 0, i32 0, null, i32 256, i1 false, null, null, i32 0, metadata !95, i32 1724} ; [ DW_TAG_subprogram ]
!481 = metadata !{i32 786453, i32 0, metadata !"", i32 0, i32 0, i64 0, i64 0, i64 0, i32 0, null, metadata !482, i32 0, i32 0} ; [ DW_TAG_subroutine_type ]
!482 = metadata !{metadata !153, metadata !455}
!483 = metadata !{i32 786478, i32 0, metadata !321, metadata !"to_int64", metadata !"to_int64", metadata !"_ZNK11ap_int_baseILi33ELb1ELb1EE8to_int64Ev", metadata !83, i32 1725, metadata !484, i1 false, i1 false, i32 0, i32 0, null, i32 256, i1 false, null, null, i32 0, metadata !95, i32 1725} ; [ DW_TAG_subprogram ]
!484 = metadata !{i32 786453, i32 0, metadata !"", i32 0, i32 0, i64 0, i64 0, i64 0, i32 0, null, metadata !485, i32 0, i32 0} ; [ DW_TAG_subroutine_type ]
!485 = metadata !{metadata !157, metadata !455}
!486 = metadata !{i32 786478, i32 0, metadata !321, metadata !"to_uint64", metadata !"to_uint64", metadata !"_ZNK11ap_int_baseILi33ELb1ELb1EE9to_uint64Ev", metadata !83, i32 1726, metadata !487, i1 false, i1 false, i32 0, i32 0, null, i32 256, i1 false, null, null, i32 0, metadata !95, i32 1726} ; [ DW_TAG_subprogram ]
!487 = metadata !{i32 786453, i32 0, metadata !"", i32 0, i32 0, i64 0, i64 0, i64 0, i32 0, null, metadata !488, i32 0, i32 0} ; [ DW_TAG_subroutine_type ]
!488 = metadata !{metadata !162, metadata !455}
!489 = metadata !{i32 786478, i32 0, metadata !321, metadata !"to_double", metadata !"to_double", metadata !"_ZNK11ap_int_baseILi33ELb1ELb1EE9to_doubleEv", metadata !83, i32 1727, metadata !490, i1 false, i1 false, i32 0, i32 0, null, i32 256, i1 false, null, null, i32 0, metadata !95, i32 1727} ; [ DW_TAG_subprogram ]
!490 = metadata !{i32 786453, i32 0, metadata !"", i32 0, i32 0, i64 0, i64 0, i64 0, i32 0, null, metadata !491, i32 0, i32 0} ; [ DW_TAG_subroutine_type ]
!491 = metadata !{metadata !176, metadata !455}
!492 = metadata !{i32 786478, i32 0, metadata !321, metadata !"length", metadata !"length", metadata !"_ZNK11ap_int_baseILi33ELb1ELb1EE6lengthEv", metadata !83, i32 1741, metadata !472, i1 false, i1 false, i32 0, i32 0, null, i32 256, i1 false, null, null, i32 0, metadata !95, i32 1741} ; [ DW_TAG_subprogram ]
!493 = metadata !{i32 786478, i32 0, metadata !321, metadata !"length", metadata !"length", metadata !"_ZNVK11ap_int_baseILi33ELb1ELb1EE6lengthEv", metadata !83, i32 1742, metadata !494, i1 false, i1 false, i32 0, i32 0, null, i32 256, i1 false, null, null, i32 0, metadata !95, i32 1742} ; [ DW_TAG_subprogram ]
!494 = metadata !{i32 786453, i32 0, metadata !"", i32 0, i32 0, i64 0, i64 0, i64 0, i32 0, null, metadata !495, i32 0, i32 0} ; [ DW_TAG_subroutine_type ]
!495 = metadata !{metadata !99, metadata !496}
!496 = metadata !{i32 786447, i32 0, metadata !"", i32 0, i32 0, i64 64, i64 64, i64 0, i32 64, metadata !349} ; [ DW_TAG_pointer_type ]
!497 = metadata !{i32 786478, i32 0, metadata !321, metadata !"reverse", metadata !"reverse", metadata !"_ZN11ap_int_baseILi33ELb1ELb1EE7reverseEv", metadata !83, i32 1747, metadata !498, i1 false, i1 false, i32 0, i32 0, null, i32 256, i1 false, null, null, i32 0, metadata !95, i32 1747} ; [ DW_TAG_subprogram ]
!498 = metadata !{i32 786453, i32 0, metadata !"", i32 0, i32 0, i64 0, i64 0, i64 0, i32 0, null, metadata !499, i32 0, i32 0} ; [ DW_TAG_subroutine_type ]
!499 = metadata !{metadata !413, metadata !337}
!500 = metadata !{i32 786478, i32 0, metadata !321, metadata !"iszero", metadata !"iszero", metadata !"_ZNK11ap_int_baseILi33ELb1ELb1EE6iszeroEv", metadata !83, i32 1753, metadata !457, i1 false, i1 false, i32 0, i32 0, null, i32 256, i1 false, null, null, i32 0, metadata !95, i32 1753} ; [ DW_TAG_subprogram ]
!501 = metadata !{i32 786478, i32 0, metadata !321, metadata !"is_zero", metadata !"is_zero", metadata !"_ZNK11ap_int_baseILi33ELb1ELb1EE7is_zeroEv", metadata !83, i32 1758, metadata !457, i1 false, i1 false, i32 0, i32 0, null, i32 256, i1 false, null, null, i32 0, metadata !95, i32 1758} ; [ DW_TAG_subprogram ]
!502 = metadata !{i32 786478, i32 0, metadata !321, metadata !"sign", metadata !"sign", metadata !"_ZNK11ap_int_baseILi33ELb1ELb1EE4signEv", metadata !83, i32 1763, metadata !457, i1 false, i1 false, i32 0, i32 0, null, i32 256, i1 false, null, null, i32 0, metadata !95, i32 1763} ; [ DW_TAG_subprogram ]
!503 = metadata !{i32 786478, i32 0, metadata !321, metadata !"clear", metadata !"clear", metadata !"_ZN11ap_int_baseILi33ELb1ELb1EE5clearEi", metadata !83, i32 1771, metadata !367, i1 false, i1 false, i32 0, i32 0, null, i32 256, i1 false, null, null, i32 0, metadata !95, i32 1771} ; [ DW_TAG_subprogram ]
!504 = metadata !{i32 786478, i32 0, metadata !321, metadata !"invert", metadata !"invert", metadata !"_ZN11ap_int_baseILi33ELb1ELb1EE6invertEi", metadata !83, i32 1777, metadata !367, i1 false, i1 false, i32 0, i32 0, null, i32 256, i1 false, null, null, i32 0, metadata !95, i32 1777} ; [ DW_TAG_subprogram ]
!505 = metadata !{i32 786478, i32 0, metadata !321, metadata !"test", metadata !"test", metadata !"_ZNK11ap_int_baseILi33ELb1ELb1EE4testEi", metadata !83, i32 1785, metadata !506, i1 false, i1 false, i32 0, i32 0, null, i32 256, i1 false, null, null, i32 0, metadata !95, i32 1785} ; [ DW_TAG_subprogram ]
!506 = metadata !{i32 786453, i32 0, metadata !"", i32 0, i32 0, i64 0, i64 0, i64 0, i32 0, null, metadata !507, i32 0, i32 0} ; [ DW_TAG_subroutine_type ]
!507 = metadata !{metadata !101, metadata !455, metadata !99}
!508 = metadata !{i32 786478, i32 0, metadata !321, metadata !"set", metadata !"set", metadata !"_ZN11ap_int_baseILi33ELb1ELb1EE3setEi", metadata !83, i32 1791, metadata !367, i1 false, i1 false, i32 0, i32 0, null, i32 256, i1 false, null, null, i32 0, metadata !95, i32 1791} ; [ DW_TAG_subprogram ]
!509 = metadata !{i32 786478, i32 0, metadata !321, metadata !"set", metadata !"set", metadata !"_ZN11ap_int_baseILi33ELb1ELb1EE3setEib", metadata !83, i32 1797, metadata !510, i1 false, i1 false, i32 0, i32 0, null, i32 256, i1 false, null, null, i32 0, metadata !95, i32 1797} ; [ DW_TAG_subprogram ]
!510 = metadata !{i32 786453, i32 0, metadata !"", i32 0, i32 0, i64 0, i64 0, i64 0, i32 0, null, metadata !511, i32 0, i32 0} ; [ DW_TAG_subroutine_type ]
!511 = metadata !{null, metadata !337, metadata !99, metadata !101}
!512 = metadata !{i32 786478, i32 0, metadata !321, metadata !"lrotate", metadata !"lrotate", metadata !"_ZN11ap_int_baseILi33ELb1ELb1EE7lrotateEi", metadata !83, i32 1804, metadata !367, i1 false, i1 false, i32 0, i32 0, null, i32 256, i1 false, null, null, i32 0, metadata !95, i32 1804} ; [ DW_TAG_subprogram ]
!513 = metadata !{i32 786478, i32 0, metadata !321, metadata !"rrotate", metadata !"rrotate", metadata !"_ZN11ap_int_baseILi33ELb1ELb1EE7rrotateEi", metadata !83, i32 1813, metadata !367, i1 false, i1 false, i32 0, i32 0, null, i32 256, i1 false, null, null, i32 0, metadata !95, i32 1813} ; [ DW_TAG_subprogram ]
!514 = metadata !{i32 786478, i32 0, metadata !321, metadata !"set_bit", metadata !"set_bit", metadata !"_ZN11ap_int_baseILi33ELb1ELb1EE7set_bitEib", metadata !83, i32 1821, metadata !510, i1 false, i1 false, i32 0, i32 0, null, i32 256, i1 false, null, null, i32 0, metadata !95, i32 1821} ; [ DW_TAG_subprogram ]
!515 = metadata !{i32 786478, i32 0, metadata !321, metadata !"get_bit", metadata !"get_bit", metadata !"_ZNK11ap_int_baseILi33ELb1ELb1EE7get_bitEi", metadata !83, i32 1826, metadata !506, i1 false, i1 false, i32 0, i32 0, null, i32 256, i1 false, null, null, i32 0, metadata !95, i32 1826} ; [ DW_TAG_subprogram ]
!516 = metadata !{i32 786478, i32 0, metadata !321, metadata !"b_not", metadata !"b_not", metadata !"_ZN11ap_int_baseILi33ELb1ELb1EE5b_notEv", metadata !83, i32 1831, metadata !335, i1 false, i1 false, i32 0, i32 0, null, i32 256, i1 false, null, null, i32 0, metadata !95, i32 1831} ; [ DW_TAG_subprogram ]
!517 = metadata !{i32 786478, i32 0, metadata !321, metadata !"countLeadingZeros", metadata !"countLeadingZeros", metadata !"_ZN11ap_int_baseILi33ELb1ELb1EE17countLeadingZerosEv", metadata !83, i32 1838, metadata !518, i1 false, i1 false, i32 0, i32 0, null, i32 256, i1 false, null, null, i32 0, metadata !95, i32 1838} ; [ DW_TAG_subprogram ]
!518 = metadata !{i32 786453, i32 0, metadata !"", i32 0, i32 0, i64 0, i64 0, i64 0, i32 0, null, metadata !519, i32 0, i32 0} ; [ DW_TAG_subroutine_type ]
!519 = metadata !{metadata !99, metadata !337}
!520 = metadata !{i32 786478, i32 0, metadata !321, metadata !"operator++", metadata !"operator++", metadata !"_ZN11ap_int_baseILi33ELb1ELb1EEppEv", metadata !83, i32 1895, metadata !498, i1 false, i1 false, i32 0, i32 0, null, i32 256, i1 false, null, null, i32 0, metadata !95, i32 1895} ; [ DW_TAG_subprogram ]
!521 = metadata !{i32 786478, i32 0, metadata !321, metadata !"operator--", metadata !"operator--", metadata !"_ZN11ap_int_baseILi33ELb1ELb1EEmmEv", metadata !83, i32 1899, metadata !498, i1 false, i1 false, i32 0, i32 0, null, i32 256, i1 false, null, null, i32 0, metadata !95, i32 1899} ; [ DW_TAG_subprogram ]
!522 = metadata !{i32 786478, i32 0, metadata !321, metadata !"operator++", metadata !"operator++", metadata !"_ZN11ap_int_baseILi33ELb1ELb1EEppEi", metadata !83, i32 1907, metadata !523, i1 false, i1 false, i32 0, i32 0, null, i32 256, i1 false, null, null, i32 0, metadata !95, i32 1907} ; [ DW_TAG_subprogram ]
!523 = metadata !{i32 786453, i32 0, metadata !"", i32 0, i32 0, i64 0, i64 0, i64 0, i32 0, null, metadata !524, i32 0, i32 0} ; [ DW_TAG_subroutine_type ]
!524 = metadata !{metadata !342, metadata !337, metadata !99}
!525 = metadata !{i32 786478, i32 0, metadata !321, metadata !"operator--", metadata !"operator--", metadata !"_ZN11ap_int_baseILi33ELb1ELb1EEmmEi", metadata !83, i32 1912, metadata !523, i1 false, i1 false, i32 0, i32 0, null, i32 256, i1 false, null, null, i32 0, metadata !95, i32 1912} ; [ DW_TAG_subprogram ]
!526 = metadata !{i32 786478, i32 0, metadata !321, metadata !"operator+", metadata !"operator+", metadata !"_ZNK11ap_int_baseILi33ELb1ELb1EEpsEv", metadata !83, i32 1921, metadata !527, i1 false, i1 false, i32 0, i32 0, null, i32 256, i1 false, null, null, i32 0, metadata !95, i32 1921} ; [ DW_TAG_subprogram ]
!527 = metadata !{i32 786453, i32 0, metadata !"", i32 0, i32 0, i64 0, i64 0, i64 0, i32 0, null, metadata !528, i32 0, i32 0} ; [ DW_TAG_subroutine_type ]
!528 = metadata !{metadata !321, metadata !455}
!529 = metadata !{i32 786478, i32 0, metadata !321, metadata !"operator!", metadata !"operator!", metadata !"_ZNK11ap_int_baseILi33ELb1ELb1EEntEv", metadata !83, i32 1927, metadata !457, i1 false, i1 false, i32 0, i32 0, null, i32 256, i1 false, null, null, i32 0, metadata !95, i32 1927} ; [ DW_TAG_subprogram ]
!530 = metadata !{i32 786478, i32 0, metadata !321, metadata !"operator-", metadata !"operator-", metadata !"_ZNK11ap_int_baseILi33ELb1ELb1EEngEv", metadata !83, i32 1932, metadata !531, i1 false, i1 false, i32 0, i32 0, null, i32 256, i1 false, null, null, i32 0, metadata !95, i32 1932} ; [ DW_TAG_subprogram ]
!531 = metadata !{i32 786453, i32 0, metadata !"", i32 0, i32 0, i64 0, i64 0, i64 0, i32 0, null, metadata !532, i32 0, i32 0} ; [ DW_TAG_subroutine_type ]
!532 = metadata !{metadata !533, metadata !455}
!533 = metadata !{i32 786434, null, metadata !"ap_int_base<34, true, true>", metadata !83, i32 651, i32 0, i32 0, i32 0, i32 4, null, null, i32 0} ; [ DW_TAG_class_type ]
!534 = metadata !{i32 786478, i32 0, metadata !321, metadata !"range", metadata !"range", metadata !"_ZN11ap_int_baseILi33ELb1ELb1EE5rangeEii", metadata !83, i32 2062, metadata !535, i1 false, i1 false, i32 0, i32 0, null, i32 256, i1 false, null, null, i32 0, metadata !95, i32 2062} ; [ DW_TAG_subprogram ]
!535 = metadata !{i32 786453, i32 0, metadata !"", i32 0, i32 0, i64 0, i64 0, i64 0, i32 0, null, metadata !536, i32 0, i32 0} ; [ DW_TAG_subroutine_type ]
!536 = metadata !{metadata !537, metadata !337, metadata !99, metadata !99}
!537 = metadata !{i32 786434, null, metadata !"ap_range_ref<33, true>", metadata !83, i32 925, i32 0, i32 0, i32 0, i32 4, null, null, i32 0} ; [ DW_TAG_class_type ]
!538 = metadata !{i32 786478, i32 0, metadata !321, metadata !"operator()", metadata !"operator()", metadata !"_ZN11ap_int_baseILi33ELb1ELb1EEclEii", metadata !83, i32 2068, metadata !535, i1 false, i1 false, i32 0, i32 0, null, i32 256, i1 false, null, null, i32 0, metadata !95, i32 2068} ; [ DW_TAG_subprogram ]
!539 = metadata !{i32 786478, i32 0, metadata !321, metadata !"range", metadata !"range", metadata !"_ZNK11ap_int_baseILi33ELb1ELb1EE5rangeEii", metadata !83, i32 2074, metadata !540, i1 false, i1 false, i32 0, i32 0, null, i32 256, i1 false, null, null, i32 0, metadata !95, i32 2074} ; [ DW_TAG_subprogram ]
!540 = metadata !{i32 786453, i32 0, metadata !"", i32 0, i32 0, i64 0, i64 0, i64 0, i32 0, null, metadata !541, i32 0, i32 0} ; [ DW_TAG_subroutine_type ]
!541 = metadata !{metadata !537, metadata !455, metadata !99, metadata !99}
!542 = metadata !{i32 786478, i32 0, metadata !321, metadata !"operator()", metadata !"operator()", metadata !"_ZNK11ap_int_baseILi33ELb1ELb1EEclEii", metadata !83, i32 2080, metadata !540, i1 false, i1 false, i32 0, i32 0, null, i32 256, i1 false, null, null, i32 0, metadata !95, i32 2080} ; [ DW_TAG_subprogram ]
!543 = metadata !{i32 786478, i32 0, metadata !321, metadata !"operator[]", metadata !"operator[]", metadata !"_ZN11ap_int_baseILi33ELb1ELb1EEixEi", metadata !83, i32 2099, metadata !544, i1 false, i1 false, i32 0, i32 0, null, i32 256, i1 false, null, null, i32 0, metadata !95, i32 2099} ; [ DW_TAG_subprogram ]
!544 = metadata !{i32 786453, i32 0, metadata !"", i32 0, i32 0, i64 0, i64 0, i64 0, i32 0, null, metadata !545, i32 0, i32 0} ; [ DW_TAG_subroutine_type ]
!545 = metadata !{metadata !546, metadata !337, metadata !99}
!546 = metadata !{i32 786434, null, metadata !"ap_bit_ref<33, true>", metadata !83, i32 1249, i64 128, i64 64, i32 0, i32 0, null, metadata !547, i32 0, null, metadata !580} ; [ DW_TAG_class_type ]
!547 = metadata !{metadata !548, metadata !549, metadata !550, metadata !556, metadata !560, metadata !564, metadata !565, metadata !569, metadata !572, metadata !573, metadata !576, metadata !577}
!548 = metadata !{i32 786445, metadata !546, metadata !"d_bv", metadata !83, i32 1250, i64 64, i64 64, i64 0, i32 0, metadata !413} ; [ DW_TAG_member ]
!549 = metadata !{i32 786445, metadata !546, metadata !"d_index", metadata !83, i32 1251, i64 32, i64 32, i64 64, i32 0, metadata !99} ; [ DW_TAG_member ]
!550 = metadata !{i32 786478, i32 0, metadata !546, metadata !"ap_bit_ref", metadata !"ap_bit_ref", metadata !"", metadata !83, i32 1254, metadata !551, i1 false, i1 false, i32 0, i32 0, null, i32 256, i1 false, null, null, i32 0, metadata !95, i32 1254} ; [ DW_TAG_subprogram ]
!551 = metadata !{i32 786453, i32 0, metadata !"", i32 0, i32 0, i64 0, i64 0, i64 0, i32 0, null, metadata !552, i32 0, i32 0} ; [ DW_TAG_subroutine_type ]
!552 = metadata !{null, metadata !553, metadata !554}
!553 = metadata !{i32 786447, i32 0, metadata !"", i32 0, i32 0, i64 64, i64 64, i64 0, i32 64, metadata !546} ; [ DW_TAG_pointer_type ]
!554 = metadata !{i32 786448, null, null, null, i32 0, i64 0, i64 0, i64 0, i32 0, metadata !555} ; [ DW_TAG_reference_type ]
!555 = metadata !{i32 786470, null, metadata !"", null, i32 0, i64 0, i64 0, i64 0, i32 0, metadata !546} ; [ DW_TAG_const_type ]
!556 = metadata !{i32 786478, i32 0, metadata !546, metadata !"ap_bit_ref", metadata !"ap_bit_ref", metadata !"", metadata !83, i32 1257, metadata !557, i1 false, i1 false, i32 0, i32 0, null, i32 256, i1 false, null, null, i32 0, metadata !95, i32 1257} ; [ DW_TAG_subprogram ]
!557 = metadata !{i32 786453, i32 0, metadata !"", i32 0, i32 0, i64 0, i64 0, i64 0, i32 0, null, metadata !558, i32 0, i32 0} ; [ DW_TAG_subroutine_type ]
!558 = metadata !{null, metadata !553, metadata !559, metadata !99}
!559 = metadata !{i32 786447, null, metadata !"", null, i32 0, i64 64, i64 64, i64 0, i32 0, metadata !321} ; [ DW_TAG_pointer_type ]
!560 = metadata !{i32 786478, i32 0, metadata !546, metadata !"operator _Bool", metadata !"operator _Bool", metadata !"_ZNK10ap_bit_refILi33ELb1EEcvbEv", metadata !83, i32 1259, metadata !561, i1 false, i1 false, i32 0, i32 0, null, i32 256, i1 false, null, null, i32 0, metadata !95, i32 1259} ; [ DW_TAG_subprogram ]
!561 = metadata !{i32 786453, i32 0, metadata !"", i32 0, i32 0, i64 0, i64 0, i64 0, i32 0, null, metadata !562, i32 0, i32 0} ; [ DW_TAG_subroutine_type ]
!562 = metadata !{metadata !101, metadata !563}
!563 = metadata !{i32 786447, i32 0, metadata !"", i32 0, i32 0, i64 64, i64 64, i64 0, i32 64, metadata !555} ; [ DW_TAG_pointer_type ]
!564 = metadata !{i32 786478, i32 0, metadata !546, metadata !"to_bool", metadata !"to_bool", metadata !"_ZNK10ap_bit_refILi33ELb1EE7to_boolEv", metadata !83, i32 1260, metadata !561, i1 false, i1 false, i32 0, i32 0, null, i32 256, i1 false, null, null, i32 0, metadata !95, i32 1260} ; [ DW_TAG_subprogram ]
!565 = metadata !{i32 786478, i32 0, metadata !546, metadata !"operator=", metadata !"operator=", metadata !"_ZN10ap_bit_refILi33ELb1EEaSEy", metadata !83, i32 1262, metadata !566, i1 false, i1 false, i32 0, i32 0, null, i32 256, i1 false, null, null, i32 0, metadata !95, i32 1262} ; [ DW_TAG_subprogram ]
!566 = metadata !{i32 786453, i32 0, metadata !"", i32 0, i32 0, i64 0, i64 0, i64 0, i32 0, null, metadata !567, i32 0, i32 0} ; [ DW_TAG_subroutine_type ]
!567 = metadata !{metadata !568, metadata !553, metadata !163}
!568 = metadata !{i32 786448, null, null, null, i32 0, i64 0, i64 0, i64 0, i32 0, metadata !546} ; [ DW_TAG_reference_type ]
!569 = metadata !{i32 786478, i32 0, metadata !546, metadata !"operator=", metadata !"operator=", metadata !"_ZN10ap_bit_refILi33ELb1EEaSERKS0_", metadata !83, i32 1282, metadata !570, i1 false, i1 false, i32 0, i32 0, null, i32 256, i1 false, null, null, i32 0, metadata !95, i32 1282} ; [ DW_TAG_subprogram ]
!570 = metadata !{i32 786453, i32 0, metadata !"", i32 0, i32 0, i64 0, i64 0, i64 0, i32 0, null, metadata !571, i32 0, i32 0} ; [ DW_TAG_subroutine_type ]
!571 = metadata !{metadata !568, metadata !553, metadata !554}
!572 = metadata !{i32 786478, i32 0, metadata !546, metadata !"get", metadata !"get", metadata !"_ZNK10ap_bit_refILi33ELb1EE3getEv", metadata !83, i32 1390, metadata !561, i1 false, i1 false, i32 0, i32 0, null, i32 256, i1 false, null, null, i32 0, metadata !95, i32 1390} ; [ DW_TAG_subprogram ]
!573 = metadata !{i32 786478, i32 0, metadata !546, metadata !"get", metadata !"get", metadata !"_ZN10ap_bit_refILi33ELb1EE3getEv", metadata !83, i32 1394, metadata !574, i1 false, i1 false, i32 0, i32 0, null, i32 256, i1 false, null, null, i32 0, metadata !95, i32 1394} ; [ DW_TAG_subprogram ]
!574 = metadata !{i32 786453, i32 0, metadata !"", i32 0, i32 0, i64 0, i64 0, i64 0, i32 0, null, metadata !575, i32 0, i32 0} ; [ DW_TAG_subroutine_type ]
!575 = metadata !{metadata !101, metadata !553}
!576 = metadata !{i32 786478, i32 0, metadata !546, metadata !"operator~", metadata !"operator~", metadata !"_ZNK10ap_bit_refILi33ELb1EEcoEv", metadata !83, i32 1403, metadata !561, i1 false, i1 false, i32 0, i32 0, null, i32 256, i1 false, null, null, i32 0, metadata !95, i32 1403} ; [ DW_TAG_subprogram ]
!577 = metadata !{i32 786478, i32 0, metadata !546, metadata !"length", metadata !"length", metadata !"_ZNK10ap_bit_refILi33ELb1EE6lengthEv", metadata !83, i32 1408, metadata !578, i1 false, i1 false, i32 0, i32 0, null, i32 256, i1 false, null, null, i32 0, metadata !95, i32 1408} ; [ DW_TAG_subprogram ]
!578 = metadata !{i32 786453, i32 0, metadata !"", i32 0, i32 0, i64 0, i64 0, i64 0, i32 0, null, metadata !579, i32 0, i32 0} ; [ DW_TAG_subroutine_type ]
!579 = metadata !{metadata !99, metadata !563}
!580 = metadata !{metadata !581, metadata !100}
!581 = metadata !{i32 786480, null, metadata !"_AP_W", metadata !99, i64 33, null, i32 0, i32 0} ; [ DW_TAG_template_value_parameter ]
!582 = metadata !{i32 786478, i32 0, metadata !321, metadata !"operator[]", metadata !"operator[]", metadata !"_ZNK11ap_int_baseILi33ELb1ELb1EEixEi", metadata !83, i32 2113, metadata !506, i1 false, i1 false, i32 0, i32 0, null, i32 256, i1 false, null, null, i32 0, metadata !95, i32 2113} ; [ DW_TAG_subprogram ]
!583 = metadata !{i32 786478, i32 0, metadata !321, metadata !"bit", metadata !"bit", metadata !"_ZN11ap_int_baseILi33ELb1ELb1EE3bitEi", metadata !83, i32 2127, metadata !544, i1 false, i1 false, i32 0, i32 0, null, i32 256, i1 false, null, null, i32 0, metadata !95, i32 2127} ; [ DW_TAG_subprogram ]
!584 = metadata !{i32 786478, i32 0, metadata !321, metadata !"bit", metadata !"bit", metadata !"_ZNK11ap_int_baseILi33ELb1ELb1EE3bitEi", metadata !83, i32 2141, metadata !506, i1 false, i1 false, i32 0, i32 0, null, i32 256, i1 false, null, null, i32 0, metadata !95, i32 2141} ; [ DW_TAG_subprogram ]
!585 = metadata !{i32 786478, i32 0, metadata !321, metadata !"and_reduce", metadata !"and_reduce", metadata !"_ZN11ap_int_baseILi33ELb1ELb1EE10and_reduceEv", metadata !83, i32 2321, metadata !586, i1 false, i1 false, i32 0, i32 0, null, i32 256, i1 false, null, null, i32 0, metadata !95, i32 2321} ; [ DW_TAG_subprogram ]
!586 = metadata !{i32 786453, i32 0, metadata !"", i32 0, i32 0, i64 0, i64 0, i64 0, i32 0, null, metadata !587, i32 0, i32 0} ; [ DW_TAG_subroutine_type ]
!587 = metadata !{metadata !101, metadata !337}
!588 = metadata !{i32 786478, i32 0, metadata !321, metadata !"nand_reduce", metadata !"nand_reduce", metadata !"_ZN11ap_int_baseILi33ELb1ELb1EE11nand_reduceEv", metadata !83, i32 2324, metadata !586, i1 false, i1 false, i32 0, i32 0, null, i32 256, i1 false, null, null, i32 0, metadata !95, i32 2324} ; [ DW_TAG_subprogram ]
!589 = metadata !{i32 786478, i32 0, metadata !321, metadata !"or_reduce", metadata !"or_reduce", metadata !"_ZN11ap_int_baseILi33ELb1ELb1EE9or_reduceEv", metadata !83, i32 2327, metadata !586, i1 false, i1 false, i32 0, i32 0, null, i32 256, i1 false, null, null, i32 0, metadata !95, i32 2327} ; [ DW_TAG_subprogram ]
!590 = metadata !{i32 786478, i32 0, metadata !321, metadata !"nor_reduce", metadata !"nor_reduce", metadata !"_ZN11ap_int_baseILi33ELb1ELb1EE10nor_reduceEv", metadata !83, i32 2330, metadata !586, i1 false, i1 false, i32 0, i32 0, null, i32 256, i1 false, null, null, i32 0, metadata !95, i32 2330} ; [ DW_TAG_subprogram ]
!591 = metadata !{i32 786478, i32 0, metadata !321, metadata !"xor_reduce", metadata !"xor_reduce", metadata !"_ZN11ap_int_baseILi33ELb1ELb1EE10xor_reduceEv", metadata !83, i32 2333, metadata !586, i1 false, i1 false, i32 0, i32 0, null, i32 256, i1 false, null, null, i32 0, metadata !95, i32 2333} ; [ DW_TAG_subprogram ]
!592 = metadata !{i32 786478, i32 0, metadata !321, metadata !"xnor_reduce", metadata !"xnor_reduce", metadata !"_ZN11ap_int_baseILi33ELb1ELb1EE11xnor_reduceEv", metadata !83, i32 2336, metadata !586, i1 false, i1 false, i32 0, i32 0, null, i32 256, i1 false, null, null, i32 0, metadata !95, i32 2336} ; [ DW_TAG_subprogram ]
!593 = metadata !{i32 786478, i32 0, metadata !321, metadata !"and_reduce", metadata !"and_reduce", metadata !"_ZNK11ap_int_baseILi33ELb1ELb1EE10and_reduceEv", metadata !83, i32 2340, metadata !457, i1 false, i1 false, i32 0, i32 0, null, i32 256, i1 false, null, null, i32 0, metadata !95, i32 2340} ; [ DW_TAG_subprogram ]
!594 = metadata !{i32 786478, i32 0, metadata !321, metadata !"nand_reduce", metadata !"nand_reduce", metadata !"_ZNK11ap_int_baseILi33ELb1ELb1EE11nand_reduceEv", metadata !83, i32 2343, metadata !457, i1 false, i1 false, i32 0, i32 0, null, i32 256, i1 false, null, null, i32 0, metadata !95, i32 2343} ; [ DW_TAG_subprogram ]
!595 = metadata !{i32 786478, i32 0, metadata !321, metadata !"or_reduce", metadata !"or_reduce", metadata !"_ZNK11ap_int_baseILi33ELb1ELb1EE9or_reduceEv", metadata !83, i32 2346, metadata !457, i1 false, i1 false, i32 0, i32 0, null, i32 256, i1 false, null, null, i32 0, metadata !95, i32 2346} ; [ DW_TAG_subprogram ]
!596 = metadata !{i32 786478, i32 0, metadata !321, metadata !"nor_reduce", metadata !"nor_reduce", metadata !"_ZNK11ap_int_baseILi33ELb1ELb1EE10nor_reduceEv", metadata !83, i32 2349, metadata !457, i1 false, i1 false, i32 0, i32 0, null, i32 256, i1 false, null, null, i32 0, metadata !95, i32 2349} ; [ DW_TAG_subprogram ]
!597 = metadata !{i32 786478, i32 0, metadata !321, metadata !"xor_reduce", metadata !"xor_reduce", metadata !"_ZNK11ap_int_baseILi33ELb1ELb1EE10xor_reduceEv", metadata !83, i32 2352, metadata !457, i1 false, i1 false, i32 0, i32 0, null, i32 256, i1 false, null, null, i32 0, metadata !95, i32 2352} ; [ DW_TAG_subprogram ]
!598 = metadata !{i32 786478, i32 0, metadata !321, metadata !"xnor_reduce", metadata !"xnor_reduce", metadata !"_ZNK11ap_int_baseILi33ELb1ELb1EE11xnor_reduceEv", metadata !83, i32 2355, metadata !457, i1 false, i1 false, i32 0, i32 0, null, i32 256, i1 false, null, null, i32 0, metadata !95, i32 2355} ; [ DW_TAG_subprogram ]
!599 = metadata !{i32 786478, i32 0, metadata !321, metadata !"to_string", metadata !"to_string", metadata !"_ZNK11ap_int_baseILi33ELb1ELb1EE9to_stringEPci8BaseModeb", metadata !83, i32 2362, metadata !600, i1 false, i1 false, i32 0, i32 0, null, i32 256, i1 false, null, null, i32 0, metadata !95, i32 2362} ; [ DW_TAG_subprogram ]
!600 = metadata !{i32 786453, i32 0, metadata !"", i32 0, i32 0, i64 0, i64 0, i64 0, i32 0, null, metadata !601, i32 0, i32 0} ; [ DW_TAG_subroutine_type ]
!601 = metadata !{null, metadata !455, metadata !602, metadata !99, metadata !603, metadata !101}
!602 = metadata !{i32 786447, null, metadata !"", null, i32 0, i64 64, i64 64, i64 0, i32 0, metadata !182} ; [ DW_TAG_pointer_type ]
!603 = metadata !{i32 786436, null, metadata !"BaseMode", metadata !83, i32 603, i64 5, i64 8, i32 0, i32 0, null, metadata !604, i32 0, i32 0} ; [ DW_TAG_enumeration_type ]
!604 = metadata !{metadata !605, metadata !606, metadata !607, metadata !608}
!605 = metadata !{i32 786472, metadata !"SC_BIN", i64 2} ; [ DW_TAG_enumerator ]
!606 = metadata !{i32 786472, metadata !"SC_OCT", i64 8} ; [ DW_TAG_enumerator ]
!607 = metadata !{i32 786472, metadata !"SC_DEC", i64 10} ; [ DW_TAG_enumerator ]
!608 = metadata !{i32 786472, metadata !"SC_HEX", i64 16} ; [ DW_TAG_enumerator ]
!609 = metadata !{i32 786478, i32 0, metadata !321, metadata !"to_string", metadata !"to_string", metadata !"_ZNK11ap_int_baseILi33ELb1ELb1EE9to_stringE8BaseModeb", metadata !83, i32 2389, metadata !610, i1 false, i1 false, i32 0, i32 0, null, i32 256, i1 false, null, null, i32 0, metadata !95, i32 2389} ; [ DW_TAG_subprogram ]
!610 = metadata !{i32 786453, i32 0, metadata !"", i32 0, i32 0, i64 0, i64 0, i64 0, i32 0, null, metadata !611, i32 0, i32 0} ; [ DW_TAG_subroutine_type ]
!611 = metadata !{metadata !602, metadata !455, metadata !603, metadata !101}
!612 = metadata !{i32 786478, i32 0, metadata !321, metadata !"to_string", metadata !"to_string", metadata !"_ZNK11ap_int_baseILi33ELb1ELb1EE9to_stringEab", metadata !83, i32 2393, metadata !613, i1 false, i1 false, i32 0, i32 0, null, i32 256, i1 false, null, null, i32 0, metadata !95, i32 2393} ; [ DW_TAG_subprogram ]
!613 = metadata !{i32 786453, i32 0, metadata !"", i32 0, i32 0, i64 0, i64 0, i64 0, i32 0, null, metadata !614, i32 0, i32 0} ; [ DW_TAG_subroutine_type ]
!614 = metadata !{metadata !602, metadata !455, metadata !126, metadata !101}
!615 = metadata !{metadata !581, metadata !100, metadata !616}
!616 = metadata !{i32 786480, null, metadata !"_AP_C", metadata !101, i64 1, null, i32 0, i32 0} ; [ DW_TAG_template_value_parameter ]
!617 = metadata !{i32 786478, i32 0, metadata !82, metadata !"range", metadata !"range", metadata !"_ZN11ap_int_baseILi32ELb1ELb1EE5rangeEii", metadata !83, i32 2062, metadata !618, i1 false, i1 false, i32 0, i32 0, null, i32 256, i1 false, null, null, i32 0, metadata !95, i32 2062} ; [ DW_TAG_subprogram ]
!618 = metadata !{i32 786453, i32 0, metadata !"", i32 0, i32 0, i64 0, i64 0, i64 0, i32 0, null, metadata !619, i32 0, i32 0} ; [ DW_TAG_subroutine_type ]
!619 = metadata !{metadata !620, metadata !105, metadata !99, metadata !99}
!620 = metadata !{i32 786434, null, metadata !"ap_range_ref<32, true>", metadata !83, i32 925, i32 0, i32 0, i32 0, i32 4, null, null, i32 0} ; [ DW_TAG_class_type ]
!621 = metadata !{i32 786478, i32 0, metadata !82, metadata !"operator()", metadata !"operator()", metadata !"_ZN11ap_int_baseILi32ELb1ELb1EEclEii", metadata !83, i32 2068, metadata !618, i1 false, i1 false, i32 0, i32 0, null, i32 256, i1 false, null, null, i32 0, metadata !95, i32 2068} ; [ DW_TAG_subprogram ]
!622 = metadata !{i32 786478, i32 0, metadata !82, metadata !"range", metadata !"range", metadata !"_ZNK11ap_int_baseILi32ELb1ELb1EE5rangeEii", metadata !83, i32 2074, metadata !623, i1 false, i1 false, i32 0, i32 0, null, i32 256, i1 false, null, null, i32 0, metadata !95, i32 2074} ; [ DW_TAG_subprogram ]
!623 = metadata !{i32 786453, i32 0, metadata !"", i32 0, i32 0, i64 0, i64 0, i64 0, i32 0, null, metadata !624, i32 0, i32 0} ; [ DW_TAG_subroutine_type ]
!624 = metadata !{metadata !620, metadata !243, metadata !99, metadata !99}
!625 = metadata !{i32 786478, i32 0, metadata !82, metadata !"operator()", metadata !"operator()", metadata !"_ZNK11ap_int_baseILi32ELb1ELb1EEclEii", metadata !83, i32 2080, metadata !623, i1 false, i1 false, i32 0, i32 0, null, i32 256, i1 false, null, null, i32 0, metadata !95, i32 2080} ; [ DW_TAG_subprogram ]
!626 = metadata !{i32 786478, i32 0, metadata !82, metadata !"operator[]", metadata !"operator[]", metadata !"_ZN11ap_int_baseILi32ELb1ELb1EEixEi", metadata !83, i32 2099, metadata !627, i1 false, i1 false, i32 0, i32 0, null, i32 256, i1 false, null, null, i32 0, metadata !95, i32 2099} ; [ DW_TAG_subprogram ]
!627 = metadata !{i32 786453, i32 0, metadata !"", i32 0, i32 0, i64 0, i64 0, i64 0, i32 0, null, metadata !628, i32 0, i32 0} ; [ DW_TAG_subroutine_type ]
!628 = metadata !{metadata !629, metadata !105, metadata !99}
!629 = metadata !{i32 786434, null, metadata !"ap_bit_ref<32, true>", metadata !83, i32 1249, i32 0, i32 0, i32 0, i32 4, null, null, i32 0} ; [ DW_TAG_class_type ]
!630 = metadata !{i32 786478, i32 0, metadata !82, metadata !"operator[]", metadata !"operator[]", metadata !"_ZNK11ap_int_baseILi32ELb1ELb1EEixEi", metadata !83, i32 2113, metadata !294, i1 false, i1 false, i32 0, i32 0, null, i32 256, i1 false, null, null, i32 0, metadata !95, i32 2113} ; [ DW_TAG_subprogram ]
!631 = metadata !{i32 786478, i32 0, metadata !82, metadata !"bit", metadata !"bit", metadata !"_ZN11ap_int_baseILi32ELb1ELb1EE3bitEi", metadata !83, i32 2127, metadata !627, i1 false, i1 false, i32 0, i32 0, null, i32 256, i1 false, null, null, i32 0, metadata !95, i32 2127} ; [ DW_TAG_subprogram ]
!632 = metadata !{i32 786478, i32 0, metadata !82, metadata !"bit", metadata !"bit", metadata !"_ZNK11ap_int_baseILi32ELb1ELb1EE3bitEi", metadata !83, i32 2141, metadata !294, i1 false, i1 false, i32 0, i32 0, null, i32 256, i1 false, null, null, i32 0, metadata !95, i32 2141} ; [ DW_TAG_subprogram ]
!633 = metadata !{i32 786478, i32 0, metadata !82, metadata !"and_reduce", metadata !"and_reduce", metadata !"_ZN11ap_int_baseILi32ELb1ELb1EE10and_reduceEv", metadata !83, i32 2321, metadata !634, i1 false, i1 false, i32 0, i32 0, null, i32 256, i1 false, null, null, i32 0, metadata !95, i32 2321} ; [ DW_TAG_subprogram ]
!634 = metadata !{i32 786453, i32 0, metadata !"", i32 0, i32 0, i64 0, i64 0, i64 0, i32 0, null, metadata !635, i32 0, i32 0} ; [ DW_TAG_subroutine_type ]
!635 = metadata !{metadata !101, metadata !105}
!636 = metadata !{i32 786478, i32 0, metadata !82, metadata !"nand_reduce", metadata !"nand_reduce", metadata !"_ZN11ap_int_baseILi32ELb1ELb1EE11nand_reduceEv", metadata !83, i32 2324, metadata !634, i1 false, i1 false, i32 0, i32 0, null, i32 256, i1 false, null, null, i32 0, metadata !95, i32 2324} ; [ DW_TAG_subprogram ]
!637 = metadata !{i32 786478, i32 0, metadata !82, metadata !"or_reduce", metadata !"or_reduce", metadata !"_ZN11ap_int_baseILi32ELb1ELb1EE9or_reduceEv", metadata !83, i32 2327, metadata !634, i1 false, i1 false, i32 0, i32 0, null, i32 256, i1 false, null, null, i32 0, metadata !95, i32 2327} ; [ DW_TAG_subprogram ]
!638 = metadata !{i32 786478, i32 0, metadata !82, metadata !"nor_reduce", metadata !"nor_reduce", metadata !"_ZN11ap_int_baseILi32ELb1ELb1EE10nor_reduceEv", metadata !83, i32 2330, metadata !634, i1 false, i1 false, i32 0, i32 0, null, i32 256, i1 false, null, null, i32 0, metadata !95, i32 2330} ; [ DW_TAG_subprogram ]
!639 = metadata !{i32 786478, i32 0, metadata !82, metadata !"xor_reduce", metadata !"xor_reduce", metadata !"_ZN11ap_int_baseILi32ELb1ELb1EE10xor_reduceEv", metadata !83, i32 2333, metadata !634, i1 false, i1 false, i32 0, i32 0, null, i32 256, i1 false, null, null, i32 0, metadata !95, i32 2333} ; [ DW_TAG_subprogram ]
!640 = metadata !{i32 786478, i32 0, metadata !82, metadata !"xnor_reduce", metadata !"xnor_reduce", metadata !"_ZN11ap_int_baseILi32ELb1ELb1EE11xnor_reduceEv", metadata !83, i32 2336, metadata !634, i1 false, i1 false, i32 0, i32 0, null, i32 256, i1 false, null, null, i32 0, metadata !95, i32 2336} ; [ DW_TAG_subprogram ]
!641 = metadata !{i32 786478, i32 0, metadata !82, metadata !"and_reduce", metadata !"and_reduce", metadata !"_ZNK11ap_int_baseILi32ELb1ELb1EE10and_reduceEv", metadata !83, i32 2340, metadata !245, i1 false, i1 false, i32 0, i32 0, null, i32 256, i1 false, null, null, i32 0, metadata !95, i32 2340} ; [ DW_TAG_subprogram ]
!642 = metadata !{i32 786478, i32 0, metadata !82, metadata !"nand_reduce", metadata !"nand_reduce", metadata !"_ZNK11ap_int_baseILi32ELb1ELb1EE11nand_reduceEv", metadata !83, i32 2343, metadata !245, i1 false, i1 false, i32 0, i32 0, null, i32 256, i1 false, null, null, i32 0, metadata !95, i32 2343} ; [ DW_TAG_subprogram ]
!643 = metadata !{i32 786478, i32 0, metadata !82, metadata !"or_reduce", metadata !"or_reduce", metadata !"_ZNK11ap_int_baseILi32ELb1ELb1EE9or_reduceEv", metadata !83, i32 2346, metadata !245, i1 false, i1 false, i32 0, i32 0, null, i32 256, i1 false, null, null, i32 0, metadata !95, i32 2346} ; [ DW_TAG_subprogram ]
!644 = metadata !{i32 786478, i32 0, metadata !82, metadata !"nor_reduce", metadata !"nor_reduce", metadata !"_ZNK11ap_int_baseILi32ELb1ELb1EE10nor_reduceEv", metadata !83, i32 2349, metadata !245, i1 false, i1 false, i32 0, i32 0, null, i32 256, i1 false, null, null, i32 0, metadata !95, i32 2349} ; [ DW_TAG_subprogram ]
!645 = metadata !{i32 786478, i32 0, metadata !82, metadata !"xor_reduce", metadata !"xor_reduce", metadata !"_ZNK11ap_int_baseILi32ELb1ELb1EE10xor_reduceEv", metadata !83, i32 2352, metadata !245, i1 false, i1 false, i32 0, i32 0, null, i32 256, i1 false, null, null, i32 0, metadata !95, i32 2352} ; [ DW_TAG_subprogram ]
!646 = metadata !{i32 786478, i32 0, metadata !82, metadata !"xnor_reduce", metadata !"xnor_reduce", metadata !"_ZNK11ap_int_baseILi32ELb1ELb1EE11xnor_reduceEv", metadata !83, i32 2355, metadata !245, i1 false, i1 false, i32 0, i32 0, null, i32 256, i1 false, null, null, i32 0, metadata !95, i32 2355} ; [ DW_TAG_subprogram ]
!647 = metadata !{i32 786478, i32 0, metadata !82, metadata !"to_string", metadata !"to_string", metadata !"_ZNK11ap_int_baseILi32ELb1ELb1EE9to_stringEPci8BaseModeb", metadata !83, i32 2362, metadata !648, i1 false, i1 false, i32 0, i32 0, null, i32 256, i1 false, null, null, i32 0, metadata !95, i32 2362} ; [ DW_TAG_subprogram ]
!648 = metadata !{i32 786453, i32 0, metadata !"", i32 0, i32 0, i64 0, i64 0, i64 0, i32 0, null, metadata !649, i32 0, i32 0} ; [ DW_TAG_subroutine_type ]
!649 = metadata !{null, metadata !243, metadata !602, metadata !99, metadata !603, metadata !101}
!650 = metadata !{i32 786478, i32 0, metadata !82, metadata !"to_string", metadata !"to_string", metadata !"_ZNK11ap_int_baseILi32ELb1ELb1EE9to_stringE8BaseModeb", metadata !83, i32 2389, metadata !651, i1 false, i1 false, i32 0, i32 0, null, i32 256, i1 false, null, null, i32 0, metadata !95, i32 2389} ; [ DW_TAG_subprogram ]
!651 = metadata !{i32 786453, i32 0, metadata !"", i32 0, i32 0, i64 0, i64 0, i64 0, i32 0, null, metadata !652, i32 0, i32 0} ; [ DW_TAG_subroutine_type ]
!652 = metadata !{metadata !602, metadata !243, metadata !603, metadata !101}
!653 = metadata !{i32 786478, i32 0, metadata !82, metadata !"to_string", metadata !"to_string", metadata !"_ZNK11ap_int_baseILi32ELb1ELb1EE9to_stringEab", metadata !83, i32 2393, metadata !654, i1 false, i1 false, i32 0, i32 0, null, i32 256, i1 false, null, null, i32 0, metadata !95, i32 2393} ; [ DW_TAG_subprogram ]
!654 = metadata !{i32 786453, i32 0, metadata !"", i32 0, i32 0, i64 0, i64 0, i64 0, i32 0, null, metadata !655, i32 0, i32 0} ; [ DW_TAG_subroutine_type ]
!655 = metadata !{metadata !602, metadata !243, metadata !126, metadata !101}
!656 = metadata !{metadata !657, metadata !100, metadata !616}
!657 = metadata !{i32 786480, null, metadata !"_AP_W", metadata !99, i64 32, null, i32 0, i32 0} ; [ DW_TAG_template_value_parameter ]
!658 = metadata !{i32 786478, i32 0, metadata !78, metadata !"ap_int", metadata !"ap_int", metadata !"", metadata !79, i32 77, metadata !659, i1 false, i1 false, i32 0, i32 0, null, i32 256, i1 false, null, null, i32 0, metadata !95, i32 77} ; [ DW_TAG_subprogram ]
!659 = metadata !{i32 786453, i32 0, metadata !"", i32 0, i32 0, i64 0, i64 0, i64 0, i32 0, null, metadata !660, i32 0, i32 0} ; [ DW_TAG_subroutine_type ]
!660 = metadata !{null, metadata !661}
!661 = metadata !{i32 786447, i32 0, metadata !"", i32 0, i32 0, i64 64, i64 64, i64 0, i32 64, metadata !78} ; [ DW_TAG_pointer_type ]
!662 = metadata !{i32 786478, i32 0, metadata !78, metadata !"ap_int<32>", metadata !"ap_int<32>", metadata !"", metadata !79, i32 79, metadata !663, i1 false, i1 false, i32 0, i32 0, null, i32 256, i1 false, null, metadata !667, i32 0, metadata !95, i32 79} ; [ DW_TAG_subprogram ]
!663 = metadata !{i32 786453, i32 0, metadata !"", i32 0, i32 0, i64 0, i64 0, i64 0, i32 0, null, metadata !664, i32 0, i32 0} ; [ DW_TAG_subroutine_type ]
!664 = metadata !{null, metadata !661, metadata !665}
!665 = metadata !{i32 786448, null, null, null, i32 0, i64 0, i64 0, i64 0, i32 0, metadata !666} ; [ DW_TAG_reference_type ]
!666 = metadata !{i32 786470, null, metadata !"", null, i32 0, i64 0, i64 0, i64 0, i32 0, metadata !78} ; [ DW_TAG_const_type ]
!667 = metadata !{metadata !112}
!668 = metadata !{i32 786478, i32 0, metadata !78, metadata !"ap_int<32>", metadata !"ap_int<32>", metadata !"", metadata !79, i32 82, metadata !669, i1 false, i1 false, i32 0, i32 0, null, i32 256, i1 false, null, metadata !667, i32 0, metadata !95, i32 82} ; [ DW_TAG_subprogram ]
!669 = metadata !{i32 786453, i32 0, metadata !"", i32 0, i32 0, i64 0, i64 0, i64 0, i32 0, null, metadata !670, i32 0, i32 0} ; [ DW_TAG_subroutine_type ]
!670 = metadata !{null, metadata !661, metadata !671}
!671 = metadata !{i32 786448, null, null, null, i32 0, i64 0, i64 0, i64 0, i32 0, metadata !672} ; [ DW_TAG_reference_type ]
!672 = metadata !{i32 786470, null, metadata !"", null, i32 0, i64 0, i64 0, i64 0, i32 0, metadata !673} ; [ DW_TAG_const_type ]
!673 = metadata !{i32 786485, null, metadata !"", null, i32 0, i64 0, i64 0, i64 0, i32 0, metadata !78} ; [ DW_TAG_volatile_type ]
!674 = metadata !{i32 786478, i32 0, metadata !78, metadata !"ap_int<32, true>", metadata !"ap_int<32, true>", metadata !"", metadata !79, i32 121, metadata !675, i1 false, i1 false, i32 0, i32 0, null, i32 256, i1 false, null, metadata !111, i32 0, metadata !95, i32 121} ; [ DW_TAG_subprogram ]
!675 = metadata !{i32 786453, i32 0, metadata !"", i32 0, i32 0, i64 0, i64 0, i64 0, i32 0, null, metadata !676, i32 0, i32 0} ; [ DW_TAG_subroutine_type ]
!676 = metadata !{null, metadata !661, metadata !109}
!677 = metadata !{i32 786478, i32 0, metadata !78, metadata !"ap_int", metadata !"ap_int", metadata !"", metadata !79, i32 140, metadata !678, i1 false, i1 false, i32 0, i32 0, null, i32 256, i1 false, null, null, i32 0, metadata !95, i32 140} ; [ DW_TAG_subprogram ]
!678 = metadata !{i32 786453, i32 0, metadata !"", i32 0, i32 0, i64 0, i64 0, i64 0, i32 0, null, metadata !679, i32 0, i32 0} ; [ DW_TAG_subroutine_type ]
!679 = metadata !{null, metadata !661, metadata !101}
!680 = metadata !{i32 786478, i32 0, metadata !78, metadata !"ap_int", metadata !"ap_int", metadata !"", metadata !79, i32 141, metadata !681, i1 false, i1 false, i32 0, i32 0, null, i32 256, i1 false, null, null, i32 0, metadata !95, i32 141} ; [ DW_TAG_subprogram ]
!681 = metadata !{i32 786453, i32 0, metadata !"", i32 0, i32 0, i64 0, i64 0, i64 0, i32 0, null, metadata !682, i32 0, i32 0} ; [ DW_TAG_subroutine_type ]
!682 = metadata !{null, metadata !661, metadata !126}
!683 = metadata !{i32 786478, i32 0, metadata !78, metadata !"ap_int", metadata !"ap_int", metadata !"", metadata !79, i32 142, metadata !684, i1 false, i1 false, i32 0, i32 0, null, i32 256, i1 false, null, null, i32 0, metadata !95, i32 142} ; [ DW_TAG_subprogram ]
!684 = metadata !{i32 786453, i32 0, metadata !"", i32 0, i32 0, i64 0, i64 0, i64 0, i32 0, null, metadata !685, i32 0, i32 0} ; [ DW_TAG_subroutine_type ]
!685 = metadata !{null, metadata !661, metadata !130}
!686 = metadata !{i32 786478, i32 0, metadata !78, metadata !"ap_int", metadata !"ap_int", metadata !"", metadata !79, i32 143, metadata !687, i1 false, i1 false, i32 0, i32 0, null, i32 256, i1 false, null, null, i32 0, metadata !95, i32 143} ; [ DW_TAG_subprogram ]
!687 = metadata !{i32 786453, i32 0, metadata !"", i32 0, i32 0, i64 0, i64 0, i64 0, i32 0, null, metadata !688, i32 0, i32 0} ; [ DW_TAG_subroutine_type ]
!688 = metadata !{null, metadata !661, metadata !134}
!689 = metadata !{i32 786478, i32 0, metadata !78, metadata !"ap_int", metadata !"ap_int", metadata !"", metadata !79, i32 144, metadata !690, i1 false, i1 false, i32 0, i32 0, null, i32 256, i1 false, null, null, i32 0, metadata !95, i32 144} ; [ DW_TAG_subprogram ]
!690 = metadata !{i32 786453, i32 0, metadata !"", i32 0, i32 0, i64 0, i64 0, i64 0, i32 0, null, metadata !691, i32 0, i32 0} ; [ DW_TAG_subroutine_type ]
!691 = metadata !{null, metadata !661, metadata !138}
!692 = metadata !{i32 786478, i32 0, metadata !78, metadata !"ap_int", metadata !"ap_int", metadata !"", metadata !79, i32 145, metadata !693, i1 false, i1 false, i32 0, i32 0, null, i32 256, i1 false, null, null, i32 0, metadata !95, i32 145} ; [ DW_TAG_subprogram ]
!693 = metadata !{i32 786453, i32 0, metadata !"", i32 0, i32 0, i64 0, i64 0, i64 0, i32 0, null, metadata !694, i32 0, i32 0} ; [ DW_TAG_subroutine_type ]
!694 = metadata !{null, metadata !661, metadata !99}
!695 = metadata !{i32 786478, i32 0, metadata !78, metadata !"ap_int", metadata !"ap_int", metadata !"", metadata !79, i32 146, metadata !696, i1 false, i1 false, i32 0, i32 0, null, i32 256, i1 false, null, null, i32 0, metadata !95, i32 146} ; [ DW_TAG_subprogram ]
!696 = metadata !{i32 786453, i32 0, metadata !"", i32 0, i32 0, i64 0, i64 0, i64 0, i32 0, null, metadata !697, i32 0, i32 0} ; [ DW_TAG_subroutine_type ]
!697 = metadata !{null, metadata !661, metadata !145}
!698 = metadata !{i32 786478, i32 0, metadata !78, metadata !"ap_int", metadata !"ap_int", metadata !"", metadata !79, i32 147, metadata !699, i1 false, i1 false, i32 0, i32 0, null, i32 256, i1 false, null, null, i32 0, metadata !95, i32 147} ; [ DW_TAG_subprogram ]
!699 = metadata !{i32 786453, i32 0, metadata !"", i32 0, i32 0, i64 0, i64 0, i64 0, i32 0, null, metadata !700, i32 0, i32 0} ; [ DW_TAG_subroutine_type ]
!700 = metadata !{null, metadata !661, metadata !149}
!701 = metadata !{i32 786478, i32 0, metadata !78, metadata !"ap_int", metadata !"ap_int", metadata !"", metadata !79, i32 148, metadata !702, i1 false, i1 false, i32 0, i32 0, null, i32 256, i1 false, null, null, i32 0, metadata !95, i32 148} ; [ DW_TAG_subprogram ]
!702 = metadata !{i32 786453, i32 0, metadata !"", i32 0, i32 0, i64 0, i64 0, i64 0, i32 0, null, metadata !703, i32 0, i32 0} ; [ DW_TAG_subroutine_type ]
!703 = metadata !{null, metadata !661, metadata !153}
!704 = metadata !{i32 786478, i32 0, metadata !78, metadata !"ap_int", metadata !"ap_int", metadata !"", metadata !79, i32 149, metadata !705, i1 false, i1 false, i32 0, i32 0, null, i32 256, i1 false, null, null, i32 0, metadata !95, i32 149} ; [ DW_TAG_subprogram ]
!705 = metadata !{i32 786453, i32 0, metadata !"", i32 0, i32 0, i64 0, i64 0, i64 0, i32 0, null, metadata !706, i32 0, i32 0} ; [ DW_TAG_subroutine_type ]
!706 = metadata !{null, metadata !661, metadata !163}
!707 = metadata !{i32 786478, i32 0, metadata !78, metadata !"ap_int", metadata !"ap_int", metadata !"", metadata !79, i32 150, metadata !708, i1 false, i1 false, i32 0, i32 0, null, i32 256, i1 false, null, null, i32 0, metadata !95, i32 150} ; [ DW_TAG_subprogram ]
!708 = metadata !{i32 786453, i32 0, metadata !"", i32 0, i32 0, i64 0, i64 0, i64 0, i32 0, null, metadata !709, i32 0, i32 0} ; [ DW_TAG_subroutine_type ]
!709 = metadata !{null, metadata !661, metadata !158}
!710 = metadata !{i32 786478, i32 0, metadata !78, metadata !"ap_int", metadata !"ap_int", metadata !"", metadata !79, i32 151, metadata !711, i1 false, i1 false, i32 0, i32 0, null, i32 256, i1 false, null, null, i32 0, metadata !95, i32 151} ; [ DW_TAG_subprogram ]
!711 = metadata !{i32 786453, i32 0, metadata !"", i32 0, i32 0, i64 0, i64 0, i64 0, i32 0, null, metadata !712, i32 0, i32 0} ; [ DW_TAG_subroutine_type ]
!712 = metadata !{null, metadata !661, metadata !167}
!713 = metadata !{i32 786478, i32 0, metadata !78, metadata !"ap_int", metadata !"ap_int", metadata !"", metadata !79, i32 152, metadata !714, i1 false, i1 false, i32 0, i32 0, null, i32 256, i1 false, null, null, i32 0, metadata !95, i32 152} ; [ DW_TAG_subprogram ]
!714 = metadata !{i32 786453, i32 0, metadata !"", i32 0, i32 0, i64 0, i64 0, i64 0, i32 0, null, metadata !715, i32 0, i32 0} ; [ DW_TAG_subroutine_type ]
!715 = metadata !{null, metadata !661, metadata !172}
!716 = metadata !{i32 786478, i32 0, metadata !78, metadata !"ap_int", metadata !"ap_int", metadata !"", metadata !79, i32 153, metadata !717, i1 false, i1 false, i32 0, i32 0, null, i32 256, i1 false, null, null, i32 0, metadata !95, i32 153} ; [ DW_TAG_subprogram ]
!717 = metadata !{i32 786453, i32 0, metadata !"", i32 0, i32 0, i64 0, i64 0, i64 0, i32 0, null, metadata !718, i32 0, i32 0} ; [ DW_TAG_subroutine_type ]
!718 = metadata !{null, metadata !661, metadata !176}
!719 = metadata !{i32 786478, i32 0, metadata !78, metadata !"ap_int", metadata !"ap_int", metadata !"", metadata !79, i32 155, metadata !720, i1 false, i1 false, i32 0, i32 0, null, i32 256, i1 false, null, null, i32 0, metadata !95, i32 155} ; [ DW_TAG_subprogram ]
!720 = metadata !{i32 786453, i32 0, metadata !"", i32 0, i32 0, i64 0, i64 0, i64 0, i32 0, null, metadata !721, i32 0, i32 0} ; [ DW_TAG_subroutine_type ]
!721 = metadata !{null, metadata !661, metadata !180}
!722 = metadata !{i32 786478, i32 0, metadata !78, metadata !"ap_int", metadata !"ap_int", metadata !"", metadata !79, i32 156, metadata !723, i1 false, i1 false, i32 0, i32 0, null, i32 256, i1 false, null, null, i32 0, metadata !95, i32 156} ; [ DW_TAG_subprogram ]
!723 = metadata !{i32 786453, i32 0, metadata !"", i32 0, i32 0, i64 0, i64 0, i64 0, i32 0, null, metadata !724, i32 0, i32 0} ; [ DW_TAG_subroutine_type ]
!724 = metadata !{null, metadata !661, metadata !180, metadata !126}
!725 = metadata !{i32 786478, i32 0, metadata !78, metadata !"operator=", metadata !"operator=", metadata !"_ZNV6ap_intILi32EEaSERKS0_", metadata !79, i32 160, metadata !726, i1 false, i1 false, i32 0, i32 0, null, i32 256, i1 false, null, null, i32 0, metadata !95, i32 160} ; [ DW_TAG_subprogram ]
!726 = metadata !{i32 786453, i32 0, metadata !"", i32 0, i32 0, i64 0, i64 0, i64 0, i32 0, null, metadata !727, i32 0, i32 0} ; [ DW_TAG_subroutine_type ]
!727 = metadata !{null, metadata !728, metadata !665}
!728 = metadata !{i32 786447, i32 0, metadata !"", i32 0, i32 0, i64 64, i64 64, i64 0, i32 64, metadata !673} ; [ DW_TAG_pointer_type ]
!729 = metadata !{i32 786478, i32 0, metadata !78, metadata !"operator=", metadata !"operator=", metadata !"_ZNV6ap_intILi32EEaSERVKS0_", metadata !79, i32 164, metadata !730, i1 false, i1 false, i32 0, i32 0, null, i32 256, i1 false, null, null, i32 0, metadata !95, i32 164} ; [ DW_TAG_subprogram ]
!730 = metadata !{i32 786453, i32 0, metadata !"", i32 0, i32 0, i64 0, i64 0, i64 0, i32 0, null, metadata !731, i32 0, i32 0} ; [ DW_TAG_subroutine_type ]
!731 = metadata !{null, metadata !728, metadata !671}
!732 = metadata !{i32 786478, i32 0, metadata !78, metadata !"operator=", metadata !"operator=", metadata !"_ZN6ap_intILi32EEaSERVKS0_", metadata !79, i32 168, metadata !733, i1 false, i1 false, i32 0, i32 0, null, i32 256, i1 false, null, null, i32 0, metadata !95, i32 168} ; [ DW_TAG_subprogram ]
!733 = metadata !{i32 786453, i32 0, metadata !"", i32 0, i32 0, i64 0, i64 0, i64 0, i32 0, null, metadata !734, i32 0, i32 0} ; [ DW_TAG_subroutine_type ]
!734 = metadata !{metadata !735, metadata !661, metadata !671}
!735 = metadata !{i32 786448, null, null, null, i32 0, i64 0, i64 0, i64 0, i32 0, metadata !78} ; [ DW_TAG_reference_type ]
!736 = metadata !{i32 786478, i32 0, metadata !78, metadata !"operator=", metadata !"operator=", metadata !"_ZN6ap_intILi32EEaSERKS0_", metadata !79, i32 173, metadata !737, i1 false, i1 false, i32 0, i32 0, null, i32 256, i1 false, null, null, i32 0, metadata !95, i32 173} ; [ DW_TAG_subprogram ]
!737 = metadata !{i32 786453, i32 0, metadata !"", i32 0, i32 0, i64 0, i64 0, i64 0, i32 0, null, metadata !738, i32 0, i32 0} ; [ DW_TAG_subroutine_type ]
!738 = metadata !{metadata !735, metadata !661, metadata !665}
!739 = metadata !{metadata !657}
!740 = metadata !{i32 786445, metadata !74, metadata !"last", metadata !75, i32 30, i64 8, i64 8, i64 32, i32 0, metadata !741} ; [ DW_TAG_member ]
!741 = metadata !{i32 786434, null, metadata !"ap_uint<1>", metadata !79, i32 183, i64 8, i64 8, i32 0, i32 0, null, metadata !742, i32 0, null, metadata !1079} ; [ DW_TAG_class_type ]
!742 = metadata !{metadata !743, metadata !998, metadata !1002, metadata !1008, metadata !1014, metadata !1017, metadata !1020, metadata !1023, metadata !1026, metadata !1029, metadata !1032, metadata !1035, metadata !1038, metadata !1041, metadata !1044, metadata !1047, metadata !1050, metadata !1053, metadata !1056, metadata !1059, metadata !1062, metadata !1065, metadata !1069, metadata !1072, metadata !1076}
!743 = metadata !{i32 786460, metadata !741, null, metadata !79, i32 0, i64 0, i64 0, i64 0, i32 0, metadata !744} ; [ DW_TAG_inheritance ]
!744 = metadata !{i32 786434, null, metadata !"ap_int_base<1, false, true>", metadata !83, i32 1453, i64 8, i64 8, i32 0, i32 0, null, metadata !745, i32 0, null, metadata !996} ; [ DW_TAG_class_type ]
!745 = metadata !{metadata !746, metadata !758, metadata !762, metadata !770, metadata !776, metadata !779, metadata !782, metadata !785, metadata !788, metadata !791, metadata !794, metadata !797, metadata !800, metadata !803, metadata !806, metadata !809, metadata !812, metadata !815, metadata !818, metadata !821, metadata !824, metadata !828, metadata !831, metadata !834, metadata !835, metadata !839, metadata !842, metadata !845, metadata !848, metadata !851, metadata !854, metadata !857, metadata !860, metadata !863, metadata !866, metadata !869, metadata !872, metadata !879, metadata !882, metadata !885, metadata !888, metadata !891, metadata !894, metadata !897, metadata !900, metadata !903, metadata !906, metadata !909, metadata !912, metadata !915, metadata !916, metadata !920, metadata !923, metadata !924, metadata !925, metadata !926, metadata !927, metadata !928, metadata !931, metadata !932, metadata !935, metadata !936, metadata !937, metadata !938, metadata !939, metadata !940, metadata !943, metadata !944, metadata !945, metadata !948, metadata !949, metadata !952, metadata !953, metadata !957, metadata !961, metadata !962, metadata !965, metadata !966, metadata !970, metadata !971, metadata !972, metadata !973, metadata !976, metadata !977, metadata !978, metadata !979, metadata !980, metadata !981, metadata !982, metadata !983, metadata !984, metadata !985, metadata !986, metadata !987, metadata !990, metadata !993}
!746 = metadata !{i32 786460, metadata !744, null, metadata !83, i32 0, i64 0, i64 0, i64 0, i32 0, metadata !747} ; [ DW_TAG_inheritance ]
!747 = metadata !{i32 786434, null, metadata !"ssdm_int<1 + 1024 * 0, false>", metadata !87, i32 3, i64 8, i64 8, i32 0, i32 0, null, metadata !748, i32 0, null, metadata !755} ; [ DW_TAG_class_type ]
!748 = metadata !{metadata !749, metadata !751}
!749 = metadata !{i32 786445, metadata !747, metadata !"V", metadata !87, i32 3, i64 1, i64 1, i64 0, i32 0, metadata !750} ; [ DW_TAG_member ]
!750 = metadata !{i32 786468, null, metadata !"uint1", null, i32 0, i64 1, i64 1, i64 0, i32 0, i32 7} ; [ DW_TAG_base_type ]
!751 = metadata !{i32 786478, i32 0, metadata !747, metadata !"ssdm_int", metadata !"ssdm_int", metadata !"", metadata !87, i32 3, metadata !752, i1 false, i1 false, i32 0, i32 0, null, i32 256, i1 false, null, null, i32 0, metadata !95, i32 3} ; [ DW_TAG_subprogram ]
!752 = metadata !{i32 786453, i32 0, metadata !"", i32 0, i32 0, i64 0, i64 0, i64 0, i32 0, null, metadata !753, i32 0, i32 0} ; [ DW_TAG_subroutine_type ]
!753 = metadata !{null, metadata !754}
!754 = metadata !{i32 786447, i32 0, metadata !"", i32 0, i32 0, i64 64, i64 64, i64 0, i32 64, metadata !747} ; [ DW_TAG_pointer_type ]
!755 = metadata !{metadata !756, metadata !757}
!756 = metadata !{i32 786480, null, metadata !"_AP_N", metadata !99, i64 1, null, i32 0, i32 0} ; [ DW_TAG_template_value_parameter ]
!757 = metadata !{i32 786480, null, metadata !"_AP_S", metadata !101, i64 0, null, i32 0, i32 0} ; [ DW_TAG_template_value_parameter ]
!758 = metadata !{i32 786478, i32 0, metadata !744, metadata !"ap_int_base", metadata !"ap_int_base", metadata !"", metadata !83, i32 1494, metadata !759, i1 false, i1 false, i32 0, i32 0, null, i32 256, i1 false, null, null, i32 0, metadata !95, i32 1494} ; [ DW_TAG_subprogram ]
!759 = metadata !{i32 786453, i32 0, metadata !"", i32 0, i32 0, i64 0, i64 0, i64 0, i32 0, null, metadata !760, i32 0, i32 0} ; [ DW_TAG_subroutine_type ]
!760 = metadata !{null, metadata !761}
!761 = metadata !{i32 786447, i32 0, metadata !"", i32 0, i32 0, i64 64, i64 64, i64 0, i32 64, metadata !744} ; [ DW_TAG_pointer_type ]
!762 = metadata !{i32 786478, i32 0, metadata !744, metadata !"ap_int_base<1, false>", metadata !"ap_int_base<1, false>", metadata !"", metadata !83, i32 1506, metadata !763, i1 false, i1 false, i32 0, i32 0, null, i32 256, i1 false, null, metadata !767, i32 0, metadata !95, i32 1506} ; [ DW_TAG_subprogram ]
!763 = metadata !{i32 786453, i32 0, metadata !"", i32 0, i32 0, i64 0, i64 0, i64 0, i32 0, null, metadata !764, i32 0, i32 0} ; [ DW_TAG_subroutine_type ]
!764 = metadata !{null, metadata !761, metadata !765}
!765 = metadata !{i32 786448, null, null, null, i32 0, i64 0, i64 0, i64 0, i32 0, metadata !766} ; [ DW_TAG_reference_type ]
!766 = metadata !{i32 786470, null, metadata !"", null, i32 0, i64 0, i64 0, i64 0, i32 0, metadata !744} ; [ DW_TAG_const_type ]
!767 = metadata !{metadata !768, metadata !769}
!768 = metadata !{i32 786480, null, metadata !"_AP_W2", metadata !99, i64 1, null, i32 0, i32 0} ; [ DW_TAG_template_value_parameter ]
!769 = metadata !{i32 786480, null, metadata !"_AP_S2", metadata !101, i64 0, null, i32 0, i32 0} ; [ DW_TAG_template_value_parameter ]
!770 = metadata !{i32 786478, i32 0, metadata !744, metadata !"ap_int_base<1, false>", metadata !"ap_int_base<1, false>", metadata !"", metadata !83, i32 1509, metadata !771, i1 false, i1 false, i32 0, i32 0, null, i32 256, i1 false, null, metadata !767, i32 0, metadata !95, i32 1509} ; [ DW_TAG_subprogram ]
!771 = metadata !{i32 786453, i32 0, metadata !"", i32 0, i32 0, i64 0, i64 0, i64 0, i32 0, null, metadata !772, i32 0, i32 0} ; [ DW_TAG_subroutine_type ]
!772 = metadata !{null, metadata !761, metadata !773}
!773 = metadata !{i32 786448, null, null, null, i32 0, i64 0, i64 0, i64 0, i32 0, metadata !774} ; [ DW_TAG_reference_type ]
!774 = metadata !{i32 786470, null, metadata !"", null, i32 0, i64 0, i64 0, i64 0, i32 0, metadata !775} ; [ DW_TAG_const_type ]
!775 = metadata !{i32 786485, null, metadata !"", null, i32 0, i64 0, i64 0, i64 0, i32 0, metadata !744} ; [ DW_TAG_volatile_type ]
!776 = metadata !{i32 786478, i32 0, metadata !744, metadata !"ap_int_base", metadata !"ap_int_base", metadata !"", metadata !83, i32 1516, metadata !777, i1 false, i1 false, i32 0, i32 0, null, i32 384, i1 false, null, null, i32 0, metadata !95, i32 1516} ; [ DW_TAG_subprogram ]
!777 = metadata !{i32 786453, i32 0, metadata !"", i32 0, i32 0, i64 0, i64 0, i64 0, i32 0, null, metadata !778, i32 0, i32 0} ; [ DW_TAG_subroutine_type ]
!778 = metadata !{null, metadata !761, metadata !101}
!779 = metadata !{i32 786478, i32 0, metadata !744, metadata !"ap_int_base", metadata !"ap_int_base", metadata !"", metadata !83, i32 1517, metadata !780, i1 false, i1 false, i32 0, i32 0, null, i32 384, i1 false, null, null, i32 0, metadata !95, i32 1517} ; [ DW_TAG_subprogram ]
!780 = metadata !{i32 786453, i32 0, metadata !"", i32 0, i32 0, i64 0, i64 0, i64 0, i32 0, null, metadata !781, i32 0, i32 0} ; [ DW_TAG_subroutine_type ]
!781 = metadata !{null, metadata !761, metadata !126}
!782 = metadata !{i32 786478, i32 0, metadata !744, metadata !"ap_int_base", metadata !"ap_int_base", metadata !"", metadata !83, i32 1518, metadata !783, i1 false, i1 false, i32 0, i32 0, null, i32 384, i1 false, null, null, i32 0, metadata !95, i32 1518} ; [ DW_TAG_subprogram ]
!783 = metadata !{i32 786453, i32 0, metadata !"", i32 0, i32 0, i64 0, i64 0, i64 0, i32 0, null, metadata !784, i32 0, i32 0} ; [ DW_TAG_subroutine_type ]
!784 = metadata !{null, metadata !761, metadata !130}
!785 = metadata !{i32 786478, i32 0, metadata !744, metadata !"ap_int_base", metadata !"ap_int_base", metadata !"", metadata !83, i32 1519, metadata !786, i1 false, i1 false, i32 0, i32 0, null, i32 384, i1 false, null, null, i32 0, metadata !95, i32 1519} ; [ DW_TAG_subprogram ]
!786 = metadata !{i32 786453, i32 0, metadata !"", i32 0, i32 0, i64 0, i64 0, i64 0, i32 0, null, metadata !787, i32 0, i32 0} ; [ DW_TAG_subroutine_type ]
!787 = metadata !{null, metadata !761, metadata !134}
!788 = metadata !{i32 786478, i32 0, metadata !744, metadata !"ap_int_base", metadata !"ap_int_base", metadata !"", metadata !83, i32 1520, metadata !789, i1 false, i1 false, i32 0, i32 0, null, i32 384, i1 false, null, null, i32 0, metadata !95, i32 1520} ; [ DW_TAG_subprogram ]
!789 = metadata !{i32 786453, i32 0, metadata !"", i32 0, i32 0, i64 0, i64 0, i64 0, i32 0, null, metadata !790, i32 0, i32 0} ; [ DW_TAG_subroutine_type ]
!790 = metadata !{null, metadata !761, metadata !138}
!791 = metadata !{i32 786478, i32 0, metadata !744, metadata !"ap_int_base", metadata !"ap_int_base", metadata !"", metadata !83, i32 1521, metadata !792, i1 false, i1 false, i32 0, i32 0, null, i32 384, i1 false, null, null, i32 0, metadata !95, i32 1521} ; [ DW_TAG_subprogram ]
!792 = metadata !{i32 786453, i32 0, metadata !"", i32 0, i32 0, i64 0, i64 0, i64 0, i32 0, null, metadata !793, i32 0, i32 0} ; [ DW_TAG_subroutine_type ]
!793 = metadata !{null, metadata !761, metadata !99}
!794 = metadata !{i32 786478, i32 0, metadata !744, metadata !"ap_int_base", metadata !"ap_int_base", metadata !"", metadata !83, i32 1522, metadata !795, i1 false, i1 false, i32 0, i32 0, null, i32 384, i1 false, null, null, i32 0, metadata !95, i32 1522} ; [ DW_TAG_subprogram ]
!795 = metadata !{i32 786453, i32 0, metadata !"", i32 0, i32 0, i64 0, i64 0, i64 0, i32 0, null, metadata !796, i32 0, i32 0} ; [ DW_TAG_subroutine_type ]
!796 = metadata !{null, metadata !761, metadata !145}
!797 = metadata !{i32 786478, i32 0, metadata !744, metadata !"ap_int_base", metadata !"ap_int_base", metadata !"", metadata !83, i32 1523, metadata !798, i1 false, i1 false, i32 0, i32 0, null, i32 384, i1 false, null, null, i32 0, metadata !95, i32 1523} ; [ DW_TAG_subprogram ]
!798 = metadata !{i32 786453, i32 0, metadata !"", i32 0, i32 0, i64 0, i64 0, i64 0, i32 0, null, metadata !799, i32 0, i32 0} ; [ DW_TAG_subroutine_type ]
!799 = metadata !{null, metadata !761, metadata !149}
!800 = metadata !{i32 786478, i32 0, metadata !744, metadata !"ap_int_base", metadata !"ap_int_base", metadata !"", metadata !83, i32 1524, metadata !801, i1 false, i1 false, i32 0, i32 0, null, i32 384, i1 false, null, null, i32 0, metadata !95, i32 1524} ; [ DW_TAG_subprogram ]
!801 = metadata !{i32 786453, i32 0, metadata !"", i32 0, i32 0, i64 0, i64 0, i64 0, i32 0, null, metadata !802, i32 0, i32 0} ; [ DW_TAG_subroutine_type ]
!802 = metadata !{null, metadata !761, metadata !153}
!803 = metadata !{i32 786478, i32 0, metadata !744, metadata !"ap_int_base", metadata !"ap_int_base", metadata !"", metadata !83, i32 1525, metadata !804, i1 false, i1 false, i32 0, i32 0, null, i32 384, i1 false, null, null, i32 0, metadata !95, i32 1525} ; [ DW_TAG_subprogram ]
!804 = metadata !{i32 786453, i32 0, metadata !"", i32 0, i32 0, i64 0, i64 0, i64 0, i32 0, null, metadata !805, i32 0, i32 0} ; [ DW_TAG_subroutine_type ]
!805 = metadata !{null, metadata !761, metadata !157}
!806 = metadata !{i32 786478, i32 0, metadata !744, metadata !"ap_int_base", metadata !"ap_int_base", metadata !"", metadata !83, i32 1526, metadata !807, i1 false, i1 false, i32 0, i32 0, null, i32 384, i1 false, null, null, i32 0, metadata !95, i32 1526} ; [ DW_TAG_subprogram ]
!807 = metadata !{i32 786453, i32 0, metadata !"", i32 0, i32 0, i64 0, i64 0, i64 0, i32 0, null, metadata !808, i32 0, i32 0} ; [ DW_TAG_subroutine_type ]
!808 = metadata !{null, metadata !761, metadata !162}
!809 = metadata !{i32 786478, i32 0, metadata !744, metadata !"ap_int_base", metadata !"ap_int_base", metadata !"", metadata !83, i32 1527, metadata !810, i1 false, i1 false, i32 0, i32 0, null, i32 384, i1 false, null, null, i32 0, metadata !95, i32 1527} ; [ DW_TAG_subprogram ]
!810 = metadata !{i32 786453, i32 0, metadata !"", i32 0, i32 0, i64 0, i64 0, i64 0, i32 0, null, metadata !811, i32 0, i32 0} ; [ DW_TAG_subroutine_type ]
!811 = metadata !{null, metadata !761, metadata !167}
!812 = metadata !{i32 786478, i32 0, metadata !744, metadata !"ap_int_base", metadata !"ap_int_base", metadata !"", metadata !83, i32 1528, metadata !813, i1 false, i1 false, i32 0, i32 0, null, i32 384, i1 false, null, null, i32 0, metadata !95, i32 1528} ; [ DW_TAG_subprogram ]
!813 = metadata !{i32 786453, i32 0, metadata !"", i32 0, i32 0, i64 0, i64 0, i64 0, i32 0, null, metadata !814, i32 0, i32 0} ; [ DW_TAG_subroutine_type ]
!814 = metadata !{null, metadata !761, metadata !172}
!815 = metadata !{i32 786478, i32 0, metadata !744, metadata !"ap_int_base", metadata !"ap_int_base", metadata !"", metadata !83, i32 1529, metadata !816, i1 false, i1 false, i32 0, i32 0, null, i32 384, i1 false, null, null, i32 0, metadata !95, i32 1529} ; [ DW_TAG_subprogram ]
!816 = metadata !{i32 786453, i32 0, metadata !"", i32 0, i32 0, i64 0, i64 0, i64 0, i32 0, null, metadata !817, i32 0, i32 0} ; [ DW_TAG_subroutine_type ]
!817 = metadata !{null, metadata !761, metadata !176}
!818 = metadata !{i32 786478, i32 0, metadata !744, metadata !"ap_int_base", metadata !"ap_int_base", metadata !"", metadata !83, i32 1556, metadata !819, i1 false, i1 false, i32 0, i32 0, null, i32 256, i1 false, null, null, i32 0, metadata !95, i32 1556} ; [ DW_TAG_subprogram ]
!819 = metadata !{i32 786453, i32 0, metadata !"", i32 0, i32 0, i64 0, i64 0, i64 0, i32 0, null, metadata !820, i32 0, i32 0} ; [ DW_TAG_subroutine_type ]
!820 = metadata !{null, metadata !761, metadata !180}
!821 = metadata !{i32 786478, i32 0, metadata !744, metadata !"ap_int_base", metadata !"ap_int_base", metadata !"", metadata !83, i32 1563, metadata !822, i1 false, i1 false, i32 0, i32 0, null, i32 256, i1 false, null, null, i32 0, metadata !95, i32 1563} ; [ DW_TAG_subprogram ]
!822 = metadata !{i32 786453, i32 0, metadata !"", i32 0, i32 0, i64 0, i64 0, i64 0, i32 0, null, metadata !823, i32 0, i32 0} ; [ DW_TAG_subroutine_type ]
!823 = metadata !{null, metadata !761, metadata !180, metadata !126}
!824 = metadata !{i32 786478, i32 0, metadata !744, metadata !"read", metadata !"read", metadata !"_ZNV11ap_int_baseILi1ELb0ELb1EE4readEv", metadata !83, i32 1584, metadata !825, i1 false, i1 false, i32 0, i32 0, null, i32 256, i1 false, null, null, i32 0, metadata !95, i32 1584} ; [ DW_TAG_subprogram ]
!825 = metadata !{i32 786453, i32 0, metadata !"", i32 0, i32 0, i64 0, i64 0, i64 0, i32 0, null, metadata !826, i32 0, i32 0} ; [ DW_TAG_subroutine_type ]
!826 = metadata !{metadata !744, metadata !827}
!827 = metadata !{i32 786447, i32 0, metadata !"", i32 0, i32 0, i64 64, i64 64, i64 0, i32 64, metadata !775} ; [ DW_TAG_pointer_type ]
!828 = metadata !{i32 786478, i32 0, metadata !744, metadata !"write", metadata !"write", metadata !"_ZNV11ap_int_baseILi1ELb0ELb1EE5writeERKS0_", metadata !83, i32 1590, metadata !829, i1 false, i1 false, i32 0, i32 0, null, i32 256, i1 false, null, null, i32 0, metadata !95, i32 1590} ; [ DW_TAG_subprogram ]
!829 = metadata !{i32 786453, i32 0, metadata !"", i32 0, i32 0, i64 0, i64 0, i64 0, i32 0, null, metadata !830, i32 0, i32 0} ; [ DW_TAG_subroutine_type ]
!830 = metadata !{null, metadata !827, metadata !765}
!831 = metadata !{i32 786478, i32 0, metadata !744, metadata !"operator=", metadata !"operator=", metadata !"_ZNV11ap_int_baseILi1ELb0ELb1EEaSERVKS0_", metadata !83, i32 1602, metadata !832, i1 false, i1 false, i32 0, i32 0, null, i32 256, i1 false, null, null, i32 0, metadata !95, i32 1602} ; [ DW_TAG_subprogram ]
!832 = metadata !{i32 786453, i32 0, metadata !"", i32 0, i32 0, i64 0, i64 0, i64 0, i32 0, null, metadata !833, i32 0, i32 0} ; [ DW_TAG_subroutine_type ]
!833 = metadata !{null, metadata !827, metadata !773}
!834 = metadata !{i32 786478, i32 0, metadata !744, metadata !"operator=", metadata !"operator=", metadata !"_ZNV11ap_int_baseILi1ELb0ELb1EEaSERKS0_", metadata !83, i32 1611, metadata !829, i1 false, i1 false, i32 0, i32 0, null, i32 256, i1 false, null, null, i32 0, metadata !95, i32 1611} ; [ DW_TAG_subprogram ]
!835 = metadata !{i32 786478, i32 0, metadata !744, metadata !"operator=", metadata !"operator=", metadata !"_ZN11ap_int_baseILi1ELb0ELb1EEaSERVKS0_", metadata !83, i32 1634, metadata !836, i1 false, i1 false, i32 0, i32 0, null, i32 256, i1 false, null, null, i32 0, metadata !95, i32 1634} ; [ DW_TAG_subprogram ]
!836 = metadata !{i32 786453, i32 0, metadata !"", i32 0, i32 0, i64 0, i64 0, i64 0, i32 0, null, metadata !837, i32 0, i32 0} ; [ DW_TAG_subroutine_type ]
!837 = metadata !{metadata !838, metadata !761, metadata !773}
!838 = metadata !{i32 786448, null, null, null, i32 0, i64 0, i64 0, i64 0, i32 0, metadata !744} ; [ DW_TAG_reference_type ]
!839 = metadata !{i32 786478, i32 0, metadata !744, metadata !"operator=", metadata !"operator=", metadata !"_ZN11ap_int_baseILi1ELb0ELb1EEaSERKS0_", metadata !83, i32 1639, metadata !840, i1 false, i1 false, i32 0, i32 0, null, i32 256, i1 false, null, null, i32 0, metadata !95, i32 1639} ; [ DW_TAG_subprogram ]
!840 = metadata !{i32 786453, i32 0, metadata !"", i32 0, i32 0, i64 0, i64 0, i64 0, i32 0, null, metadata !841, i32 0, i32 0} ; [ DW_TAG_subroutine_type ]
!841 = metadata !{metadata !838, metadata !761, metadata !765}
!842 = metadata !{i32 786478, i32 0, metadata !744, metadata !"operator=", metadata !"operator=", metadata !"_ZN11ap_int_baseILi1ELb0ELb1EEaSEPKc", metadata !83, i32 1643, metadata !843, i1 false, i1 false, i32 0, i32 0, null, i32 256, i1 false, null, null, i32 0, metadata !95, i32 1643} ; [ DW_TAG_subprogram ]
!843 = metadata !{i32 786453, i32 0, metadata !"", i32 0, i32 0, i64 0, i64 0, i64 0, i32 0, null, metadata !844, i32 0, i32 0} ; [ DW_TAG_subroutine_type ]
!844 = metadata !{metadata !838, metadata !761, metadata !180}
!845 = metadata !{i32 786478, i32 0, metadata !744, metadata !"set", metadata !"set", metadata !"_ZN11ap_int_baseILi1ELb0ELb1EE3setEPKca", metadata !83, i32 1651, metadata !846, i1 false, i1 false, i32 0, i32 0, null, i32 256, i1 false, null, null, i32 0, metadata !95, i32 1651} ; [ DW_TAG_subprogram ]
!846 = metadata !{i32 786453, i32 0, metadata !"", i32 0, i32 0, i64 0, i64 0, i64 0, i32 0, null, metadata !847, i32 0, i32 0} ; [ DW_TAG_subroutine_type ]
!847 = metadata !{metadata !838, metadata !761, metadata !180, metadata !126}
!848 = metadata !{i32 786478, i32 0, metadata !744, metadata !"operator=", metadata !"operator=", metadata !"_ZN11ap_int_baseILi1ELb0ELb1EEaSEa", metadata !83, i32 1665, metadata !849, i1 false, i1 false, i32 0, i32 0, null, i32 256, i1 false, null, null, i32 0, metadata !95, i32 1665} ; [ DW_TAG_subprogram ]
!849 = metadata !{i32 786453, i32 0, metadata !"", i32 0, i32 0, i64 0, i64 0, i64 0, i32 0, null, metadata !850, i32 0, i32 0} ; [ DW_TAG_subroutine_type ]
!850 = metadata !{metadata !838, metadata !761, metadata !126}
!851 = metadata !{i32 786478, i32 0, metadata !744, metadata !"operator=", metadata !"operator=", metadata !"_ZN11ap_int_baseILi1ELb0ELb1EEaSEh", metadata !83, i32 1666, metadata !852, i1 false, i1 false, i32 0, i32 0, null, i32 256, i1 false, null, null, i32 0, metadata !95, i32 1666} ; [ DW_TAG_subprogram ]
!852 = metadata !{i32 786453, i32 0, metadata !"", i32 0, i32 0, i64 0, i64 0, i64 0, i32 0, null, metadata !853, i32 0, i32 0} ; [ DW_TAG_subroutine_type ]
!853 = metadata !{metadata !838, metadata !761, metadata !130}
!854 = metadata !{i32 786478, i32 0, metadata !744, metadata !"operator=", metadata !"operator=", metadata !"_ZN11ap_int_baseILi1ELb0ELb1EEaSEs", metadata !83, i32 1667, metadata !855, i1 false, i1 false, i32 0, i32 0, null, i32 256, i1 false, null, null, i32 0, metadata !95, i32 1667} ; [ DW_TAG_subprogram ]
!855 = metadata !{i32 786453, i32 0, metadata !"", i32 0, i32 0, i64 0, i64 0, i64 0, i32 0, null, metadata !856, i32 0, i32 0} ; [ DW_TAG_subroutine_type ]
!856 = metadata !{metadata !838, metadata !761, metadata !134}
!857 = metadata !{i32 786478, i32 0, metadata !744, metadata !"operator=", metadata !"operator=", metadata !"_ZN11ap_int_baseILi1ELb0ELb1EEaSEt", metadata !83, i32 1668, metadata !858, i1 false, i1 false, i32 0, i32 0, null, i32 256, i1 false, null, null, i32 0, metadata !95, i32 1668} ; [ DW_TAG_subprogram ]
!858 = metadata !{i32 786453, i32 0, metadata !"", i32 0, i32 0, i64 0, i64 0, i64 0, i32 0, null, metadata !859, i32 0, i32 0} ; [ DW_TAG_subroutine_type ]
!859 = metadata !{metadata !838, metadata !761, metadata !138}
!860 = metadata !{i32 786478, i32 0, metadata !744, metadata !"operator=", metadata !"operator=", metadata !"_ZN11ap_int_baseILi1ELb0ELb1EEaSEi", metadata !83, i32 1669, metadata !861, i1 false, i1 false, i32 0, i32 0, null, i32 256, i1 false, null, null, i32 0, metadata !95, i32 1669} ; [ DW_TAG_subprogram ]
!861 = metadata !{i32 786453, i32 0, metadata !"", i32 0, i32 0, i64 0, i64 0, i64 0, i32 0, null, metadata !862, i32 0, i32 0} ; [ DW_TAG_subroutine_type ]
!862 = metadata !{metadata !838, metadata !761, metadata !99}
!863 = metadata !{i32 786478, i32 0, metadata !744, metadata !"operator=", metadata !"operator=", metadata !"_ZN11ap_int_baseILi1ELb0ELb1EEaSEj", metadata !83, i32 1670, metadata !864, i1 false, i1 false, i32 0, i32 0, null, i32 256, i1 false, null, null, i32 0, metadata !95, i32 1670} ; [ DW_TAG_subprogram ]
!864 = metadata !{i32 786453, i32 0, metadata !"", i32 0, i32 0, i64 0, i64 0, i64 0, i32 0, null, metadata !865, i32 0, i32 0} ; [ DW_TAG_subroutine_type ]
!865 = metadata !{metadata !838, metadata !761, metadata !145}
!866 = metadata !{i32 786478, i32 0, metadata !744, metadata !"operator=", metadata !"operator=", metadata !"_ZN11ap_int_baseILi1ELb0ELb1EEaSEx", metadata !83, i32 1671, metadata !867, i1 false, i1 false, i32 0, i32 0, null, i32 256, i1 false, null, null, i32 0, metadata !95, i32 1671} ; [ DW_TAG_subprogram ]
!867 = metadata !{i32 786453, i32 0, metadata !"", i32 0, i32 0, i64 0, i64 0, i64 0, i32 0, null, metadata !868, i32 0, i32 0} ; [ DW_TAG_subroutine_type ]
!868 = metadata !{metadata !838, metadata !761, metadata !157}
!869 = metadata !{i32 786478, i32 0, metadata !744, metadata !"operator=", metadata !"operator=", metadata !"_ZN11ap_int_baseILi1ELb0ELb1EEaSEy", metadata !83, i32 1672, metadata !870, i1 false, i1 false, i32 0, i32 0, null, i32 256, i1 false, null, null, i32 0, metadata !95, i32 1672} ; [ DW_TAG_subprogram ]
!870 = metadata !{i32 786453, i32 0, metadata !"", i32 0, i32 0, i64 0, i64 0, i64 0, i32 0, null, metadata !871, i32 0, i32 0} ; [ DW_TAG_subroutine_type ]
!871 = metadata !{metadata !838, metadata !761, metadata !162}
!872 = metadata !{i32 786478, i32 0, metadata !744, metadata !"operator unsigned char", metadata !"operator unsigned char", metadata !"_ZNK11ap_int_baseILi1ELb0ELb1EEcvhEv", metadata !83, i32 1710, metadata !873, i1 false, i1 false, i32 0, i32 0, null, i32 256, i1 false, null, null, i32 0, metadata !95, i32 1710} ; [ DW_TAG_subprogram ]
!873 = metadata !{i32 786453, i32 0, metadata !"", i32 0, i32 0, i64 0, i64 0, i64 0, i32 0, null, metadata !874, i32 0, i32 0} ; [ DW_TAG_subroutine_type ]
!874 = metadata !{metadata !875, metadata !878}
!875 = metadata !{i32 786454, metadata !744, metadata !"RetType", metadata !83, i32 1458, i64 0, i64 0, i64 0, i32 0, metadata !876} ; [ DW_TAG_typedef ]
!876 = metadata !{i32 786454, metadata !877, metadata !"Type", metadata !83, i32 1426, i64 0, i64 0, i64 0, i32 0, metadata !130} ; [ DW_TAG_typedef ]
!877 = metadata !{i32 786434, null, metadata !"retval<1, false>", metadata !83, i32 1425, i64 8, i64 8, i32 0, i32 0, null, metadata !240, i32 0, null, metadata !755} ; [ DW_TAG_class_type ]
!878 = metadata !{i32 786447, i32 0, metadata !"", i32 0, i32 0, i64 64, i64 64, i64 0, i32 64, metadata !766} ; [ DW_TAG_pointer_type ]
!879 = metadata !{i32 786478, i32 0, metadata !744, metadata !"to_bool", metadata !"to_bool", metadata !"_ZNK11ap_int_baseILi1ELb0ELb1EE7to_boolEv", metadata !83, i32 1716, metadata !880, i1 false, i1 false, i32 0, i32 0, null, i32 256, i1 false, null, null, i32 0, metadata !95, i32 1716} ; [ DW_TAG_subprogram ]
!880 = metadata !{i32 786453, i32 0, metadata !"", i32 0, i32 0, i64 0, i64 0, i64 0, i32 0, null, metadata !881, i32 0, i32 0} ; [ DW_TAG_subroutine_type ]
!881 = metadata !{metadata !101, metadata !878}
!882 = metadata !{i32 786478, i32 0, metadata !744, metadata !"to_uchar", metadata !"to_uchar", metadata !"_ZNK11ap_int_baseILi1ELb0ELb1EE8to_ucharEv", metadata !83, i32 1717, metadata !883, i1 false, i1 false, i32 0, i32 0, null, i32 256, i1 false, null, null, i32 0, metadata !95, i32 1717} ; [ DW_TAG_subprogram ]
!883 = metadata !{i32 786453, i32 0, metadata !"", i32 0, i32 0, i64 0, i64 0, i64 0, i32 0, null, metadata !884, i32 0, i32 0} ; [ DW_TAG_subroutine_type ]
!884 = metadata !{metadata !130, metadata !878}
!885 = metadata !{i32 786478, i32 0, metadata !744, metadata !"to_char", metadata !"to_char", metadata !"_ZNK11ap_int_baseILi1ELb0ELb1EE7to_charEv", metadata !83, i32 1718, metadata !886, i1 false, i1 false, i32 0, i32 0, null, i32 256, i1 false, null, null, i32 0, metadata !95, i32 1718} ; [ DW_TAG_subprogram ]
!886 = metadata !{i32 786453, i32 0, metadata !"", i32 0, i32 0, i64 0, i64 0, i64 0, i32 0, null, metadata !887, i32 0, i32 0} ; [ DW_TAG_subroutine_type ]
!887 = metadata !{metadata !126, metadata !878}
!888 = metadata !{i32 786478, i32 0, metadata !744, metadata !"to_ushort", metadata !"to_ushort", metadata !"_ZNK11ap_int_baseILi1ELb0ELb1EE9to_ushortEv", metadata !83, i32 1719, metadata !889, i1 false, i1 false, i32 0, i32 0, null, i32 256, i1 false, null, null, i32 0, metadata !95, i32 1719} ; [ DW_TAG_subprogram ]
!889 = metadata !{i32 786453, i32 0, metadata !"", i32 0, i32 0, i64 0, i64 0, i64 0, i32 0, null, metadata !890, i32 0, i32 0} ; [ DW_TAG_subroutine_type ]
!890 = metadata !{metadata !138, metadata !878}
!891 = metadata !{i32 786478, i32 0, metadata !744, metadata !"to_short", metadata !"to_short", metadata !"_ZNK11ap_int_baseILi1ELb0ELb1EE8to_shortEv", metadata !83, i32 1720, metadata !892, i1 false, i1 false, i32 0, i32 0, null, i32 256, i1 false, null, null, i32 0, metadata !95, i32 1720} ; [ DW_TAG_subprogram ]
!892 = metadata !{i32 786453, i32 0, metadata !"", i32 0, i32 0, i64 0, i64 0, i64 0, i32 0, null, metadata !893, i32 0, i32 0} ; [ DW_TAG_subroutine_type ]
!893 = metadata !{metadata !134, metadata !878}
!894 = metadata !{i32 786478, i32 0, metadata !744, metadata !"to_int", metadata !"to_int", metadata !"_ZNK11ap_int_baseILi1ELb0ELb1EE6to_intEv", metadata !83, i32 1721, metadata !895, i1 false, i1 false, i32 0, i32 0, null, i32 256, i1 false, null, null, i32 0, metadata !95, i32 1721} ; [ DW_TAG_subprogram ]
!895 = metadata !{i32 786453, i32 0, metadata !"", i32 0, i32 0, i64 0, i64 0, i64 0, i32 0, null, metadata !896, i32 0, i32 0} ; [ DW_TAG_subroutine_type ]
!896 = metadata !{metadata !99, metadata !878}
!897 = metadata !{i32 786478, i32 0, metadata !744, metadata !"to_uint", metadata !"to_uint", metadata !"_ZNK11ap_int_baseILi1ELb0ELb1EE7to_uintEv", metadata !83, i32 1722, metadata !898, i1 false, i1 false, i32 0, i32 0, null, i32 256, i1 false, null, null, i32 0, metadata !95, i32 1722} ; [ DW_TAG_subprogram ]
!898 = metadata !{i32 786453, i32 0, metadata !"", i32 0, i32 0, i64 0, i64 0, i64 0, i32 0, null, metadata !899, i32 0, i32 0} ; [ DW_TAG_subroutine_type ]
!899 = metadata !{metadata !145, metadata !878}
!900 = metadata !{i32 786478, i32 0, metadata !744, metadata !"to_long", metadata !"to_long", metadata !"_ZNK11ap_int_baseILi1ELb0ELb1EE7to_longEv", metadata !83, i32 1723, metadata !901, i1 false, i1 false, i32 0, i32 0, null, i32 256, i1 false, null, null, i32 0, metadata !95, i32 1723} ; [ DW_TAG_subprogram ]
!901 = metadata !{i32 786453, i32 0, metadata !"", i32 0, i32 0, i64 0, i64 0, i64 0, i32 0, null, metadata !902, i32 0, i32 0} ; [ DW_TAG_subroutine_type ]
!902 = metadata !{metadata !149, metadata !878}
!903 = metadata !{i32 786478, i32 0, metadata !744, metadata !"to_ulong", metadata !"to_ulong", metadata !"_ZNK11ap_int_baseILi1ELb0ELb1EE8to_ulongEv", metadata !83, i32 1724, metadata !904, i1 false, i1 false, i32 0, i32 0, null, i32 256, i1 false, null, null, i32 0, metadata !95, i32 1724} ; [ DW_TAG_subprogram ]
!904 = metadata !{i32 786453, i32 0, metadata !"", i32 0, i32 0, i64 0, i64 0, i64 0, i32 0, null, metadata !905, i32 0, i32 0} ; [ DW_TAG_subroutine_type ]
!905 = metadata !{metadata !153, metadata !878}
!906 = metadata !{i32 786478, i32 0, metadata !744, metadata !"to_int64", metadata !"to_int64", metadata !"_ZNK11ap_int_baseILi1ELb0ELb1EE8to_int64Ev", metadata !83, i32 1725, metadata !907, i1 false, i1 false, i32 0, i32 0, null, i32 256, i1 false, null, null, i32 0, metadata !95, i32 1725} ; [ DW_TAG_subprogram ]
!907 = metadata !{i32 786453, i32 0, metadata !"", i32 0, i32 0, i64 0, i64 0, i64 0, i32 0, null, metadata !908, i32 0, i32 0} ; [ DW_TAG_subroutine_type ]
!908 = metadata !{metadata !157, metadata !878}
!909 = metadata !{i32 786478, i32 0, metadata !744, metadata !"to_uint64", metadata !"to_uint64", metadata !"_ZNK11ap_int_baseILi1ELb0ELb1EE9to_uint64Ev", metadata !83, i32 1726, metadata !910, i1 false, i1 false, i32 0, i32 0, null, i32 256, i1 false, null, null, i32 0, metadata !95, i32 1726} ; [ DW_TAG_subprogram ]
!910 = metadata !{i32 786453, i32 0, metadata !"", i32 0, i32 0, i64 0, i64 0, i64 0, i32 0, null, metadata !911, i32 0, i32 0} ; [ DW_TAG_subroutine_type ]
!911 = metadata !{metadata !162, metadata !878}
!912 = metadata !{i32 786478, i32 0, metadata !744, metadata !"to_double", metadata !"to_double", metadata !"_ZNK11ap_int_baseILi1ELb0ELb1EE9to_doubleEv", metadata !83, i32 1727, metadata !913, i1 false, i1 false, i32 0, i32 0, null, i32 256, i1 false, null, null, i32 0, metadata !95, i32 1727} ; [ DW_TAG_subprogram ]
!913 = metadata !{i32 786453, i32 0, metadata !"", i32 0, i32 0, i64 0, i64 0, i64 0, i32 0, null, metadata !914, i32 0, i32 0} ; [ DW_TAG_subroutine_type ]
!914 = metadata !{metadata !176, metadata !878}
!915 = metadata !{i32 786478, i32 0, metadata !744, metadata !"length", metadata !"length", metadata !"_ZNK11ap_int_baseILi1ELb0ELb1EE6lengthEv", metadata !83, i32 1741, metadata !895, i1 false, i1 false, i32 0, i32 0, null, i32 256, i1 false, null, null, i32 0, metadata !95, i32 1741} ; [ DW_TAG_subprogram ]
!916 = metadata !{i32 786478, i32 0, metadata !744, metadata !"length", metadata !"length", metadata !"_ZNVK11ap_int_baseILi1ELb0ELb1EE6lengthEv", metadata !83, i32 1742, metadata !917, i1 false, i1 false, i32 0, i32 0, null, i32 256, i1 false, null, null, i32 0, metadata !95, i32 1742} ; [ DW_TAG_subprogram ]
!917 = metadata !{i32 786453, i32 0, metadata !"", i32 0, i32 0, i64 0, i64 0, i64 0, i32 0, null, metadata !918, i32 0, i32 0} ; [ DW_TAG_subroutine_type ]
!918 = metadata !{metadata !99, metadata !919}
!919 = metadata !{i32 786447, i32 0, metadata !"", i32 0, i32 0, i64 64, i64 64, i64 0, i32 64, metadata !774} ; [ DW_TAG_pointer_type ]
!920 = metadata !{i32 786478, i32 0, metadata !744, metadata !"reverse", metadata !"reverse", metadata !"_ZN11ap_int_baseILi1ELb0ELb1EE7reverseEv", metadata !83, i32 1747, metadata !921, i1 false, i1 false, i32 0, i32 0, null, i32 256, i1 false, null, null, i32 0, metadata !95, i32 1747} ; [ DW_TAG_subprogram ]
!921 = metadata !{i32 786453, i32 0, metadata !"", i32 0, i32 0, i64 0, i64 0, i64 0, i32 0, null, metadata !922, i32 0, i32 0} ; [ DW_TAG_subroutine_type ]
!922 = metadata !{metadata !838, metadata !761}
!923 = metadata !{i32 786478, i32 0, metadata !744, metadata !"iszero", metadata !"iszero", metadata !"_ZNK11ap_int_baseILi1ELb0ELb1EE6iszeroEv", metadata !83, i32 1753, metadata !880, i1 false, i1 false, i32 0, i32 0, null, i32 256, i1 false, null, null, i32 0, metadata !95, i32 1753} ; [ DW_TAG_subprogram ]
!924 = metadata !{i32 786478, i32 0, metadata !744, metadata !"is_zero", metadata !"is_zero", metadata !"_ZNK11ap_int_baseILi1ELb0ELb1EE7is_zeroEv", metadata !83, i32 1758, metadata !880, i1 false, i1 false, i32 0, i32 0, null, i32 256, i1 false, null, null, i32 0, metadata !95, i32 1758} ; [ DW_TAG_subprogram ]
!925 = metadata !{i32 786478, i32 0, metadata !744, metadata !"sign", metadata !"sign", metadata !"_ZNK11ap_int_baseILi1ELb0ELb1EE4signEv", metadata !83, i32 1763, metadata !880, i1 false, i1 false, i32 0, i32 0, null, i32 256, i1 false, null, null, i32 0, metadata !95, i32 1763} ; [ DW_TAG_subprogram ]
!926 = metadata !{i32 786478, i32 0, metadata !744, metadata !"clear", metadata !"clear", metadata !"_ZN11ap_int_baseILi1ELb0ELb1EE5clearEi", metadata !83, i32 1771, metadata !792, i1 false, i1 false, i32 0, i32 0, null, i32 256, i1 false, null, null, i32 0, metadata !95, i32 1771} ; [ DW_TAG_subprogram ]
!927 = metadata !{i32 786478, i32 0, metadata !744, metadata !"invert", metadata !"invert", metadata !"_ZN11ap_int_baseILi1ELb0ELb1EE6invertEi", metadata !83, i32 1777, metadata !792, i1 false, i1 false, i32 0, i32 0, null, i32 256, i1 false, null, null, i32 0, metadata !95, i32 1777} ; [ DW_TAG_subprogram ]
!928 = metadata !{i32 786478, i32 0, metadata !744, metadata !"test", metadata !"test", metadata !"_ZNK11ap_int_baseILi1ELb0ELb1EE4testEi", metadata !83, i32 1785, metadata !929, i1 false, i1 false, i32 0, i32 0, null, i32 256, i1 false, null, null, i32 0, metadata !95, i32 1785} ; [ DW_TAG_subprogram ]
!929 = metadata !{i32 786453, i32 0, metadata !"", i32 0, i32 0, i64 0, i64 0, i64 0, i32 0, null, metadata !930, i32 0, i32 0} ; [ DW_TAG_subroutine_type ]
!930 = metadata !{metadata !101, metadata !878, metadata !99}
!931 = metadata !{i32 786478, i32 0, metadata !744, metadata !"set", metadata !"set", metadata !"_ZN11ap_int_baseILi1ELb0ELb1EE3setEi", metadata !83, i32 1791, metadata !792, i1 false, i1 false, i32 0, i32 0, null, i32 256, i1 false, null, null, i32 0, metadata !95, i32 1791} ; [ DW_TAG_subprogram ]
!932 = metadata !{i32 786478, i32 0, metadata !744, metadata !"set", metadata !"set", metadata !"_ZN11ap_int_baseILi1ELb0ELb1EE3setEib", metadata !83, i32 1797, metadata !933, i1 false, i1 false, i32 0, i32 0, null, i32 256, i1 false, null, null, i32 0, metadata !95, i32 1797} ; [ DW_TAG_subprogram ]
!933 = metadata !{i32 786453, i32 0, metadata !"", i32 0, i32 0, i64 0, i64 0, i64 0, i32 0, null, metadata !934, i32 0, i32 0} ; [ DW_TAG_subroutine_type ]
!934 = metadata !{null, metadata !761, metadata !99, metadata !101}
!935 = metadata !{i32 786478, i32 0, metadata !744, metadata !"lrotate", metadata !"lrotate", metadata !"_ZN11ap_int_baseILi1ELb0ELb1EE7lrotateEi", metadata !83, i32 1804, metadata !792, i1 false, i1 false, i32 0, i32 0, null, i32 256, i1 false, null, null, i32 0, metadata !95, i32 1804} ; [ DW_TAG_subprogram ]
!936 = metadata !{i32 786478, i32 0, metadata !744, metadata !"rrotate", metadata !"rrotate", metadata !"_ZN11ap_int_baseILi1ELb0ELb1EE7rrotateEi", metadata !83, i32 1813, metadata !792, i1 false, i1 false, i32 0, i32 0, null, i32 256, i1 false, null, null, i32 0, metadata !95, i32 1813} ; [ DW_TAG_subprogram ]
!937 = metadata !{i32 786478, i32 0, metadata !744, metadata !"set_bit", metadata !"set_bit", metadata !"_ZN11ap_int_baseILi1ELb0ELb1EE7set_bitEib", metadata !83, i32 1821, metadata !933, i1 false, i1 false, i32 0, i32 0, null, i32 256, i1 false, null, null, i32 0, metadata !95, i32 1821} ; [ DW_TAG_subprogram ]
!938 = metadata !{i32 786478, i32 0, metadata !744, metadata !"get_bit", metadata !"get_bit", metadata !"_ZNK11ap_int_baseILi1ELb0ELb1EE7get_bitEi", metadata !83, i32 1826, metadata !929, i1 false, i1 false, i32 0, i32 0, null, i32 256, i1 false, null, null, i32 0, metadata !95, i32 1826} ; [ DW_TAG_subprogram ]
!939 = metadata !{i32 786478, i32 0, metadata !744, metadata !"b_not", metadata !"b_not", metadata !"_ZN11ap_int_baseILi1ELb0ELb1EE5b_notEv", metadata !83, i32 1831, metadata !759, i1 false, i1 false, i32 0, i32 0, null, i32 256, i1 false, null, null, i32 0, metadata !95, i32 1831} ; [ DW_TAG_subprogram ]
!940 = metadata !{i32 786478, i32 0, metadata !744, metadata !"countLeadingZeros", metadata !"countLeadingZeros", metadata !"_ZN11ap_int_baseILi1ELb0ELb1EE17countLeadingZerosEv", metadata !83, i32 1838, metadata !941, i1 false, i1 false, i32 0, i32 0, null, i32 256, i1 false, null, null, i32 0, metadata !95, i32 1838} ; [ DW_TAG_subprogram ]
!941 = metadata !{i32 786453, i32 0, metadata !"", i32 0, i32 0, i64 0, i64 0, i64 0, i32 0, null, metadata !942, i32 0, i32 0} ; [ DW_TAG_subroutine_type ]
!942 = metadata !{metadata !99, metadata !761}
!943 = metadata !{i32 786478, i32 0, metadata !744, metadata !"operator++", metadata !"operator++", metadata !"_ZN11ap_int_baseILi1ELb0ELb1EEppEv", metadata !83, i32 1895, metadata !921, i1 false, i1 false, i32 0, i32 0, null, i32 256, i1 false, null, null, i32 0, metadata !95, i32 1895} ; [ DW_TAG_subprogram ]
!944 = metadata !{i32 786478, i32 0, metadata !744, metadata !"operator--", metadata !"operator--", metadata !"_ZN11ap_int_baseILi1ELb0ELb1EEmmEv", metadata !83, i32 1899, metadata !921, i1 false, i1 false, i32 0, i32 0, null, i32 256, i1 false, null, null, i32 0, metadata !95, i32 1899} ; [ DW_TAG_subprogram ]
!945 = metadata !{i32 786478, i32 0, metadata !744, metadata !"operator++", metadata !"operator++", metadata !"_ZN11ap_int_baseILi1ELb0ELb1EEppEi", metadata !83, i32 1907, metadata !946, i1 false, i1 false, i32 0, i32 0, null, i32 256, i1 false, null, null, i32 0, metadata !95, i32 1907} ; [ DW_TAG_subprogram ]
!946 = metadata !{i32 786453, i32 0, metadata !"", i32 0, i32 0, i64 0, i64 0, i64 0, i32 0, null, metadata !947, i32 0, i32 0} ; [ DW_TAG_subroutine_type ]
!947 = metadata !{metadata !766, metadata !761, metadata !99}
!948 = metadata !{i32 786478, i32 0, metadata !744, metadata !"operator--", metadata !"operator--", metadata !"_ZN11ap_int_baseILi1ELb0ELb1EEmmEi", metadata !83, i32 1912, metadata !946, i1 false, i1 false, i32 0, i32 0, null, i32 256, i1 false, null, null, i32 0, metadata !95, i32 1912} ; [ DW_TAG_subprogram ]
!949 = metadata !{i32 786478, i32 0, metadata !744, metadata !"operator+", metadata !"operator+", metadata !"_ZNK11ap_int_baseILi1ELb0ELb1EEpsEv", metadata !83, i32 1921, metadata !950, i1 false, i1 false, i32 0, i32 0, null, i32 256, i1 false, null, null, i32 0, metadata !95, i32 1921} ; [ DW_TAG_subprogram ]
!950 = metadata !{i32 786453, i32 0, metadata !"", i32 0, i32 0, i64 0, i64 0, i64 0, i32 0, null, metadata !951, i32 0, i32 0} ; [ DW_TAG_subroutine_type ]
!951 = metadata !{metadata !744, metadata !878}
!952 = metadata !{i32 786478, i32 0, metadata !744, metadata !"operator!", metadata !"operator!", metadata !"_ZNK11ap_int_baseILi1ELb0ELb1EEntEv", metadata !83, i32 1927, metadata !880, i1 false, i1 false, i32 0, i32 0, null, i32 256, i1 false, null, null, i32 0, metadata !95, i32 1927} ; [ DW_TAG_subprogram ]
!953 = metadata !{i32 786478, i32 0, metadata !744, metadata !"operator-", metadata !"operator-", metadata !"_ZNK11ap_int_baseILi1ELb0ELb1EEngEv", metadata !83, i32 1932, metadata !954, i1 false, i1 false, i32 0, i32 0, null, i32 256, i1 false, null, null, i32 0, metadata !95, i32 1932} ; [ DW_TAG_subprogram ]
!954 = metadata !{i32 786453, i32 0, metadata !"", i32 0, i32 0, i64 0, i64 0, i64 0, i32 0, null, metadata !955, i32 0, i32 0} ; [ DW_TAG_subroutine_type ]
!955 = metadata !{metadata !956, metadata !878}
!956 = metadata !{i32 786434, null, metadata !"ap_int_base<2, true, true>", metadata !83, i32 651, i32 0, i32 0, i32 0, i32 4, null, null, i32 0} ; [ DW_TAG_class_type ]
!957 = metadata !{i32 786478, i32 0, metadata !744, metadata !"range", metadata !"range", metadata !"_ZN11ap_int_baseILi1ELb0ELb1EE5rangeEii", metadata !83, i32 2062, metadata !958, i1 false, i1 false, i32 0, i32 0, null, i32 256, i1 false, null, null, i32 0, metadata !95, i32 2062} ; [ DW_TAG_subprogram ]
!958 = metadata !{i32 786453, i32 0, metadata !"", i32 0, i32 0, i64 0, i64 0, i64 0, i32 0, null, metadata !959, i32 0, i32 0} ; [ DW_TAG_subroutine_type ]
!959 = metadata !{metadata !960, metadata !761, metadata !99, metadata !99}
!960 = metadata !{i32 786434, null, metadata !"ap_range_ref<1, false>", metadata !83, i32 925, i32 0, i32 0, i32 0, i32 4, null, null, i32 0} ; [ DW_TAG_class_type ]
!961 = metadata !{i32 786478, i32 0, metadata !744, metadata !"operator()", metadata !"operator()", metadata !"_ZN11ap_int_baseILi1ELb0ELb1EEclEii", metadata !83, i32 2068, metadata !958, i1 false, i1 false, i32 0, i32 0, null, i32 256, i1 false, null, null, i32 0, metadata !95, i32 2068} ; [ DW_TAG_subprogram ]
!962 = metadata !{i32 786478, i32 0, metadata !744, metadata !"range", metadata !"range", metadata !"_ZNK11ap_int_baseILi1ELb0ELb1EE5rangeEii", metadata !83, i32 2074, metadata !963, i1 false, i1 false, i32 0, i32 0, null, i32 256, i1 false, null, null, i32 0, metadata !95, i32 2074} ; [ DW_TAG_subprogram ]
!963 = metadata !{i32 786453, i32 0, metadata !"", i32 0, i32 0, i64 0, i64 0, i64 0, i32 0, null, metadata !964, i32 0, i32 0} ; [ DW_TAG_subroutine_type ]
!964 = metadata !{metadata !960, metadata !878, metadata !99, metadata !99}
!965 = metadata !{i32 786478, i32 0, metadata !744, metadata !"operator()", metadata !"operator()", metadata !"_ZNK11ap_int_baseILi1ELb0ELb1EEclEii", metadata !83, i32 2080, metadata !963, i1 false, i1 false, i32 0, i32 0, null, i32 256, i1 false, null, null, i32 0, metadata !95, i32 2080} ; [ DW_TAG_subprogram ]
!966 = metadata !{i32 786478, i32 0, metadata !744, metadata !"operator[]", metadata !"operator[]", metadata !"_ZN11ap_int_baseILi1ELb0ELb1EEixEi", metadata !83, i32 2099, metadata !967, i1 false, i1 false, i32 0, i32 0, null, i32 256, i1 false, null, null, i32 0, metadata !95, i32 2099} ; [ DW_TAG_subprogram ]
!967 = metadata !{i32 786453, i32 0, metadata !"", i32 0, i32 0, i64 0, i64 0, i64 0, i32 0, null, metadata !968, i32 0, i32 0} ; [ DW_TAG_subroutine_type ]
!968 = metadata !{metadata !969, metadata !761, metadata !99}
!969 = metadata !{i32 786434, null, metadata !"ap_bit_ref<1, false>", metadata !83, i32 1249, i32 0, i32 0, i32 0, i32 4, null, null, i32 0} ; [ DW_TAG_class_type ]
!970 = metadata !{i32 786478, i32 0, metadata !744, metadata !"operator[]", metadata !"operator[]", metadata !"_ZNK11ap_int_baseILi1ELb0ELb1EEixEi", metadata !83, i32 2113, metadata !929, i1 false, i1 false, i32 0, i32 0, null, i32 256, i1 false, null, null, i32 0, metadata !95, i32 2113} ; [ DW_TAG_subprogram ]
!971 = metadata !{i32 786478, i32 0, metadata !744, metadata !"bit", metadata !"bit", metadata !"_ZN11ap_int_baseILi1ELb0ELb1EE3bitEi", metadata !83, i32 2127, metadata !967, i1 false, i1 false, i32 0, i32 0, null, i32 256, i1 false, null, null, i32 0, metadata !95, i32 2127} ; [ DW_TAG_subprogram ]
!972 = metadata !{i32 786478, i32 0, metadata !744, metadata !"bit", metadata !"bit", metadata !"_ZNK11ap_int_baseILi1ELb0ELb1EE3bitEi", metadata !83, i32 2141, metadata !929, i1 false, i1 false, i32 0, i32 0, null, i32 256, i1 false, null, null, i32 0, metadata !95, i32 2141} ; [ DW_TAG_subprogram ]
!973 = metadata !{i32 786478, i32 0, metadata !744, metadata !"and_reduce", metadata !"and_reduce", metadata !"_ZN11ap_int_baseILi1ELb0ELb1EE10and_reduceEv", metadata !83, i32 2321, metadata !974, i1 false, i1 false, i32 0, i32 0, null, i32 256, i1 false, null, null, i32 0, metadata !95, i32 2321} ; [ DW_TAG_subprogram ]
!974 = metadata !{i32 786453, i32 0, metadata !"", i32 0, i32 0, i64 0, i64 0, i64 0, i32 0, null, metadata !975, i32 0, i32 0} ; [ DW_TAG_subroutine_type ]
!975 = metadata !{metadata !101, metadata !761}
!976 = metadata !{i32 786478, i32 0, metadata !744, metadata !"nand_reduce", metadata !"nand_reduce", metadata !"_ZN11ap_int_baseILi1ELb0ELb1EE11nand_reduceEv", metadata !83, i32 2324, metadata !974, i1 false, i1 false, i32 0, i32 0, null, i32 256, i1 false, null, null, i32 0, metadata !95, i32 2324} ; [ DW_TAG_subprogram ]
!977 = metadata !{i32 786478, i32 0, metadata !744, metadata !"or_reduce", metadata !"or_reduce", metadata !"_ZN11ap_int_baseILi1ELb0ELb1EE9or_reduceEv", metadata !83, i32 2327, metadata !974, i1 false, i1 false, i32 0, i32 0, null, i32 256, i1 false, null, null, i32 0, metadata !95, i32 2327} ; [ DW_TAG_subprogram ]
!978 = metadata !{i32 786478, i32 0, metadata !744, metadata !"nor_reduce", metadata !"nor_reduce", metadata !"_ZN11ap_int_baseILi1ELb0ELb1EE10nor_reduceEv", metadata !83, i32 2330, metadata !974, i1 false, i1 false, i32 0, i32 0, null, i32 256, i1 false, null, null, i32 0, metadata !95, i32 2330} ; [ DW_TAG_subprogram ]
!979 = metadata !{i32 786478, i32 0, metadata !744, metadata !"xor_reduce", metadata !"xor_reduce", metadata !"_ZN11ap_int_baseILi1ELb0ELb1EE10xor_reduceEv", metadata !83, i32 2333, metadata !974, i1 false, i1 false, i32 0, i32 0, null, i32 256, i1 false, null, null, i32 0, metadata !95, i32 2333} ; [ DW_TAG_subprogram ]
!980 = metadata !{i32 786478, i32 0, metadata !744, metadata !"xnor_reduce", metadata !"xnor_reduce", metadata !"_ZN11ap_int_baseILi1ELb0ELb1EE11xnor_reduceEv", metadata !83, i32 2336, metadata !974, i1 false, i1 false, i32 0, i32 0, null, i32 256, i1 false, null, null, i32 0, metadata !95, i32 2336} ; [ DW_TAG_subprogram ]
!981 = metadata !{i32 786478, i32 0, metadata !744, metadata !"and_reduce", metadata !"and_reduce", metadata !"_ZNK11ap_int_baseILi1ELb0ELb1EE10and_reduceEv", metadata !83, i32 2340, metadata !880, i1 false, i1 false, i32 0, i32 0, null, i32 256, i1 false, null, null, i32 0, metadata !95, i32 2340} ; [ DW_TAG_subprogram ]
!982 = metadata !{i32 786478, i32 0, metadata !744, metadata !"nand_reduce", metadata !"nand_reduce", metadata !"_ZNK11ap_int_baseILi1ELb0ELb1EE11nand_reduceEv", metadata !83, i32 2343, metadata !880, i1 false, i1 false, i32 0, i32 0, null, i32 256, i1 false, null, null, i32 0, metadata !95, i32 2343} ; [ DW_TAG_subprogram ]
!983 = metadata !{i32 786478, i32 0, metadata !744, metadata !"or_reduce", metadata !"or_reduce", metadata !"_ZNK11ap_int_baseILi1ELb0ELb1EE9or_reduceEv", metadata !83, i32 2346, metadata !880, i1 false, i1 false, i32 0, i32 0, null, i32 256, i1 false, null, null, i32 0, metadata !95, i32 2346} ; [ DW_TAG_subprogram ]
!984 = metadata !{i32 786478, i32 0, metadata !744, metadata !"nor_reduce", metadata !"nor_reduce", metadata !"_ZNK11ap_int_baseILi1ELb0ELb1EE10nor_reduceEv", metadata !83, i32 2349, metadata !880, i1 false, i1 false, i32 0, i32 0, null, i32 256, i1 false, null, null, i32 0, metadata !95, i32 2349} ; [ DW_TAG_subprogram ]
!985 = metadata !{i32 786478, i32 0, metadata !744, metadata !"xor_reduce", metadata !"xor_reduce", metadata !"_ZNK11ap_int_baseILi1ELb0ELb1EE10xor_reduceEv", metadata !83, i32 2352, metadata !880, i1 false, i1 false, i32 0, i32 0, null, i32 256, i1 false, null, null, i32 0, metadata !95, i32 2352} ; [ DW_TAG_subprogram ]
!986 = metadata !{i32 786478, i32 0, metadata !744, metadata !"xnor_reduce", metadata !"xnor_reduce", metadata !"_ZNK11ap_int_baseILi1ELb0ELb1EE11xnor_reduceEv", metadata !83, i32 2355, metadata !880, i1 false, i1 false, i32 0, i32 0, null, i32 256, i1 false, null, null, i32 0, metadata !95, i32 2355} ; [ DW_TAG_subprogram ]
!987 = metadata !{i32 786478, i32 0, metadata !744, metadata !"to_string", metadata !"to_string", metadata !"_ZNK11ap_int_baseILi1ELb0ELb1EE9to_stringEPci8BaseModeb", metadata !83, i32 2362, metadata !988, i1 false, i1 false, i32 0, i32 0, null, i32 256, i1 false, null, null, i32 0, metadata !95, i32 2362} ; [ DW_TAG_subprogram ]
!988 = metadata !{i32 786453, i32 0, metadata !"", i32 0, i32 0, i64 0, i64 0, i64 0, i32 0, null, metadata !989, i32 0, i32 0} ; [ DW_TAG_subroutine_type ]
!989 = metadata !{null, metadata !878, metadata !602, metadata !99, metadata !603, metadata !101}
!990 = metadata !{i32 786478, i32 0, metadata !744, metadata !"to_string", metadata !"to_string", metadata !"_ZNK11ap_int_baseILi1ELb0ELb1EE9to_stringE8BaseModeb", metadata !83, i32 2389, metadata !991, i1 false, i1 false, i32 0, i32 0, null, i32 256, i1 false, null, null, i32 0, metadata !95, i32 2389} ; [ DW_TAG_subprogram ]
!991 = metadata !{i32 786453, i32 0, metadata !"", i32 0, i32 0, i64 0, i64 0, i64 0, i32 0, null, metadata !992, i32 0, i32 0} ; [ DW_TAG_subroutine_type ]
!992 = metadata !{metadata !602, metadata !878, metadata !603, metadata !101}
!993 = metadata !{i32 786478, i32 0, metadata !744, metadata !"to_string", metadata !"to_string", metadata !"_ZNK11ap_int_baseILi1ELb0ELb1EE9to_stringEab", metadata !83, i32 2393, metadata !994, i1 false, i1 false, i32 0, i32 0, null, i32 256, i1 false, null, null, i32 0, metadata !95, i32 2393} ; [ DW_TAG_subprogram ]
!994 = metadata !{i32 786453, i32 0, metadata !"", i32 0, i32 0, i64 0, i64 0, i64 0, i32 0, null, metadata !995, i32 0, i32 0} ; [ DW_TAG_subroutine_type ]
!995 = metadata !{metadata !602, metadata !878, metadata !126, metadata !101}
!996 = metadata !{metadata !997, metadata !757, metadata !616}
!997 = metadata !{i32 786480, null, metadata !"_AP_W", metadata !99, i64 1, null, i32 0, i32 0} ; [ DW_TAG_template_value_parameter ]
!998 = metadata !{i32 786478, i32 0, metadata !741, metadata !"ap_uint", metadata !"ap_uint", metadata !"", metadata !79, i32 186, metadata !999, i1 false, i1 false, i32 0, i32 0, null, i32 256, i1 false, null, null, i32 0, metadata !95, i32 186} ; [ DW_TAG_subprogram ]
!999 = metadata !{i32 786453, i32 0, metadata !"", i32 0, i32 0, i64 0, i64 0, i64 0, i32 0, null, metadata !1000, i32 0, i32 0} ; [ DW_TAG_subroutine_type ]
!1000 = metadata !{null, metadata !1001}
!1001 = metadata !{i32 786447, i32 0, metadata !"", i32 0, i32 0, i64 64, i64 64, i64 0, i32 64, metadata !741} ; [ DW_TAG_pointer_type ]
!1002 = metadata !{i32 786478, i32 0, metadata !741, metadata !"ap_uint<1>", metadata !"ap_uint<1>", metadata !"", metadata !79, i32 188, metadata !1003, i1 false, i1 false, i32 0, i32 0, null, i32 256, i1 false, null, metadata !1007, i32 0, metadata !95, i32 188} ; [ DW_TAG_subprogram ]
!1003 = metadata !{i32 786453, i32 0, metadata !"", i32 0, i32 0, i64 0, i64 0, i64 0, i32 0, null, metadata !1004, i32 0, i32 0} ; [ DW_TAG_subroutine_type ]
!1004 = metadata !{null, metadata !1001, metadata !1005}
!1005 = metadata !{i32 786448, null, null, null, i32 0, i64 0, i64 0, i64 0, i32 0, metadata !1006} ; [ DW_TAG_reference_type ]
!1006 = metadata !{i32 786470, null, metadata !"", null, i32 0, i64 0, i64 0, i64 0, i32 0, metadata !741} ; [ DW_TAG_const_type ]
!1007 = metadata !{metadata !768}
!1008 = metadata !{i32 786478, i32 0, metadata !741, metadata !"ap_uint<1>", metadata !"ap_uint<1>", metadata !"", metadata !79, i32 194, metadata !1009, i1 false, i1 false, i32 0, i32 0, null, i32 256, i1 false, null, metadata !1007, i32 0, metadata !95, i32 194} ; [ DW_TAG_subprogram ]
!1009 = metadata !{i32 786453, i32 0, metadata !"", i32 0, i32 0, i64 0, i64 0, i64 0, i32 0, null, metadata !1010, i32 0, i32 0} ; [ DW_TAG_subroutine_type ]
!1010 = metadata !{null, metadata !1001, metadata !1011}
!1011 = metadata !{i32 786448, null, null, null, i32 0, i64 0, i64 0, i64 0, i32 0, metadata !1012} ; [ DW_TAG_reference_type ]
!1012 = metadata !{i32 786470, null, metadata !"", null, i32 0, i64 0, i64 0, i64 0, i32 0, metadata !1013} ; [ DW_TAG_const_type ]
!1013 = metadata !{i32 786485, null, metadata !"", null, i32 0, i64 0, i64 0, i64 0, i32 0, metadata !741} ; [ DW_TAG_volatile_type ]
!1014 = metadata !{i32 786478, i32 0, metadata !741, metadata !"ap_uint<1, false>", metadata !"ap_uint<1, false>", metadata !"", metadata !79, i32 229, metadata !1015, i1 false, i1 false, i32 0, i32 0, null, i32 256, i1 false, null, metadata !767, i32 0, metadata !95, i32 229} ; [ DW_TAG_subprogram ]
!1015 = metadata !{i32 786453, i32 0, metadata !"", i32 0, i32 0, i64 0, i64 0, i64 0, i32 0, null, metadata !1016, i32 0, i32 0} ; [ DW_TAG_subroutine_type ]
!1016 = metadata !{null, metadata !1001, metadata !765}
!1017 = metadata !{i32 786478, i32 0, metadata !741, metadata !"ap_uint", metadata !"ap_uint", metadata !"", metadata !79, i32 248, metadata !1018, i1 false, i1 false, i32 0, i32 0, null, i32 256, i1 false, null, null, i32 0, metadata !95, i32 248} ; [ DW_TAG_subprogram ]
!1018 = metadata !{i32 786453, i32 0, metadata !"", i32 0, i32 0, i64 0, i64 0, i64 0, i32 0, null, metadata !1019, i32 0, i32 0} ; [ DW_TAG_subroutine_type ]
!1019 = metadata !{null, metadata !1001, metadata !101}
!1020 = metadata !{i32 786478, i32 0, metadata !741, metadata !"ap_uint", metadata !"ap_uint", metadata !"", metadata !79, i32 249, metadata !1021, i1 false, i1 false, i32 0, i32 0, null, i32 256, i1 false, null, null, i32 0, metadata !95, i32 249} ; [ DW_TAG_subprogram ]
!1021 = metadata !{i32 786453, i32 0, metadata !"", i32 0, i32 0, i64 0, i64 0, i64 0, i32 0, null, metadata !1022, i32 0, i32 0} ; [ DW_TAG_subroutine_type ]
!1022 = metadata !{null, metadata !1001, metadata !126}
!1023 = metadata !{i32 786478, i32 0, metadata !741, metadata !"ap_uint", metadata !"ap_uint", metadata !"", metadata !79, i32 250, metadata !1024, i1 false, i1 false, i32 0, i32 0, null, i32 256, i1 false, null, null, i32 0, metadata !95, i32 250} ; [ DW_TAG_subprogram ]
!1024 = metadata !{i32 786453, i32 0, metadata !"", i32 0, i32 0, i64 0, i64 0, i64 0, i32 0, null, metadata !1025, i32 0, i32 0} ; [ DW_TAG_subroutine_type ]
!1025 = metadata !{null, metadata !1001, metadata !130}
!1026 = metadata !{i32 786478, i32 0, metadata !741, metadata !"ap_uint", metadata !"ap_uint", metadata !"", metadata !79, i32 251, metadata !1027, i1 false, i1 false, i32 0, i32 0, null, i32 256, i1 false, null, null, i32 0, metadata !95, i32 251} ; [ DW_TAG_subprogram ]
!1027 = metadata !{i32 786453, i32 0, metadata !"", i32 0, i32 0, i64 0, i64 0, i64 0, i32 0, null, metadata !1028, i32 0, i32 0} ; [ DW_TAG_subroutine_type ]
!1028 = metadata !{null, metadata !1001, metadata !134}
!1029 = metadata !{i32 786478, i32 0, metadata !741, metadata !"ap_uint", metadata !"ap_uint", metadata !"", metadata !79, i32 252, metadata !1030, i1 false, i1 false, i32 0, i32 0, null, i32 256, i1 false, null, null, i32 0, metadata !95, i32 252} ; [ DW_TAG_subprogram ]
!1030 = metadata !{i32 786453, i32 0, metadata !"", i32 0, i32 0, i64 0, i64 0, i64 0, i32 0, null, metadata !1031, i32 0, i32 0} ; [ DW_TAG_subroutine_type ]
!1031 = metadata !{null, metadata !1001, metadata !138}
!1032 = metadata !{i32 786478, i32 0, metadata !741, metadata !"ap_uint", metadata !"ap_uint", metadata !"", metadata !79, i32 253, metadata !1033, i1 false, i1 false, i32 0, i32 0, null, i32 256, i1 false, null, null, i32 0, metadata !95, i32 253} ; [ DW_TAG_subprogram ]
!1033 = metadata !{i32 786453, i32 0, metadata !"", i32 0, i32 0, i64 0, i64 0, i64 0, i32 0, null, metadata !1034, i32 0, i32 0} ; [ DW_TAG_subroutine_type ]
!1034 = metadata !{null, metadata !1001, metadata !99}
!1035 = metadata !{i32 786478, i32 0, metadata !741, metadata !"ap_uint", metadata !"ap_uint", metadata !"", metadata !79, i32 254, metadata !1036, i1 false, i1 false, i32 0, i32 0, null, i32 256, i1 false, null, null, i32 0, metadata !95, i32 254} ; [ DW_TAG_subprogram ]
!1036 = metadata !{i32 786453, i32 0, metadata !"", i32 0, i32 0, i64 0, i64 0, i64 0, i32 0, null, metadata !1037, i32 0, i32 0} ; [ DW_TAG_subroutine_type ]
!1037 = metadata !{null, metadata !1001, metadata !145}
!1038 = metadata !{i32 786478, i32 0, metadata !741, metadata !"ap_uint", metadata !"ap_uint", metadata !"", metadata !79, i32 255, metadata !1039, i1 false, i1 false, i32 0, i32 0, null, i32 256, i1 false, null, null, i32 0, metadata !95, i32 255} ; [ DW_TAG_subprogram ]
!1039 = metadata !{i32 786453, i32 0, metadata !"", i32 0, i32 0, i64 0, i64 0, i64 0, i32 0, null, metadata !1040, i32 0, i32 0} ; [ DW_TAG_subroutine_type ]
!1040 = metadata !{null, metadata !1001, metadata !149}
!1041 = metadata !{i32 786478, i32 0, metadata !741, metadata !"ap_uint", metadata !"ap_uint", metadata !"", metadata !79, i32 256, metadata !1042, i1 false, i1 false, i32 0, i32 0, null, i32 256, i1 false, null, null, i32 0, metadata !95, i32 256} ; [ DW_TAG_subprogram ]
!1042 = metadata !{i32 786453, i32 0, metadata !"", i32 0, i32 0, i64 0, i64 0, i64 0, i32 0, null, metadata !1043, i32 0, i32 0} ; [ DW_TAG_subroutine_type ]
!1043 = metadata !{null, metadata !1001, metadata !153}
!1044 = metadata !{i32 786478, i32 0, metadata !741, metadata !"ap_uint", metadata !"ap_uint", metadata !"", metadata !79, i32 257, metadata !1045, i1 false, i1 false, i32 0, i32 0, null, i32 256, i1 false, null, null, i32 0, metadata !95, i32 257} ; [ DW_TAG_subprogram ]
!1045 = metadata !{i32 786453, i32 0, metadata !"", i32 0, i32 0, i64 0, i64 0, i64 0, i32 0, null, metadata !1046, i32 0, i32 0} ; [ DW_TAG_subroutine_type ]
!1046 = metadata !{null, metadata !1001, metadata !163}
!1047 = metadata !{i32 786478, i32 0, metadata !741, metadata !"ap_uint", metadata !"ap_uint", metadata !"", metadata !79, i32 258, metadata !1048, i1 false, i1 false, i32 0, i32 0, null, i32 256, i1 false, null, null, i32 0, metadata !95, i32 258} ; [ DW_TAG_subprogram ]
!1048 = metadata !{i32 786453, i32 0, metadata !"", i32 0, i32 0, i64 0, i64 0, i64 0, i32 0, null, metadata !1049, i32 0, i32 0} ; [ DW_TAG_subroutine_type ]
!1049 = metadata !{null, metadata !1001, metadata !158}
!1050 = metadata !{i32 786478, i32 0, metadata !741, metadata !"ap_uint", metadata !"ap_uint", metadata !"", metadata !79, i32 259, metadata !1051, i1 false, i1 false, i32 0, i32 0, null, i32 256, i1 false, null, null, i32 0, metadata !95, i32 259} ; [ DW_TAG_subprogram ]
!1051 = metadata !{i32 786453, i32 0, metadata !"", i32 0, i32 0, i64 0, i64 0, i64 0, i32 0, null, metadata !1052, i32 0, i32 0} ; [ DW_TAG_subroutine_type ]
!1052 = metadata !{null, metadata !1001, metadata !167}
!1053 = metadata !{i32 786478, i32 0, metadata !741, metadata !"ap_uint", metadata !"ap_uint", metadata !"", metadata !79, i32 260, metadata !1054, i1 false, i1 false, i32 0, i32 0, null, i32 256, i1 false, null, null, i32 0, metadata !95, i32 260} ; [ DW_TAG_subprogram ]
!1054 = metadata !{i32 786453, i32 0, metadata !"", i32 0, i32 0, i64 0, i64 0, i64 0, i32 0, null, metadata !1055, i32 0, i32 0} ; [ DW_TAG_subroutine_type ]
!1055 = metadata !{null, metadata !1001, metadata !172}
!1056 = metadata !{i32 786478, i32 0, metadata !741, metadata !"ap_uint", metadata !"ap_uint", metadata !"", metadata !79, i32 261, metadata !1057, i1 false, i1 false, i32 0, i32 0, null, i32 256, i1 false, null, null, i32 0, metadata !95, i32 261} ; [ DW_TAG_subprogram ]
!1057 = metadata !{i32 786453, i32 0, metadata !"", i32 0, i32 0, i64 0, i64 0, i64 0, i32 0, null, metadata !1058, i32 0, i32 0} ; [ DW_TAG_subroutine_type ]
!1058 = metadata !{null, metadata !1001, metadata !176}
!1059 = metadata !{i32 786478, i32 0, metadata !741, metadata !"ap_uint", metadata !"ap_uint", metadata !"", metadata !79, i32 263, metadata !1060, i1 false, i1 false, i32 0, i32 0, null, i32 256, i1 false, null, null, i32 0, metadata !95, i32 263} ; [ DW_TAG_subprogram ]
!1060 = metadata !{i32 786453, i32 0, metadata !"", i32 0, i32 0, i64 0, i64 0, i64 0, i32 0, null, metadata !1061, i32 0, i32 0} ; [ DW_TAG_subroutine_type ]
!1061 = metadata !{null, metadata !1001, metadata !180}
!1062 = metadata !{i32 786478, i32 0, metadata !741, metadata !"ap_uint", metadata !"ap_uint", metadata !"", metadata !79, i32 264, metadata !1063, i1 false, i1 false, i32 0, i32 0, null, i32 256, i1 false, null, null, i32 0, metadata !95, i32 264} ; [ DW_TAG_subprogram ]
!1063 = metadata !{i32 786453, i32 0, metadata !"", i32 0, i32 0, i64 0, i64 0, i64 0, i32 0, null, metadata !1064, i32 0, i32 0} ; [ DW_TAG_subroutine_type ]
!1064 = metadata !{null, metadata !1001, metadata !180, metadata !126}
!1065 = metadata !{i32 786478, i32 0, metadata !741, metadata !"operator=", metadata !"operator=", metadata !"_ZNV7ap_uintILi1EEaSERKS0_", metadata !79, i32 267, metadata !1066, i1 false, i1 false, i32 0, i32 0, null, i32 256, i1 false, null, null, i32 0, metadata !95, i32 267} ; [ DW_TAG_subprogram ]
!1066 = metadata !{i32 786453, i32 0, metadata !"", i32 0, i32 0, i64 0, i64 0, i64 0, i32 0, null, metadata !1067, i32 0, i32 0} ; [ DW_TAG_subroutine_type ]
!1067 = metadata !{null, metadata !1068, metadata !1005}
!1068 = metadata !{i32 786447, i32 0, metadata !"", i32 0, i32 0, i64 64, i64 64, i64 0, i32 64, metadata !1013} ; [ DW_TAG_pointer_type ]
!1069 = metadata !{i32 786478, i32 0, metadata !741, metadata !"operator=", metadata !"operator=", metadata !"_ZNV7ap_uintILi1EEaSERVKS0_", metadata !79, i32 271, metadata !1070, i1 false, i1 false, i32 0, i32 0, null, i32 256, i1 false, null, null, i32 0, metadata !95, i32 271} ; [ DW_TAG_subprogram ]
!1070 = metadata !{i32 786453, i32 0, metadata !"", i32 0, i32 0, i64 0, i64 0, i64 0, i32 0, null, metadata !1071, i32 0, i32 0} ; [ DW_TAG_subroutine_type ]
!1071 = metadata !{null, metadata !1068, metadata !1011}
!1072 = metadata !{i32 786478, i32 0, metadata !741, metadata !"operator=", metadata !"operator=", metadata !"_ZN7ap_uintILi1EEaSERVKS0_", metadata !79, i32 275, metadata !1073, i1 false, i1 false, i32 0, i32 0, null, i32 256, i1 false, null, null, i32 0, metadata !95, i32 275} ; [ DW_TAG_subprogram ]
!1073 = metadata !{i32 786453, i32 0, metadata !"", i32 0, i32 0, i64 0, i64 0, i64 0, i32 0, null, metadata !1074, i32 0, i32 0} ; [ DW_TAG_subroutine_type ]
!1074 = metadata !{metadata !1075, metadata !1001, metadata !1011}
!1075 = metadata !{i32 786448, null, null, null, i32 0, i64 0, i64 0, i64 0, i32 0, metadata !741} ; [ DW_TAG_reference_type ]
!1076 = metadata !{i32 786478, i32 0, metadata !741, metadata !"operator=", metadata !"operator=", metadata !"_ZN7ap_uintILi1EEaSERKS0_", metadata !79, i32 280, metadata !1077, i1 false, i1 false, i32 0, i32 0, null, i32 256, i1 false, null, null, i32 0, metadata !95, i32 280} ; [ DW_TAG_subprogram ]
!1077 = metadata !{i32 786453, i32 0, metadata !"", i32 0, i32 0, i64 0, i64 0, i64 0, i32 0, null, metadata !1078, i32 0, i32 0} ; [ DW_TAG_subroutine_type ]
!1078 = metadata !{metadata !1075, metadata !1001, metadata !1005}
!1079 = metadata !{metadata !997}
!1080 = metadata !{i32 786478, i32 0, metadata !74, metadata !"rfnoc_axis", metadata !"rfnoc_axis", metadata !"", metadata !75, i32 28, metadata !1081, i1 false, i1 false, i32 0, i32 0, null, i32 320, i1 false, null, null, i32 0, metadata !95, i32 28} ; [ DW_TAG_subprogram ]
!1081 = metadata !{i32 786453, i32 0, metadata !"", i32 0, i32 0, i64 0, i64 0, i64 0, i32 0, null, metadata !1082, i32 0, i32 0} ; [ DW_TAG_subroutine_type ]
!1082 = metadata !{null, metadata !1083}
!1083 = metadata !{i32 786447, i32 0, metadata !"", i32 0, i32 0, i64 64, i64 64, i64 0, i32 64, metadata !74} ; [ DW_TAG_pointer_type ]
!1084 = metadata !{i32 786478, i32 0, metadata !69, metadata !"stream", metadata !"stream", metadata !"", metadata !71, i32 83, metadata !1085, i1 false, i1 false, i32 0, i32 0, null, i32 256, i1 false, null, null, i32 0, metadata !95, i32 83} ; [ DW_TAG_subprogram ]
!1085 = metadata !{i32 786453, i32 0, metadata !"", i32 0, i32 0, i64 0, i64 0, i64 0, i32 0, null, metadata !1086, i32 0, i32 0} ; [ DW_TAG_subroutine_type ]
!1086 = metadata !{null, metadata !1087}
!1087 = metadata !{i32 786447, i32 0, metadata !"", i32 0, i32 0, i64 64, i64 64, i64 0, i32 64, metadata !69} ; [ DW_TAG_pointer_type ]
!1088 = metadata !{i32 786478, i32 0, metadata !69, metadata !"stream", metadata !"stream", metadata !"", metadata !71, i32 86, metadata !1089, i1 false, i1 false, i32 0, i32 0, null, i32 256, i1 false, null, null, i32 0, metadata !95, i32 86} ; [ DW_TAG_subprogram ]
!1089 = metadata !{i32 786453, i32 0, metadata !"", i32 0, i32 0, i64 0, i64 0, i64 0, i32 0, null, metadata !1090, i32 0, i32 0} ; [ DW_TAG_subroutine_type ]
!1090 = metadata !{null, metadata !1087, metadata !180}
!1091 = metadata !{i32 786478, i32 0, metadata !69, metadata !"stream", metadata !"stream", metadata !"", metadata !71, i32 91, metadata !1092, i1 false, i1 false, i32 0, i32 0, null, i32 257, i1 false, null, null, i32 0, metadata !95, i32 91} ; [ DW_TAG_subprogram ]
!1092 = metadata !{i32 786453, i32 0, metadata !"", i32 0, i32 0, i64 0, i64 0, i64 0, i32 0, null, metadata !1093, i32 0, i32 0} ; [ DW_TAG_subroutine_type ]
!1093 = metadata !{null, metadata !1087, metadata !1094}
!1094 = metadata !{i32 786448, null, null, null, i32 0, i64 0, i64 0, i64 0, i32 0, metadata !1095} ; [ DW_TAG_reference_type ]
!1095 = metadata !{i32 786470, null, metadata !"", null, i32 0, i64 0, i64 0, i64 0, i32 0, metadata !69} ; [ DW_TAG_const_type ]
!1096 = metadata !{i32 786478, i32 0, metadata !69, metadata !"operator=", metadata !"operator=", metadata !"_ZN3hls6streamI10rfnoc_axisEaSERKS2_", metadata !71, i32 94, metadata !1097, i1 false, i1 false, i32 0, i32 0, null, i32 257, i1 false, null, null, i32 0, metadata !95, i32 94} ; [ DW_TAG_subprogram ]
!1097 = metadata !{i32 786453, i32 0, metadata !"", i32 0, i32 0, i64 0, i64 0, i64 0, i32 0, null, metadata !1098, i32 0, i32 0} ; [ DW_TAG_subroutine_type ]
!1098 = metadata !{metadata !1099, metadata !1087, metadata !1094}
!1099 = metadata !{i32 786448, null, null, null, i32 0, i64 0, i64 0, i64 0, i32 0, metadata !69} ; [ DW_TAG_reference_type ]
!1100 = metadata !{i32 786478, i32 0, metadata !69, metadata !"operator>>", metadata !"operator>>", metadata !"_ZN3hls6streamI10rfnoc_axisErsERS1_", metadata !71, i32 101, metadata !1101, i1 false, i1 false, i32 0, i32 0, null, i32 256, i1 false, null, null, i32 0, metadata !95, i32 101} ; [ DW_TAG_subprogram ]
!1101 = metadata !{i32 786453, i32 0, metadata !"", i32 0, i32 0, i64 0, i64 0, i64 0, i32 0, null, metadata !1102, i32 0, i32 0} ; [ DW_TAG_subroutine_type ]
!1102 = metadata !{null, metadata !1087, metadata !1103}
!1103 = metadata !{i32 786448, null, null, null, i32 0, i64 0, i64 0, i64 0, i32 0, metadata !74} ; [ DW_TAG_reference_type ]
!1104 = metadata !{i32 786478, i32 0, metadata !69, metadata !"operator<<", metadata !"operator<<", metadata !"_ZN3hls6streamI10rfnoc_axisElsERKS1_", metadata !71, i32 105, metadata !1105, i1 false, i1 false, i32 0, i32 0, null, i32 256, i1 false, null, null, i32 0, metadata !95, i32 105} ; [ DW_TAG_subprogram ]
!1105 = metadata !{i32 786453, i32 0, metadata !"", i32 0, i32 0, i64 0, i64 0, i64 0, i32 0, null, metadata !1106, i32 0, i32 0} ; [ DW_TAG_subroutine_type ]
!1106 = metadata !{null, metadata !1087, metadata !1107}
!1107 = metadata !{i32 786448, null, null, null, i32 0, i64 0, i64 0, i64 0, i32 0, metadata !1108} ; [ DW_TAG_reference_type ]
!1108 = metadata !{i32 786470, null, metadata !"", null, i32 0, i64 0, i64 0, i64 0, i32 0, metadata !74} ; [ DW_TAG_const_type ]
!1109 = metadata !{i32 786478, i32 0, metadata !69, metadata !"empty", metadata !"empty", metadata !"_ZNK3hls6streamI10rfnoc_axisE5emptyEv", metadata !71, i32 112, metadata !1110, i1 false, i1 false, i32 0, i32 0, null, i32 256, i1 false, null, null, i32 0, metadata !95, i32 112} ; [ DW_TAG_subprogram ]
!1110 = metadata !{i32 786453, i32 0, metadata !"", i32 0, i32 0, i64 0, i64 0, i64 0, i32 0, null, metadata !1111, i32 0, i32 0} ; [ DW_TAG_subroutine_type ]
!1111 = metadata !{metadata !101, metadata !1112}
!1112 = metadata !{i32 786447, i32 0, metadata !"", i32 0, i32 0, i64 64, i64 64, i64 0, i32 64, metadata !1095} ; [ DW_TAG_pointer_type ]
!1113 = metadata !{i32 786478, i32 0, metadata !69, metadata !"full", metadata !"full", metadata !"_ZNK3hls6streamI10rfnoc_axisE4fullEv", metadata !71, i32 117, metadata !1110, i1 false, i1 false, i32 0, i32 0, null, i32 256, i1 false, null, null, i32 0, metadata !95, i32 117} ; [ DW_TAG_subprogram ]
!1114 = metadata !{i32 786478, i32 0, metadata !69, metadata !"read", metadata !"read", metadata !"_ZN3hls6streamI10rfnoc_axisE4readERS1_", metadata !71, i32 123, metadata !1101, i1 false, i1 false, i32 0, i32 0, null, i32 256, i1 false, null, null, i32 0, metadata !95, i32 123} ; [ DW_TAG_subprogram ]
!1115 = metadata !{i32 786478, i32 0, metadata !69, metadata !"read", metadata !"read", metadata !"_ZN3hls6streamI10rfnoc_axisE4readEv", metadata !71, i32 129, metadata !1116, i1 false, i1 false, i32 0, i32 0, null, i32 256, i1 false, null, null, i32 0, metadata !95, i32 129} ; [ DW_TAG_subprogram ]
!1116 = metadata !{i32 786453, i32 0, metadata !"", i32 0, i32 0, i64 0, i64 0, i64 0, i32 0, null, metadata !1117, i32 0, i32 0} ; [ DW_TAG_subroutine_type ]
!1117 = metadata !{metadata !74, metadata !1087}
!1118 = metadata !{i32 786478, i32 0, metadata !69, metadata !"read_nb", metadata !"read_nb", metadata !"_ZN3hls6streamI10rfnoc_axisE7read_nbERS1_", metadata !71, i32 136, metadata !1119, i1 false, i1 false, i32 0, i32 0, null, i32 256, i1 false, null, null, i32 0, metadata !95, i32 136} ; [ DW_TAG_subprogram ]
!1119 = metadata !{i32 786453, i32 0, metadata !"", i32 0, i32 0, i64 0, i64 0, i64 0, i32 0, null, metadata !1120, i32 0, i32 0} ; [ DW_TAG_subroutine_type ]
!1120 = metadata !{metadata !101, metadata !1087, metadata !1103}
!1121 = metadata !{i32 786478, i32 0, metadata !69, metadata !"write", metadata !"write", metadata !"_ZN3hls6streamI10rfnoc_axisE5writeERKS1_", metadata !71, i32 144, metadata !1105, i1 false, i1 false, i32 0, i32 0, null, i32 256, i1 false, null, null, i32 0, metadata !95, i32 144} ; [ DW_TAG_subprogram ]
!1122 = metadata !{i32 786478, i32 0, metadata !69, metadata !"write_nb", metadata !"write_nb", metadata !"_ZN3hls6streamI10rfnoc_axisE8write_nbERKS1_", metadata !71, i32 150, metadata !1123, i1 false, i1 false, i32 0, i32 0, null, i32 256, i1 false, null, null, i32 0, metadata !95, i32 150} ; [ DW_TAG_subprogram ]
!1123 = metadata !{i32 786453, i32 0, metadata !"", i32 0, i32 0, i64 0, i64 0, i64 0, i32 0, null, metadata !1124, i32 0, i32 0} ; [ DW_TAG_subroutine_type ]
!1124 = metadata !{metadata !101, metadata !1087, metadata !1107}
!1125 = metadata !{i32 786478, i32 0, metadata !69, metadata !"size", metadata !"size", metadata !"_ZN3hls6streamI10rfnoc_axisE4sizeEv", metadata !71, i32 157, metadata !1126, i1 false, i1 false, i32 0, i32 0, null, i32 256, i1 false, null, null, i32 0, metadata !95, i32 157} ; [ DW_TAG_subprogram ]
!1126 = metadata !{i32 786453, i32 0, metadata !"", i32 0, i32 0, i64 0, i64 0, i64 0, i32 0, null, metadata !1127, i32 0, i32 0} ; [ DW_TAG_subroutine_type ]
!1127 = metadata !{metadata !145, metadata !1087}
!1128 = metadata !{metadata !1129}
!1129 = metadata !{i32 786479, null, metadata !"__STREAM_T__", metadata !74, null, i32 0, i32 0} ; [ DW_TAG_template_type_parameter ]
!1130 = metadata !{i32 786438, metadata !70, metadata !"stream<rfnoc_axis>", metadata !71, i32 79, i64 32, i64 32, i32 0, i32 0, null, metadata !1131, i32 0, null, metadata !1128} ; [ DW_TAG_class_field_type ]
!1131 = metadata !{metadata !1132}
!1132 = metadata !{i32 786438, null, metadata !"rfnoc_axis", metadata !75, i32 28, i64 32, i64 32, i32 0, i32 0, null, metadata !1133, i32 0, null, null} ; [ DW_TAG_class_field_type ]
!1133 = metadata !{metadata !1134}
!1134 = metadata !{i32 786438, null, metadata !"ap_int<32>", metadata !79, i32 74, i64 32, i64 32, i32 0, i32 0, null, metadata !1135, i32 0, null, metadata !739} ; [ DW_TAG_class_field_type ]
!1135 = metadata !{metadata !1136}
!1136 = metadata !{i32 786438, null, metadata !"ap_int_base<32, true, true>", metadata !83, i32 1453, i64 32, i64 32, i32 0, i32 0, null, metadata !1137, i32 0, null, metadata !656} ; [ DW_TAG_class_field_type ]
!1137 = metadata !{metadata !1138}
!1138 = metadata !{i32 786438, null, metadata !"ssdm_int<32 + 1024 * 0, true>", metadata !87, i32 34, i64 32, i64 32, i32 0, i32 0, null, metadata !1139, i32 0, null, metadata !97} ; [ DW_TAG_class_field_type ]
!1139 = metadata !{metadata !89}
!1140 = metadata !{i32 28, i32 39, metadata !65, null}
!1141 = metadata !{i32 790531, metadata !64, metadata !"i_data.V.last.V", null, i32 28, metadata !1142, i32 0, i32 0} ; [ DW_TAG_arg_variable_field ]
!1142 = metadata !{i32 786438, metadata !70, metadata !"stream<rfnoc_axis>", metadata !71, i32 79, i64 1, i64 32, i32 0, i32 0, null, metadata !1143, i32 0, null, metadata !1128} ; [ DW_TAG_class_field_type ]
!1143 = metadata !{metadata !1144}
!1144 = metadata !{i32 786438, null, metadata !"rfnoc_axis", metadata !75, i32 28, i64 1, i64 32, i32 0, i32 0, null, metadata !1145, i32 0, null, null} ; [ DW_TAG_class_field_type ]
!1145 = metadata !{metadata !1146}
!1146 = metadata !{i32 786438, null, metadata !"ap_uint<1>", metadata !79, i32 183, i64 1, i64 8, i32 0, i32 0, null, metadata !1147, i32 0, null, metadata !1079} ; [ DW_TAG_class_field_type ]
!1147 = metadata !{metadata !1148}
!1148 = metadata !{i32 786438, null, metadata !"ap_int_base<1, false, true>", metadata !83, i32 1453, i64 1, i64 8, i32 0, i32 0, null, metadata !1149, i32 0, null, metadata !996} ; [ DW_TAG_class_field_type ]
!1149 = metadata !{metadata !1150}
!1150 = metadata !{i32 786438, null, metadata !"ssdm_int<1 + 1024 * 0, false>", metadata !87, i32 3, i64 1, i64 8, i32 0, i32 0, null, metadata !1151, i32 0, null, metadata !755} ; [ DW_TAG_class_field_type ]
!1151 = metadata !{metadata !749}
!1152 = metadata !{i32 790531, metadata !1153, metadata !"o_data.V.data.V", null, i32 28, metadata !1130, i32 0, i32 0} ; [ DW_TAG_arg_variable_field ]
!1153 = metadata !{i32 786689, metadata !65, metadata !"o_data", metadata !66, i32 33554460, metadata !1099, i32 0, i32 0} ; [ DW_TAG_arg_variable ]
!1154 = metadata !{i32 28, i32 71, metadata !65, null}
!1155 = metadata !{i32 790531, metadata !1153, metadata !"o_data.V.last.V", null, i32 28, metadata !1142, i32 0, i32 0} ; [ DW_TAG_arg_variable_field ]
!1156 = metadata !{i32 35, i32 1, metadata !1157, null}
!1157 = metadata !{i32 786443, metadata !65, i32 29, i32 1, metadata !66, i32 0} ; [ DW_TAG_lexical_block ]
!1158 = metadata !{i32 37, i32 1, metadata !1157, null}
!1159 = metadata !{i32 38, i32 1, metadata !1157, null}
!1160 = metadata !{i32 39, i32 1, metadata !1157, null}
!1161 = metadata !{i32 40, i32 1, metadata !1157, null}
!1162 = metadata !{i32 42, i32 1, metadata !1157, null}
!1163 = metadata !{i32 45, i32 1, metadata !1157, null}
!1164 = metadata !{i32 50, i32 1, metadata !1157, null}
!1165 = metadata !{i32 52, i32 1, metadata !1157, null}
!1166 = metadata !{i32 62, i32 1, metadata !1157, null}
!1167 = metadata !{i32 66, i32 1, metadata !1157, null}
!1168 = metadata !{i32 69, i32 2, metadata !1157, null}
!1169 = metadata !{i32 71, i32 12, metadata !1170, null}
!1170 = metadata !{i32 786443, metadata !1157, i32 69, i32 23, metadata !66, i32 1} ; [ DW_TAG_lexical_block ]
!1171 = metadata !{i32 72, i32 10, metadata !1172, null}
!1172 = metadata !{i32 786443, metadata !1170, i32 71, i32 18, metadata !66, i32 2} ; [ DW_TAG_lexical_block ]
!1173 = metadata !{i32 74, i32 9, metadata !1172, null}
!1174 = metadata !{i32 75, i32 9, metadata !1170, null}
!1175 = metadata !{i32 790531, metadata !1176, metadata !"stream<rfnoc_axis>.V.data.V", null, i32 123, metadata !1179, i32 0, i32 0} ; [ DW_TAG_arg_variable_field ]
!1176 = metadata !{i32 786689, metadata !1177, metadata !"this", metadata !71, i32 16777339, metadata !1178, i32 64, i32 0} ; [ DW_TAG_arg_variable ]
!1177 = metadata !{i32 786478, i32 0, metadata !70, metadata !"read", metadata !"read", metadata !"_ZN3hls6streamI10rfnoc_axisE4readERS1_", metadata !71, i32 123, metadata !1101, i1 false, i1 true, i32 0, i32 0, null, i32 256, i1 false, null, null, metadata !1114, metadata !95, i32 123} ; [ DW_TAG_subprogram ]
!1178 = metadata !{i32 786447, null, metadata !"", null, i32 0, i64 64, i64 64, i64 0, i32 0, metadata !69} ; [ DW_TAG_pointer_type ]
!1179 = metadata !{i32 786447, null, metadata !"", null, i32 0, i64 64, i64 64, i64 0, i32 0, metadata !1130} ; [ DW_TAG_pointer_type ]
!1180 = metadata !{i32 123, i32 48, metadata !1177, metadata !1181}
!1181 = metadata !{i32 77, i32 6, metadata !1170, null}
!1182 = metadata !{i32 790531, metadata !1176, metadata !"stream<rfnoc_axis>.V.last.V", null, i32 123, metadata !1183, i32 0, i32 0} ; [ DW_TAG_arg_variable_field ]
!1183 = metadata !{i32 786447, null, metadata !"", null, i32 0, i64 64, i64 64, i64 0, i32 0, metadata !1142} ; [ DW_TAG_pointer_type ]
!1184 = metadata !{i32 125, i32 9, metadata !1185, metadata !1181}
!1185 = metadata !{i32 786443, metadata !1177, i32 123, i32 73, metadata !71, i32 6} ; [ DW_TAG_lexical_block ]
!1186 = metadata !{i32 790529, metadata !1187, metadata !"tmp.data.V", null, i32 124, metadata !1132, i32 0, i32 0} ; [ DW_TAG_auto_variable_field ]
!1187 = metadata !{i32 786688, metadata !1185, metadata !"tmp", metadata !71, i32 124, metadata !74, i32 0, i32 0} ; [ DW_TAG_auto_variable ]
!1188 = metadata !{i32 790529, metadata !1187, metadata !"tmp.last.V", null, i32 124, metadata !1144, i32 0, i32 0} ; [ DW_TAG_auto_variable_field ]
!1189 = metadata !{i32 790529, metadata !1190, metadata !"out_sample.data.V", null, i32 47, metadata !1132, i32 0, i32 0} ; [ DW_TAG_auto_variable_field ]
!1190 = metadata !{i32 786688, metadata !1157, metadata !"out_sample", metadata !66, i32 47, metadata !74, i32 0, i32 0} ; [ DW_TAG_auto_variable ]
!1191 = metadata !{i32 174, i32 5, metadata !1192, metadata !1194}
!1192 = metadata !{i32 786443, metadata !1193, i32 173, i32 87, metadata !79, i32 5} ; [ DW_TAG_lexical_block ]
!1193 = metadata !{i32 786478, i32 0, null, metadata !"operator=", metadata !"operator=", metadata !"_ZN6ap_intILi32EEaSERKS0_", metadata !79, i32 173, metadata !737, i1 false, i1 true, i32 0, i32 0, null, i32 256, i1 false, null, null, metadata !736, metadata !95, i32 173} ; [ DW_TAG_subprogram ]
!1194 = metadata !{i32 80, i32 6, metadata !1170, null}
!1195 = metadata !{i32 790529, metadata !1190, metadata !"out_sample.last.V", null, i32 47, metadata !1144, i32 0, i32 0} ; [ DW_TAG_auto_variable_field ]
!1196 = metadata !{i32 281, i32 5, metadata !1197, metadata !1199}
!1197 = metadata !{i32 786443, metadata !1198, i32 280, i32 89, metadata !79, i32 4} ; [ DW_TAG_lexical_block ]
!1198 = metadata !{i32 786478, i32 0, null, metadata !"operator=", metadata !"operator=", metadata !"_ZN7ap_uintILi1EEaSERKS0_", metadata !79, i32 280, metadata !1077, i1 false, i1 true, i32 0, i32 0, null, i32 256, i1 false, null, null, metadata !1076, metadata !95, i32 280} ; [ DW_TAG_subprogram ]
!1199 = metadata !{i32 81, i32 6, metadata !1170, null}
!1200 = metadata !{i32 790531, metadata !1201, metadata !"stream<rfnoc_axis>.V.data.V", null, i32 144, metadata !1179, i32 0, i32 0} ; [ DW_TAG_arg_variable_field ]
!1201 = metadata !{i32 786689, metadata !1202, metadata !"this", metadata !71, i32 16777360, metadata !1178, i32 64, i32 0} ; [ DW_TAG_arg_variable ]
!1202 = metadata !{i32 786478, i32 0, metadata !70, metadata !"write", metadata !"write", metadata !"_ZN3hls6streamI10rfnoc_axisE5writeERKS1_", metadata !71, i32 144, metadata !1105, i1 false, i1 true, i32 0, i32 0, null, i32 256, i1 false, null, null, metadata !1121, metadata !95, i32 144} ; [ DW_TAG_subprogram ]
!1203 = metadata !{i32 144, i32 48, metadata !1202, metadata !1204}
!1204 = metadata !{i32 83, i32 6, metadata !1170, null}
!1205 = metadata !{i32 790531, metadata !1201, metadata !"stream<rfnoc_axis>.V.last.V", null, i32 144, metadata !1183, i32 0, i32 0} ; [ DW_TAG_arg_variable_field ]
!1206 = metadata !{i32 790529, metadata !1207, metadata !"tmp.data.V", null, i32 145, metadata !1132, i32 0, i32 0} ; [ DW_TAG_auto_variable_field ]
!1207 = metadata !{i32 786688, metadata !1208, metadata !"tmp", metadata !71, i32 145, metadata !74, i32 0, i32 0} ; [ DW_TAG_auto_variable ]
!1208 = metadata !{i32 786443, metadata !1202, i32 144, i32 79, metadata !71, i32 3} ; [ DW_TAG_lexical_block ]
!1209 = metadata !{i32 145, i32 31, metadata !1208, metadata !1204}
!1210 = metadata !{i32 790529, metadata !1207, metadata !"tmp.last.V", null, i32 145, metadata !1144, i32 0, i32 0} ; [ DW_TAG_auto_variable_field ]
!1211 = metadata !{i32 146, i32 9, metadata !1208, metadata !1204}
!1212 = metadata !{i32 84, i32 2, metadata !1170, null}
!1213 = metadata !{i32 87, i32 1, metadata !1157, null}
